
RISCV_Test_Benchmark.elf:     file format elf32-littleriscv

Sections:
Idx Name          Size      VMA       LMA       File off  Algn
  0 .text         0001df20  00000000  00000000  00001000  2**3
                  CONTENTS, ALLOC, LOAD, READONLY, CODE
  2 .rodata.str1.4 00000d1c  0001dfb0  0001dfb0  0001efb0  2**2
                  CONTENTS, ALLOC, LOAD, READONLY, DATA

Disassembly of section .text:

00000000 <_start>:
       0:	0d51d0ef          	jal	ra,1d8d4 <init>
       4:	00100073          	ebreak

00000008 <initReg>:
       8:	00004137          	lui	sp,0x4
       c:	000011b7          	lui	gp,0x1
      10:	00000213          	li	tp,0
      14:	00000293          	li	t0,0
      18:	00000313          	li	t1,0
      1c:	00000393          	li	t2,0
      20:	00000413          	li	s0,0
      24:	00000493          	li	s1,0
      28:	00000513          	li	a0,0
      2c:	00000593          	li	a1,0
      30:	00000613          	li	a2,0
      34:	00000693          	li	a3,0
      38:	00000713          	li	a4,0
      3c:	00000793          	li	a5,0
      40:	00000813          	li	a6,0
      44:	00000893          	li	a7,0
      48:	00000913          	li	s2,0
      4c:	00000993          	li	s3,0
      50:	00000a13          	li	s4,0
      54:	00000a93          	li	s5,0
      58:	00000b13          	li	s6,0
      5c:	00000b93          	li	s7,0
      60:	00000c13          	li	s8,0
      64:	00000c93          	li	s9,0
      68:	00000d13          	li	s10,0
      6c:	00000d93          	li	s11,0
      70:	00000e13          	li	t3,0
      74:	00000e93          	li	t4,0
      78:	00000f13          	li	t5,0
      7c:	00000f93          	li	t6,0
      80:	00008067          	ret

00000084 <isaTest>:
      84:	02d1d0ef          	jal	ra,1d8b0 <risvISATestStartMsg>
      88:	f81ff0ef          	jal	ra,8 <initReg>
      8c:	77d0f0ef          	jal	ra,10008 <add>

00000090 <isaTestEnd>:
      90:	f79ff0ef          	jal	ra,8 <initReg>
      94:	0411d0ef          	jal	ra,1d8d4 <init>

00000098 <dhrystoneBenchmark>:
      98:	0251d0ef          	jal	ra,1d8bc <risvDhrystoneStartMsg>
      9c:	f6dff0ef          	jal	ra,8 <initReg>
      a0:	09d1a0ef          	jal	ra,1a93c <DHRYSTONE>
      a4:	0311d0ef          	jal	ra,1d8d4 <init>

000000a8 <coremarkBenchmark>:
      a8:	0211d0ef          	jal	ra,1d8c8 <risvCoremarkStartMsg>
      ac:	f5dff0ef          	jal	ra,8 <initReg>
      b0:	27d1b0ef          	jal	ra,1bb2c <COREMARK>
      b4:	0211d0ef          	jal	ra,1d8d4 <init>
	...

00010000 <.test_name>:
   10000:	6461                	lui	s0,0x18
   10002:	2064                	fld	fs1,192(s0)
   10004:	0009                	c.addi	zero,2
	...

00010008 <add>:
   10008:	00010537          	lui	a0,0x10
   1000c:	00050513          	mv	a0,a0

00010010 <.prname_next>:
   10010:	00004137          	lui	sp,0x4
   10014:	18d0d0ef          	jal	ra,1d9a0 <printf_s>

00010018 <test_2>:
   10018:	00000093          	li	ra,0
   1001c:	00000113          	li	sp,0
   10020:	002081b3          	add	gp,ra,sp
   10024:	00000e93          	li	t4,0
   10028:	00200e13          	li	t3,2
   1002c:	4dd19663          	bne	gp,t4,104f8 <fail>

00010030 <test_3>:
   10030:	00100093          	li	ra,1
   10034:	00100113          	li	sp,1
   10038:	002081b3          	add	gp,ra,sp
   1003c:	00200e93          	li	t4,2
   10040:	00300e13          	li	t3,3
   10044:	4bd19a63          	bne	gp,t4,104f8 <fail>

00010048 <test_4>:
   10048:	00300093          	li	ra,3
   1004c:	00700113          	li	sp,7
   10050:	002081b3          	add	gp,ra,sp
   10054:	00a00e93          	li	t4,10
   10058:	00400e13          	li	t3,4
   1005c:	49d19e63          	bne	gp,t4,104f8 <fail>

00010060 <test_5>:
   10060:	00000093          	li	ra,0
   10064:	ffff8137          	lui	sp,0xffff8
   10068:	002081b3          	add	gp,ra,sp
   1006c:	ffff8eb7          	lui	t4,0xffff8
   10070:	00500e13          	li	t3,5
   10074:	49d19263          	bne	gp,t4,104f8 <fail>

00010078 <test_6>:
   10078:	800000b7          	lui	ra,0x80000
   1007c:	00000113          	li	sp,0
   10080:	002081b3          	add	gp,ra,sp
   10084:	80000eb7          	lui	t4,0x80000
   10088:	00600e13          	li	t3,6
   1008c:	47d19663          	bne	gp,t4,104f8 <fail>

00010090 <test_7>:
   10090:	800000b7          	lui	ra,0x80000
   10094:	ffff8137          	lui	sp,0xffff8
   10098:	002081b3          	add	gp,ra,sp
   1009c:	7fff8eb7          	lui	t4,0x7fff8
   100a0:	00700e13          	li	t3,7
   100a4:	45d19a63          	bne	gp,t4,104f8 <fail>

000100a8 <test_8>:
   100a8:	00000093          	li	ra,0
   100ac:	00008137          	lui	sp,0x8
   100b0:	fff10113          	addi	sp,sp,-1 # 7fff <coremarkBenchmark+0x7f57>
   100b4:	002081b3          	add	gp,ra,sp
   100b8:	00008eb7          	lui	t4,0x8
   100bc:	fffe8e93          	addi	t4,t4,-1 # 7fff <coremarkBenchmark+0x7f57>
   100c0:	00800e13          	li	t3,8
   100c4:	43d19a63          	bne	gp,t4,104f8 <fail>

000100c8 <test_9>:
   100c8:	800000b7          	lui	ra,0x80000
   100cc:	fff08093          	addi	ra,ra,-1 # 7fffffff <heap_memory_used+0x7ffde227>
   100d0:	00000113          	li	sp,0
   100d4:	002081b3          	add	gp,ra,sp
   100d8:	80000eb7          	lui	t4,0x80000
   100dc:	fffe8e93          	addi	t4,t4,-1 # 7fffffff <heap_memory_used+0x7ffde227>
   100e0:	00900e13          	li	t3,9
   100e4:	41d19a63          	bne	gp,t4,104f8 <fail>

000100e8 <test_10>:
   100e8:	800000b7          	lui	ra,0x80000
   100ec:	fff08093          	addi	ra,ra,-1 # 7fffffff <heap_memory_used+0x7ffde227>
   100f0:	00008137          	lui	sp,0x8
   100f4:	fff10113          	addi	sp,sp,-1 # 7fff <coremarkBenchmark+0x7f57>
   100f8:	002081b3          	add	gp,ra,sp
   100fc:	80008eb7          	lui	t4,0x80008
   10100:	ffee8e93          	addi	t4,t4,-2 # 80007ffe <heap_memory_used+0x7ffe6226>
   10104:	00a00e13          	li	t3,10
   10108:	3fd19863          	bne	gp,t4,104f8 <fail>

0001010c <test_11>:
   1010c:	800000b7          	lui	ra,0x80000
   10110:	00008137          	lui	sp,0x8
   10114:	fff10113          	addi	sp,sp,-1 # 7fff <coremarkBenchmark+0x7f57>
   10118:	002081b3          	add	gp,ra,sp
   1011c:	80008eb7          	lui	t4,0x80008
   10120:	fffe8e93          	addi	t4,t4,-1 # 80007fff <heap_memory_used+0x7ffe6227>
   10124:	00b00e13          	li	t3,11
   10128:	3dd19863          	bne	gp,t4,104f8 <fail>

0001012c <test_12>:
   1012c:	800000b7          	lui	ra,0x80000
   10130:	fff08093          	addi	ra,ra,-1 # 7fffffff <heap_memory_used+0x7ffde227>
   10134:	ffff8137          	lui	sp,0xffff8
   10138:	002081b3          	add	gp,ra,sp
   1013c:	7fff8eb7          	lui	t4,0x7fff8
   10140:	fffe8e93          	addi	t4,t4,-1 # 7fff7fff <heap_memory_used+0x7ffd6227>
   10144:	00c00e13          	li	t3,12
   10148:	3bd19863          	bne	gp,t4,104f8 <fail>

0001014c <test_13>:
   1014c:	00000093          	li	ra,0
   10150:	fff00113          	li	sp,-1
   10154:	002081b3          	add	gp,ra,sp
   10158:	fff00e93          	li	t4,-1
   1015c:	00d00e13          	li	t3,13
   10160:	39d19c63          	bne	gp,t4,104f8 <fail>

00010164 <test_14>:
   10164:	fff00093          	li	ra,-1
   10168:	00100113          	li	sp,1
   1016c:	002081b3          	add	gp,ra,sp
   10170:	00000e93          	li	t4,0
   10174:	00e00e13          	li	t3,14
   10178:	39d19063          	bne	gp,t4,104f8 <fail>

0001017c <test_15>:
   1017c:	fff00093          	li	ra,-1
   10180:	fff00113          	li	sp,-1
   10184:	002081b3          	add	gp,ra,sp
   10188:	ffe00e93          	li	t4,-2
   1018c:	00f00e13          	li	t3,15
   10190:	37d19463          	bne	gp,t4,104f8 <fail>

00010194 <test_16>:
   10194:	00100093          	li	ra,1
   10198:	80000137          	lui	sp,0x80000
   1019c:	fff10113          	addi	sp,sp,-1 # 7fffffff <heap_memory_used+0x7ffde227>
   101a0:	002081b3          	add	gp,ra,sp
   101a4:	80000eb7          	lui	t4,0x80000
   101a8:	01000e13          	li	t3,16
   101ac:	35d19663          	bne	gp,t4,104f8 <fail>

000101b0 <test_17>:
   101b0:	00d00093          	li	ra,13
   101b4:	00b00113          	li	sp,11
   101b8:	002080b3          	add	ra,ra,sp
   101bc:	01800e93          	li	t4,24
   101c0:	01100e13          	li	t3,17
   101c4:	33d09a63          	bne	ra,t4,104f8 <fail>

000101c8 <test_18>:
   101c8:	00e00093          	li	ra,14
   101cc:	00b00113          	li	sp,11
   101d0:	00208133          	add	sp,ra,sp
   101d4:	01900e93          	li	t4,25
   101d8:	01200e13          	li	t3,18
   101dc:	31d11e63          	bne	sp,t4,104f8 <fail>

000101e0 <test_19>:
   101e0:	00d00093          	li	ra,13
   101e4:	001080b3          	add	ra,ra,ra
   101e8:	01a00e93          	li	t4,26
   101ec:	01300e13          	li	t3,19
   101f0:	31d09463          	bne	ra,t4,104f8 <fail>

000101f4 <test_20>:
   101f4:	00000213          	li	tp,0
   101f8:	00d00093          	li	ra,13
   101fc:	00b00113          	li	sp,11
   10200:	002081b3          	add	gp,ra,sp
   10204:	00018313          	mv	t1,gp
   10208:	00120213          	addi	tp,tp,1 # 1 <_start+0x1>
   1020c:	00200293          	li	t0,2
   10210:	fe5214e3          	bne	tp,t0,101f8 <test_20+0x4>
   10214:	01800e93          	li	t4,24
   10218:	01400e13          	li	t3,20
   1021c:	2dd31e63          	bne	t1,t4,104f8 <fail>

00010220 <test_21>:
   10220:	00000213          	li	tp,0
   10224:	00e00093          	li	ra,14
   10228:	00b00113          	li	sp,11
   1022c:	002081b3          	add	gp,ra,sp
   10230:	00000013          	nop
   10234:	00018313          	mv	t1,gp
   10238:	00120213          	addi	tp,tp,1 # 1 <_start+0x1>
   1023c:	00200293          	li	t0,2
   10240:	fe5212e3          	bne	tp,t0,10224 <test_21+0x4>
   10244:	01900e93          	li	t4,25
   10248:	01500e13          	li	t3,21
   1024c:	2bd31663          	bne	t1,t4,104f8 <fail>

00010250 <test_22>:
   10250:	00000213          	li	tp,0
   10254:	00f00093          	li	ra,15
   10258:	00b00113          	li	sp,11
   1025c:	002081b3          	add	gp,ra,sp
   10260:	00000013          	nop
   10264:	00000013          	nop
   10268:	00018313          	mv	t1,gp
   1026c:	00120213          	addi	tp,tp,1 # 1 <_start+0x1>
   10270:	00200293          	li	t0,2
   10274:	fe5210e3          	bne	tp,t0,10254 <test_22+0x4>
   10278:	01a00e93          	li	t4,26
   1027c:	01600e13          	li	t3,22
   10280:	27d31c63          	bne	t1,t4,104f8 <fail>

00010284 <test_23>:
   10284:	00000213          	li	tp,0
   10288:	00d00093          	li	ra,13
   1028c:	00b00113          	li	sp,11
   10290:	002081b3          	add	gp,ra,sp
   10294:	00120213          	addi	tp,tp,1 # 1 <_start+0x1>
   10298:	00200293          	li	t0,2
   1029c:	fe5216e3          	bne	tp,t0,10288 <test_23+0x4>
   102a0:	01800e93          	li	t4,24
   102a4:	01700e13          	li	t3,23
   102a8:	25d19863          	bne	gp,t4,104f8 <fail>

000102ac <test_24>:
   102ac:	00000213          	li	tp,0
   102b0:	00e00093          	li	ra,14
   102b4:	00b00113          	li	sp,11
   102b8:	00000013          	nop
   102bc:	002081b3          	add	gp,ra,sp
   102c0:	00120213          	addi	tp,tp,1 # 1 <_start+0x1>
   102c4:	00200293          	li	t0,2
   102c8:	fe5214e3          	bne	tp,t0,102b0 <test_24+0x4>
   102cc:	01900e93          	li	t4,25
   102d0:	01800e13          	li	t3,24
   102d4:	23d19263          	bne	gp,t4,104f8 <fail>

000102d8 <test_25>:
   102d8:	00000213          	li	tp,0
   102dc:	00f00093          	li	ra,15
   102e0:	00b00113          	li	sp,11
   102e4:	00000013          	nop
   102e8:	00000013          	nop
   102ec:	002081b3          	add	gp,ra,sp
   102f0:	00120213          	addi	tp,tp,1 # 1 <_start+0x1>
   102f4:	00200293          	li	t0,2
   102f8:	fe5212e3          	bne	tp,t0,102dc <test_25+0x4>
   102fc:	01a00e93          	li	t4,26
   10300:	01900e13          	li	t3,25
   10304:	1fd19a63          	bne	gp,t4,104f8 <fail>

00010308 <test_26>:
   10308:	00000213          	li	tp,0
   1030c:	00d00093          	li	ra,13
   10310:	00000013          	nop
   10314:	00b00113          	li	sp,11
   10318:	002081b3          	add	gp,ra,sp
   1031c:	00120213          	addi	tp,tp,1 # 1 <_start+0x1>
   10320:	00200293          	li	t0,2
   10324:	fe5214e3          	bne	tp,t0,1030c <test_26+0x4>
   10328:	01800e93          	li	t4,24
   1032c:	01a00e13          	li	t3,26
   10330:	1dd19463          	bne	gp,t4,104f8 <fail>

00010334 <test_27>:
   10334:	00000213          	li	tp,0
   10338:	00e00093          	li	ra,14
   1033c:	00000013          	nop
   10340:	00b00113          	li	sp,11
   10344:	00000013          	nop
   10348:	002081b3          	add	gp,ra,sp
   1034c:	00120213          	addi	tp,tp,1 # 1 <_start+0x1>
   10350:	00200293          	li	t0,2
   10354:	fe5212e3          	bne	tp,t0,10338 <test_27+0x4>
   10358:	01900e93          	li	t4,25
   1035c:	01b00e13          	li	t3,27
   10360:	19d19c63          	bne	gp,t4,104f8 <fail>

00010364 <test_28>:
   10364:	00000213          	li	tp,0
   10368:	00f00093          	li	ra,15
   1036c:	00000013          	nop
   10370:	00000013          	nop
   10374:	00b00113          	li	sp,11
   10378:	002081b3          	add	gp,ra,sp
   1037c:	00120213          	addi	tp,tp,1 # 1 <_start+0x1>
   10380:	00200293          	li	t0,2
   10384:	fe5212e3          	bne	tp,t0,10368 <test_28+0x4>
   10388:	01a00e93          	li	t4,26
   1038c:	01c00e13          	li	t3,28
   10390:	17d19463          	bne	gp,t4,104f8 <fail>

00010394 <test_29>:
   10394:	00000213          	li	tp,0
   10398:	00b00113          	li	sp,11
   1039c:	00d00093          	li	ra,13
   103a0:	002081b3          	add	gp,ra,sp
   103a4:	00120213          	addi	tp,tp,1 # 1 <_start+0x1>
   103a8:	00200293          	li	t0,2
   103ac:	fe5216e3          	bne	tp,t0,10398 <test_29+0x4>
   103b0:	01800e93          	li	t4,24
   103b4:	01d00e13          	li	t3,29
   103b8:	15d19063          	bne	gp,t4,104f8 <fail>

000103bc <test_30>:
   103bc:	00000213          	li	tp,0
   103c0:	00b00113          	li	sp,11
   103c4:	00e00093          	li	ra,14
   103c8:	00000013          	nop
   103cc:	002081b3          	add	gp,ra,sp
   103d0:	00120213          	addi	tp,tp,1 # 1 <_start+0x1>
   103d4:	00200293          	li	t0,2
   103d8:	fe5214e3          	bne	tp,t0,103c0 <test_30+0x4>
   103dc:	01900e93          	li	t4,25
   103e0:	01e00e13          	li	t3,30
   103e4:	11d19a63          	bne	gp,t4,104f8 <fail>

000103e8 <test_31>:
   103e8:	00000213          	li	tp,0
   103ec:	00b00113          	li	sp,11
   103f0:	00f00093          	li	ra,15
   103f4:	00000013          	nop
   103f8:	00000013          	nop
   103fc:	002081b3          	add	gp,ra,sp
   10400:	00120213          	addi	tp,tp,1 # 1 <_start+0x1>
   10404:	00200293          	li	t0,2
   10408:	fe5212e3          	bne	tp,t0,103ec <test_31+0x4>
   1040c:	01a00e93          	li	t4,26
   10410:	01f00e13          	li	t3,31
   10414:	0fd19263          	bne	gp,t4,104f8 <fail>

00010418 <test_32>:
   10418:	00000213          	li	tp,0
   1041c:	00b00113          	li	sp,11
   10420:	00000013          	nop
   10424:	00d00093          	li	ra,13
   10428:	002081b3          	add	gp,ra,sp
   1042c:	00120213          	addi	tp,tp,1 # 1 <_start+0x1>
   10430:	00200293          	li	t0,2
   10434:	fe5214e3          	bne	tp,t0,1041c <test_32+0x4>
   10438:	01800e93          	li	t4,24
   1043c:	02000e13          	li	t3,32
   10440:	0bd19c63          	bne	gp,t4,104f8 <fail>

00010444 <test_33>:
   10444:	00000213          	li	tp,0
   10448:	00b00113          	li	sp,11
   1044c:	00000013          	nop
   10450:	00e00093          	li	ra,14
   10454:	00000013          	nop
   10458:	002081b3          	add	gp,ra,sp
   1045c:	00120213          	addi	tp,tp,1 # 1 <_start+0x1>
   10460:	00200293          	li	t0,2
   10464:	fe5212e3          	bne	tp,t0,10448 <test_33+0x4>
   10468:	01900e93          	li	t4,25
   1046c:	02100e13          	li	t3,33
   10470:	09d19463          	bne	gp,t4,104f8 <fail>

00010474 <test_34>:
   10474:	00000213          	li	tp,0
   10478:	00b00113          	li	sp,11
   1047c:	00000013          	nop
   10480:	00000013          	nop
   10484:	00f00093          	li	ra,15
   10488:	002081b3          	add	gp,ra,sp
   1048c:	00120213          	addi	tp,tp,1 # 1 <_start+0x1>
   10490:	00200293          	li	t0,2
   10494:	fe5212e3          	bne	tp,t0,10478 <test_34+0x4>
   10498:	01a00e93          	li	t4,26
   1049c:	02200e13          	li	t3,34
   104a0:	05d19c63          	bne	gp,t4,104f8 <fail>

000104a4 <test_35>:
   104a4:	00f00093          	li	ra,15
   104a8:	00100133          	add	sp,zero,ra
   104ac:	00f00e93          	li	t4,15
   104b0:	02300e13          	li	t3,35
   104b4:	05d11263          	bne	sp,t4,104f8 <fail>

000104b8 <test_36>:
   104b8:	02000093          	li	ra,32
   104bc:	00008133          	add	sp,ra,zero
   104c0:	02000e93          	li	t4,32
   104c4:	02400e13          	li	t3,36
   104c8:	03d11863          	bne	sp,t4,104f8 <fail>

000104cc <test_37>:
   104cc:	000000b3          	add	ra,zero,zero
   104d0:	00000e93          	li	t4,0
   104d4:	02500e13          	li	t3,37
   104d8:	03d09063          	bne	ra,t4,104f8 <fail>

000104dc <test_38>:
   104dc:	01000093          	li	ra,16
   104e0:	01e00113          	li	sp,30
   104e4:	00208033          	add	zero,ra,sp
   104e8:	00000e93          	li	t4,0
   104ec:	02600e13          	li	t3,38
   104f0:	01d01463          	bne	zero,t4,104f8 <fail>
   104f4:	05c01863          	bne	zero,t3,10544 <pass>

000104f8 <fail>:
   104f8:	04500513          	li	a0,69
   104fc:	00004137          	lui	sp,0x4
   10500:	4880d0ef          	jal	ra,1d988 <printf_c>
   10504:	05200513          	li	a0,82
   10508:	00004137          	lui	sp,0x4
   1050c:	47c0d0ef          	jal	ra,1d988 <printf_c>
   10510:	00004137          	lui	sp,0x4
   10514:	4740d0ef          	jal	ra,1d988 <printf_c>
   10518:	04f00513          	li	a0,79
   1051c:	00004137          	lui	sp,0x4
   10520:	4680d0ef          	jal	ra,1d988 <printf_c>
   10524:	00004137          	lui	sp,0x4
   10528:	05200513          	li	a0,82
   1052c:	00004137          	lui	sp,0x4
   10530:	4580d0ef          	jal	ra,1d988 <printf_c>
   10534:	00a00513          	li	a0,10
   10538:	00004137          	lui	sp,0x4
   1053c:	44c0d0ef          	jal	ra,1d988 <printf_c>
   10540:	0340006f          	j	10574 <addi>

00010544 <pass>:
   10544:	04f00513          	li	a0,79
   10548:	00004137          	lui	sp,0x4
   1054c:	43c0d0ef          	jal	ra,1d988 <printf_c>
   10550:	04b00513          	li	a0,75
   10554:	00004137          	lui	sp,0x4
   10558:	4300d0ef          	jal	ra,1d988 <printf_c>
   1055c:	00a00513          	li	a0,10
   10560:	00004137          	lui	sp,0x4
   10564:	4240d0ef          	jal	ra,1d988 <printf_c>
   10568:	00c0006f          	j	10574 <addi>

0001056c <.test_name>:
   1056c:	6461                	lui	s0,0x18
   1056e:	6964                	flw	fs1,84(a0)
   10570:	0920                	addi	s0,sp,152
	...

00010574 <addi>:
   10574:	00010537          	lui	a0,0x10
   10578:	56c50513          	addi	a0,a0,1388 # 1056c <.test_name>

0001057c <.prname_next>:
   1057c:	00004137          	lui	sp,0x4
   10580:	4200d0ef          	jal	ra,1d9a0 <printf_s>

00010584 <test_2>:
   10584:	00000093          	li	ra,0
   10588:	00008193          	mv	gp,ra
   1058c:	00000e93          	li	t4,0
   10590:	00200e13          	li	t3,2
   10594:	27d19c63          	bne	gp,t4,1080c <fail>

00010598 <test_3>:
   10598:	00100093          	li	ra,1
   1059c:	00108193          	addi	gp,ra,1
   105a0:	00200e93          	li	t4,2
   105a4:	00300e13          	li	t3,3
   105a8:	27d19263          	bne	gp,t4,1080c <fail>

000105ac <test_4>:
   105ac:	00300093          	li	ra,3
   105b0:	00708193          	addi	gp,ra,7
   105b4:	00a00e93          	li	t4,10
   105b8:	00400e13          	li	t3,4
   105bc:	25d19863          	bne	gp,t4,1080c <fail>

000105c0 <test_5>:
   105c0:	00000093          	li	ra,0
   105c4:	80008193          	addi	gp,ra,-2048
   105c8:	80000e93          	li	t4,-2048
   105cc:	00500e13          	li	t3,5
   105d0:	23d19e63          	bne	gp,t4,1080c <fail>

000105d4 <test_6>:
   105d4:	800000b7          	lui	ra,0x80000
   105d8:	00008193          	mv	gp,ra
   105dc:	80000eb7          	lui	t4,0x80000
   105e0:	00600e13          	li	t3,6
   105e4:	23d19463          	bne	gp,t4,1080c <fail>

000105e8 <test_7>:
   105e8:	800000b7          	lui	ra,0x80000
   105ec:	80008193          	addi	gp,ra,-2048 # 7ffff800 <heap_memory_used+0x7ffdda28>
   105f0:	80000eb7          	lui	t4,0x80000
   105f4:	800e8e93          	addi	t4,t4,-2048 # 7ffff800 <heap_memory_used+0x7ffdda28>
   105f8:	00700e13          	li	t3,7
   105fc:	21d19863          	bne	gp,t4,1080c <fail>

00010600 <test_8>:
   10600:	00000093          	li	ra,0
   10604:	7ff08193          	addi	gp,ra,2047
   10608:	7ff00e93          	li	t4,2047
   1060c:	00800e13          	li	t3,8
   10610:	1fd19e63          	bne	gp,t4,1080c <fail>

00010614 <test_9>:
   10614:	800000b7          	lui	ra,0x80000
   10618:	fff08093          	addi	ra,ra,-1 # 7fffffff <heap_memory_used+0x7ffde227>
   1061c:	00008193          	mv	gp,ra
   10620:	80000eb7          	lui	t4,0x80000
   10624:	fffe8e93          	addi	t4,t4,-1 # 7fffffff <heap_memory_used+0x7ffde227>
   10628:	00900e13          	li	t3,9
   1062c:	1fd19063          	bne	gp,t4,1080c <fail>

00010630 <test_10>:
   10630:	800000b7          	lui	ra,0x80000
   10634:	fff08093          	addi	ra,ra,-1 # 7fffffff <heap_memory_used+0x7ffde227>
   10638:	7ff08193          	addi	gp,ra,2047
   1063c:	80000eb7          	lui	t4,0x80000
   10640:	7fee8e93          	addi	t4,t4,2046 # 800007fe <heap_memory_used+0x7ffdea26>
   10644:	00a00e13          	li	t3,10
   10648:	1dd19263          	bne	gp,t4,1080c <fail>

0001064c <test_11>:
   1064c:	800000b7          	lui	ra,0x80000
   10650:	7ff08193          	addi	gp,ra,2047 # 800007ff <heap_memory_used+0x7ffdea27>
   10654:	80000eb7          	lui	t4,0x80000
   10658:	7ffe8e93          	addi	t4,t4,2047 # 800007ff <heap_memory_used+0x7ffdea27>
   1065c:	00b00e13          	li	t3,11
   10660:	1bd19663          	bne	gp,t4,1080c <fail>

00010664 <test_12>:
   10664:	800000b7          	lui	ra,0x80000
   10668:	fff08093          	addi	ra,ra,-1 # 7fffffff <heap_memory_used+0x7ffde227>
   1066c:	80008193          	addi	gp,ra,-2048
   10670:	7ffffeb7          	lui	t4,0x7ffff
   10674:	7ffe8e93          	addi	t4,t4,2047 # 7ffff7ff <heap_memory_used+0x7ffdda27>
   10678:	00c00e13          	li	t3,12
   1067c:	19d19863          	bne	gp,t4,1080c <fail>

00010680 <test_13>:
   10680:	00000093          	li	ra,0
   10684:	fff08193          	addi	gp,ra,-1
   10688:	fff00e93          	li	t4,-1
   1068c:	00d00e13          	li	t3,13
   10690:	17d19e63          	bne	gp,t4,1080c <fail>

00010694 <test_14>:
   10694:	fff00093          	li	ra,-1
   10698:	00108193          	addi	gp,ra,1
   1069c:	00000e93          	li	t4,0
   106a0:	00e00e13          	li	t3,14
   106a4:	17d19463          	bne	gp,t4,1080c <fail>

000106a8 <test_15>:
   106a8:	fff00093          	li	ra,-1
   106ac:	fff08193          	addi	gp,ra,-1
   106b0:	ffe00e93          	li	t4,-2
   106b4:	00f00e13          	li	t3,15
   106b8:	15d19a63          	bne	gp,t4,1080c <fail>

000106bc <test_16>:
   106bc:	800000b7          	lui	ra,0x80000
   106c0:	fff08093          	addi	ra,ra,-1 # 7fffffff <heap_memory_used+0x7ffde227>
   106c4:	00108193          	addi	gp,ra,1
   106c8:	80000eb7          	lui	t4,0x80000
   106cc:	01000e13          	li	t3,16
   106d0:	13d19e63          	bne	gp,t4,1080c <fail>

000106d4 <test_17>:
   106d4:	00d00093          	li	ra,13
   106d8:	00b08093          	addi	ra,ra,11
   106dc:	01800e93          	li	t4,24
   106e0:	01100e13          	li	t3,17
   106e4:	13d09463          	bne	ra,t4,1080c <fail>

000106e8 <test_18>:
   106e8:	00000213          	li	tp,0
   106ec:	00d00093          	li	ra,13
   106f0:	00b08193          	addi	gp,ra,11
   106f4:	00018313          	mv	t1,gp
   106f8:	00120213          	addi	tp,tp,1 # 1 <_start+0x1>
   106fc:	00200293          	li	t0,2
   10700:	fe5216e3          	bne	tp,t0,106ec <test_18+0x4>
   10704:	01800e93          	li	t4,24
   10708:	01200e13          	li	t3,18
   1070c:	11d31063          	bne	t1,t4,1080c <fail>

00010710 <test_19>:
   10710:	00000213          	li	tp,0
   10714:	00d00093          	li	ra,13
   10718:	00a08193          	addi	gp,ra,10
   1071c:	00000013          	nop
   10720:	00018313          	mv	t1,gp
   10724:	00120213          	addi	tp,tp,1 # 1 <_start+0x1>
   10728:	00200293          	li	t0,2
   1072c:	fe5214e3          	bne	tp,t0,10714 <test_19+0x4>
   10730:	01700e93          	li	t4,23
   10734:	01300e13          	li	t3,19
   10738:	0dd31a63          	bne	t1,t4,1080c <fail>

0001073c <test_20>:
   1073c:	00000213          	li	tp,0
   10740:	00d00093          	li	ra,13
   10744:	00908193          	addi	gp,ra,9
   10748:	00000013          	nop
   1074c:	00000013          	nop
   10750:	00018313          	mv	t1,gp
   10754:	00120213          	addi	tp,tp,1 # 1 <_start+0x1>
   10758:	00200293          	li	t0,2
   1075c:	fe5212e3          	bne	tp,t0,10740 <test_20+0x4>
   10760:	01600e93          	li	t4,22
   10764:	01400e13          	li	t3,20
   10768:	0bd31263          	bne	t1,t4,1080c <fail>

0001076c <test_21>:
   1076c:	00000213          	li	tp,0
   10770:	00d00093          	li	ra,13
   10774:	00b08193          	addi	gp,ra,11
   10778:	00120213          	addi	tp,tp,1 # 1 <_start+0x1>
   1077c:	00200293          	li	t0,2
   10780:	fe5218e3          	bne	tp,t0,10770 <test_21+0x4>
   10784:	01800e93          	li	t4,24
   10788:	01500e13          	li	t3,21
   1078c:	09d19063          	bne	gp,t4,1080c <fail>

00010790 <test_22>:
   10790:	00000213          	li	tp,0
   10794:	00d00093          	li	ra,13
   10798:	00000013          	nop
   1079c:	00a08193          	addi	gp,ra,10
   107a0:	00120213          	addi	tp,tp,1 # 1 <_start+0x1>
   107a4:	00200293          	li	t0,2
   107a8:	fe5216e3          	bne	tp,t0,10794 <test_22+0x4>
   107ac:	01700e93          	li	t4,23
   107b0:	01600e13          	li	t3,22
   107b4:	05d19c63          	bne	gp,t4,1080c <fail>

000107b8 <test_23>:
   107b8:	00000213          	li	tp,0
   107bc:	00d00093          	li	ra,13
   107c0:	00000013          	nop
   107c4:	00000013          	nop
   107c8:	00908193          	addi	gp,ra,9
   107cc:	00120213          	addi	tp,tp,1 # 1 <_start+0x1>
   107d0:	00200293          	li	t0,2
   107d4:	fe5214e3          	bne	tp,t0,107bc <test_23+0x4>
   107d8:	01600e93          	li	t4,22
   107dc:	01700e13          	li	t3,23
   107e0:	03d19663          	bne	gp,t4,1080c <fail>

000107e4 <test_24>:
   107e4:	02000093          	li	ra,32
   107e8:	02000e93          	li	t4,32
   107ec:	01800e13          	li	t3,24
   107f0:	01d09e63          	bne	ra,t4,1080c <fail>

000107f4 <test_25>:
   107f4:	02100093          	li	ra,33
   107f8:	03208013          	addi	zero,ra,50
   107fc:	00000e93          	li	t4,0
   10800:	01900e13          	li	t3,25
   10804:	01d01463          	bne	zero,t4,1080c <fail>
   10808:	05c01863          	bne	zero,t3,10858 <pass>

0001080c <fail>:
   1080c:	04500513          	li	a0,69
   10810:	00004137          	lui	sp,0x4
   10814:	1740d0ef          	jal	ra,1d988 <printf_c>
   10818:	05200513          	li	a0,82
   1081c:	00004137          	lui	sp,0x4
   10820:	1680d0ef          	jal	ra,1d988 <printf_c>
   10824:	00004137          	lui	sp,0x4
   10828:	1600d0ef          	jal	ra,1d988 <printf_c>
   1082c:	04f00513          	li	a0,79
   10830:	00004137          	lui	sp,0x4
   10834:	1540d0ef          	jal	ra,1d988 <printf_c>
   10838:	00004137          	lui	sp,0x4
   1083c:	05200513          	li	a0,82
   10840:	00004137          	lui	sp,0x4
   10844:	1440d0ef          	jal	ra,1d988 <printf_c>
   10848:	00a00513          	li	a0,10
   1084c:	00004137          	lui	sp,0x4
   10850:	1380d0ef          	jal	ra,1d988 <printf_c>
   10854:	0340006f          	j	10888 <and>

00010858 <pass>:
   10858:	04f00513          	li	a0,79
   1085c:	00004137          	lui	sp,0x4
   10860:	1280d0ef          	jal	ra,1d988 <printf_c>
   10864:	04b00513          	li	a0,75
   10868:	00004137          	lui	sp,0x4
   1086c:	11c0d0ef          	jal	ra,1d988 <printf_c>
   10870:	00a00513          	li	a0,10
   10874:	00004137          	lui	sp,0x4
   10878:	1100d0ef          	jal	ra,1d988 <printf_c>
   1087c:	00c0006f          	j	10888 <and>

00010880 <.test_name>:
   10880:	6e61                	lui	t3,0x18
   10882:	2064                	fld	fs1,192(s0)
   10884:	0009                	c.addi	zero,2
	...

00010888 <and>:
   10888:	00011537          	lui	a0,0x11
   1088c:	88050513          	addi	a0,a0,-1920 # 10880 <.test_name>

00010890 <.prname_next>:
   10890:	00004137          	lui	sp,0x4
   10894:	10c0d0ef          	jal	ra,1d9a0 <printf_s>

00010898 <test_2>:
   10898:	ff0100b7          	lui	ra,0xff010
   1089c:	f0008093          	addi	ra,ra,-256 # ff00ff00 <heap_memory_used+0xfefee128>
   108a0:	0f0f1137          	lui	sp,0xf0f1
   108a4:	f0f10113          	addi	sp,sp,-241 # f0f0f0f <heap_memory_used+0xf0cf137>
   108a8:	0020f1b3          	and	gp,ra,sp
   108ac:	0f001eb7          	lui	t4,0xf001
   108b0:	f00e8e93          	addi	t4,t4,-256 # f000f00 <heap_memory_used+0xefdf128>
   108b4:	00200e13          	li	t3,2
   108b8:	49d19c63          	bne	gp,t4,10d50 <fail>

000108bc <test_3>:
   108bc:	0ff010b7          	lui	ra,0xff01
   108c0:	ff008093          	addi	ra,ra,-16 # ff00ff0 <heap_memory_used+0xfedf218>
   108c4:	f0f0f137          	lui	sp,0xf0f0f
   108c8:	0f010113          	addi	sp,sp,240 # f0f0f0f0 <heap_memory_used+0xf0eed318>
   108cc:	0020f1b3          	and	gp,ra,sp
   108d0:	00f00eb7          	lui	t4,0xf00
   108d4:	0f0e8e93          	addi	t4,t4,240 # f000f0 <heap_memory_used+0xede318>
   108d8:	00300e13          	li	t3,3
   108dc:	47d19a63          	bne	gp,t4,10d50 <fail>

000108e0 <test_4>:
   108e0:	00ff00b7          	lui	ra,0xff0
   108e4:	0ff08093          	addi	ra,ra,255 # ff00ff <heap_memory_used+0xfce327>
   108e8:	0f0f1137          	lui	sp,0xf0f1
   108ec:	f0f10113          	addi	sp,sp,-241 # f0f0f0f <heap_memory_used+0xf0cf137>
   108f0:	0020f1b3          	and	gp,ra,sp
   108f4:	000f0eb7          	lui	t4,0xf0
   108f8:	00fe8e93          	addi	t4,t4,15 # f000f <heap_memory_used+0xce237>
   108fc:	00400e13          	li	t3,4
   10900:	45d19863          	bne	gp,t4,10d50 <fail>

00010904 <test_5>:
   10904:	f00ff0b7          	lui	ra,0xf00ff
   10908:	00f08093          	addi	ra,ra,15 # f00ff00f <heap_memory_used+0xf00dd237>
   1090c:	f0f0f137          	lui	sp,0xf0f0f
   10910:	0f010113          	addi	sp,sp,240 # f0f0f0f0 <heap_memory_used+0xf0eed318>
   10914:	0020f1b3          	and	gp,ra,sp
   10918:	f000feb7          	lui	t4,0xf000f
   1091c:	00500e13          	li	t3,5
   10920:	43d19863          	bne	gp,t4,10d50 <fail>

00010924 <test_6>:
   10924:	ff0100b7          	lui	ra,0xff010
   10928:	f0008093          	addi	ra,ra,-256 # ff00ff00 <heap_memory_used+0xfefee128>
   1092c:	0f0f1137          	lui	sp,0xf0f1
   10930:	f0f10113          	addi	sp,sp,-241 # f0f0f0f <heap_memory_used+0xf0cf137>
   10934:	0020f0b3          	and	ra,ra,sp
   10938:	0f001eb7          	lui	t4,0xf001
   1093c:	f00e8e93          	addi	t4,t4,-256 # f000f00 <heap_memory_used+0xefdf128>
   10940:	00600e13          	li	t3,6
   10944:	41d09663          	bne	ra,t4,10d50 <fail>

00010948 <test_7>:
   10948:	0ff010b7          	lui	ra,0xff01
   1094c:	ff008093          	addi	ra,ra,-16 # ff00ff0 <heap_memory_used+0xfedf218>
   10950:	f0f0f137          	lui	sp,0xf0f0f
   10954:	0f010113          	addi	sp,sp,240 # f0f0f0f0 <heap_memory_used+0xf0eed318>
   10958:	0020f133          	and	sp,ra,sp
   1095c:	00f00eb7          	lui	t4,0xf00
   10960:	0f0e8e93          	addi	t4,t4,240 # f000f0 <heap_memory_used+0xede318>
   10964:	00700e13          	li	t3,7
   10968:	3fd11463          	bne	sp,t4,10d50 <fail>

0001096c <test_8>:
   1096c:	ff0100b7          	lui	ra,0xff010
   10970:	f0008093          	addi	ra,ra,-256 # ff00ff00 <heap_memory_used+0xfefee128>
   10974:	0010f0b3          	and	ra,ra,ra
   10978:	ff010eb7          	lui	t4,0xff010
   1097c:	f00e8e93          	addi	t4,t4,-256 # ff00ff00 <heap_memory_used+0xfefee128>
   10980:	00800e13          	li	t3,8
   10984:	3dd09663          	bne	ra,t4,10d50 <fail>

00010988 <test_9>:
   10988:	00000213          	li	tp,0
   1098c:	ff0100b7          	lui	ra,0xff010
   10990:	f0008093          	addi	ra,ra,-256 # ff00ff00 <heap_memory_used+0xfefee128>
   10994:	0f0f1137          	lui	sp,0xf0f1
   10998:	f0f10113          	addi	sp,sp,-241 # f0f0f0f <heap_memory_used+0xf0cf137>
   1099c:	0020f1b3          	and	gp,ra,sp
   109a0:	00018313          	mv	t1,gp
   109a4:	00120213          	addi	tp,tp,1 # 1 <_start+0x1>
   109a8:	00200293          	li	t0,2
   109ac:	fe5210e3          	bne	tp,t0,1098c <test_9+0x4>
   109b0:	0f001eb7          	lui	t4,0xf001
   109b4:	f00e8e93          	addi	t4,t4,-256 # f000f00 <heap_memory_used+0xefdf128>
   109b8:	00900e13          	li	t3,9
   109bc:	39d31a63          	bne	t1,t4,10d50 <fail>

000109c0 <test_10>:
   109c0:	00000213          	li	tp,0
   109c4:	0ff010b7          	lui	ra,0xff01
   109c8:	ff008093          	addi	ra,ra,-16 # ff00ff0 <heap_memory_used+0xfedf218>
   109cc:	f0f0f137          	lui	sp,0xf0f0f
   109d0:	0f010113          	addi	sp,sp,240 # f0f0f0f0 <heap_memory_used+0xf0eed318>
   109d4:	0020f1b3          	and	gp,ra,sp
   109d8:	00000013          	nop
   109dc:	00018313          	mv	t1,gp
   109e0:	00120213          	addi	tp,tp,1 # 1 <_start+0x1>
   109e4:	00200293          	li	t0,2
   109e8:	fc521ee3          	bne	tp,t0,109c4 <test_10+0x4>
   109ec:	00f00eb7          	lui	t4,0xf00
   109f0:	0f0e8e93          	addi	t4,t4,240 # f000f0 <heap_memory_used+0xede318>
   109f4:	00a00e13          	li	t3,10
   109f8:	35d31c63          	bne	t1,t4,10d50 <fail>

000109fc <test_11>:
   109fc:	00000213          	li	tp,0
   10a00:	00ff00b7          	lui	ra,0xff0
   10a04:	0ff08093          	addi	ra,ra,255 # ff00ff <heap_memory_used+0xfce327>
   10a08:	0f0f1137          	lui	sp,0xf0f1
   10a0c:	f0f10113          	addi	sp,sp,-241 # f0f0f0f <heap_memory_used+0xf0cf137>
   10a10:	0020f1b3          	and	gp,ra,sp
   10a14:	00000013          	nop
   10a18:	00000013          	nop
   10a1c:	00018313          	mv	t1,gp
   10a20:	00120213          	addi	tp,tp,1 # 1 <_start+0x1>
   10a24:	00200293          	li	t0,2
   10a28:	fc521ce3          	bne	tp,t0,10a00 <test_11+0x4>
   10a2c:	000f0eb7          	lui	t4,0xf0
   10a30:	00fe8e93          	addi	t4,t4,15 # f000f <heap_memory_used+0xce237>
   10a34:	00b00e13          	li	t3,11
   10a38:	31d31c63          	bne	t1,t4,10d50 <fail>

00010a3c <test_12>:
   10a3c:	00000213          	li	tp,0
   10a40:	ff0100b7          	lui	ra,0xff010
   10a44:	f0008093          	addi	ra,ra,-256 # ff00ff00 <heap_memory_used+0xfefee128>
   10a48:	0f0f1137          	lui	sp,0xf0f1
   10a4c:	f0f10113          	addi	sp,sp,-241 # f0f0f0f <heap_memory_used+0xf0cf137>
   10a50:	0020f1b3          	and	gp,ra,sp
   10a54:	00120213          	addi	tp,tp,1 # 1 <_start+0x1>
   10a58:	00200293          	li	t0,2
   10a5c:	fe5212e3          	bne	tp,t0,10a40 <test_12+0x4>
   10a60:	0f001eb7          	lui	t4,0xf001
   10a64:	f00e8e93          	addi	t4,t4,-256 # f000f00 <heap_memory_used+0xefdf128>
   10a68:	00c00e13          	li	t3,12
   10a6c:	2fd19263          	bne	gp,t4,10d50 <fail>

00010a70 <test_13>:
   10a70:	00000213          	li	tp,0
   10a74:	0ff010b7          	lui	ra,0xff01
   10a78:	ff008093          	addi	ra,ra,-16 # ff00ff0 <heap_memory_used+0xfedf218>
   10a7c:	f0f0f137          	lui	sp,0xf0f0f
   10a80:	0f010113          	addi	sp,sp,240 # f0f0f0f0 <heap_memory_used+0xf0eed318>
   10a84:	00000013          	nop
   10a88:	0020f1b3          	and	gp,ra,sp
   10a8c:	00120213          	addi	tp,tp,1 # 1 <_start+0x1>
   10a90:	00200293          	li	t0,2
   10a94:	fe5210e3          	bne	tp,t0,10a74 <test_13+0x4>
   10a98:	00f00eb7          	lui	t4,0xf00
   10a9c:	0f0e8e93          	addi	t4,t4,240 # f000f0 <heap_memory_used+0xede318>
   10aa0:	00d00e13          	li	t3,13
   10aa4:	2bd19663          	bne	gp,t4,10d50 <fail>

00010aa8 <test_14>:
   10aa8:	00000213          	li	tp,0
   10aac:	00ff00b7          	lui	ra,0xff0
   10ab0:	0ff08093          	addi	ra,ra,255 # ff00ff <heap_memory_used+0xfce327>
   10ab4:	0f0f1137          	lui	sp,0xf0f1
   10ab8:	f0f10113          	addi	sp,sp,-241 # f0f0f0f <heap_memory_used+0xf0cf137>
   10abc:	00000013          	nop
   10ac0:	00000013          	nop
   10ac4:	0020f1b3          	and	gp,ra,sp
   10ac8:	00120213          	addi	tp,tp,1 # 1 <_start+0x1>
   10acc:	00200293          	li	t0,2
   10ad0:	fc521ee3          	bne	tp,t0,10aac <test_14+0x4>
   10ad4:	000f0eb7          	lui	t4,0xf0
   10ad8:	00fe8e93          	addi	t4,t4,15 # f000f <heap_memory_used+0xce237>
   10adc:	00e00e13          	li	t3,14
   10ae0:	27d19863          	bne	gp,t4,10d50 <fail>

00010ae4 <test_15>:
   10ae4:	00000213          	li	tp,0
   10ae8:	ff0100b7          	lui	ra,0xff010
   10aec:	f0008093          	addi	ra,ra,-256 # ff00ff00 <heap_memory_used+0xfefee128>
   10af0:	00000013          	nop
   10af4:	0f0f1137          	lui	sp,0xf0f1
   10af8:	f0f10113          	addi	sp,sp,-241 # f0f0f0f <heap_memory_used+0xf0cf137>
   10afc:	0020f1b3          	and	gp,ra,sp
   10b00:	00120213          	addi	tp,tp,1 # 1 <_start+0x1>
   10b04:	00200293          	li	t0,2
   10b08:	fe5210e3          	bne	tp,t0,10ae8 <test_15+0x4>
   10b0c:	0f001eb7          	lui	t4,0xf001
   10b10:	f00e8e93          	addi	t4,t4,-256 # f000f00 <heap_memory_used+0xefdf128>
   10b14:	00f00e13          	li	t3,15
   10b18:	23d19c63          	bne	gp,t4,10d50 <fail>

00010b1c <test_16>:
   10b1c:	00000213          	li	tp,0
   10b20:	0ff010b7          	lui	ra,0xff01
   10b24:	ff008093          	addi	ra,ra,-16 # ff00ff0 <heap_memory_used+0xfedf218>
   10b28:	00000013          	nop
   10b2c:	f0f0f137          	lui	sp,0xf0f0f
   10b30:	0f010113          	addi	sp,sp,240 # f0f0f0f0 <heap_memory_used+0xf0eed318>
   10b34:	00000013          	nop
   10b38:	0020f1b3          	and	gp,ra,sp
   10b3c:	00120213          	addi	tp,tp,1 # 1 <_start+0x1>
   10b40:	00200293          	li	t0,2
   10b44:	fc521ee3          	bne	tp,t0,10b20 <test_16+0x4>
   10b48:	00f00eb7          	lui	t4,0xf00
   10b4c:	0f0e8e93          	addi	t4,t4,240 # f000f0 <heap_memory_used+0xede318>
   10b50:	01000e13          	li	t3,16
   10b54:	1fd19e63          	bne	gp,t4,10d50 <fail>

00010b58 <test_17>:
   10b58:	00000213          	li	tp,0
   10b5c:	00ff00b7          	lui	ra,0xff0
   10b60:	0ff08093          	addi	ra,ra,255 # ff00ff <heap_memory_used+0xfce327>
   10b64:	00000013          	nop
   10b68:	00000013          	nop
   10b6c:	0f0f1137          	lui	sp,0xf0f1
   10b70:	f0f10113          	addi	sp,sp,-241 # f0f0f0f <heap_memory_used+0xf0cf137>
   10b74:	0020f1b3          	and	gp,ra,sp
   10b78:	00120213          	addi	tp,tp,1 # 1 <_start+0x1>
   10b7c:	00200293          	li	t0,2
   10b80:	fc521ee3          	bne	tp,t0,10b5c <test_17+0x4>
   10b84:	000f0eb7          	lui	t4,0xf0
   10b88:	00fe8e93          	addi	t4,t4,15 # f000f <heap_memory_used+0xce237>
   10b8c:	01100e13          	li	t3,17
   10b90:	1dd19063          	bne	gp,t4,10d50 <fail>

00010b94 <test_18>:
   10b94:	00000213          	li	tp,0
   10b98:	0f0f1137          	lui	sp,0xf0f1
   10b9c:	f0f10113          	addi	sp,sp,-241 # f0f0f0f <heap_memory_used+0xf0cf137>
   10ba0:	ff0100b7          	lui	ra,0xff010
   10ba4:	f0008093          	addi	ra,ra,-256 # ff00ff00 <heap_memory_used+0xfefee128>
   10ba8:	0020f1b3          	and	gp,ra,sp
   10bac:	00120213          	addi	tp,tp,1 # 1 <_start+0x1>
   10bb0:	00200293          	li	t0,2
   10bb4:	fe5212e3          	bne	tp,t0,10b98 <test_18+0x4>
   10bb8:	0f001eb7          	lui	t4,0xf001
   10bbc:	f00e8e93          	addi	t4,t4,-256 # f000f00 <heap_memory_used+0xefdf128>
   10bc0:	01200e13          	li	t3,18
   10bc4:	19d19663          	bne	gp,t4,10d50 <fail>

00010bc8 <test_19>:
   10bc8:	00000213          	li	tp,0
   10bcc:	f0f0f137          	lui	sp,0xf0f0f
   10bd0:	0f010113          	addi	sp,sp,240 # f0f0f0f0 <heap_memory_used+0xf0eed318>
   10bd4:	0ff010b7          	lui	ra,0xff01
   10bd8:	ff008093          	addi	ra,ra,-16 # ff00ff0 <heap_memory_used+0xfedf218>
   10bdc:	00000013          	nop
   10be0:	0020f1b3          	and	gp,ra,sp
   10be4:	00120213          	addi	tp,tp,1 # 1 <_start+0x1>
   10be8:	00200293          	li	t0,2
   10bec:	fe5210e3          	bne	tp,t0,10bcc <test_19+0x4>
   10bf0:	00f00eb7          	lui	t4,0xf00
   10bf4:	0f0e8e93          	addi	t4,t4,240 # f000f0 <heap_memory_used+0xede318>
   10bf8:	01300e13          	li	t3,19
   10bfc:	15d19a63          	bne	gp,t4,10d50 <fail>

00010c00 <test_20>:
   10c00:	00000213          	li	tp,0
   10c04:	0f0f1137          	lui	sp,0xf0f1
   10c08:	f0f10113          	addi	sp,sp,-241 # f0f0f0f <heap_memory_used+0xf0cf137>
   10c0c:	00ff00b7          	lui	ra,0xff0
   10c10:	0ff08093          	addi	ra,ra,255 # ff00ff <heap_memory_used+0xfce327>
   10c14:	00000013          	nop
   10c18:	00000013          	nop
   10c1c:	0020f1b3          	and	gp,ra,sp
   10c20:	00120213          	addi	tp,tp,1 # 1 <_start+0x1>
   10c24:	00200293          	li	t0,2
   10c28:	fc521ee3          	bne	tp,t0,10c04 <test_20+0x4>
   10c2c:	000f0eb7          	lui	t4,0xf0
   10c30:	00fe8e93          	addi	t4,t4,15 # f000f <heap_memory_used+0xce237>
   10c34:	01400e13          	li	t3,20
   10c38:	11d19c63          	bne	gp,t4,10d50 <fail>

00010c3c <test_21>:
   10c3c:	00000213          	li	tp,0
   10c40:	0f0f1137          	lui	sp,0xf0f1
   10c44:	f0f10113          	addi	sp,sp,-241 # f0f0f0f <heap_memory_used+0xf0cf137>
   10c48:	00000013          	nop
   10c4c:	ff0100b7          	lui	ra,0xff010
   10c50:	f0008093          	addi	ra,ra,-256 # ff00ff00 <heap_memory_used+0xfefee128>
   10c54:	0020f1b3          	and	gp,ra,sp
   10c58:	00120213          	addi	tp,tp,1 # 1 <_start+0x1>
   10c5c:	00200293          	li	t0,2
   10c60:	fe5210e3          	bne	tp,t0,10c40 <test_21+0x4>
   10c64:	0f001eb7          	lui	t4,0xf001
   10c68:	f00e8e93          	addi	t4,t4,-256 # f000f00 <heap_memory_used+0xefdf128>
   10c6c:	01500e13          	li	t3,21
   10c70:	0fd19063          	bne	gp,t4,10d50 <fail>

00010c74 <test_22>:
   10c74:	00000213          	li	tp,0
   10c78:	f0f0f137          	lui	sp,0xf0f0f
   10c7c:	0f010113          	addi	sp,sp,240 # f0f0f0f0 <heap_memory_used+0xf0eed318>
   10c80:	00000013          	nop
   10c84:	0ff010b7          	lui	ra,0xff01
   10c88:	ff008093          	addi	ra,ra,-16 # ff00ff0 <heap_memory_used+0xfedf218>
   10c8c:	00000013          	nop
   10c90:	0020f1b3          	and	gp,ra,sp
   10c94:	00120213          	addi	tp,tp,1 # 1 <_start+0x1>
   10c98:	00200293          	li	t0,2
   10c9c:	fc521ee3          	bne	tp,t0,10c78 <test_22+0x4>
   10ca0:	00f00eb7          	lui	t4,0xf00
   10ca4:	0f0e8e93          	addi	t4,t4,240 # f000f0 <heap_memory_used+0xede318>
   10ca8:	01600e13          	li	t3,22
   10cac:	0bd19263          	bne	gp,t4,10d50 <fail>

00010cb0 <test_23>:
   10cb0:	00000213          	li	tp,0
   10cb4:	0f0f1137          	lui	sp,0xf0f1
   10cb8:	f0f10113          	addi	sp,sp,-241 # f0f0f0f <heap_memory_used+0xf0cf137>
   10cbc:	00000013          	nop
   10cc0:	00000013          	nop
   10cc4:	00ff00b7          	lui	ra,0xff0
   10cc8:	0ff08093          	addi	ra,ra,255 # ff00ff <heap_memory_used+0xfce327>
   10ccc:	0020f1b3          	and	gp,ra,sp
   10cd0:	00120213          	addi	tp,tp,1 # 1 <_start+0x1>
   10cd4:	00200293          	li	t0,2
   10cd8:	fc521ee3          	bne	tp,t0,10cb4 <test_23+0x4>
   10cdc:	000f0eb7          	lui	t4,0xf0
   10ce0:	00fe8e93          	addi	t4,t4,15 # f000f <heap_memory_used+0xce237>
   10ce4:	01700e13          	li	t3,23
   10ce8:	07d19463          	bne	gp,t4,10d50 <fail>

00010cec <test_24>:
   10cec:	ff0100b7          	lui	ra,0xff010
   10cf0:	f0008093          	addi	ra,ra,-256 # ff00ff00 <heap_memory_used+0xfefee128>
   10cf4:	00107133          	and	sp,zero,ra
   10cf8:	00000e93          	li	t4,0
   10cfc:	01800e13          	li	t3,24
   10d00:	05d11863          	bne	sp,t4,10d50 <fail>

00010d04 <test_25>:
   10d04:	00ff00b7          	lui	ra,0xff0
   10d08:	0ff08093          	addi	ra,ra,255 # ff00ff <heap_memory_used+0xfce327>
   10d0c:	0000f133          	and	sp,ra,zero
   10d10:	00000e93          	li	t4,0
   10d14:	01900e13          	li	t3,25
   10d18:	03d11c63          	bne	sp,t4,10d50 <fail>

00010d1c <test_26>:
   10d1c:	000070b3          	and	ra,zero,zero
   10d20:	00000e93          	li	t4,0
   10d24:	01a00e13          	li	t3,26
   10d28:	03d09463          	bne	ra,t4,10d50 <fail>

00010d2c <test_27>:
   10d2c:	111110b7          	lui	ra,0x11111
   10d30:	11108093          	addi	ra,ra,273 # 11111111 <heap_memory_used+0x110ef339>
   10d34:	22222137          	lui	sp,0x22222
   10d38:	22210113          	addi	sp,sp,546 # 22222222 <heap_memory_used+0x2220044a>
   10d3c:	0020f033          	and	zero,ra,sp
   10d40:	00000e93          	li	t4,0
   10d44:	01b00e13          	li	t3,27
   10d48:	01d01463          	bne	zero,t4,10d50 <fail>
   10d4c:	05c01863          	bne	zero,t3,10d9c <pass>

00010d50 <fail>:
   10d50:	04500513          	li	a0,69
   10d54:	00004137          	lui	sp,0x4
   10d58:	4310c0ef          	jal	ra,1d988 <printf_c>
   10d5c:	05200513          	li	a0,82
   10d60:	00004137          	lui	sp,0x4
   10d64:	4250c0ef          	jal	ra,1d988 <printf_c>
   10d68:	00004137          	lui	sp,0x4
   10d6c:	41d0c0ef          	jal	ra,1d988 <printf_c>
   10d70:	04f00513          	li	a0,79
   10d74:	00004137          	lui	sp,0x4
   10d78:	4110c0ef          	jal	ra,1d988 <printf_c>
   10d7c:	00004137          	lui	sp,0x4
   10d80:	05200513          	li	a0,82
   10d84:	00004137          	lui	sp,0x4
   10d88:	4010c0ef          	jal	ra,1d988 <printf_c>
   10d8c:	00a00513          	li	a0,10
   10d90:	00004137          	lui	sp,0x4
   10d94:	3f50c0ef          	jal	ra,1d988 <printf_c>
   10d98:	0340006f          	j	10dcc <andi>

00010d9c <pass>:
   10d9c:	04f00513          	li	a0,79
   10da0:	00004137          	lui	sp,0x4
   10da4:	3e50c0ef          	jal	ra,1d988 <printf_c>
   10da8:	04b00513          	li	a0,75
   10dac:	00004137          	lui	sp,0x4
   10db0:	3d90c0ef          	jal	ra,1d988 <printf_c>
   10db4:	00a00513          	li	a0,10
   10db8:	00004137          	lui	sp,0x4
   10dbc:	3cd0c0ef          	jal	ra,1d988 <printf_c>
   10dc0:	00c0006f          	j	10dcc <andi>

00010dc4 <.test_name>:
   10dc4:	6e61                	lui	t3,0x18
   10dc6:	6964                	flw	fs1,84(a0)
   10dc8:	0920                	addi	s0,sp,152
	...

00010dcc <andi>:
   10dcc:	00011537          	lui	a0,0x11
   10dd0:	dc450513          	addi	a0,a0,-572 # 10dc4 <.test_name>

00010dd4 <.prname_next>:
   10dd4:	00004137          	lui	sp,0x4
   10dd8:	3c90c0ef          	jal	ra,1d9a0 <printf_s>

00010ddc <test_2>:
   10ddc:	ff0100b7          	lui	ra,0xff010
   10de0:	f0008093          	addi	ra,ra,-256 # ff00ff00 <heap_memory_used+0xfefee128>
   10de4:	f0f0f193          	andi	gp,ra,-241
   10de8:	ff010eb7          	lui	t4,0xff010
   10dec:	f00e8e93          	addi	t4,t4,-256 # ff00ff00 <heap_memory_used+0xfefee128>
   10df0:	00200e13          	li	t3,2
   10df4:	1bd19463          	bne	gp,t4,10f9c <fail>

00010df8 <test_3>:
   10df8:	0ff010b7          	lui	ra,0xff01
   10dfc:	ff008093          	addi	ra,ra,-16 # ff00ff0 <heap_memory_used+0xfedf218>
   10e00:	0f00f193          	andi	gp,ra,240
   10e04:	0f000e93          	li	t4,240
   10e08:	00300e13          	li	t3,3
   10e0c:	19d19863          	bne	gp,t4,10f9c <fail>

00010e10 <test_4>:
   10e10:	00ff00b7          	lui	ra,0xff0
   10e14:	0ff08093          	addi	ra,ra,255 # ff00ff <heap_memory_used+0xfce327>
   10e18:	70f0f193          	andi	gp,ra,1807
   10e1c:	00f00e93          	li	t4,15
   10e20:	00400e13          	li	t3,4
   10e24:	17d19c63          	bne	gp,t4,10f9c <fail>

00010e28 <test_5>:
   10e28:	f00ff0b7          	lui	ra,0xf00ff
   10e2c:	00f08093          	addi	ra,ra,15 # f00ff00f <heap_memory_used+0xf00dd237>
   10e30:	0f00f193          	andi	gp,ra,240
   10e34:	00000e93          	li	t4,0
   10e38:	00500e13          	li	t3,5
   10e3c:	17d19063          	bne	gp,t4,10f9c <fail>

00010e40 <test_6>:
   10e40:	ff0100b7          	lui	ra,0xff010
   10e44:	f0008093          	addi	ra,ra,-256 # ff00ff00 <heap_memory_used+0xfefee128>
   10e48:	0f00f093          	andi	ra,ra,240
   10e4c:	00000e93          	li	t4,0
   10e50:	00600e13          	li	t3,6
   10e54:	15d09463          	bne	ra,t4,10f9c <fail>

00010e58 <test_7>:
   10e58:	00000213          	li	tp,0
   10e5c:	0ff010b7          	lui	ra,0xff01
   10e60:	ff008093          	addi	ra,ra,-16 # ff00ff0 <heap_memory_used+0xfedf218>
   10e64:	70f0f193          	andi	gp,ra,1807
   10e68:	00018313          	mv	t1,gp
   10e6c:	00120213          	addi	tp,tp,1 # 1 <_start+0x1>
   10e70:	00200293          	li	t0,2
   10e74:	fe5214e3          	bne	tp,t0,10e5c <test_7+0x4>
   10e78:	70000e93          	li	t4,1792
   10e7c:	00700e13          	li	t3,7
   10e80:	11d31e63          	bne	t1,t4,10f9c <fail>

00010e84 <test_8>:
   10e84:	00000213          	li	tp,0
   10e88:	00ff00b7          	lui	ra,0xff0
   10e8c:	0ff08093          	addi	ra,ra,255 # ff00ff <heap_memory_used+0xfce327>
   10e90:	0f00f193          	andi	gp,ra,240
   10e94:	00000013          	nop
   10e98:	00018313          	mv	t1,gp
   10e9c:	00120213          	addi	tp,tp,1 # 1 <_start+0x1>
   10ea0:	00200293          	li	t0,2
   10ea4:	fe5212e3          	bne	tp,t0,10e88 <test_8+0x4>
   10ea8:	0f000e93          	li	t4,240
   10eac:	00800e13          	li	t3,8
   10eb0:	0fd31663          	bne	t1,t4,10f9c <fail>

00010eb4 <test_9>:
   10eb4:	00000213          	li	tp,0
   10eb8:	f00ff0b7          	lui	ra,0xf00ff
   10ebc:	00f08093          	addi	ra,ra,15 # f00ff00f <heap_memory_used+0xf00dd237>
   10ec0:	f0f0f193          	andi	gp,ra,-241
   10ec4:	00000013          	nop
   10ec8:	00000013          	nop
   10ecc:	00018313          	mv	t1,gp
   10ed0:	00120213          	addi	tp,tp,1 # 1 <_start+0x1>
   10ed4:	00200293          	li	t0,2
   10ed8:	fe5210e3          	bne	tp,t0,10eb8 <test_9+0x4>
   10edc:	f00ffeb7          	lui	t4,0xf00ff
   10ee0:	00fe8e93          	addi	t4,t4,15 # f00ff00f <heap_memory_used+0xf00dd237>
   10ee4:	00900e13          	li	t3,9
   10ee8:	0bd31a63          	bne	t1,t4,10f9c <fail>

00010eec <test_10>:
   10eec:	00000213          	li	tp,0
   10ef0:	0ff010b7          	lui	ra,0xff01
   10ef4:	ff008093          	addi	ra,ra,-16 # ff00ff0 <heap_memory_used+0xfedf218>
   10ef8:	70f0f193          	andi	gp,ra,1807
   10efc:	00120213          	addi	tp,tp,1 # 1 <_start+0x1>
   10f00:	00200293          	li	t0,2
   10f04:	fe5216e3          	bne	tp,t0,10ef0 <test_10+0x4>
   10f08:	70000e93          	li	t4,1792
   10f0c:	00a00e13          	li	t3,10
   10f10:	09d19663          	bne	gp,t4,10f9c <fail>

00010f14 <test_11>:
   10f14:	00000213          	li	tp,0
   10f18:	00ff00b7          	lui	ra,0xff0
   10f1c:	0ff08093          	addi	ra,ra,255 # ff00ff <heap_memory_used+0xfce327>
   10f20:	00000013          	nop
   10f24:	0f00f193          	andi	gp,ra,240
   10f28:	00120213          	addi	tp,tp,1 # 1 <_start+0x1>
   10f2c:	00200293          	li	t0,2
   10f30:	fe5214e3          	bne	tp,t0,10f18 <test_11+0x4>
   10f34:	0f000e93          	li	t4,240
   10f38:	00b00e13          	li	t3,11
   10f3c:	07d19063          	bne	gp,t4,10f9c <fail>

00010f40 <test_12>:
   10f40:	00000213          	li	tp,0
   10f44:	f00ff0b7          	lui	ra,0xf00ff
   10f48:	00f08093          	addi	ra,ra,15 # f00ff00f <heap_memory_used+0xf00dd237>
   10f4c:	00000013          	nop
   10f50:	00000013          	nop
   10f54:	70f0f193          	andi	gp,ra,1807
   10f58:	00120213          	addi	tp,tp,1 # 1 <_start+0x1>
   10f5c:	00200293          	li	t0,2
   10f60:	fe5212e3          	bne	tp,t0,10f44 <test_12+0x4>
   10f64:	00f00e93          	li	t4,15
   10f68:	00c00e13          	li	t3,12
   10f6c:	03d19863          	bne	gp,t4,10f9c <fail>

00010f70 <test_13>:
   10f70:	0f007093          	andi	ra,zero,240
   10f74:	00000e93          	li	t4,0
   10f78:	00d00e13          	li	t3,13
   10f7c:	03d09063          	bne	ra,t4,10f9c <fail>

00010f80 <test_14>:
   10f80:	00ff00b7          	lui	ra,0xff0
   10f84:	0ff08093          	addi	ra,ra,255 # ff00ff <heap_memory_used+0xfce327>
   10f88:	70f0f013          	andi	zero,ra,1807
   10f8c:	00000e93          	li	t4,0
   10f90:	00e00e13          	li	t3,14
   10f94:	01d01463          	bne	zero,t4,10f9c <fail>
   10f98:	05c01863          	bne	zero,t3,10fe8 <pass>

00010f9c <fail>:
   10f9c:	04500513          	li	a0,69
   10fa0:	00004137          	lui	sp,0x4
   10fa4:	1e50c0ef          	jal	ra,1d988 <printf_c>
   10fa8:	05200513          	li	a0,82
   10fac:	00004137          	lui	sp,0x4
   10fb0:	1d90c0ef          	jal	ra,1d988 <printf_c>
   10fb4:	00004137          	lui	sp,0x4
   10fb8:	1d10c0ef          	jal	ra,1d988 <printf_c>
   10fbc:	04f00513          	li	a0,79
   10fc0:	00004137          	lui	sp,0x4
   10fc4:	1c50c0ef          	jal	ra,1d988 <printf_c>
   10fc8:	00004137          	lui	sp,0x4
   10fcc:	05200513          	li	a0,82
   10fd0:	00004137          	lui	sp,0x4
   10fd4:	1b50c0ef          	jal	ra,1d988 <printf_c>
   10fd8:	00a00513          	li	a0,10
   10fdc:	00004137          	lui	sp,0x4
   10fe0:	1a90c0ef          	jal	ra,1d988 <printf_c>
   10fe4:	0340006f          	j	11018 <auipc>

00010fe8 <pass>:
   10fe8:	04f00513          	li	a0,79
   10fec:	00004137          	lui	sp,0x4
   10ff0:	1990c0ef          	jal	ra,1d988 <printf_c>
   10ff4:	04b00513          	li	a0,75
   10ff8:	00004137          	lui	sp,0x4
   10ffc:	18d0c0ef          	jal	ra,1d988 <printf_c>
   11000:	00a00513          	li	a0,10
   11004:	00004137          	lui	sp,0x4
   11008:	1810c0ef          	jal	ra,1d988 <printf_c>
   1100c:	00c0006f          	j	11018 <auipc>

00011010 <.test_name>:
   11010:	7561                	lui	a0,0xffff8
   11012:	7069                	0x7069
   11014:	00092063          	0x92063

00011018 <auipc>:
   11018:	00011537          	lui	a0,0x11
   1101c:	01050513          	addi	a0,a0,16 # 11010 <.test_name>

00011020 <.prname_next>:
   11020:	00004137          	lui	sp,0x4
   11024:	17d0c0ef          	jal	ra,1d9a0 <printf_s>

00011028 <test_2>:
   11028:	00002517          	auipc	a0,0x2
   1102c:	71c50513          	addi	a0,a0,1820 # 13744 <fail+0x48>
   11030:	004005ef          	jal	a1,11034 <test_2+0xc>
   11034:	40b50533          	sub	a0,a0,a1
   11038:	00002eb7          	lui	t4,0x2
   1103c:	710e8e93          	addi	t4,t4,1808 # 2710 <coremarkBenchmark+0x2668>
   11040:	00200e13          	li	t3,2
   11044:	03d51463          	bne	a0,t4,1106c <fail>

00011048 <test_3>:
   11048:	ffffe517          	auipc	a0,0xffffe
   1104c:	8fc50513          	addi	a0,a0,-1796 # e944 <coremarkBenchmark+0xe89c>
   11050:	004005ef          	jal	a1,11054 <test_3+0xc>
   11054:	40b50533          	sub	a0,a0,a1
   11058:	ffffeeb7          	lui	t4,0xffffe
   1105c:	8f0e8e93          	addi	t4,t4,-1808 # ffffd8f0 <heap_memory_used+0xfffdbb18>
   11060:	00300e13          	li	t3,3
   11064:	01d51463          	bne	a0,t4,1106c <fail>
   11068:	05c01863          	bne	zero,t3,110b8 <pass>

0001106c <fail>:
   1106c:	04500513          	li	a0,69
   11070:	00004137          	lui	sp,0x4
   11074:	1150c0ef          	jal	ra,1d988 <printf_c>
   11078:	05200513          	li	a0,82
   1107c:	00004137          	lui	sp,0x4
   11080:	1090c0ef          	jal	ra,1d988 <printf_c>
   11084:	00004137          	lui	sp,0x4
   11088:	1010c0ef          	jal	ra,1d988 <printf_c>
   1108c:	04f00513          	li	a0,79
   11090:	00004137          	lui	sp,0x4
   11094:	0f50c0ef          	jal	ra,1d988 <printf_c>
   11098:	00004137          	lui	sp,0x4
   1109c:	05200513          	li	a0,82
   110a0:	00004137          	lui	sp,0x4
   110a4:	0e50c0ef          	jal	ra,1d988 <printf_c>
   110a8:	00a00513          	li	a0,10
   110ac:	00004137          	lui	sp,0x4
   110b0:	0d90c0ef          	jal	ra,1d988 <printf_c>
   110b4:	0340006f          	j	110e8 <beq>

000110b8 <pass>:
   110b8:	04f00513          	li	a0,79
   110bc:	00004137          	lui	sp,0x4
   110c0:	0c90c0ef          	jal	ra,1d988 <printf_c>
   110c4:	04b00513          	li	a0,75
   110c8:	00004137          	lui	sp,0x4
   110cc:	0bd0c0ef          	jal	ra,1d988 <printf_c>
   110d0:	00a00513          	li	a0,10
   110d4:	00004137          	lui	sp,0x4
   110d8:	0b10c0ef          	jal	ra,1d988 <printf_c>
   110dc:	00c0006f          	j	110e8 <beq>

000110e0 <.test_name>:
   110e0:	6562                	flw	fa0,24(sp)
   110e2:	2071                	jal	1116e <test_5+0x16>
   110e4:	0009                	c.addi	zero,2
	...

000110e8 <beq>:
   110e8:	00011537          	lui	a0,0x11
   110ec:	0e050513          	addi	a0,a0,224 # 110e0 <.test_name>

000110f0 <.prname_next>:
   110f0:	00004137          	lui	sp,0x4
   110f4:	0ad0c0ef          	jal	ra,1d9a0 <printf_s>

000110f8 <test_2>:
   110f8:	00200e13          	li	t3,2
   110fc:	00000093          	li	ra,0
   11100:	00000113          	li	sp,0
   11104:	00208663          	beq	ra,sp,11110 <test_2+0x18>
   11108:	2bc01863          	bne	zero,t3,113b8 <fail>
   1110c:	01c01663          	bne	zero,t3,11118 <test_3>
   11110:	fe208ee3          	beq	ra,sp,1110c <test_2+0x14>
   11114:	2bc01263          	bne	zero,t3,113b8 <fail>

00011118 <test_3>:
   11118:	00300e13          	li	t3,3
   1111c:	00100093          	li	ra,1
   11120:	00100113          	li	sp,1
   11124:	00208663          	beq	ra,sp,11130 <test_3+0x18>
   11128:	29c01863          	bne	zero,t3,113b8 <fail>
   1112c:	01c01663          	bne	zero,t3,11138 <test_4>
   11130:	fe208ee3          	beq	ra,sp,1112c <test_3+0x14>
   11134:	29c01263          	bne	zero,t3,113b8 <fail>

00011138 <test_4>:
   11138:	00400e13          	li	t3,4
   1113c:	fff00093          	li	ra,-1
   11140:	fff00113          	li	sp,-1
   11144:	00208663          	beq	ra,sp,11150 <test_4+0x18>
   11148:	27c01863          	bne	zero,t3,113b8 <fail>
   1114c:	01c01663          	bne	zero,t3,11158 <test_5>
   11150:	fe208ee3          	beq	ra,sp,1114c <test_4+0x14>
   11154:	27c01263          	bne	zero,t3,113b8 <fail>

00011158 <test_5>:
   11158:	00500e13          	li	t3,5
   1115c:	00000093          	li	ra,0
   11160:	00100113          	li	sp,1
   11164:	00208463          	beq	ra,sp,1116c <test_5+0x14>
   11168:	01c01463          	bne	zero,t3,11170 <test_5+0x18>
   1116c:	25c01663          	bne	zero,t3,113b8 <fail>
   11170:	fe208ee3          	beq	ra,sp,1116c <test_5+0x14>

00011174 <test_6>:
   11174:	00600e13          	li	t3,6
   11178:	00100093          	li	ra,1
   1117c:	00000113          	li	sp,0
   11180:	00208463          	beq	ra,sp,11188 <test_6+0x14>
   11184:	01c01463          	bne	zero,t3,1118c <test_6+0x18>
   11188:	23c01863          	bne	zero,t3,113b8 <fail>
   1118c:	fe208ee3          	beq	ra,sp,11188 <test_6+0x14>

00011190 <test_7>:
   11190:	00700e13          	li	t3,7
   11194:	fff00093          	li	ra,-1
   11198:	00100113          	li	sp,1
   1119c:	00208463          	beq	ra,sp,111a4 <test_7+0x14>
   111a0:	01c01463          	bne	zero,t3,111a8 <test_7+0x18>
   111a4:	21c01a63          	bne	zero,t3,113b8 <fail>
   111a8:	fe208ee3          	beq	ra,sp,111a4 <test_7+0x14>

000111ac <test_8>:
   111ac:	00800e13          	li	t3,8
   111b0:	00100093          	li	ra,1
   111b4:	fff00113          	li	sp,-1
   111b8:	00208463          	beq	ra,sp,111c0 <test_8+0x14>
   111bc:	01c01463          	bne	zero,t3,111c4 <test_8+0x18>
   111c0:	1fc01c63          	bne	zero,t3,113b8 <fail>
   111c4:	fe208ee3          	beq	ra,sp,111c0 <test_8+0x14>

000111c8 <test_9>:
   111c8:	00900e13          	li	t3,9
   111cc:	00000213          	li	tp,0
   111d0:	00000093          	li	ra,0
   111d4:	fff00113          	li	sp,-1
   111d8:	1e208063          	beq	ra,sp,113b8 <fail>
   111dc:	00120213          	addi	tp,tp,1 # 1 <_start+0x1>
   111e0:	00200293          	li	t0,2
   111e4:	fe5216e3          	bne	tp,t0,111d0 <test_9+0x8>

000111e8 <test_10>:
   111e8:	00a00e13          	li	t3,10
   111ec:	00000213          	li	tp,0
   111f0:	00000093          	li	ra,0
   111f4:	fff00113          	li	sp,-1
   111f8:	00000013          	nop
   111fc:	1a208e63          	beq	ra,sp,113b8 <fail>
   11200:	00120213          	addi	tp,tp,1 # 1 <_start+0x1>
   11204:	00200293          	li	t0,2
   11208:	fe5214e3          	bne	tp,t0,111f0 <test_10+0x8>

0001120c <test_11>:
   1120c:	00b00e13          	li	t3,11
   11210:	00000213          	li	tp,0
   11214:	00000093          	li	ra,0
   11218:	fff00113          	li	sp,-1
   1121c:	00000013          	nop
   11220:	00000013          	nop
   11224:	18208a63          	beq	ra,sp,113b8 <fail>
   11228:	00120213          	addi	tp,tp,1 # 1 <_start+0x1>
   1122c:	00200293          	li	t0,2
   11230:	fe5212e3          	bne	tp,t0,11214 <test_11+0x8>

00011234 <test_12>:
   11234:	00c00e13          	li	t3,12
   11238:	00000213          	li	tp,0
   1123c:	00000093          	li	ra,0
   11240:	00000013          	nop
   11244:	fff00113          	li	sp,-1
   11248:	16208863          	beq	ra,sp,113b8 <fail>
   1124c:	00120213          	addi	tp,tp,1 # 1 <_start+0x1>
   11250:	00200293          	li	t0,2
   11254:	fe5214e3          	bne	tp,t0,1123c <test_12+0x8>

00011258 <test_13>:
   11258:	00d00e13          	li	t3,13
   1125c:	00000213          	li	tp,0
   11260:	00000093          	li	ra,0
   11264:	00000013          	nop
   11268:	fff00113          	li	sp,-1
   1126c:	00000013          	nop
   11270:	14208463          	beq	ra,sp,113b8 <fail>
   11274:	00120213          	addi	tp,tp,1 # 1 <_start+0x1>
   11278:	00200293          	li	t0,2
   1127c:	fe5212e3          	bne	tp,t0,11260 <test_13+0x8>

00011280 <test_14>:
   11280:	00e00e13          	li	t3,14
   11284:	00000213          	li	tp,0
   11288:	00000093          	li	ra,0
   1128c:	00000013          	nop
   11290:	00000013          	nop
   11294:	fff00113          	li	sp,-1
   11298:	12208063          	beq	ra,sp,113b8 <fail>
   1129c:	00120213          	addi	tp,tp,1 # 1 <_start+0x1>
   112a0:	00200293          	li	t0,2
   112a4:	fe5212e3          	bne	tp,t0,11288 <test_14+0x8>

000112a8 <test_15>:
   112a8:	00f00e13          	li	t3,15
   112ac:	00000213          	li	tp,0
   112b0:	00000093          	li	ra,0
   112b4:	fff00113          	li	sp,-1
   112b8:	10208063          	beq	ra,sp,113b8 <fail>
   112bc:	00120213          	addi	tp,tp,1 # 1 <_start+0x1>
   112c0:	00200293          	li	t0,2
   112c4:	fe5216e3          	bne	tp,t0,112b0 <test_15+0x8>

000112c8 <test_16>:
   112c8:	01000e13          	li	t3,16
   112cc:	00000213          	li	tp,0
   112d0:	00000093          	li	ra,0
   112d4:	fff00113          	li	sp,-1
   112d8:	00000013          	nop
   112dc:	0c208e63          	beq	ra,sp,113b8 <fail>
   112e0:	00120213          	addi	tp,tp,1 # 1 <_start+0x1>
   112e4:	00200293          	li	t0,2
   112e8:	fe5214e3          	bne	tp,t0,112d0 <test_16+0x8>

000112ec <test_17>:
   112ec:	01100e13          	li	t3,17
   112f0:	00000213          	li	tp,0
   112f4:	00000093          	li	ra,0
   112f8:	fff00113          	li	sp,-1
   112fc:	00000013          	nop
   11300:	00000013          	nop
   11304:	0a208a63          	beq	ra,sp,113b8 <fail>
   11308:	00120213          	addi	tp,tp,1 # 1 <_start+0x1>
   1130c:	00200293          	li	t0,2
   11310:	fe5212e3          	bne	tp,t0,112f4 <test_17+0x8>

00011314 <test_18>:
   11314:	01200e13          	li	t3,18
   11318:	00000213          	li	tp,0
   1131c:	00000093          	li	ra,0
   11320:	00000013          	nop
   11324:	fff00113          	li	sp,-1
   11328:	08208863          	beq	ra,sp,113b8 <fail>
   1132c:	00120213          	addi	tp,tp,1 # 1 <_start+0x1>
   11330:	00200293          	li	t0,2
   11334:	fe5214e3          	bne	tp,t0,1131c <test_18+0x8>

00011338 <test_19>:
   11338:	01300e13          	li	t3,19
   1133c:	00000213          	li	tp,0
   11340:	00000093          	li	ra,0
   11344:	00000013          	nop
   11348:	fff00113          	li	sp,-1
   1134c:	00000013          	nop
   11350:	06208463          	beq	ra,sp,113b8 <fail>
   11354:	00120213          	addi	tp,tp,1 # 1 <_start+0x1>
   11358:	00200293          	li	t0,2
   1135c:	fe5212e3          	bne	tp,t0,11340 <test_19+0x8>

00011360 <test_20>:
   11360:	01400e13          	li	t3,20
   11364:	00000213          	li	tp,0
   11368:	00000093          	li	ra,0
   1136c:	00000013          	nop
   11370:	00000013          	nop
   11374:	fff00113          	li	sp,-1
   11378:	04208063          	beq	ra,sp,113b8 <fail>
   1137c:	00120213          	addi	tp,tp,1 # 1 <_start+0x1>
   11380:	00200293          	li	t0,2
   11384:	fe5212e3          	bne	tp,t0,11368 <test_20+0x8>

00011388 <test_21>:
   11388:	00100093          	li	ra,1
   1138c:	00000a63          	beqz	zero,113a0 <test_21+0x18>
   11390:	00108093          	addi	ra,ra,1
   11394:	00108093          	addi	ra,ra,1
   11398:	00108093          	addi	ra,ra,1
   1139c:	00108093          	addi	ra,ra,1
   113a0:	00108093          	addi	ra,ra,1
   113a4:	00108093          	addi	ra,ra,1
   113a8:	00300e93          	li	t4,3
   113ac:	01500e13          	li	t3,21
   113b0:	01d09463          	bne	ra,t4,113b8 <fail>
   113b4:	05c01863          	bne	zero,t3,11404 <pass>

000113b8 <fail>:
   113b8:	04500513          	li	a0,69
   113bc:	00004137          	lui	sp,0x4
   113c0:	5c80c0ef          	jal	ra,1d988 <printf_c>
   113c4:	05200513          	li	a0,82
   113c8:	00004137          	lui	sp,0x4
   113cc:	5bc0c0ef          	jal	ra,1d988 <printf_c>
   113d0:	00004137          	lui	sp,0x4
   113d4:	5b40c0ef          	jal	ra,1d988 <printf_c>
   113d8:	04f00513          	li	a0,79
   113dc:	00004137          	lui	sp,0x4
   113e0:	5a80c0ef          	jal	ra,1d988 <printf_c>
   113e4:	00004137          	lui	sp,0x4
   113e8:	05200513          	li	a0,82
   113ec:	00004137          	lui	sp,0x4
   113f0:	5980c0ef          	jal	ra,1d988 <printf_c>
   113f4:	00a00513          	li	a0,10
   113f8:	00004137          	lui	sp,0x4
   113fc:	58c0c0ef          	jal	ra,1d988 <printf_c>
   11400:	0340006f          	j	11434 <bge>

00011404 <pass>:
   11404:	04f00513          	li	a0,79
   11408:	00004137          	lui	sp,0x4
   1140c:	57c0c0ef          	jal	ra,1d988 <printf_c>
   11410:	04b00513          	li	a0,75
   11414:	00004137          	lui	sp,0x4
   11418:	5700c0ef          	jal	ra,1d988 <printf_c>
   1141c:	00a00513          	li	a0,10
   11420:	00004137          	lui	sp,0x4
   11424:	5640c0ef          	jal	ra,1d988 <printf_c>
   11428:	00c0006f          	j	11434 <bge>

0001142c <.test_name>:
   1142c:	6762                	flw	fa4,24(sp)
   1142e:	2065                	jal	114d6 <test_6+0x12>
   11430:	0009                	c.addi	zero,2
	...

00011434 <bge>:
   11434:	00011537          	lui	a0,0x11
   11438:	42c50513          	addi	a0,a0,1068 # 1142c <.test_name>

0001143c <.prname_next>:
   1143c:	00004137          	lui	sp,0x4
   11440:	5600c0ef          	jal	ra,1d9a0 <printf_s>

00011444 <test_2>:
   11444:	00200e13          	li	t3,2
   11448:	00000093          	li	ra,0
   1144c:	00000113          	li	sp,0
   11450:	0020d663          	ble	sp,ra,1145c <test_2+0x18>
   11454:	31c01863          	bne	zero,t3,11764 <fail>
   11458:	01c01663          	bne	zero,t3,11464 <test_3>
   1145c:	fe20dee3          	ble	sp,ra,11458 <test_2+0x14>
   11460:	31c01263          	bne	zero,t3,11764 <fail>

00011464 <test_3>:
   11464:	00300e13          	li	t3,3
   11468:	00100093          	li	ra,1
   1146c:	00100113          	li	sp,1
   11470:	0020d663          	ble	sp,ra,1147c <test_3+0x18>
   11474:	2fc01863          	bne	zero,t3,11764 <fail>
   11478:	01c01663          	bne	zero,t3,11484 <test_4>
   1147c:	fe20dee3          	ble	sp,ra,11478 <test_3+0x14>
   11480:	2fc01263          	bne	zero,t3,11764 <fail>

00011484 <test_4>:
   11484:	00400e13          	li	t3,4
   11488:	fff00093          	li	ra,-1
   1148c:	fff00113          	li	sp,-1
   11490:	0020d663          	ble	sp,ra,1149c <test_4+0x18>
   11494:	2dc01863          	bne	zero,t3,11764 <fail>
   11498:	01c01663          	bne	zero,t3,114a4 <test_5>
   1149c:	fe20dee3          	ble	sp,ra,11498 <test_4+0x14>
   114a0:	2dc01263          	bne	zero,t3,11764 <fail>

000114a4 <test_5>:
   114a4:	00500e13          	li	t3,5
   114a8:	00100093          	li	ra,1
   114ac:	00000113          	li	sp,0
   114b0:	0020d663          	ble	sp,ra,114bc <test_5+0x18>
   114b4:	2bc01863          	bne	zero,t3,11764 <fail>
   114b8:	01c01663          	bne	zero,t3,114c4 <test_6>
   114bc:	fe20dee3          	ble	sp,ra,114b8 <test_5+0x14>
   114c0:	2bc01263          	bne	zero,t3,11764 <fail>

000114c4 <test_6>:
   114c4:	00600e13          	li	t3,6
   114c8:	00100093          	li	ra,1
   114cc:	fff00113          	li	sp,-1
   114d0:	0020d663          	ble	sp,ra,114dc <test_6+0x18>
   114d4:	29c01863          	bne	zero,t3,11764 <fail>
   114d8:	01c01663          	bne	zero,t3,114e4 <test_7>
   114dc:	fe20dee3          	ble	sp,ra,114d8 <test_6+0x14>
   114e0:	29c01263          	bne	zero,t3,11764 <fail>

000114e4 <test_7>:
   114e4:	00700e13          	li	t3,7
   114e8:	fff00093          	li	ra,-1
   114ec:	ffe00113          	li	sp,-2
   114f0:	0020d663          	ble	sp,ra,114fc <test_7+0x18>
   114f4:	27c01863          	bne	zero,t3,11764 <fail>
   114f8:	01c01663          	bne	zero,t3,11504 <test_8>
   114fc:	fe20dee3          	ble	sp,ra,114f8 <test_7+0x14>
   11500:	27c01263          	bne	zero,t3,11764 <fail>

00011504 <test_8>:
   11504:	00800e13          	li	t3,8
   11508:	00000093          	li	ra,0
   1150c:	00100113          	li	sp,1
   11510:	0020d463          	ble	sp,ra,11518 <test_8+0x14>
   11514:	01c01463          	bne	zero,t3,1151c <test_8+0x18>
   11518:	25c01663          	bne	zero,t3,11764 <fail>
   1151c:	fe20dee3          	ble	sp,ra,11518 <test_8+0x14>

00011520 <test_9>:
   11520:	00900e13          	li	t3,9
   11524:	fff00093          	li	ra,-1
   11528:	00100113          	li	sp,1
   1152c:	0020d463          	ble	sp,ra,11534 <test_9+0x14>
   11530:	01c01463          	bne	zero,t3,11538 <test_9+0x18>
   11534:	23c01863          	bne	zero,t3,11764 <fail>
   11538:	fe20dee3          	ble	sp,ra,11534 <test_9+0x14>

0001153c <test_10>:
   1153c:	00a00e13          	li	t3,10
   11540:	ffe00093          	li	ra,-2
   11544:	fff00113          	li	sp,-1
   11548:	0020d463          	ble	sp,ra,11550 <test_10+0x14>
   1154c:	01c01463          	bne	zero,t3,11554 <test_10+0x18>
   11550:	21c01a63          	bne	zero,t3,11764 <fail>
   11554:	fe20dee3          	ble	sp,ra,11550 <test_10+0x14>

00011558 <test_11>:
   11558:	00b00e13          	li	t3,11
   1155c:	ffe00093          	li	ra,-2
   11560:	00100113          	li	sp,1
   11564:	0020d463          	ble	sp,ra,1156c <test_11+0x14>
   11568:	01c01463          	bne	zero,t3,11570 <test_11+0x18>
   1156c:	1fc01c63          	bne	zero,t3,11764 <fail>
   11570:	fe20dee3          	ble	sp,ra,1156c <test_11+0x14>

00011574 <test_12>:
   11574:	00c00e13          	li	t3,12
   11578:	00000213          	li	tp,0
   1157c:	fff00093          	li	ra,-1
   11580:	00000113          	li	sp,0
   11584:	1e20d063          	ble	sp,ra,11764 <fail>
   11588:	00120213          	addi	tp,tp,1 # 1 <_start+0x1>
   1158c:	00200293          	li	t0,2
   11590:	fe5216e3          	bne	tp,t0,1157c <test_12+0x8>

00011594 <test_13>:
   11594:	00d00e13          	li	t3,13
   11598:	00000213          	li	tp,0
   1159c:	fff00093          	li	ra,-1
   115a0:	00000113          	li	sp,0
   115a4:	00000013          	nop
   115a8:	1a20de63          	ble	sp,ra,11764 <fail>
   115ac:	00120213          	addi	tp,tp,1 # 1 <_start+0x1>
   115b0:	00200293          	li	t0,2
   115b4:	fe5214e3          	bne	tp,t0,1159c <test_13+0x8>

000115b8 <test_14>:
   115b8:	00e00e13          	li	t3,14
   115bc:	00000213          	li	tp,0
   115c0:	fff00093          	li	ra,-1
   115c4:	00000113          	li	sp,0
   115c8:	00000013          	nop
   115cc:	00000013          	nop
   115d0:	1820da63          	ble	sp,ra,11764 <fail>
   115d4:	00120213          	addi	tp,tp,1 # 1 <_start+0x1>
   115d8:	00200293          	li	t0,2
   115dc:	fe5212e3          	bne	tp,t0,115c0 <test_14+0x8>

000115e0 <test_15>:
   115e0:	00f00e13          	li	t3,15
   115e4:	00000213          	li	tp,0
   115e8:	fff00093          	li	ra,-1
   115ec:	00000013          	nop
   115f0:	00000113          	li	sp,0
   115f4:	1620d863          	ble	sp,ra,11764 <fail>
   115f8:	00120213          	addi	tp,tp,1 # 1 <_start+0x1>
   115fc:	00200293          	li	t0,2
   11600:	fe5214e3          	bne	tp,t0,115e8 <test_15+0x8>

00011604 <test_16>:
   11604:	01000e13          	li	t3,16
   11608:	00000213          	li	tp,0
   1160c:	fff00093          	li	ra,-1
   11610:	00000013          	nop
   11614:	00000113          	li	sp,0
   11618:	00000013          	nop
   1161c:	1420d463          	ble	sp,ra,11764 <fail>
   11620:	00120213          	addi	tp,tp,1 # 1 <_start+0x1>
   11624:	00200293          	li	t0,2
   11628:	fe5212e3          	bne	tp,t0,1160c <test_16+0x8>

0001162c <test_17>:
   1162c:	01100e13          	li	t3,17
   11630:	00000213          	li	tp,0
   11634:	fff00093          	li	ra,-1
   11638:	00000013          	nop
   1163c:	00000013          	nop
   11640:	00000113          	li	sp,0
   11644:	1220d063          	ble	sp,ra,11764 <fail>
   11648:	00120213          	addi	tp,tp,1 # 1 <_start+0x1>
   1164c:	00200293          	li	t0,2
   11650:	fe5212e3          	bne	tp,t0,11634 <test_17+0x8>

00011654 <test_18>:
   11654:	01200e13          	li	t3,18
   11658:	00000213          	li	tp,0
   1165c:	fff00093          	li	ra,-1
   11660:	00000113          	li	sp,0
   11664:	1020d063          	ble	sp,ra,11764 <fail>
   11668:	00120213          	addi	tp,tp,1 # 1 <_start+0x1>
   1166c:	00200293          	li	t0,2
   11670:	fe5216e3          	bne	tp,t0,1165c <test_18+0x8>

00011674 <test_19>:
   11674:	01300e13          	li	t3,19
   11678:	00000213          	li	tp,0
   1167c:	fff00093          	li	ra,-1
   11680:	00000113          	li	sp,0
   11684:	00000013          	nop
   11688:	0c20de63          	ble	sp,ra,11764 <fail>
   1168c:	00120213          	addi	tp,tp,1 # 1 <_start+0x1>
   11690:	00200293          	li	t0,2
   11694:	fe5214e3          	bne	tp,t0,1167c <test_19+0x8>

00011698 <test_20>:
   11698:	01400e13          	li	t3,20
   1169c:	00000213          	li	tp,0
   116a0:	fff00093          	li	ra,-1
   116a4:	00000113          	li	sp,0
   116a8:	00000013          	nop
   116ac:	00000013          	nop
   116b0:	0a20da63          	ble	sp,ra,11764 <fail>
   116b4:	00120213          	addi	tp,tp,1 # 1 <_start+0x1>
   116b8:	00200293          	li	t0,2
   116bc:	fe5212e3          	bne	tp,t0,116a0 <test_20+0x8>

000116c0 <test_21>:
   116c0:	01500e13          	li	t3,21
   116c4:	00000213          	li	tp,0
   116c8:	fff00093          	li	ra,-1
   116cc:	00000013          	nop
   116d0:	00000113          	li	sp,0
   116d4:	0820d863          	ble	sp,ra,11764 <fail>
   116d8:	00120213          	addi	tp,tp,1 # 1 <_start+0x1>
   116dc:	00200293          	li	t0,2
   116e0:	fe5214e3          	bne	tp,t0,116c8 <test_21+0x8>

000116e4 <test_22>:
   116e4:	01600e13          	li	t3,22
   116e8:	00000213          	li	tp,0
   116ec:	fff00093          	li	ra,-1
   116f0:	00000013          	nop
   116f4:	00000113          	li	sp,0
   116f8:	00000013          	nop
   116fc:	0620d463          	ble	sp,ra,11764 <fail>
   11700:	00120213          	addi	tp,tp,1 # 1 <_start+0x1>
   11704:	00200293          	li	t0,2
   11708:	fe5212e3          	bne	tp,t0,116ec <test_22+0x8>

0001170c <test_23>:
   1170c:	01700e13          	li	t3,23
   11710:	00000213          	li	tp,0
   11714:	fff00093          	li	ra,-1
   11718:	00000013          	nop
   1171c:	00000013          	nop
   11720:	00000113          	li	sp,0
   11724:	0420d063          	ble	sp,ra,11764 <fail>
   11728:	00120213          	addi	tp,tp,1 # 1 <_start+0x1>
   1172c:	00200293          	li	t0,2
   11730:	fe5212e3          	bne	tp,t0,11714 <test_23+0x8>

00011734 <test_24>:
   11734:	00100093          	li	ra,1
   11738:	0000da63          	bgez	ra,1174c <test_24+0x18>
   1173c:	00108093          	addi	ra,ra,1
   11740:	00108093          	addi	ra,ra,1
   11744:	00108093          	addi	ra,ra,1
   11748:	00108093          	addi	ra,ra,1
   1174c:	00108093          	addi	ra,ra,1
   11750:	00108093          	addi	ra,ra,1
   11754:	00300e93          	li	t4,3
   11758:	01800e13          	li	t3,24
   1175c:	01d09463          	bne	ra,t4,11764 <fail>
   11760:	05c01863          	bne	zero,t3,117b0 <pass>

00011764 <fail>:
   11764:	04500513          	li	a0,69
   11768:	00004137          	lui	sp,0x4
   1176c:	21c0c0ef          	jal	ra,1d988 <printf_c>
   11770:	05200513          	li	a0,82
   11774:	00004137          	lui	sp,0x4
   11778:	2100c0ef          	jal	ra,1d988 <printf_c>
   1177c:	00004137          	lui	sp,0x4
   11780:	2080c0ef          	jal	ra,1d988 <printf_c>
   11784:	04f00513          	li	a0,79
   11788:	00004137          	lui	sp,0x4
   1178c:	1fc0c0ef          	jal	ra,1d988 <printf_c>
   11790:	00004137          	lui	sp,0x4
   11794:	05200513          	li	a0,82
   11798:	00004137          	lui	sp,0x4
   1179c:	1ec0c0ef          	jal	ra,1d988 <printf_c>
   117a0:	00a00513          	li	a0,10
   117a4:	00004137          	lui	sp,0x4
   117a8:	1e00c0ef          	jal	ra,1d988 <printf_c>
   117ac:	0340006f          	j	117e0 <bgeu>

000117b0 <pass>:
   117b0:	04f00513          	li	a0,79
   117b4:	00004137          	lui	sp,0x4
   117b8:	1d00c0ef          	jal	ra,1d988 <printf_c>
   117bc:	04b00513          	li	a0,75
   117c0:	00004137          	lui	sp,0x4
   117c4:	1c40c0ef          	jal	ra,1d988 <printf_c>
   117c8:	00a00513          	li	a0,10
   117cc:	00004137          	lui	sp,0x4
   117d0:	1b80c0ef          	jal	ra,1d988 <printf_c>
   117d4:	00c0006f          	j	117e0 <bgeu>

000117d8 <.test_name>:
   117d8:	6762                	flw	fa4,24(sp)
   117da:	7565                	lui	a0,0xffff9
   117dc:	0920                	addi	s0,sp,152
	...

000117e0 <bgeu>:
   117e0:	00011537          	lui	a0,0x11
   117e4:	7d850513          	addi	a0,a0,2008 # 117d8 <.test_name>

000117e8 <.prname_next>:
   117e8:	00004137          	lui	sp,0x4
   117ec:	1b40c0ef          	jal	ra,1d9a0 <printf_s>

000117f0 <test_2>:
   117f0:	00200e13          	li	t3,2
   117f4:	00000093          	li	ra,0
   117f8:	00000113          	li	sp,0
   117fc:	0020f663          	bleu	sp,ra,11808 <test_2+0x18>
   11800:	35c01263          	bne	zero,t3,11b44 <fail>
   11804:	01c01663          	bne	zero,t3,11810 <test_3>
   11808:	fe20fee3          	bleu	sp,ra,11804 <test_2+0x14>
   1180c:	33c01c63          	bne	zero,t3,11b44 <fail>

00011810 <test_3>:
   11810:	00300e13          	li	t3,3
   11814:	00100093          	li	ra,1
   11818:	00100113          	li	sp,1
   1181c:	0020f663          	bleu	sp,ra,11828 <test_3+0x18>
   11820:	33c01263          	bne	zero,t3,11b44 <fail>
   11824:	01c01663          	bne	zero,t3,11830 <test_4>
   11828:	fe20fee3          	bleu	sp,ra,11824 <test_3+0x14>
   1182c:	31c01c63          	bne	zero,t3,11b44 <fail>

00011830 <test_4>:
   11830:	00400e13          	li	t3,4
   11834:	fff00093          	li	ra,-1
   11838:	fff00113          	li	sp,-1
   1183c:	0020f663          	bleu	sp,ra,11848 <test_4+0x18>
   11840:	31c01263          	bne	zero,t3,11b44 <fail>
   11844:	01c01663          	bne	zero,t3,11850 <test_5>
   11848:	fe20fee3          	bleu	sp,ra,11844 <test_4+0x14>
   1184c:	2fc01c63          	bne	zero,t3,11b44 <fail>

00011850 <test_5>:
   11850:	00500e13          	li	t3,5
   11854:	00100093          	li	ra,1
   11858:	00000113          	li	sp,0
   1185c:	0020f663          	bleu	sp,ra,11868 <test_5+0x18>
   11860:	2fc01263          	bne	zero,t3,11b44 <fail>
   11864:	01c01663          	bne	zero,t3,11870 <test_6>
   11868:	fe20fee3          	bleu	sp,ra,11864 <test_5+0x14>
   1186c:	2dc01c63          	bne	zero,t3,11b44 <fail>

00011870 <test_6>:
   11870:	00600e13          	li	t3,6
   11874:	fff00093          	li	ra,-1
   11878:	ffe00113          	li	sp,-2
   1187c:	0020f663          	bleu	sp,ra,11888 <test_6+0x18>
   11880:	2dc01263          	bne	zero,t3,11b44 <fail>
   11884:	01c01663          	bne	zero,t3,11890 <test_7>
   11888:	fe20fee3          	bleu	sp,ra,11884 <test_6+0x14>
   1188c:	2bc01c63          	bne	zero,t3,11b44 <fail>

00011890 <test_7>:
   11890:	00700e13          	li	t3,7
   11894:	fff00093          	li	ra,-1
   11898:	00000113          	li	sp,0
   1189c:	0020f663          	bleu	sp,ra,118a8 <test_7+0x18>
   118a0:	2bc01263          	bne	zero,t3,11b44 <fail>
   118a4:	01c01663          	bne	zero,t3,118b0 <test_8>
   118a8:	fe20fee3          	bleu	sp,ra,118a4 <test_7+0x14>
   118ac:	29c01c63          	bne	zero,t3,11b44 <fail>

000118b0 <test_8>:
   118b0:	00800e13          	li	t3,8
   118b4:	00000093          	li	ra,0
   118b8:	00100113          	li	sp,1
   118bc:	0020f463          	bleu	sp,ra,118c4 <test_8+0x14>
   118c0:	01c01463          	bne	zero,t3,118c8 <test_8+0x18>
   118c4:	29c01063          	bne	zero,t3,11b44 <fail>
   118c8:	fe20fee3          	bleu	sp,ra,118c4 <test_8+0x14>

000118cc <test_9>:
   118cc:	00900e13          	li	t3,9
   118d0:	ffe00093          	li	ra,-2
   118d4:	fff00113          	li	sp,-1
   118d8:	0020f463          	bleu	sp,ra,118e0 <test_9+0x14>
   118dc:	01c01463          	bne	zero,t3,118e4 <test_9+0x18>
   118e0:	27c01263          	bne	zero,t3,11b44 <fail>
   118e4:	fe20fee3          	bleu	sp,ra,118e0 <test_9+0x14>

000118e8 <test_10>:
   118e8:	00a00e13          	li	t3,10
   118ec:	00000093          	li	ra,0
   118f0:	fff00113          	li	sp,-1
   118f4:	0020f463          	bleu	sp,ra,118fc <test_10+0x14>
   118f8:	01c01463          	bne	zero,t3,11900 <test_10+0x18>
   118fc:	25c01463          	bne	zero,t3,11b44 <fail>
   11900:	fe20fee3          	bleu	sp,ra,118fc <test_10+0x14>

00011904 <test_11>:
   11904:	00b00e13          	li	t3,11
   11908:	800000b7          	lui	ra,0x80000
   1190c:	fff08093          	addi	ra,ra,-1 # 7fffffff <heap_memory_used+0x7ffde227>
   11910:	80000137          	lui	sp,0x80000
   11914:	0020f463          	bleu	sp,ra,1191c <test_11+0x18>
   11918:	01c01463          	bne	zero,t3,11920 <test_11+0x1c>
   1191c:	23c01463          	bne	zero,t3,11b44 <fail>
   11920:	fe20fee3          	bleu	sp,ra,1191c <test_11+0x18>

00011924 <test_12>:
   11924:	00c00e13          	li	t3,12
   11928:	00000213          	li	tp,0
   1192c:	f00000b7          	lui	ra,0xf0000
   11930:	fff08093          	addi	ra,ra,-1 # efffffff <heap_memory_used+0xeffde227>
   11934:	f0000137          	lui	sp,0xf0000
   11938:	2020f663          	bleu	sp,ra,11b44 <fail>
   1193c:	00120213          	addi	tp,tp,1 # 1 <_start+0x1>
   11940:	00200293          	li	t0,2
   11944:	fe5214e3          	bne	tp,t0,1192c <test_12+0x8>

00011948 <test_13>:
   11948:	00d00e13          	li	t3,13
   1194c:	00000213          	li	tp,0
   11950:	f00000b7          	lui	ra,0xf0000
   11954:	fff08093          	addi	ra,ra,-1 # efffffff <heap_memory_used+0xeffde227>
   11958:	f0000137          	lui	sp,0xf0000
   1195c:	00000013          	nop
   11960:	1e20f263          	bleu	sp,ra,11b44 <fail>
   11964:	00120213          	addi	tp,tp,1 # 1 <_start+0x1>
   11968:	00200293          	li	t0,2
   1196c:	fe5212e3          	bne	tp,t0,11950 <test_13+0x8>

00011970 <test_14>:
   11970:	00e00e13          	li	t3,14
   11974:	00000213          	li	tp,0
   11978:	f00000b7          	lui	ra,0xf0000
   1197c:	fff08093          	addi	ra,ra,-1 # efffffff <heap_memory_used+0xeffde227>
   11980:	f0000137          	lui	sp,0xf0000
   11984:	00000013          	nop
   11988:	00000013          	nop
   1198c:	1a20fc63          	bleu	sp,ra,11b44 <fail>
   11990:	00120213          	addi	tp,tp,1 # 1 <_start+0x1>
   11994:	00200293          	li	t0,2
   11998:	fe5210e3          	bne	tp,t0,11978 <test_14+0x8>

0001199c <test_15>:
   1199c:	00f00e13          	li	t3,15
   119a0:	00000213          	li	tp,0
   119a4:	f00000b7          	lui	ra,0xf0000
   119a8:	fff08093          	addi	ra,ra,-1 # efffffff <heap_memory_used+0xeffde227>
   119ac:	00000013          	nop
   119b0:	f0000137          	lui	sp,0xf0000
   119b4:	1820f863          	bleu	sp,ra,11b44 <fail>
   119b8:	00120213          	addi	tp,tp,1 # 1 <_start+0x1>
   119bc:	00200293          	li	t0,2
   119c0:	fe5212e3          	bne	tp,t0,119a4 <test_15+0x8>

000119c4 <test_16>:
   119c4:	01000e13          	li	t3,16
   119c8:	00000213          	li	tp,0
   119cc:	f00000b7          	lui	ra,0xf0000
   119d0:	fff08093          	addi	ra,ra,-1 # efffffff <heap_memory_used+0xeffde227>
   119d4:	00000013          	nop
   119d8:	f0000137          	lui	sp,0xf0000
   119dc:	00000013          	nop
   119e0:	1620f263          	bleu	sp,ra,11b44 <fail>
   119e4:	00120213          	addi	tp,tp,1 # 1 <_start+0x1>
   119e8:	00200293          	li	t0,2
   119ec:	fe5210e3          	bne	tp,t0,119cc <test_16+0x8>

000119f0 <test_17>:
   119f0:	01100e13          	li	t3,17
   119f4:	00000213          	li	tp,0
   119f8:	f00000b7          	lui	ra,0xf0000
   119fc:	fff08093          	addi	ra,ra,-1 # efffffff <heap_memory_used+0xeffde227>
   11a00:	00000013          	nop
   11a04:	00000013          	nop
   11a08:	f0000137          	lui	sp,0xf0000
   11a0c:	1220fc63          	bleu	sp,ra,11b44 <fail>
   11a10:	00120213          	addi	tp,tp,1 # 1 <_start+0x1>
   11a14:	00200293          	li	t0,2
   11a18:	fe5210e3          	bne	tp,t0,119f8 <test_17+0x8>

00011a1c <test_18>:
   11a1c:	01200e13          	li	t3,18
   11a20:	00000213          	li	tp,0
   11a24:	f00000b7          	lui	ra,0xf0000
   11a28:	fff08093          	addi	ra,ra,-1 # efffffff <heap_memory_used+0xeffde227>
   11a2c:	f0000137          	lui	sp,0xf0000
   11a30:	1020fa63          	bleu	sp,ra,11b44 <fail>
   11a34:	00120213          	addi	tp,tp,1 # 1 <_start+0x1>
   11a38:	00200293          	li	t0,2
   11a3c:	fe5214e3          	bne	tp,t0,11a24 <test_18+0x8>

00011a40 <test_19>:
   11a40:	01300e13          	li	t3,19
   11a44:	00000213          	li	tp,0
   11a48:	f00000b7          	lui	ra,0xf0000
   11a4c:	fff08093          	addi	ra,ra,-1 # efffffff <heap_memory_used+0xeffde227>
   11a50:	f0000137          	lui	sp,0xf0000
   11a54:	00000013          	nop
   11a58:	0e20f663          	bleu	sp,ra,11b44 <fail>
   11a5c:	00120213          	addi	tp,tp,1 # 1 <_start+0x1>
   11a60:	00200293          	li	t0,2
   11a64:	fe5212e3          	bne	tp,t0,11a48 <test_19+0x8>

00011a68 <test_20>:
   11a68:	01400e13          	li	t3,20
   11a6c:	00000213          	li	tp,0
   11a70:	f00000b7          	lui	ra,0xf0000
   11a74:	fff08093          	addi	ra,ra,-1 # efffffff <heap_memory_used+0xeffde227>
   11a78:	f0000137          	lui	sp,0xf0000
   11a7c:	00000013          	nop
   11a80:	00000013          	nop
   11a84:	0c20f063          	bleu	sp,ra,11b44 <fail>
   11a88:	00120213          	addi	tp,tp,1 # 1 <_start+0x1>
   11a8c:	00200293          	li	t0,2
   11a90:	fe5210e3          	bne	tp,t0,11a70 <test_20+0x8>

00011a94 <test_21>:
   11a94:	01500e13          	li	t3,21
   11a98:	00000213          	li	tp,0
   11a9c:	f00000b7          	lui	ra,0xf0000
   11aa0:	fff08093          	addi	ra,ra,-1 # efffffff <heap_memory_used+0xeffde227>
   11aa4:	00000013          	nop
   11aa8:	f0000137          	lui	sp,0xf0000
   11aac:	0820fc63          	bleu	sp,ra,11b44 <fail>
   11ab0:	00120213          	addi	tp,tp,1 # 1 <_start+0x1>
   11ab4:	00200293          	li	t0,2
   11ab8:	fe5212e3          	bne	tp,t0,11a9c <test_21+0x8>

00011abc <test_22>:
   11abc:	01600e13          	li	t3,22
   11ac0:	00000213          	li	tp,0
   11ac4:	f00000b7          	lui	ra,0xf0000
   11ac8:	fff08093          	addi	ra,ra,-1 # efffffff <heap_memory_used+0xeffde227>
   11acc:	00000013          	nop
   11ad0:	f0000137          	lui	sp,0xf0000
   11ad4:	00000013          	nop
   11ad8:	0620f663          	bleu	sp,ra,11b44 <fail>
   11adc:	00120213          	addi	tp,tp,1 # 1 <_start+0x1>
   11ae0:	00200293          	li	t0,2
   11ae4:	fe5210e3          	bne	tp,t0,11ac4 <test_22+0x8>

00011ae8 <test_23>:
   11ae8:	01700e13          	li	t3,23
   11aec:	00000213          	li	tp,0
   11af0:	f00000b7          	lui	ra,0xf0000
   11af4:	fff08093          	addi	ra,ra,-1 # efffffff <heap_memory_used+0xeffde227>
   11af8:	00000013          	nop
   11afc:	00000013          	nop
   11b00:	f0000137          	lui	sp,0xf0000
   11b04:	0420f063          	bleu	sp,ra,11b44 <fail>
   11b08:	00120213          	addi	tp,tp,1 # 1 <_start+0x1>
   11b0c:	00200293          	li	t0,2
   11b10:	fe5210e3          	bne	tp,t0,11af0 <test_23+0x8>

00011b14 <test_24>:
   11b14:	00100093          	li	ra,1
   11b18:	0000fa63          	bleu	zero,ra,11b2c <test_24+0x18>
   11b1c:	00108093          	addi	ra,ra,1
   11b20:	00108093          	addi	ra,ra,1
   11b24:	00108093          	addi	ra,ra,1
   11b28:	00108093          	addi	ra,ra,1
   11b2c:	00108093          	addi	ra,ra,1
   11b30:	00108093          	addi	ra,ra,1
   11b34:	00300e93          	li	t4,3
   11b38:	01800e13          	li	t3,24
   11b3c:	01d09463          	bne	ra,t4,11b44 <fail>
   11b40:	05c01863          	bne	zero,t3,11b90 <pass>

00011b44 <fail>:
   11b44:	04500513          	li	a0,69
   11b48:	00004137          	lui	sp,0x4
   11b4c:	63d0b0ef          	jal	ra,1d988 <printf_c>
   11b50:	05200513          	li	a0,82
   11b54:	00004137          	lui	sp,0x4
   11b58:	6310b0ef          	jal	ra,1d988 <printf_c>
   11b5c:	00004137          	lui	sp,0x4
   11b60:	6290b0ef          	jal	ra,1d988 <printf_c>
   11b64:	04f00513          	li	a0,79
   11b68:	00004137          	lui	sp,0x4
   11b6c:	61d0b0ef          	jal	ra,1d988 <printf_c>
   11b70:	00004137          	lui	sp,0x4
   11b74:	05200513          	li	a0,82
   11b78:	00004137          	lui	sp,0x4
   11b7c:	60d0b0ef          	jal	ra,1d988 <printf_c>
   11b80:	00a00513          	li	a0,10
   11b84:	00004137          	lui	sp,0x4
   11b88:	6010b0ef          	jal	ra,1d988 <printf_c>
   11b8c:	0340006f          	j	11bc0 <blt>

00011b90 <pass>:
   11b90:	04f00513          	li	a0,79
   11b94:	00004137          	lui	sp,0x4
   11b98:	5f10b0ef          	jal	ra,1d988 <printf_c>
   11b9c:	04b00513          	li	a0,75
   11ba0:	00004137          	lui	sp,0x4
   11ba4:	5e50b0ef          	jal	ra,1d988 <printf_c>
   11ba8:	00a00513          	li	a0,10
   11bac:	00004137          	lui	sp,0x4
   11bb0:	5d90b0ef          	jal	ra,1d988 <printf_c>
   11bb4:	00c0006f          	j	11bc0 <blt>

00011bb8 <.test_name>:
   11bb8:	6c62                	flw	fs8,24(sp)
   11bba:	2074                	fld	fa3,192(s0)
   11bbc:	0009                	c.addi	zero,2
	...

00011bc0 <blt>:
   11bc0:	00012537          	lui	a0,0x12
   11bc4:	bb850513          	addi	a0,a0,-1096 # 11bb8 <.test_name>

00011bc8 <.prname_next>:
   11bc8:	00004137          	lui	sp,0x4
   11bcc:	5d50b0ef          	jal	ra,1d9a0 <printf_s>

00011bd0 <test_2>:
   11bd0:	00200e13          	li	t3,2
   11bd4:	00000093          	li	ra,0
   11bd8:	00100113          	li	sp,1
   11bdc:	0020c663          	blt	ra,sp,11be8 <test_2+0x18>
   11be0:	2bc01863          	bne	zero,t3,11e90 <fail>
   11be4:	01c01663          	bne	zero,t3,11bf0 <test_3>
   11be8:	fe20cee3          	blt	ra,sp,11be4 <test_2+0x14>
   11bec:	2bc01263          	bne	zero,t3,11e90 <fail>

00011bf0 <test_3>:
   11bf0:	00300e13          	li	t3,3
   11bf4:	fff00093          	li	ra,-1
   11bf8:	00100113          	li	sp,1
   11bfc:	0020c663          	blt	ra,sp,11c08 <test_3+0x18>
   11c00:	29c01863          	bne	zero,t3,11e90 <fail>
   11c04:	01c01663          	bne	zero,t3,11c10 <test_4>
   11c08:	fe20cee3          	blt	ra,sp,11c04 <test_3+0x14>
   11c0c:	29c01263          	bne	zero,t3,11e90 <fail>

00011c10 <test_4>:
   11c10:	00400e13          	li	t3,4
   11c14:	ffe00093          	li	ra,-2
   11c18:	fff00113          	li	sp,-1
   11c1c:	0020c663          	blt	ra,sp,11c28 <test_4+0x18>
   11c20:	27c01863          	bne	zero,t3,11e90 <fail>
   11c24:	01c01663          	bne	zero,t3,11c30 <test_5>
   11c28:	fe20cee3          	blt	ra,sp,11c24 <test_4+0x14>
   11c2c:	27c01263          	bne	zero,t3,11e90 <fail>

00011c30 <test_5>:
   11c30:	00500e13          	li	t3,5
   11c34:	00100093          	li	ra,1
   11c38:	00000113          	li	sp,0
   11c3c:	0020c463          	blt	ra,sp,11c44 <test_5+0x14>
   11c40:	01c01463          	bne	zero,t3,11c48 <test_5+0x18>
   11c44:	25c01663          	bne	zero,t3,11e90 <fail>
   11c48:	fe20cee3          	blt	ra,sp,11c44 <test_5+0x14>

00011c4c <test_6>:
   11c4c:	00600e13          	li	t3,6
   11c50:	00100093          	li	ra,1
   11c54:	fff00113          	li	sp,-1
   11c58:	0020c463          	blt	ra,sp,11c60 <test_6+0x14>
   11c5c:	01c01463          	bne	zero,t3,11c64 <test_6+0x18>
   11c60:	23c01863          	bne	zero,t3,11e90 <fail>
   11c64:	fe20cee3          	blt	ra,sp,11c60 <test_6+0x14>

00011c68 <test_7>:
   11c68:	00700e13          	li	t3,7
   11c6c:	fff00093          	li	ra,-1
   11c70:	ffe00113          	li	sp,-2
   11c74:	0020c463          	blt	ra,sp,11c7c <test_7+0x14>
   11c78:	01c01463          	bne	zero,t3,11c80 <test_7+0x18>
   11c7c:	21c01a63          	bne	zero,t3,11e90 <fail>
   11c80:	fe20cee3          	blt	ra,sp,11c7c <test_7+0x14>

00011c84 <test_8>:
   11c84:	00800e13          	li	t3,8
   11c88:	00100093          	li	ra,1
   11c8c:	ffe00113          	li	sp,-2
   11c90:	0020c463          	blt	ra,sp,11c98 <test_8+0x14>
   11c94:	01c01463          	bne	zero,t3,11c9c <test_8+0x18>
   11c98:	1fc01c63          	bne	zero,t3,11e90 <fail>
   11c9c:	fe20cee3          	blt	ra,sp,11c98 <test_8+0x14>

00011ca0 <test_9>:
   11ca0:	00900e13          	li	t3,9
   11ca4:	00000213          	li	tp,0
   11ca8:	00000093          	li	ra,0
   11cac:	fff00113          	li	sp,-1
   11cb0:	1e20c063          	blt	ra,sp,11e90 <fail>
   11cb4:	00120213          	addi	tp,tp,1 # 1 <_start+0x1>
   11cb8:	00200293          	li	t0,2
   11cbc:	fe5216e3          	bne	tp,t0,11ca8 <test_9+0x8>

00011cc0 <test_10>:
   11cc0:	00a00e13          	li	t3,10
   11cc4:	00000213          	li	tp,0
   11cc8:	00000093          	li	ra,0
   11ccc:	fff00113          	li	sp,-1
   11cd0:	00000013          	nop
   11cd4:	1a20ce63          	blt	ra,sp,11e90 <fail>
   11cd8:	00120213          	addi	tp,tp,1 # 1 <_start+0x1>
   11cdc:	00200293          	li	t0,2
   11ce0:	fe5214e3          	bne	tp,t0,11cc8 <test_10+0x8>

00011ce4 <test_11>:
   11ce4:	00b00e13          	li	t3,11
   11ce8:	00000213          	li	tp,0
   11cec:	00000093          	li	ra,0
   11cf0:	fff00113          	li	sp,-1
   11cf4:	00000013          	nop
   11cf8:	00000013          	nop
   11cfc:	1820ca63          	blt	ra,sp,11e90 <fail>
   11d00:	00120213          	addi	tp,tp,1 # 1 <_start+0x1>
   11d04:	00200293          	li	t0,2
   11d08:	fe5212e3          	bne	tp,t0,11cec <test_11+0x8>

00011d0c <test_12>:
   11d0c:	00c00e13          	li	t3,12
   11d10:	00000213          	li	tp,0
   11d14:	00000093          	li	ra,0
   11d18:	00000013          	nop
   11d1c:	fff00113          	li	sp,-1
   11d20:	1620c863          	blt	ra,sp,11e90 <fail>
   11d24:	00120213          	addi	tp,tp,1 # 1 <_start+0x1>
   11d28:	00200293          	li	t0,2
   11d2c:	fe5214e3          	bne	tp,t0,11d14 <test_12+0x8>

00011d30 <test_13>:
   11d30:	00d00e13          	li	t3,13
   11d34:	00000213          	li	tp,0
   11d38:	00000093          	li	ra,0
   11d3c:	00000013          	nop
   11d40:	fff00113          	li	sp,-1
   11d44:	00000013          	nop
   11d48:	1420c463          	blt	ra,sp,11e90 <fail>
   11d4c:	00120213          	addi	tp,tp,1 # 1 <_start+0x1>
   11d50:	00200293          	li	t0,2
   11d54:	fe5212e3          	bne	tp,t0,11d38 <test_13+0x8>

00011d58 <test_14>:
   11d58:	00e00e13          	li	t3,14
   11d5c:	00000213          	li	tp,0
   11d60:	00000093          	li	ra,0
   11d64:	00000013          	nop
   11d68:	00000013          	nop
   11d6c:	fff00113          	li	sp,-1
   11d70:	1220c063          	blt	ra,sp,11e90 <fail>
   11d74:	00120213          	addi	tp,tp,1 # 1 <_start+0x1>
   11d78:	00200293          	li	t0,2
   11d7c:	fe5212e3          	bne	tp,t0,11d60 <test_14+0x8>

00011d80 <test_15>:
   11d80:	00f00e13          	li	t3,15
   11d84:	00000213          	li	tp,0
   11d88:	00000093          	li	ra,0
   11d8c:	fff00113          	li	sp,-1
   11d90:	1020c063          	blt	ra,sp,11e90 <fail>
   11d94:	00120213          	addi	tp,tp,1 # 1 <_start+0x1>
   11d98:	00200293          	li	t0,2
   11d9c:	fe5216e3          	bne	tp,t0,11d88 <test_15+0x8>

00011da0 <test_16>:
   11da0:	01000e13          	li	t3,16
   11da4:	00000213          	li	tp,0
   11da8:	00000093          	li	ra,0
   11dac:	fff00113          	li	sp,-1
   11db0:	00000013          	nop
   11db4:	0c20ce63          	blt	ra,sp,11e90 <fail>
   11db8:	00120213          	addi	tp,tp,1 # 1 <_start+0x1>
   11dbc:	00200293          	li	t0,2
   11dc0:	fe5214e3          	bne	tp,t0,11da8 <test_16+0x8>

00011dc4 <test_17>:
   11dc4:	01100e13          	li	t3,17
   11dc8:	00000213          	li	tp,0
   11dcc:	00000093          	li	ra,0
   11dd0:	fff00113          	li	sp,-1
   11dd4:	00000013          	nop
   11dd8:	00000013          	nop
   11ddc:	0a20ca63          	blt	ra,sp,11e90 <fail>
   11de0:	00120213          	addi	tp,tp,1 # 1 <_start+0x1>
   11de4:	00200293          	li	t0,2
   11de8:	fe5212e3          	bne	tp,t0,11dcc <test_17+0x8>

00011dec <test_18>:
   11dec:	01200e13          	li	t3,18
   11df0:	00000213          	li	tp,0
   11df4:	00000093          	li	ra,0
   11df8:	00000013          	nop
   11dfc:	fff00113          	li	sp,-1
   11e00:	0820c863          	blt	ra,sp,11e90 <fail>
   11e04:	00120213          	addi	tp,tp,1 # 1 <_start+0x1>
   11e08:	00200293          	li	t0,2
   11e0c:	fe5214e3          	bne	tp,t0,11df4 <test_18+0x8>

00011e10 <test_19>:
   11e10:	01300e13          	li	t3,19
   11e14:	00000213          	li	tp,0
   11e18:	00000093          	li	ra,0
   11e1c:	00000013          	nop
   11e20:	fff00113          	li	sp,-1
   11e24:	00000013          	nop
   11e28:	0620c463          	blt	ra,sp,11e90 <fail>
   11e2c:	00120213          	addi	tp,tp,1 # 1 <_start+0x1>
   11e30:	00200293          	li	t0,2
   11e34:	fe5212e3          	bne	tp,t0,11e18 <test_19+0x8>

00011e38 <test_20>:
   11e38:	01400e13          	li	t3,20
   11e3c:	00000213          	li	tp,0
   11e40:	00000093          	li	ra,0
   11e44:	00000013          	nop
   11e48:	00000013          	nop
   11e4c:	fff00113          	li	sp,-1
   11e50:	0420c063          	blt	ra,sp,11e90 <fail>
   11e54:	00120213          	addi	tp,tp,1 # 1 <_start+0x1>
   11e58:	00200293          	li	t0,2
   11e5c:	fe5212e3          	bne	tp,t0,11e40 <test_20+0x8>

00011e60 <test_21>:
   11e60:	00100093          	li	ra,1
   11e64:	00104a63          	bgtz	ra,11e78 <test_21+0x18>
   11e68:	00108093          	addi	ra,ra,1
   11e6c:	00108093          	addi	ra,ra,1
   11e70:	00108093          	addi	ra,ra,1
   11e74:	00108093          	addi	ra,ra,1
   11e78:	00108093          	addi	ra,ra,1
   11e7c:	00108093          	addi	ra,ra,1
   11e80:	00300e93          	li	t4,3
   11e84:	01500e13          	li	t3,21
   11e88:	01d09463          	bne	ra,t4,11e90 <fail>
   11e8c:	05c01863          	bne	zero,t3,11edc <pass>

00011e90 <fail>:
   11e90:	04500513          	li	a0,69
   11e94:	00004137          	lui	sp,0x4
   11e98:	2f10b0ef          	jal	ra,1d988 <printf_c>
   11e9c:	05200513          	li	a0,82
   11ea0:	00004137          	lui	sp,0x4
   11ea4:	2e50b0ef          	jal	ra,1d988 <printf_c>
   11ea8:	00004137          	lui	sp,0x4
   11eac:	2dd0b0ef          	jal	ra,1d988 <printf_c>
   11eb0:	04f00513          	li	a0,79
   11eb4:	00004137          	lui	sp,0x4
   11eb8:	2d10b0ef          	jal	ra,1d988 <printf_c>
   11ebc:	00004137          	lui	sp,0x4
   11ec0:	05200513          	li	a0,82
   11ec4:	00004137          	lui	sp,0x4
   11ec8:	2c10b0ef          	jal	ra,1d988 <printf_c>
   11ecc:	00a00513          	li	a0,10
   11ed0:	00004137          	lui	sp,0x4
   11ed4:	2b50b0ef          	jal	ra,1d988 <printf_c>
   11ed8:	0340006f          	j	11f0c <bltu>

00011edc <pass>:
   11edc:	04f00513          	li	a0,79
   11ee0:	00004137          	lui	sp,0x4
   11ee4:	2a50b0ef          	jal	ra,1d988 <printf_c>
   11ee8:	04b00513          	li	a0,75
   11eec:	00004137          	lui	sp,0x4
   11ef0:	2990b0ef          	jal	ra,1d988 <printf_c>
   11ef4:	00a00513          	li	a0,10
   11ef8:	00004137          	lui	sp,0x4
   11efc:	28d0b0ef          	jal	ra,1d988 <printf_c>
   11f00:	00c0006f          	j	11f0c <bltu>

00011f04 <.test_name>:
   11f04:	6c62                	flw	fs8,24(sp)
   11f06:	7574                	flw	fa3,108(a0)
   11f08:	0920                	addi	s0,sp,152
	...

00011f0c <bltu>:
   11f0c:	00012537          	lui	a0,0x12
   11f10:	f0450513          	addi	a0,a0,-252 # 11f04 <.test_name>

00011f14 <.prname_next>:
   11f14:	00004137          	lui	sp,0x4
   11f18:	2890b0ef          	jal	ra,1d9a0 <printf_s>

00011f1c <test_2>:
   11f1c:	00200e13          	li	t3,2
   11f20:	00000093          	li	ra,0
   11f24:	00100113          	li	sp,1
   11f28:	0020e663          	bltu	ra,sp,11f34 <test_2+0x18>
   11f2c:	2fc01263          	bne	zero,t3,12210 <fail>
   11f30:	01c01663          	bne	zero,t3,11f3c <test_3>
   11f34:	fe20eee3          	bltu	ra,sp,11f30 <test_2+0x14>
   11f38:	2dc01c63          	bne	zero,t3,12210 <fail>

00011f3c <test_3>:
   11f3c:	00300e13          	li	t3,3
   11f40:	ffe00093          	li	ra,-2
   11f44:	fff00113          	li	sp,-1
   11f48:	0020e663          	bltu	ra,sp,11f54 <test_3+0x18>
   11f4c:	2dc01263          	bne	zero,t3,12210 <fail>
   11f50:	01c01663          	bne	zero,t3,11f5c <test_4>
   11f54:	fe20eee3          	bltu	ra,sp,11f50 <test_3+0x14>
   11f58:	2bc01c63          	bne	zero,t3,12210 <fail>

00011f5c <test_4>:
   11f5c:	00400e13          	li	t3,4
   11f60:	00000093          	li	ra,0
   11f64:	fff00113          	li	sp,-1
   11f68:	0020e663          	bltu	ra,sp,11f74 <test_4+0x18>
   11f6c:	2bc01263          	bne	zero,t3,12210 <fail>
   11f70:	01c01663          	bne	zero,t3,11f7c <test_5>
   11f74:	fe20eee3          	bltu	ra,sp,11f70 <test_4+0x14>
   11f78:	29c01c63          	bne	zero,t3,12210 <fail>

00011f7c <test_5>:
   11f7c:	00500e13          	li	t3,5
   11f80:	00100093          	li	ra,1
   11f84:	00000113          	li	sp,0
   11f88:	0020e463          	bltu	ra,sp,11f90 <test_5+0x14>
   11f8c:	01c01463          	bne	zero,t3,11f94 <test_5+0x18>
   11f90:	29c01063          	bne	zero,t3,12210 <fail>
   11f94:	fe20eee3          	bltu	ra,sp,11f90 <test_5+0x14>

00011f98 <test_6>:
   11f98:	00600e13          	li	t3,6
   11f9c:	fff00093          	li	ra,-1
   11fa0:	ffe00113          	li	sp,-2
   11fa4:	0020e463          	bltu	ra,sp,11fac <test_6+0x14>
   11fa8:	01c01463          	bne	zero,t3,11fb0 <test_6+0x18>
   11fac:	27c01263          	bne	zero,t3,12210 <fail>
   11fb0:	fe20eee3          	bltu	ra,sp,11fac <test_6+0x14>

00011fb4 <test_7>:
   11fb4:	00700e13          	li	t3,7
   11fb8:	fff00093          	li	ra,-1
   11fbc:	00000113          	li	sp,0
   11fc0:	0020e463          	bltu	ra,sp,11fc8 <test_7+0x14>
   11fc4:	01c01463          	bne	zero,t3,11fcc <test_7+0x18>
   11fc8:	25c01463          	bne	zero,t3,12210 <fail>
   11fcc:	fe20eee3          	bltu	ra,sp,11fc8 <test_7+0x14>

00011fd0 <test_8>:
   11fd0:	00800e13          	li	t3,8
   11fd4:	800000b7          	lui	ra,0x80000
   11fd8:	80000137          	lui	sp,0x80000
   11fdc:	fff10113          	addi	sp,sp,-1 # 7fffffff <heap_memory_used+0x7ffde227>
   11fe0:	0020e463          	bltu	ra,sp,11fe8 <test_8+0x18>
   11fe4:	01c01463          	bne	zero,t3,11fec <test_8+0x1c>
   11fe8:	23c01463          	bne	zero,t3,12210 <fail>
   11fec:	fe20eee3          	bltu	ra,sp,11fe8 <test_8+0x18>

00011ff0 <test_9>:
   11ff0:	00900e13          	li	t3,9
   11ff4:	00000213          	li	tp,0
   11ff8:	f00000b7          	lui	ra,0xf0000
   11ffc:	f0000137          	lui	sp,0xf0000
   12000:	fff10113          	addi	sp,sp,-1 # efffffff <heap_memory_used+0xeffde227>
   12004:	2020e663          	bltu	ra,sp,12210 <fail>
   12008:	00120213          	addi	tp,tp,1 # 1 <_start+0x1>
   1200c:	00200293          	li	t0,2
   12010:	fe5214e3          	bne	tp,t0,11ff8 <test_9+0x8>

00012014 <test_10>:
   12014:	00a00e13          	li	t3,10
   12018:	00000213          	li	tp,0
   1201c:	f00000b7          	lui	ra,0xf0000
   12020:	f0000137          	lui	sp,0xf0000
   12024:	fff10113          	addi	sp,sp,-1 # efffffff <heap_memory_used+0xeffde227>
   12028:	00000013          	nop
   1202c:	1e20e263          	bltu	ra,sp,12210 <fail>
   12030:	00120213          	addi	tp,tp,1 # 1 <_start+0x1>
   12034:	00200293          	li	t0,2
   12038:	fe5212e3          	bne	tp,t0,1201c <test_10+0x8>

0001203c <test_11>:
   1203c:	00b00e13          	li	t3,11
   12040:	00000213          	li	tp,0
   12044:	f00000b7          	lui	ra,0xf0000
   12048:	f0000137          	lui	sp,0xf0000
   1204c:	fff10113          	addi	sp,sp,-1 # efffffff <heap_memory_used+0xeffde227>
   12050:	00000013          	nop
   12054:	00000013          	nop
   12058:	1a20ec63          	bltu	ra,sp,12210 <fail>
   1205c:	00120213          	addi	tp,tp,1 # 1 <_start+0x1>
   12060:	00200293          	li	t0,2
   12064:	fe5210e3          	bne	tp,t0,12044 <test_11+0x8>

00012068 <test_12>:
   12068:	00c00e13          	li	t3,12
   1206c:	00000213          	li	tp,0
   12070:	f00000b7          	lui	ra,0xf0000
   12074:	00000013          	nop
   12078:	f0000137          	lui	sp,0xf0000
   1207c:	fff10113          	addi	sp,sp,-1 # efffffff <heap_memory_used+0xeffde227>
   12080:	1820e863          	bltu	ra,sp,12210 <fail>
   12084:	00120213          	addi	tp,tp,1 # 1 <_start+0x1>
   12088:	00200293          	li	t0,2
   1208c:	fe5212e3          	bne	tp,t0,12070 <test_12+0x8>

00012090 <test_13>:
   12090:	00d00e13          	li	t3,13
   12094:	00000213          	li	tp,0
   12098:	f00000b7          	lui	ra,0xf0000
   1209c:	00000013          	nop
   120a0:	f0000137          	lui	sp,0xf0000
   120a4:	fff10113          	addi	sp,sp,-1 # efffffff <heap_memory_used+0xeffde227>
   120a8:	00000013          	nop
   120ac:	1620e263          	bltu	ra,sp,12210 <fail>
   120b0:	00120213          	addi	tp,tp,1 # 1 <_start+0x1>
   120b4:	00200293          	li	t0,2
   120b8:	fe5210e3          	bne	tp,t0,12098 <test_13+0x8>

000120bc <test_14>:
   120bc:	00e00e13          	li	t3,14
   120c0:	00000213          	li	tp,0
   120c4:	f00000b7          	lui	ra,0xf0000
   120c8:	00000013          	nop
   120cc:	00000013          	nop
   120d0:	f0000137          	lui	sp,0xf0000
   120d4:	fff10113          	addi	sp,sp,-1 # efffffff <heap_memory_used+0xeffde227>
   120d8:	1220ec63          	bltu	ra,sp,12210 <fail>
   120dc:	00120213          	addi	tp,tp,1 # 1 <_start+0x1>
   120e0:	00200293          	li	t0,2
   120e4:	fe5210e3          	bne	tp,t0,120c4 <test_14+0x8>

000120e8 <test_15>:
   120e8:	00f00e13          	li	t3,15
   120ec:	00000213          	li	tp,0
   120f0:	f00000b7          	lui	ra,0xf0000
   120f4:	f0000137          	lui	sp,0xf0000
   120f8:	fff10113          	addi	sp,sp,-1 # efffffff <heap_memory_used+0xeffde227>
   120fc:	1020ea63          	bltu	ra,sp,12210 <fail>
   12100:	00120213          	addi	tp,tp,1 # 1 <_start+0x1>
   12104:	00200293          	li	t0,2
   12108:	fe5214e3          	bne	tp,t0,120f0 <test_15+0x8>

0001210c <test_16>:
   1210c:	01000e13          	li	t3,16
   12110:	00000213          	li	tp,0
   12114:	f00000b7          	lui	ra,0xf0000
   12118:	f0000137          	lui	sp,0xf0000
   1211c:	fff10113          	addi	sp,sp,-1 # efffffff <heap_memory_used+0xeffde227>
   12120:	00000013          	nop
   12124:	0e20e663          	bltu	ra,sp,12210 <fail>
   12128:	00120213          	addi	tp,tp,1 # 1 <_start+0x1>
   1212c:	00200293          	li	t0,2
   12130:	fe5212e3          	bne	tp,t0,12114 <test_16+0x8>

00012134 <test_17>:
   12134:	01100e13          	li	t3,17
   12138:	00000213          	li	tp,0
   1213c:	f00000b7          	lui	ra,0xf0000
   12140:	f0000137          	lui	sp,0xf0000
   12144:	fff10113          	addi	sp,sp,-1 # efffffff <heap_memory_used+0xeffde227>
   12148:	00000013          	nop
   1214c:	00000013          	nop
   12150:	0c20e063          	bltu	ra,sp,12210 <fail>
   12154:	00120213          	addi	tp,tp,1 # 1 <_start+0x1>
   12158:	00200293          	li	t0,2
   1215c:	fe5210e3          	bne	tp,t0,1213c <test_17+0x8>

00012160 <test_18>:
   12160:	01200e13          	li	t3,18
   12164:	00000213          	li	tp,0
   12168:	f00000b7          	lui	ra,0xf0000
   1216c:	00000013          	nop
   12170:	f0000137          	lui	sp,0xf0000
   12174:	fff10113          	addi	sp,sp,-1 # efffffff <heap_memory_used+0xeffde227>
   12178:	0820ec63          	bltu	ra,sp,12210 <fail>
   1217c:	00120213          	addi	tp,tp,1 # 1 <_start+0x1>
   12180:	00200293          	li	t0,2
   12184:	fe5212e3          	bne	tp,t0,12168 <test_18+0x8>

00012188 <test_19>:
   12188:	01300e13          	li	t3,19
   1218c:	00000213          	li	tp,0
   12190:	f00000b7          	lui	ra,0xf0000
   12194:	00000013          	nop
   12198:	f0000137          	lui	sp,0xf0000
   1219c:	fff10113          	addi	sp,sp,-1 # efffffff <heap_memory_used+0xeffde227>
   121a0:	00000013          	nop
   121a4:	0620e663          	bltu	ra,sp,12210 <fail>
   121a8:	00120213          	addi	tp,tp,1 # 1 <_start+0x1>
   121ac:	00200293          	li	t0,2
   121b0:	fe5210e3          	bne	tp,t0,12190 <test_19+0x8>

000121b4 <test_20>:
   121b4:	01400e13          	li	t3,20
   121b8:	00000213          	li	tp,0
   121bc:	f00000b7          	lui	ra,0xf0000
   121c0:	00000013          	nop
   121c4:	00000013          	nop
   121c8:	f0000137          	lui	sp,0xf0000
   121cc:	fff10113          	addi	sp,sp,-1 # efffffff <heap_memory_used+0xeffde227>
   121d0:	0420e063          	bltu	ra,sp,12210 <fail>
   121d4:	00120213          	addi	tp,tp,1 # 1 <_start+0x1>
   121d8:	00200293          	li	t0,2
   121dc:	fe5210e3          	bne	tp,t0,121bc <test_20+0x8>

000121e0 <test_21>:
   121e0:	00100093          	li	ra,1
   121e4:	00106a63          	bltu	zero,ra,121f8 <test_21+0x18>
   121e8:	00108093          	addi	ra,ra,1 # f0000001 <heap_memory_used+0xeffde229>
   121ec:	00108093          	addi	ra,ra,1
   121f0:	00108093          	addi	ra,ra,1
   121f4:	00108093          	addi	ra,ra,1
   121f8:	00108093          	addi	ra,ra,1
   121fc:	00108093          	addi	ra,ra,1
   12200:	00300e93          	li	t4,3
   12204:	01500e13          	li	t3,21
   12208:	01d09463          	bne	ra,t4,12210 <fail>
   1220c:	05c01863          	bne	zero,t3,1225c <pass>

00012210 <fail>:
   12210:	04500513          	li	a0,69
   12214:	00004137          	lui	sp,0x4
   12218:	7700b0ef          	jal	ra,1d988 <printf_c>
   1221c:	05200513          	li	a0,82
   12220:	00004137          	lui	sp,0x4
   12224:	7640b0ef          	jal	ra,1d988 <printf_c>
   12228:	00004137          	lui	sp,0x4
   1222c:	75c0b0ef          	jal	ra,1d988 <printf_c>
   12230:	04f00513          	li	a0,79
   12234:	00004137          	lui	sp,0x4
   12238:	7500b0ef          	jal	ra,1d988 <printf_c>
   1223c:	00004137          	lui	sp,0x4
   12240:	05200513          	li	a0,82
   12244:	00004137          	lui	sp,0x4
   12248:	7400b0ef          	jal	ra,1d988 <printf_c>
   1224c:	00a00513          	li	a0,10
   12250:	00004137          	lui	sp,0x4
   12254:	7340b0ef          	jal	ra,1d988 <printf_c>
   12258:	0340006f          	j	1228c <bne>

0001225c <pass>:
   1225c:	04f00513          	li	a0,79
   12260:	00004137          	lui	sp,0x4
   12264:	7240b0ef          	jal	ra,1d988 <printf_c>
   12268:	04b00513          	li	a0,75
   1226c:	00004137          	lui	sp,0x4
   12270:	7180b0ef          	jal	ra,1d988 <printf_c>
   12274:	00a00513          	li	a0,10
   12278:	00004137          	lui	sp,0x4
   1227c:	70c0b0ef          	jal	ra,1d988 <printf_c>
   12280:	00c0006f          	j	1228c <bne>

00012284 <.test_name>:
   12284:	6e62                	flw	ft8,24(sp)
   12286:	2065                	jal	1232e <test_6+0x12>
   12288:	0009                	c.addi	zero,2
	...

0001228c <bne>:
   1228c:	00012537          	lui	a0,0x12
   12290:	28450513          	addi	a0,a0,644 # 12284 <.test_name>

00012294 <.prname_next>:
   12294:	00004137          	lui	sp,0x4
   12298:	7080b0ef          	jal	ra,1d9a0 <printf_s>

0001229c <test_2>:
   1229c:	00200e13          	li	t3,2
   122a0:	00000093          	li	ra,0
   122a4:	00100113          	li	sp,1
   122a8:	00209663          	bne	ra,sp,122b4 <test_2+0x18>
   122ac:	2bc01a63          	bne	zero,t3,12560 <fail>
   122b0:	01c01663          	bne	zero,t3,122bc <test_3>
   122b4:	fe209ee3          	bne	ra,sp,122b0 <test_2+0x14>
   122b8:	2bc01463          	bne	zero,t3,12560 <fail>

000122bc <test_3>:
   122bc:	00300e13          	li	t3,3
   122c0:	00100093          	li	ra,1
   122c4:	00000113          	li	sp,0
   122c8:	00209663          	bne	ra,sp,122d4 <test_3+0x18>
   122cc:	29c01a63          	bne	zero,t3,12560 <fail>
   122d0:	01c01663          	bne	zero,t3,122dc <test_4>
   122d4:	fe209ee3          	bne	ra,sp,122d0 <test_3+0x14>
   122d8:	29c01463          	bne	zero,t3,12560 <fail>

000122dc <test_4>:
   122dc:	00400e13          	li	t3,4
   122e0:	fff00093          	li	ra,-1
   122e4:	00100113          	li	sp,1
   122e8:	00209663          	bne	ra,sp,122f4 <test_4+0x18>
   122ec:	27c01a63          	bne	zero,t3,12560 <fail>
   122f0:	01c01663          	bne	zero,t3,122fc <test_5>
   122f4:	fe209ee3          	bne	ra,sp,122f0 <test_4+0x14>
   122f8:	27c01463          	bne	zero,t3,12560 <fail>

000122fc <test_5>:
   122fc:	00500e13          	li	t3,5
   12300:	00100093          	li	ra,1
   12304:	fff00113          	li	sp,-1
   12308:	00209663          	bne	ra,sp,12314 <test_5+0x18>
   1230c:	25c01a63          	bne	zero,t3,12560 <fail>
   12310:	01c01663          	bne	zero,t3,1231c <test_6>
   12314:	fe209ee3          	bne	ra,sp,12310 <test_5+0x14>
   12318:	25c01463          	bne	zero,t3,12560 <fail>

0001231c <test_6>:
   1231c:	00600e13          	li	t3,6
   12320:	00000093          	li	ra,0
   12324:	00000113          	li	sp,0
   12328:	00209463          	bne	ra,sp,12330 <test_6+0x14>
   1232c:	01c01463          	bne	zero,t3,12334 <test_6+0x18>
   12330:	23c01863          	bne	zero,t3,12560 <fail>
   12334:	fe209ee3          	bne	ra,sp,12330 <test_6+0x14>

00012338 <test_7>:
   12338:	00700e13          	li	t3,7
   1233c:	00100093          	li	ra,1
   12340:	00100113          	li	sp,1
   12344:	00209463          	bne	ra,sp,1234c <test_7+0x14>
   12348:	01c01463          	bne	zero,t3,12350 <test_7+0x18>
   1234c:	21c01a63          	bne	zero,t3,12560 <fail>
   12350:	fe209ee3          	bne	ra,sp,1234c <test_7+0x14>

00012354 <test_8>:
   12354:	00800e13          	li	t3,8
   12358:	fff00093          	li	ra,-1
   1235c:	fff00113          	li	sp,-1
   12360:	00209463          	bne	ra,sp,12368 <test_8+0x14>
   12364:	01c01463          	bne	zero,t3,1236c <test_8+0x18>
   12368:	1fc01c63          	bne	zero,t3,12560 <fail>
   1236c:	fe209ee3          	bne	ra,sp,12368 <test_8+0x14>

00012370 <test_9>:
   12370:	00900e13          	li	t3,9
   12374:	00000213          	li	tp,0
   12378:	00000093          	li	ra,0
   1237c:	00000113          	li	sp,0
   12380:	1e209063          	bne	ra,sp,12560 <fail>
   12384:	00120213          	addi	tp,tp,1 # 1 <_start+0x1>
   12388:	00200293          	li	t0,2
   1238c:	fe5216e3          	bne	tp,t0,12378 <test_9+0x8>

00012390 <test_10>:
   12390:	00a00e13          	li	t3,10
   12394:	00000213          	li	tp,0
   12398:	00000093          	li	ra,0
   1239c:	00000113          	li	sp,0
   123a0:	00000013          	nop
   123a4:	1a209e63          	bne	ra,sp,12560 <fail>
   123a8:	00120213          	addi	tp,tp,1 # 1 <_start+0x1>
   123ac:	00200293          	li	t0,2
   123b0:	fe5214e3          	bne	tp,t0,12398 <test_10+0x8>

000123b4 <test_11>:
   123b4:	00b00e13          	li	t3,11
   123b8:	00000213          	li	tp,0
   123bc:	00000093          	li	ra,0
   123c0:	00000113          	li	sp,0
   123c4:	00000013          	nop
   123c8:	00000013          	nop
   123cc:	18209a63          	bne	ra,sp,12560 <fail>
   123d0:	00120213          	addi	tp,tp,1 # 1 <_start+0x1>
   123d4:	00200293          	li	t0,2
   123d8:	fe5212e3          	bne	tp,t0,123bc <test_11+0x8>

000123dc <test_12>:
   123dc:	00c00e13          	li	t3,12
   123e0:	00000213          	li	tp,0
   123e4:	00000093          	li	ra,0
   123e8:	00000013          	nop
   123ec:	00000113          	li	sp,0
   123f0:	16209863          	bne	ra,sp,12560 <fail>
   123f4:	00120213          	addi	tp,tp,1 # 1 <_start+0x1>
   123f8:	00200293          	li	t0,2
   123fc:	fe5214e3          	bne	tp,t0,123e4 <test_12+0x8>

00012400 <test_13>:
   12400:	00d00e13          	li	t3,13
   12404:	00000213          	li	tp,0
   12408:	00000093          	li	ra,0
   1240c:	00000013          	nop
   12410:	00000113          	li	sp,0
   12414:	00000013          	nop
   12418:	14209463          	bne	ra,sp,12560 <fail>
   1241c:	00120213          	addi	tp,tp,1 # 1 <_start+0x1>
   12420:	00200293          	li	t0,2
   12424:	fe5212e3          	bne	tp,t0,12408 <test_13+0x8>

00012428 <test_14>:
   12428:	00e00e13          	li	t3,14
   1242c:	00000213          	li	tp,0
   12430:	00000093          	li	ra,0
   12434:	00000013          	nop
   12438:	00000013          	nop
   1243c:	00000113          	li	sp,0
   12440:	12209063          	bne	ra,sp,12560 <fail>
   12444:	00120213          	addi	tp,tp,1 # 1 <_start+0x1>
   12448:	00200293          	li	t0,2
   1244c:	fe5212e3          	bne	tp,t0,12430 <test_14+0x8>

00012450 <test_15>:
   12450:	00f00e13          	li	t3,15
   12454:	00000213          	li	tp,0
   12458:	00000093          	li	ra,0
   1245c:	00000113          	li	sp,0
   12460:	10209063          	bne	ra,sp,12560 <fail>
   12464:	00120213          	addi	tp,tp,1 # 1 <_start+0x1>
   12468:	00200293          	li	t0,2
   1246c:	fe5216e3          	bne	tp,t0,12458 <test_15+0x8>

00012470 <test_16>:
   12470:	01000e13          	li	t3,16
   12474:	00000213          	li	tp,0
   12478:	00000093          	li	ra,0
   1247c:	00000113          	li	sp,0
   12480:	00000013          	nop
   12484:	0c209e63          	bne	ra,sp,12560 <fail>
   12488:	00120213          	addi	tp,tp,1 # 1 <_start+0x1>
   1248c:	00200293          	li	t0,2
   12490:	fe5214e3          	bne	tp,t0,12478 <test_16+0x8>

00012494 <test_17>:
   12494:	01100e13          	li	t3,17
   12498:	00000213          	li	tp,0
   1249c:	00000093          	li	ra,0
   124a0:	00000113          	li	sp,0
   124a4:	00000013          	nop
   124a8:	00000013          	nop
   124ac:	0a209a63          	bne	ra,sp,12560 <fail>
   124b0:	00120213          	addi	tp,tp,1 # 1 <_start+0x1>
   124b4:	00200293          	li	t0,2
   124b8:	fe5212e3          	bne	tp,t0,1249c <test_17+0x8>

000124bc <test_18>:
   124bc:	01200e13          	li	t3,18
   124c0:	00000213          	li	tp,0
   124c4:	00000093          	li	ra,0
   124c8:	00000013          	nop
   124cc:	00000113          	li	sp,0
   124d0:	08209863          	bne	ra,sp,12560 <fail>
   124d4:	00120213          	addi	tp,tp,1 # 1 <_start+0x1>
   124d8:	00200293          	li	t0,2
   124dc:	fe5214e3          	bne	tp,t0,124c4 <test_18+0x8>

000124e0 <test_19>:
   124e0:	01300e13          	li	t3,19
   124e4:	00000213          	li	tp,0
   124e8:	00000093          	li	ra,0
   124ec:	00000013          	nop
   124f0:	00000113          	li	sp,0
   124f4:	00000013          	nop
   124f8:	06209463          	bne	ra,sp,12560 <fail>
   124fc:	00120213          	addi	tp,tp,1 # 1 <_start+0x1>
   12500:	00200293          	li	t0,2
   12504:	fe5212e3          	bne	tp,t0,124e8 <test_19+0x8>

00012508 <test_20>:
   12508:	01400e13          	li	t3,20
   1250c:	00000213          	li	tp,0
   12510:	00000093          	li	ra,0
   12514:	00000013          	nop
   12518:	00000013          	nop
   1251c:	00000113          	li	sp,0
   12520:	04209063          	bne	ra,sp,12560 <fail>
   12524:	00120213          	addi	tp,tp,1 # 1 <_start+0x1>
   12528:	00200293          	li	t0,2
   1252c:	fe5212e3          	bne	tp,t0,12510 <test_20+0x8>

00012530 <test_21>:
   12530:	00100093          	li	ra,1
   12534:	00009a63          	bnez	ra,12548 <test_21+0x18>
   12538:	00108093          	addi	ra,ra,1
   1253c:	00108093          	addi	ra,ra,1
   12540:	00108093          	addi	ra,ra,1
   12544:	00108093          	addi	ra,ra,1
   12548:	00108093          	addi	ra,ra,1
   1254c:	00108093          	addi	ra,ra,1
   12550:	00300e93          	li	t4,3
   12554:	01500e13          	li	t3,21
   12558:	01d09463          	bne	ra,t4,12560 <fail>
   1255c:	05c01863          	bne	zero,t3,125ac <pass>

00012560 <fail>:
   12560:	04500513          	li	a0,69
   12564:	00004137          	lui	sp,0x4
   12568:	4200b0ef          	jal	ra,1d988 <printf_c>
   1256c:	05200513          	li	a0,82
   12570:	00004137          	lui	sp,0x4
   12574:	4140b0ef          	jal	ra,1d988 <printf_c>
   12578:	00004137          	lui	sp,0x4
   1257c:	40c0b0ef          	jal	ra,1d988 <printf_c>
   12580:	04f00513          	li	a0,79
   12584:	00004137          	lui	sp,0x4
   12588:	4000b0ef          	jal	ra,1d988 <printf_c>
   1258c:	00004137          	lui	sp,0x4
   12590:	05200513          	li	a0,82
   12594:	00004137          	lui	sp,0x4
   12598:	3f00b0ef          	jal	ra,1d988 <printf_c>
   1259c:	00a00513          	li	a0,10
   125a0:	00004137          	lui	sp,0x4
   125a4:	3e40b0ef          	jal	ra,1d988 <printf_c>
   125a8:	5f80006f          	j	12ba0 <j>

000125ac <pass>:
   125ac:	04f00513          	li	a0,79
   125b0:	00004137          	lui	sp,0x4
   125b4:	3d40b0ef          	jal	ra,1d988 <printf_c>
   125b8:	04b00513          	li	a0,75
   125bc:	00004137          	lui	sp,0x4
   125c0:	3c80b0ef          	jal	ra,1d988 <printf_c>
   125c4:	00a00513          	li	a0,10
   125c8:	00004137          	lui	sp,0x4
   125cc:	3bc0b0ef          	jal	ra,1d988 <printf_c>
   125d0:	5d00006f          	j	12ba0 <j>

000125d4 <.test_name>:
   125d4:	20727363          	bleu	t2,tp,127da <mtvec_handler+0x36>
   125d8:	0009                	c.addi	zero,2
	...

000125dc <csr>:
   125dc:	00012537          	lui	a0,0x12
   125e0:	5d450513          	addi	a0,a0,1492 # 125d4 <.test_name>

000125e4 <.prname_next>:
   125e4:	00004137          	lui	sp,0x4
   125e8:	3b80b0ef          	jal	ra,1d9a0 <printf_s>
   125ec:	3401d073          	csrwi	mscratch,3

000125f0 <test_2>:
   125f0:	34002573          	csrr	a0,mscratch
   125f4:	00300e93          	li	t4,3
   125f8:	00200e13          	li	t3,2
   125fc:	13d51a63          	bne	a0,t4,12730 <fail>

00012600 <test_3>:
   12600:	3400f5f3          	csrrci	a1,mscratch,1
   12604:	00300e93          	li	t4,3
   12608:	00300e13          	li	t3,3
   1260c:	13d59263          	bne	a1,t4,12730 <fail>

00012610 <test_4>:
   12610:	34026673          	csrrsi	a2,mscratch,4
   12614:	00200e93          	li	t4,2
   12618:	00400e13          	li	t3,4
   1261c:	11d61a63          	bne	a2,t4,12730 <fail>

00012620 <test_5>:
   12620:	340156f3          	csrrwi	a3,mscratch,2
   12624:	00600e93          	li	t4,6
   12628:	00500e13          	li	t3,5
   1262c:	11d69263          	bne	a3,t4,12730 <fail>

00012630 <test_6>:
   12630:	0bad2537          	lui	a0,0xbad2
   12634:	dea50513          	addi	a0,a0,-534 # bad1dea <heap_memory_used+0xbab0012>
   12638:	340515f3          	csrrw	a1,mscratch,a0
   1263c:	00200e93          	li	t4,2
   12640:	00600e13          	li	t3,6
   12644:	0fd59663          	bne	a1,t4,12730 <fail>

00012648 <test_7>:
   12648:	00002537          	lui	a0,0x2
   1264c:	dea50513          	addi	a0,a0,-534 # 1dea <coremarkBenchmark+0x1d42>
   12650:	34053573          	csrrc	a0,mscratch,a0
   12654:	0bad2eb7          	lui	t4,0xbad2
   12658:	deae8e93          	addi	t4,t4,-534 # bad1dea <heap_memory_used+0xbab0012>
   1265c:	00700e13          	li	t3,7
   12660:	0dd51863          	bne	a0,t4,12730 <fail>

00012664 <test_8>:
   12664:	0000c537          	lui	a0,0xc
   12668:	eef50513          	addi	a0,a0,-273 # beef <coremarkBenchmark+0xbe47>
   1266c:	34052573          	csrrs	a0,mscratch,a0
   12670:	0bad0eb7          	lui	t4,0xbad0
   12674:	00800e13          	li	t3,8
   12678:	0bd51c63          	bne	a0,t4,12730 <fail>

0001267c <test_9>:
   1267c:	34002573          	csrr	a0,mscratch
   12680:	0badceb7          	lui	t4,0xbadc
   12684:	eefe8e93          	addi	t4,t4,-273 # badbeef <heap_memory_used+0xbaba117>
   12688:	00900e13          	li	t3,9
   1268c:	0bd51263          	bne	a0,t4,12730 <fail>
   12690:	30102573          	csrr	a0,misa
   12694:	02057513          	andi	a0,a0,32
   12698:	00050c63          	beqz	a0,126b0 <test_10+0xc>
   1269c:	000065b7          	lui	a1,0x6
   126a0:	3005a073          	csrs	mstatus,a1

000126a4 <test_10>:
   126a4:	00100e93          	li	t4,1
   126a8:	00a00e13          	li	t3,10
   126ac:	09d01263          	bne	zero,t4,12730 <fail>
   126b0:	30102573          	csrr	a0,misa
   126b4:	01455513          	srli	a0,a0,0x14
   126b8:	00157513          	andi	a0,a0,1
   126bc:	04050463          	beqz	a0,12704 <finish>
   126c0:	000022b7          	lui	t0,0x2
   126c4:	80028293          	addi	t0,t0,-2048 # 1800 <coremarkBenchmark+0x1758>
   126c8:	3002b073          	csrc	mstatus,t0
   126cc:	00000297          	auipc	t0,0x0
   126d0:	01028293          	addi	t0,t0,16 # 126dc <test_11>
   126d4:	34129073          	csrw	mepc,t0
   126d8:	30200073          	mret

000126dc <test_11>:
   126dc:	0ff00513          	li	a0,255
   126e0:	c0001573          	csrrw	a0,cycle,zero
   126e4:	0ff00e93          	li	t4,255
   126e8:	00b00e13          	li	t3,11
   126ec:	05d51263          	bne	a0,t4,12730 <fail>

000126f0 <test_12>:
   126f0:	0ff00513          	li	a0,255
   126f4:	30002573          	csrr	a0,mstatus
   126f8:	0ff00e93          	li	t4,255
   126fc:	00c00e13          	li	t3,12
   12700:	03d51863          	bne	a0,t4,12730 <fail>

00012704 <finish>:
   12704:	04f00513          	li	a0,79
   12708:	00004137          	lui	sp,0x4
   1270c:	27c0b0ef          	jal	ra,1d988 <printf_c>
   12710:	04b00513          	li	a0,75
   12714:	00004137          	lui	sp,0x4
   12718:	2700b0ef          	jal	ra,1d988 <printf_c>
   1271c:	00a00513          	li	a0,10
   12720:	00004137          	lui	sp,0x4
   12724:	2640b0ef          	jal	ra,1d988 <printf_c>
   12728:	3b80006f          	j	12ae0 <ecall>
   1272c:	05c01863          	bne	zero,t3,1277c <pass>

00012730 <fail>:
   12730:	04500513          	li	a0,69
   12734:	00004137          	lui	sp,0x4
   12738:	2500b0ef          	jal	ra,1d988 <printf_c>
   1273c:	05200513          	li	a0,82
   12740:	00004137          	lui	sp,0x4
   12744:	2440b0ef          	jal	ra,1d988 <printf_c>
   12748:	00004137          	lui	sp,0x4
   1274c:	23c0b0ef          	jal	ra,1d988 <printf_c>
   12750:	04f00513          	li	a0,79
   12754:	00004137          	lui	sp,0x4
   12758:	2300b0ef          	jal	ra,1d988 <printf_c>
   1275c:	00004137          	lui	sp,0x4
   12760:	05200513          	li	a0,82
   12764:	00004137          	lui	sp,0x4
   12768:	2200b0ef          	jal	ra,1d988 <printf_c>
   1276c:	00a00513          	li	a0,10
   12770:	00004137          	lui	sp,0x4
   12774:	2140b0ef          	jal	ra,1d988 <printf_c>
   12778:	3680006f          	j	12ae0 <ecall>

0001277c <pass>:
   1277c:	04f00513          	li	a0,79
   12780:	00004137          	lui	sp,0x4
   12784:	2040b0ef          	jal	ra,1d988 <printf_c>
   12788:	04b00513          	li	a0,75
   1278c:	00004137          	lui	sp,0x4
   12790:	1f80b0ef          	jal	ra,1d988 <printf_c>
   12794:	00a00513          	li	a0,10
   12798:	00004137          	lui	sp,0x4
   1279c:	1ec0b0ef          	jal	ra,1d988 <printf_c>
   127a0:	3400006f          	j	12ae0 <ecall>

000127a4 <mtvec_handler>:
   127a4:	00900293          	li	t0,9
   127a8:	005e6663          	bltu	t3,t0,127b4 <mtvec_handler+0x10>
   127ac:	00b00293          	li	t0,11
   127b0:	03c2fc63          	bleu	t3,t0,127e8 <privileged>
   127b4:	342022f3          	csrr	t0,mcause
   127b8:	00800313          	li	t1,8
   127bc:	f6629ae3          	bne	t0,t1,12730 <fail>
   127c0:	04f00513          	li	a0,79
   127c4:	00004137          	lui	sp,0x4
   127c8:	1c00b0ef          	jal	ra,1d988 <printf_c>
   127cc:	04b00513          	li	a0,75
   127d0:	00004137          	lui	sp,0x4
   127d4:	1b40b0ef          	jal	ra,1d988 <printf_c>
   127d8:	00a00513          	li	a0,10
   127dc:	00004137          	lui	sp,0x4
   127e0:	1a80b0ef          	jal	ra,1d988 <printf_c>
   127e4:	2fc0006f          	j	12ae0 <ecall>

000127e8 <privileged>:
   127e8:	342022f3          	csrr	t0,mcause
   127ec:	00200313          	li	t1,2
   127f0:	f46290e3          	bne	t0,t1,12730 <fail>
   127f4:	341022f3          	csrr	t0,mepc
   127f8:	00428293          	addi	t0,t0,4
   127fc:	34129073          	csrw	mepc,t0
   12800:	30200073          	mret

00012804 <.test_name>:
   12804:	6964                	flw	fs1,84(a0)
   12806:	2076                	fld	ft0,344(sp)
   12808:	0009                	c.addi	zero,2
	...

0001280c <div>:
   1280c:	00013537          	lui	a0,0x13
   12810:	80450513          	addi	a0,a0,-2044 # 12804 <.test_name>

00012814 <.prname_next>:
   12814:	00004137          	lui	sp,0x4
   12818:	1880b0ef          	jal	ra,1d9a0 <printf_s>

0001281c <test_2>:
   1281c:	01400093          	li	ra,20
   12820:	00600113          	li	sp,6
   12824:	0220c1b3          	div	gp,ra,sp
   12828:	00300e93          	li	t4,3
   1282c:	00200e13          	li	t3,2
   12830:	0dd19463          	bne	gp,t4,128f8 <fail>

00012834 <test_3>:
   12834:	fec00093          	li	ra,-20
   12838:	00600113          	li	sp,6
   1283c:	0220c1b3          	div	gp,ra,sp
   12840:	ffd00e93          	li	t4,-3
   12844:	00300e13          	li	t3,3
   12848:	0bd19863          	bne	gp,t4,128f8 <fail>

0001284c <test_4>:
   1284c:	01400093          	li	ra,20
   12850:	ffa00113          	li	sp,-6
   12854:	0220c1b3          	div	gp,ra,sp
   12858:	ffd00e93          	li	t4,-3
   1285c:	00400e13          	li	t3,4
   12860:	09d19c63          	bne	gp,t4,128f8 <fail>

00012864 <test_5>:
   12864:	fec00093          	li	ra,-20
   12868:	ffa00113          	li	sp,-6
   1286c:	0220c1b3          	div	gp,ra,sp
   12870:	00300e93          	li	t4,3
   12874:	00500e13          	li	t3,5
   12878:	09d19063          	bne	gp,t4,128f8 <fail>

0001287c <test_6>:
   1287c:	800000b7          	lui	ra,0x80000
   12880:	00100113          	li	sp,1
   12884:	0220c1b3          	div	gp,ra,sp
   12888:	80000eb7          	lui	t4,0x80000
   1288c:	00600e13          	li	t3,6
   12890:	07d19463          	bne	gp,t4,128f8 <fail>

00012894 <test_7>:
   12894:	800000b7          	lui	ra,0x80000
   12898:	fff00113          	li	sp,-1
   1289c:	0220c1b3          	div	gp,ra,sp
   128a0:	80000eb7          	lui	t4,0x80000
   128a4:	00700e13          	li	t3,7
   128a8:	05d19863          	bne	gp,t4,128f8 <fail>

000128ac <test_8>:
   128ac:	800000b7          	lui	ra,0x80000
   128b0:	00000113          	li	sp,0
   128b4:	0220c1b3          	div	gp,ra,sp
   128b8:	00100e93          	li	t4,1
   128bc:	00800e13          	li	t3,8
   128c0:	03d19c63          	bne	gp,t4,128f8 <fail>

000128c4 <test_9>:
   128c4:	00100093          	li	ra,1
   128c8:	00000113          	li	sp,0
   128cc:	0220c1b3          	div	gp,ra,sp
   128d0:	fff00e93          	li	t4,-1
   128d4:	00900e13          	li	t3,9
   128d8:	03d19063          	bne	gp,t4,128f8 <fail>

000128dc <test_10>:
   128dc:	00000093          	li	ra,0
   128e0:	00000113          	li	sp,0
   128e4:	0220c1b3          	div	gp,ra,sp
   128e8:	fff00e93          	li	t4,-1
   128ec:	00a00e13          	li	t3,10
   128f0:	01d19463          	bne	gp,t4,128f8 <fail>
   128f4:	05c01863          	bne	zero,t3,12944 <pass>

000128f8 <fail>:
   128f8:	04500513          	li	a0,69
   128fc:	00004137          	lui	sp,0x4
   12900:	0880b0ef          	jal	ra,1d988 <printf_c>
   12904:	05200513          	li	a0,82
   12908:	00004137          	lui	sp,0x4
   1290c:	07c0b0ef          	jal	ra,1d988 <printf_c>
   12910:	00004137          	lui	sp,0x4
   12914:	0740b0ef          	jal	ra,1d988 <printf_c>
   12918:	04f00513          	li	a0,79
   1291c:	00004137          	lui	sp,0x4
   12920:	0680b0ef          	jal	ra,1d988 <printf_c>
   12924:	00004137          	lui	sp,0x4
   12928:	05200513          	li	a0,82
   1292c:	00004137          	lui	sp,0x4
   12930:	0580b0ef          	jal	ra,1d988 <printf_c>
   12934:	00a00513          	li	a0,10
   12938:	00004137          	lui	sp,0x4
   1293c:	04c0b0ef          	jal	ra,1d988 <printf_c>
   12940:	0340006f          	j	12974 <divu>

00012944 <pass>:
   12944:	04f00513          	li	a0,79
   12948:	00004137          	lui	sp,0x4
   1294c:	03c0b0ef          	jal	ra,1d988 <printf_c>
   12950:	04b00513          	li	a0,75
   12954:	00004137          	lui	sp,0x4
   12958:	0300b0ef          	jal	ra,1d988 <printf_c>
   1295c:	00a00513          	li	a0,10
   12960:	00004137          	lui	sp,0x4
   12964:	0240b0ef          	jal	ra,1d988 <printf_c>
   12968:	00c0006f          	j	12974 <divu>

0001296c <.test_name>:
   1296c:	6964                	flw	fs1,84(a0)
   1296e:	7576                	flw	fa0,124(sp)
   12970:	0009                	c.addi	zero,2
	...

00012974 <divu>:
   12974:	00013537          	lui	a0,0x13
   12978:	96c50513          	addi	a0,a0,-1684 # 1296c <.test_name>

0001297c <.prname_next>:
   1297c:	00004137          	lui	sp,0x4
   12980:	0200b0ef          	jal	ra,1d9a0 <printf_s>

00012984 <test_2>:
   12984:	01400093          	li	ra,20
   12988:	00600113          	li	sp,6
   1298c:	0220d1b3          	divu	gp,ra,sp
   12990:	00300e93          	li	t4,3
   12994:	00200e13          	li	t3,2
   12998:	0dd19663          	bne	gp,t4,12a64 <fail>

0001299c <test_3>:
   1299c:	fec00093          	li	ra,-20
   129a0:	00600113          	li	sp,6
   129a4:	0220d1b3          	divu	gp,ra,sp
   129a8:	2aaabeb7          	lui	t4,0x2aaab
   129ac:	aa7e8e93          	addi	t4,t4,-1369 # 2aaaaaa7 <heap_memory_used+0x2aa88ccf>
   129b0:	00300e13          	li	t3,3
   129b4:	0bd19863          	bne	gp,t4,12a64 <fail>

000129b8 <test_4>:
   129b8:	01400093          	li	ra,20
   129bc:	ffa00113          	li	sp,-6
   129c0:	0220d1b3          	divu	gp,ra,sp
   129c4:	00000e93          	li	t4,0
   129c8:	00400e13          	li	t3,4
   129cc:	09d19c63          	bne	gp,t4,12a64 <fail>

000129d0 <test_5>:
   129d0:	fec00093          	li	ra,-20
   129d4:	ffa00113          	li	sp,-6
   129d8:	0220d1b3          	divu	gp,ra,sp
   129dc:	00000e93          	li	t4,0
   129e0:	00500e13          	li	t3,5
   129e4:	09d19063          	bne	gp,t4,12a64 <fail>

000129e8 <test_6>:
   129e8:	800000b7          	lui	ra,0x80000
   129ec:	00100113          	li	sp,1
   129f0:	0220d1b3          	divu	gp,ra,sp
   129f4:	80000eb7          	lui	t4,0x80000
   129f8:	00600e13          	li	t3,6
   129fc:	07d19463          	bne	gp,t4,12a64 <fail>

00012a00 <test_7>:
   12a00:	800000b7          	lui	ra,0x80000
   12a04:	fff00113          	li	sp,-1
   12a08:	0220d1b3          	divu	gp,ra,sp
   12a0c:	00000e93          	li	t4,0
   12a10:	00700e13          	li	t3,7
   12a14:	05d19863          	bne	gp,t4,12a64 <fail>

00012a18 <test_8>:
   12a18:	800000b7          	lui	ra,0x80000
   12a1c:	00000113          	li	sp,0
   12a20:	0220d1b3          	divu	gp,ra,sp
   12a24:	fff00e93          	li	t4,-1
   12a28:	00800e13          	li	t3,8
   12a2c:	03d19c63          	bne	gp,t4,12a64 <fail>

00012a30 <test_9>:
   12a30:	00100093          	li	ra,1
   12a34:	00000113          	li	sp,0
   12a38:	0220d1b3          	divu	gp,ra,sp
   12a3c:	fff00e93          	li	t4,-1
   12a40:	00900e13          	li	t3,9
   12a44:	03d19063          	bne	gp,t4,12a64 <fail>

00012a48 <test_10>:
   12a48:	00000093          	li	ra,0
   12a4c:	00000113          	li	sp,0
   12a50:	0220d1b3          	divu	gp,ra,sp
   12a54:	fff00e93          	li	t4,-1
   12a58:	00a00e13          	li	t3,10
   12a5c:	01d19463          	bne	gp,t4,12a64 <fail>
   12a60:	05c01863          	bne	zero,t3,12ab0 <pass>

00012a64 <fail>:
   12a64:	04500513          	li	a0,69
   12a68:	00004137          	lui	sp,0x4
   12a6c:	71d0a0ef          	jal	ra,1d988 <printf_c>
   12a70:	05200513          	li	a0,82
   12a74:	00004137          	lui	sp,0x4
   12a78:	7110a0ef          	jal	ra,1d988 <printf_c>
   12a7c:	00004137          	lui	sp,0x4
   12a80:	7090a0ef          	jal	ra,1d988 <printf_c>
   12a84:	04f00513          	li	a0,79
   12a88:	00004137          	lui	sp,0x4
   12a8c:	6fd0a0ef          	jal	ra,1d988 <printf_c>
   12a90:	00004137          	lui	sp,0x4
   12a94:	05200513          	li	a0,82
   12a98:	00004137          	lui	sp,0x4
   12a9c:	6ed0a0ef          	jal	ra,1d988 <printf_c>
   12aa0:	00a00513          	li	a0,10
   12aa4:	00004137          	lui	sp,0x4
   12aa8:	6e10a0ef          	jal	ra,1d988 <printf_c>
   12aac:	0dc0306f          	j	15b88 <rem>

00012ab0 <pass>:
   12ab0:	04f00513          	li	a0,79
   12ab4:	00004137          	lui	sp,0x4
   12ab8:	6d10a0ef          	jal	ra,1d988 <printf_c>
   12abc:	04b00513          	li	a0,75
   12ac0:	00004137          	lui	sp,0x4
   12ac4:	6c50a0ef          	jal	ra,1d988 <printf_c>
   12ac8:	00a00513          	li	a0,10
   12acc:	00004137          	lui	sp,0x4
   12ad0:	6b90a0ef          	jal	ra,1d988 <printf_c>
   12ad4:	0b40306f          	j	15b88 <rem>

00012ad8 <.test_name>:
   12ad8:	6365                	lui	t1,0x19
   12ada:	6c61                	lui	s8,0x18
   12adc:	206c                	fld	fa1,192(s0)
   12ade:	0009                	c.addi	zero,2

00012ae0 <ecall>:
   12ae0:	00013537          	lui	a0,0x13
   12ae4:	ad850513          	addi	a0,a0,-1320 # 12ad8 <.test_name>

00012ae8 <.prname_next>:
   12ae8:	00004137          	lui	sp,0x4
   12aec:	6b50a0ef          	jal	ra,1d9a0 <printf_s>

00012af0 <setup_stvec>:
   12af0:	000132b7          	lui	t0,0x13
   12af4:	b7c28293          	addi	t0,t0,-1156 # 12b7c <Mtvec_handler>
   12af8:	30529073          	csrw	mtvec,t0

00012afc <do_ecall>:
   12afc:	00000073          	ecall
   12b00:	0080006f          	j	12b08 <fail>
   12b04:	05c01863          	bne	zero,t3,12b54 <pass>

00012b08 <fail>:
   12b08:	04500513          	li	a0,69
   12b0c:	00004137          	lui	sp,0x4
   12b10:	6790a0ef          	jal	ra,1d988 <printf_c>
   12b14:	05200513          	li	a0,82
   12b18:	00004137          	lui	sp,0x4
   12b1c:	66d0a0ef          	jal	ra,1d988 <printf_c>
   12b20:	00004137          	lui	sp,0x4
   12b24:	6650a0ef          	jal	ra,1d988 <printf_c>
   12b28:	04f00513          	li	a0,79
   12b2c:	00004137          	lui	sp,0x4
   12b30:	6590a0ef          	jal	ra,1d988 <printf_c>
   12b34:	00004137          	lui	sp,0x4
   12b38:	05200513          	li	a0,82
   12b3c:	00004137          	lui	sp,0x4
   12b40:	6490a0ef          	jal	ra,1d988 <printf_c>
   12b44:	00a00513          	li	a0,10
   12b48:	00004137          	lui	sp,0x4
   12b4c:	63d0a0ef          	jal	ra,1d988 <printf_c>
   12b50:	2ec0706f          	j	19e3c <amoaddw>

00012b54 <pass>:
   12b54:	04f00513          	li	a0,79
   12b58:	00004137          	lui	sp,0x4
   12b5c:	62d0a0ef          	jal	ra,1d988 <printf_c>
   12b60:	04b00513          	li	a0,75
   12b64:	00004137          	lui	sp,0x4
   12b68:	6210a0ef          	jal	ra,1d988 <printf_c>
   12b6c:	00a00513          	li	a0,10
   12b70:	00004137          	lui	sp,0x4
   12b74:	6150a0ef          	jal	ra,1d988 <printf_c>
   12b78:	2c40706f          	j	19e3c <amoaddw>

00012b7c <Mtvec_handler>:
   12b7c:	342022f3          	csrr	t0,mcause
   12b80:	00b00313          	li	t1,11
   12b84:	f86292e3          	bne	t0,t1,12b08 <fail>
   12b88:	00000397          	auipc	t2,0x0
   12b8c:	f7438393          	addi	t2,t2,-140 # 12afc <do_ecall>
   12b90:	341022f3          	csrr	t0,mepc
   12b94:	f6729ae3          	bne	t0,t2,12b08 <fail>
   12b98:	fbdff06f          	j	12b54 <pass>

00012b9c <.test_name>:
   12b9c:	206a                	fld	ft0,152(sp)
   12b9e:	0009                	c.addi	zero,2

00012ba0 <j>:
   12ba0:	00013537          	lui	a0,0x13
   12ba4:	b9c50513          	addi	a0,a0,-1124 # 12b9c <.test_name>

00012ba8 <.prname_next>:
   12ba8:	00004137          	lui	sp,0x4
   12bac:	5f50a0ef          	jal	ra,1d9a0 <printf_s>
   12bb0:	00200e13          	li	t3,2
   12bb4:	0080006f          	j	12bbc <test_2>
   12bb8:	0340006f          	j	12bec <fail>

00012bbc <test_2>:
   12bbc:	00100093          	li	ra,1
   12bc0:	0140006f          	j	12bd4 <test_2+0x18>
   12bc4:	00108093          	addi	ra,ra,1 # 80000001 <heap_memory_used+0x7ffde229>
   12bc8:	00108093          	addi	ra,ra,1
   12bcc:	00108093          	addi	ra,ra,1
   12bd0:	00108093          	addi	ra,ra,1
   12bd4:	00108093          	addi	ra,ra,1
   12bd8:	00108093          	addi	ra,ra,1
   12bdc:	00300e93          	li	t4,3
   12be0:	00300e13          	li	t3,3
   12be4:	01d09463          	bne	ra,t4,12bec <fail>
   12be8:	05c01863          	bne	zero,t3,12c38 <pass>

00012bec <fail>:
   12bec:	04500513          	li	a0,69
   12bf0:	00004137          	lui	sp,0x4
   12bf4:	5950a0ef          	jal	ra,1d988 <printf_c>
   12bf8:	05200513          	li	a0,82
   12bfc:	00004137          	lui	sp,0x4
   12c00:	5890a0ef          	jal	ra,1d988 <printf_c>
   12c04:	00004137          	lui	sp,0x4
   12c08:	5810a0ef          	jal	ra,1d988 <printf_c>
   12c0c:	04f00513          	li	a0,79
   12c10:	00004137          	lui	sp,0x4
   12c14:	5750a0ef          	jal	ra,1d988 <printf_c>
   12c18:	00004137          	lui	sp,0x4
   12c1c:	05200513          	li	a0,82
   12c20:	00004137          	lui	sp,0x4
   12c24:	5650a0ef          	jal	ra,1d988 <printf_c>
   12c28:	00a00513          	li	a0,10
   12c2c:	00004137          	lui	sp,0x4
   12c30:	5590a0ef          	jal	ra,1d988 <printf_c>
   12c34:	0340006f          	j	12c68 <jal>

00012c38 <pass>:
   12c38:	04f00513          	li	a0,79
   12c3c:	00004137          	lui	sp,0x4
   12c40:	5490a0ef          	jal	ra,1d988 <printf_c>
   12c44:	04b00513          	li	a0,75
   12c48:	00004137          	lui	sp,0x4
   12c4c:	53d0a0ef          	jal	ra,1d988 <printf_c>
   12c50:	00a00513          	li	a0,10
   12c54:	00004137          	lui	sp,0x4
   12c58:	5310a0ef          	jal	ra,1d988 <printf_c>
   12c5c:	00c0006f          	j	12c68 <jal>

00012c60 <.test_name>:
   12c60:	616a                	flw	ft2,152(sp)
   12c62:	206c                	fld	fa1,192(s0)
   12c64:	0009                	c.addi	zero,2
	...

00012c68 <jal>:
   12c68:	00013537          	lui	a0,0x13
   12c6c:	c6050513          	addi	a0,a0,-928 # 12c60 <.test_name>

00012c70 <.prname_next>:
   12c70:	00004137          	lui	sp,0x4
   12c74:	52d0a0ef          	jal	ra,1d9a0 <printf_s>

00012c78 <test_2>:
   12c78:	00200e13          	li	t3,2
   12c7c:	00000093          	li	ra,0

00012c80 <linkaddr_2>:
   12c80:	010000ef          	jal	ra,12c90 <target_2>
   12c84:	00000013          	nop
   12c88:	00000013          	nop
   12c8c:	0440006f          	j	12cd0 <fail>

00012c90 <target_2>:
   12c90:	00000117          	auipc	sp,0x0
   12c94:	ff010113          	addi	sp,sp,-16 # 12c80 <linkaddr_2>
   12c98:	00410113          	addi	sp,sp,4
   12c9c:	02111a63          	bne	sp,ra,12cd0 <fail>

00012ca0 <test_3>:
   12ca0:	00100113          	li	sp,1
   12ca4:	014000ef          	jal	ra,12cb8 <test_3+0x18>
   12ca8:	00110113          	addi	sp,sp,1
   12cac:	00110113          	addi	sp,sp,1
   12cb0:	00110113          	addi	sp,sp,1
   12cb4:	00110113          	addi	sp,sp,1
   12cb8:	00110113          	addi	sp,sp,1
   12cbc:	00110113          	addi	sp,sp,1
   12cc0:	00300e93          	li	t4,3
   12cc4:	00300e13          	li	t3,3
   12cc8:	01d11463          	bne	sp,t4,12cd0 <fail>
   12ccc:	05c01863          	bne	zero,t3,12d1c <pass>

00012cd0 <fail>:
   12cd0:	04500513          	li	a0,69
   12cd4:	00004137          	lui	sp,0x4
   12cd8:	4b10a0ef          	jal	ra,1d988 <printf_c>
   12cdc:	05200513          	li	a0,82
   12ce0:	00004137          	lui	sp,0x4
   12ce4:	4a50a0ef          	jal	ra,1d988 <printf_c>
   12ce8:	00004137          	lui	sp,0x4
   12cec:	49d0a0ef          	jal	ra,1d988 <printf_c>
   12cf0:	04f00513          	li	a0,79
   12cf4:	00004137          	lui	sp,0x4
   12cf8:	4910a0ef          	jal	ra,1d988 <printf_c>
   12cfc:	00004137          	lui	sp,0x4
   12d00:	05200513          	li	a0,82
   12d04:	00004137          	lui	sp,0x4
   12d08:	4810a0ef          	jal	ra,1d988 <printf_c>
   12d0c:	00a00513          	li	a0,10
   12d10:	00004137          	lui	sp,0x4
   12d14:	4750a0ef          	jal	ra,1d988 <printf_c>
   12d18:	0340006f          	j	12d4c <jalr>

00012d1c <pass>:
   12d1c:	04f00513          	li	a0,79
   12d20:	00004137          	lui	sp,0x4
   12d24:	4650a0ef          	jal	ra,1d988 <printf_c>
   12d28:	04b00513          	li	a0,75
   12d2c:	00004137          	lui	sp,0x4
   12d30:	4590a0ef          	jal	ra,1d988 <printf_c>
   12d34:	00a00513          	li	a0,10
   12d38:	00004137          	lui	sp,0x4
   12d3c:	44d0a0ef          	jal	ra,1d988 <printf_c>
   12d40:	00c0006f          	j	12d4c <jalr>

00012d44 <.test_name>:
   12d44:	616a                	flw	ft2,152(sp)
   12d46:	726c                	flw	fa1,100(a2)
   12d48:	0920                	addi	s0,sp,152
	...

00012d4c <jalr>:
   12d4c:	00013537          	lui	a0,0x13
   12d50:	d4450513          	addi	a0,a0,-700 # 12d44 <.test_name>

00012d54 <.prname_next>:
   12d54:	00004137          	lui	sp,0x4
   12d58:	4490a0ef          	jal	ra,1d9a0 <printf_s>

00012d5c <test_2>:
   12d5c:	00200e13          	li	t3,2
   12d60:	00000f93          	li	t6,0
   12d64:	00000117          	auipc	sp,0x0
   12d68:	01810113          	addi	sp,sp,24 # 12d7c <target_2>

00012d6c <linkaddr_2>:
   12d6c:	000109e7          	jalr	s3,sp
   12d70:	00000013          	nop
   12d74:	00000013          	nop
   12d78:	0e40006f          	j	12e5c <fail>

00012d7c <target_2>:
   12d7c:	00000097          	auipc	ra,0x0
   12d80:	ff008093          	addi	ra,ra,-16 # 12d6c <linkaddr_2>
   12d84:	00408093          	addi	ra,ra,4
   12d88:	0d309a63          	bne	ra,s3,12e5c <fail>

00012d8c <test_3>:
   12d8c:	00300e13          	li	t3,3
   12d90:	00000f93          	li	t6,0
   12d94:	00000197          	auipc	gp,0x0
   12d98:	01418193          	addi	gp,gp,20 # 12da8 <target_3>

00012d9c <linkaddr_3>:
   12d9c:	00018067          	jr	gp
   12da0:	00000013          	nop
   12da4:	0b80006f          	j	12e5c <fail>

00012da8 <target_3>:
   12da8:	0a0f9a63          	bnez	t6,12e5c <fail>

00012dac <test_4>:
   12dac:	00400e13          	li	t3,4
   12db0:	00000213          	li	tp,0
   12db4:	00000317          	auipc	t1,0x0
   12db8:	01030313          	addi	t1,t1,16 # 12dc4 <test_4+0x18>
   12dbc:	000309e7          	jalr	s3,t1
   12dc0:	09c01e63          	bne	zero,t3,12e5c <fail>
   12dc4:	00120213          	addi	tp,tp,1 # 1 <_start+0x1>
   12dc8:	00200293          	li	t0,2
   12dcc:	fe5214e3          	bne	tp,t0,12db4 <test_4+0x8>

00012dd0 <test_5>:
   12dd0:	00500e13          	li	t3,5
   12dd4:	00000213          	li	tp,0
   12dd8:	00000317          	auipc	t1,0x0
   12ddc:	01430313          	addi	t1,t1,20 # 12dec <test_5+0x1c>
   12de0:	00000013          	nop
   12de4:	000309e7          	jalr	s3,t1
   12de8:	07c01a63          	bne	zero,t3,12e5c <fail>
   12dec:	00120213          	addi	tp,tp,1 # 1 <_start+0x1>
   12df0:	00200293          	li	t0,2
   12df4:	fe5212e3          	bne	tp,t0,12dd8 <test_5+0x8>

00012df8 <test_6>:
   12df8:	00600e13          	li	t3,6
   12dfc:	00000213          	li	tp,0
   12e00:	00000317          	auipc	t1,0x0
   12e04:	01830313          	addi	t1,t1,24 # 12e18 <test_6+0x20>
   12e08:	00000013          	nop
   12e0c:	00000013          	nop
   12e10:	000309e7          	jalr	s3,t1
   12e14:	05c01463          	bne	zero,t3,12e5c <fail>
   12e18:	00120213          	addi	tp,tp,1 # 1 <_start+0x1>
   12e1c:	00200293          	li	t0,2
   12e20:	fe5210e3          	bne	tp,t0,12e00 <test_6+0x8>

00012e24 <test_7>:
   12e24:	00100093          	li	ra,1
   12e28:	00000117          	auipc	sp,0x0
   12e2c:	01c10113          	addi	sp,sp,28 # 12e44 <test_7+0x20>
   12e30:	ffc109e7          	jalr	s3,-4(sp)
   12e34:	00108093          	addi	ra,ra,1
   12e38:	00108093          	addi	ra,ra,1
   12e3c:	00108093          	addi	ra,ra,1
   12e40:	00108093          	addi	ra,ra,1
   12e44:	00108093          	addi	ra,ra,1
   12e48:	00108093          	addi	ra,ra,1
   12e4c:	00400e93          	li	t4,4
   12e50:	00700e13          	li	t3,7
   12e54:	01d09463          	bne	ra,t4,12e5c <fail>
   12e58:	05c01863          	bne	zero,t3,12ea8 <pass>

00012e5c <fail>:
   12e5c:	04500513          	li	a0,69
   12e60:	00004137          	lui	sp,0x4
   12e64:	3250a0ef          	jal	ra,1d988 <printf_c>
   12e68:	05200513          	li	a0,82
   12e6c:	00004137          	lui	sp,0x4
   12e70:	3190a0ef          	jal	ra,1d988 <printf_c>
   12e74:	00004137          	lui	sp,0x4
   12e78:	3110a0ef          	jal	ra,1d988 <printf_c>
   12e7c:	04f00513          	li	a0,79
   12e80:	00004137          	lui	sp,0x4
   12e84:	3050a0ef          	jal	ra,1d988 <printf_c>
   12e88:	00004137          	lui	sp,0x4
   12e8c:	05200513          	li	a0,82
   12e90:	00004137          	lui	sp,0x4
   12e94:	2f50a0ef          	jal	ra,1d988 <printf_c>
   12e98:	00a00513          	li	a0,10
   12e9c:	00004137          	lui	sp,0x4
   12ea0:	2e90a0ef          	jal	ra,1d988 <printf_c>
   12ea4:	0300006f          	j	12ed4 <lb>

00012ea8 <pass>:
   12ea8:	04f00513          	li	a0,79
   12eac:	00004137          	lui	sp,0x4
   12eb0:	2d90a0ef          	jal	ra,1d988 <printf_c>
   12eb4:	04b00513          	li	a0,75
   12eb8:	00004137          	lui	sp,0x4
   12ebc:	2cd0a0ef          	jal	ra,1d988 <printf_c>
   12ec0:	00a00513          	li	a0,10
   12ec4:	00004137          	lui	sp,0x4
   12ec8:	2c10a0ef          	jal	ra,1d988 <printf_c>
   12ecc:	0080006f          	j	12ed4 <lb>

00012ed0 <.test_name>:
   12ed0:	626c                	flw	fa1,68(a2)
   12ed2:	0009                	c.addi	zero,2

00012ed4 <lb>:
   12ed4:	00013537          	lui	a0,0x13
   12ed8:	ed050513          	addi	a0,a0,-304 # 12ed0 <.test_name>

00012edc <.prname_next>:
   12edc:	00004137          	lui	sp,0x4
   12ee0:	2c10a0ef          	jal	ra,1d9a0 <printf_s>

00012ee4 <test_2>:
   12ee4:	0000c097          	auipc	ra,0xc
   12ee8:	dec08093          	addi	ra,ra,-532 # 1ecd0 <tdat>
   12eec:	00008183          	lb	gp,0(ra)
   12ef0:	fff00e93          	li	t4,-1
   12ef4:	00200e13          	li	t3,2
   12ef8:	23d19c63          	bne	gp,t4,13130 <fail>

00012efc <test_3>:
   12efc:	0000c097          	auipc	ra,0xc
   12f00:	dd408093          	addi	ra,ra,-556 # 1ecd0 <tdat>
   12f04:	00108183          	lb	gp,1(ra)
   12f08:	00000e93          	li	t4,0
   12f0c:	00300e13          	li	t3,3
   12f10:	23d19063          	bne	gp,t4,13130 <fail>

00012f14 <test_4>:
   12f14:	0000c097          	auipc	ra,0xc
   12f18:	dbc08093          	addi	ra,ra,-580 # 1ecd0 <tdat>
   12f1c:	00208183          	lb	gp,2(ra)
   12f20:	ff000e93          	li	t4,-16
   12f24:	00400e13          	li	t3,4
   12f28:	21d19463          	bne	gp,t4,13130 <fail>

00012f2c <test_5>:
   12f2c:	0000c097          	auipc	ra,0xc
   12f30:	da408093          	addi	ra,ra,-604 # 1ecd0 <tdat>
   12f34:	00308183          	lb	gp,3(ra)
   12f38:	00f00e93          	li	t4,15
   12f3c:	00500e13          	li	t3,5
   12f40:	1fd19863          	bne	gp,t4,13130 <fail>

00012f44 <test_6>:
   12f44:	0000c097          	auipc	ra,0xc
   12f48:	d8f08093          	addi	ra,ra,-625 # 1ecd3 <tdat4>
   12f4c:	ffd08183          	lb	gp,-3(ra)
   12f50:	fff00e93          	li	t4,-1
   12f54:	00600e13          	li	t3,6
   12f58:	1dd19c63          	bne	gp,t4,13130 <fail>

00012f5c <test_7>:
   12f5c:	0000c097          	auipc	ra,0xc
   12f60:	d7708093          	addi	ra,ra,-649 # 1ecd3 <tdat4>
   12f64:	ffe08183          	lb	gp,-2(ra)
   12f68:	00000e93          	li	t4,0
   12f6c:	00700e13          	li	t3,7
   12f70:	1dd19063          	bne	gp,t4,13130 <fail>

00012f74 <test_8>:
   12f74:	0000c097          	auipc	ra,0xc
   12f78:	d5f08093          	addi	ra,ra,-673 # 1ecd3 <tdat4>
   12f7c:	fff08183          	lb	gp,-1(ra)
   12f80:	ff000e93          	li	t4,-16
   12f84:	00800e13          	li	t3,8
   12f88:	1bd19463          	bne	gp,t4,13130 <fail>

00012f8c <test_9>:
   12f8c:	0000c097          	auipc	ra,0xc
   12f90:	d4708093          	addi	ra,ra,-697 # 1ecd3 <tdat4>
   12f94:	00008183          	lb	gp,0(ra)
   12f98:	00f00e93          	li	t4,15
   12f9c:	00900e13          	li	t3,9
   12fa0:	19d19863          	bne	gp,t4,13130 <fail>

00012fa4 <test_10>:
   12fa4:	0000c097          	auipc	ra,0xc
   12fa8:	d2c08093          	addi	ra,ra,-724 # 1ecd0 <tdat>
   12fac:	fe008093          	addi	ra,ra,-32
   12fb0:	02008183          	lb	gp,32(ra)
   12fb4:	fff00e93          	li	t4,-1
   12fb8:	00a00e13          	li	t3,10
   12fbc:	17d19a63          	bne	gp,t4,13130 <fail>

00012fc0 <test_11>:
   12fc0:	0000c097          	auipc	ra,0xc
   12fc4:	d1008093          	addi	ra,ra,-752 # 1ecd0 <tdat>
   12fc8:	ffa08093          	addi	ra,ra,-6
   12fcc:	00708183          	lb	gp,7(ra)
   12fd0:	00000e93          	li	t4,0
   12fd4:	00b00e13          	li	t3,11
   12fd8:	15d19c63          	bne	gp,t4,13130 <fail>

00012fdc <test_12>:
   12fdc:	00c00e13          	li	t3,12
   12fe0:	00000213          	li	tp,0
   12fe4:	0000c097          	auipc	ra,0xc
   12fe8:	ced08093          	addi	ra,ra,-787 # 1ecd1 <tdat2>
   12fec:	00108183          	lb	gp,1(ra)
   12ff0:	00018313          	mv	t1,gp
   12ff4:	ff000e93          	li	t4,-16
   12ff8:	13d31c63          	bne	t1,t4,13130 <fail>
   12ffc:	00120213          	addi	tp,tp,1 # 1 <_start+0x1>
   13000:	00200293          	li	t0,2
   13004:	fe5210e3          	bne	tp,t0,12fe4 <test_12+0x8>

00013008 <test_13>:
   13008:	00d00e13          	li	t3,13
   1300c:	00000213          	li	tp,0
   13010:	0000c097          	auipc	ra,0xc
   13014:	cc208093          	addi	ra,ra,-830 # 1ecd2 <tdat3>
   13018:	00108183          	lb	gp,1(ra)
   1301c:	00000013          	nop
   13020:	00018313          	mv	t1,gp
   13024:	00f00e93          	li	t4,15
   13028:	11d31463          	bne	t1,t4,13130 <fail>
   1302c:	00120213          	addi	tp,tp,1 # 1 <_start+0x1>
   13030:	00200293          	li	t0,2
   13034:	fc521ee3          	bne	tp,t0,13010 <test_13+0x8>

00013038 <test_14>:
   13038:	00e00e13          	li	t3,14
   1303c:	00000213          	li	tp,0
   13040:	0000c097          	auipc	ra,0xc
   13044:	c9008093          	addi	ra,ra,-880 # 1ecd0 <tdat>
   13048:	00108183          	lb	gp,1(ra)
   1304c:	00000013          	nop
   13050:	00000013          	nop
   13054:	00018313          	mv	t1,gp
   13058:	00000e93          	li	t4,0
   1305c:	0dd31a63          	bne	t1,t4,13130 <fail>
   13060:	00120213          	addi	tp,tp,1 # 1 <_start+0x1>
   13064:	00200293          	li	t0,2
   13068:	fc521ce3          	bne	tp,t0,13040 <test_14+0x8>

0001306c <test_15>:
   1306c:	00f00e13          	li	t3,15
   13070:	00000213          	li	tp,0
   13074:	0000c097          	auipc	ra,0xc
   13078:	c5d08093          	addi	ra,ra,-931 # 1ecd1 <tdat2>
   1307c:	00108183          	lb	gp,1(ra)
   13080:	ff000e93          	li	t4,-16
   13084:	0bd19663          	bne	gp,t4,13130 <fail>
   13088:	00120213          	addi	tp,tp,1 # 1 <_start+0x1>
   1308c:	00200293          	li	t0,2
   13090:	fe5212e3          	bne	tp,t0,13074 <test_15+0x8>

00013094 <test_16>:
   13094:	01000e13          	li	t3,16
   13098:	00000213          	li	tp,0
   1309c:	0000c097          	auipc	ra,0xc
   130a0:	c3608093          	addi	ra,ra,-970 # 1ecd2 <tdat3>
   130a4:	00000013          	nop
   130a8:	00108183          	lb	gp,1(ra)
   130ac:	00f00e93          	li	t4,15
   130b0:	09d19063          	bne	gp,t4,13130 <fail>
   130b4:	00120213          	addi	tp,tp,1 # 1 <_start+0x1>
   130b8:	00200293          	li	t0,2
   130bc:	fe5210e3          	bne	tp,t0,1309c <test_16+0x8>

000130c0 <test_17>:
   130c0:	01100e13          	li	t3,17
   130c4:	00000213          	li	tp,0
   130c8:	0000c097          	auipc	ra,0xc
   130cc:	c0808093          	addi	ra,ra,-1016 # 1ecd0 <tdat>
   130d0:	00000013          	nop
   130d4:	00000013          	nop
   130d8:	00108183          	lb	gp,1(ra)
   130dc:	00000e93          	li	t4,0
   130e0:	05d19863          	bne	gp,t4,13130 <fail>
   130e4:	00120213          	addi	tp,tp,1 # 1 <_start+0x1>
   130e8:	00200293          	li	t0,2
   130ec:	fc521ee3          	bne	tp,t0,130c8 <test_17+0x8>

000130f0 <test_18>:
   130f0:	0000c197          	auipc	gp,0xc
   130f4:	be018193          	addi	gp,gp,-1056 # 1ecd0 <tdat>
   130f8:	00018103          	lb	sp,0(gp)
   130fc:	00200113          	li	sp,2
   13100:	00200e93          	li	t4,2
   13104:	01200e13          	li	t3,18
   13108:	03d11463          	bne	sp,t4,13130 <fail>

0001310c <test_19>:
   1310c:	0000c197          	auipc	gp,0xc
   13110:	bc418193          	addi	gp,gp,-1084 # 1ecd0 <tdat>
   13114:	00018103          	lb	sp,0(gp)
   13118:	00000013          	nop
   1311c:	00200113          	li	sp,2
   13120:	00200e93          	li	t4,2
   13124:	01300e13          	li	t3,19
   13128:	01d11463          	bne	sp,t4,13130 <fail>
   1312c:	05c01863          	bne	zero,t3,1317c <pass>

00013130 <fail>:
   13130:	04500513          	li	a0,69
   13134:	00004137          	lui	sp,0x4
   13138:	0510a0ef          	jal	ra,1d988 <printf_c>
   1313c:	05200513          	li	a0,82
   13140:	00004137          	lui	sp,0x4
   13144:	0450a0ef          	jal	ra,1d988 <printf_c>
   13148:	00004137          	lui	sp,0x4
   1314c:	03d0a0ef          	jal	ra,1d988 <printf_c>
   13150:	04f00513          	li	a0,79
   13154:	00004137          	lui	sp,0x4
   13158:	0310a0ef          	jal	ra,1d988 <printf_c>
   1315c:	00004137          	lui	sp,0x4
   13160:	05200513          	li	a0,82
   13164:	00004137          	lui	sp,0x4
   13168:	0210a0ef          	jal	ra,1d988 <printf_c>
   1316c:	00a00513          	li	a0,10
   13170:	00004137          	lui	sp,0x4
   13174:	0150a0ef          	jal	ra,1d988 <printf_c>
   13178:	0340006f          	j	131ac <lbu>

0001317c <pass>:
   1317c:	04f00513          	li	a0,79
   13180:	00004137          	lui	sp,0x4
   13184:	0050a0ef          	jal	ra,1d988 <printf_c>
   13188:	04b00513          	li	a0,75
   1318c:	00004137          	lui	sp,0x4
   13190:	7f80a0ef          	jal	ra,1d988 <printf_c>
   13194:	00a00513          	li	a0,10
   13198:	00004137          	lui	sp,0x4
   1319c:	7ec0a0ef          	jal	ra,1d988 <printf_c>
   131a0:	00c0006f          	j	131ac <lbu>

000131a4 <.test_name>:
   131a4:	626c                	flw	fa1,68(a2)
   131a6:	2075                	jal	13252 <test_8+0x6>
   131a8:	0009                	c.addi	zero,2
	...

000131ac <lbu>:
   131ac:	00013537          	lui	a0,0x13
   131b0:	1a450513          	addi	a0,a0,420 # 131a4 <.test_name>

000131b4 <.prname_next>:
   131b4:	00004137          	lui	sp,0x4
   131b8:	7e80a0ef          	jal	ra,1d9a0 <printf_s>

000131bc <test_2>:
   131bc:	0000c097          	auipc	ra,0xc
   131c0:	b1808093          	addi	ra,ra,-1256 # 1ecd4 <tdat>
   131c4:	0000c183          	lbu	gp,0(ra)
   131c8:	0ff00e93          	li	t4,255
   131cc:	00200e13          	li	t3,2
   131d0:	23d19c63          	bne	gp,t4,13408 <fail>

000131d4 <test_3>:
   131d4:	0000c097          	auipc	ra,0xc
   131d8:	b0008093          	addi	ra,ra,-1280 # 1ecd4 <tdat>
   131dc:	0010c183          	lbu	gp,1(ra)
   131e0:	00000e93          	li	t4,0
   131e4:	00300e13          	li	t3,3
   131e8:	23d19063          	bne	gp,t4,13408 <fail>

000131ec <test_4>:
   131ec:	0000c097          	auipc	ra,0xc
   131f0:	ae808093          	addi	ra,ra,-1304 # 1ecd4 <tdat>
   131f4:	0020c183          	lbu	gp,2(ra)
   131f8:	0f000e93          	li	t4,240
   131fc:	00400e13          	li	t3,4
   13200:	21d19463          	bne	gp,t4,13408 <fail>

00013204 <test_5>:
   13204:	0000c097          	auipc	ra,0xc
   13208:	ad008093          	addi	ra,ra,-1328 # 1ecd4 <tdat>
   1320c:	0030c183          	lbu	gp,3(ra)
   13210:	00f00e93          	li	t4,15
   13214:	00500e13          	li	t3,5
   13218:	1fd19863          	bne	gp,t4,13408 <fail>

0001321c <test_6>:
   1321c:	0000c097          	auipc	ra,0xc
   13220:	abb08093          	addi	ra,ra,-1349 # 1ecd7 <tdat4>
   13224:	ffd0c183          	lbu	gp,-3(ra)
   13228:	0ff00e93          	li	t4,255
   1322c:	00600e13          	li	t3,6
   13230:	1dd19c63          	bne	gp,t4,13408 <fail>

00013234 <test_7>:
   13234:	0000c097          	auipc	ra,0xc
   13238:	aa308093          	addi	ra,ra,-1373 # 1ecd7 <tdat4>
   1323c:	ffe0c183          	lbu	gp,-2(ra)
   13240:	00000e93          	li	t4,0
   13244:	00700e13          	li	t3,7
   13248:	1dd19063          	bne	gp,t4,13408 <fail>

0001324c <test_8>:
   1324c:	0000c097          	auipc	ra,0xc
   13250:	a8b08093          	addi	ra,ra,-1397 # 1ecd7 <tdat4>
   13254:	fff0c183          	lbu	gp,-1(ra)
   13258:	0f000e93          	li	t4,240
   1325c:	00800e13          	li	t3,8
   13260:	1bd19463          	bne	gp,t4,13408 <fail>

00013264 <test_9>:
   13264:	0000c097          	auipc	ra,0xc
   13268:	a7308093          	addi	ra,ra,-1421 # 1ecd7 <tdat4>
   1326c:	0000c183          	lbu	gp,0(ra)
   13270:	00f00e93          	li	t4,15
   13274:	00900e13          	li	t3,9
   13278:	19d19863          	bne	gp,t4,13408 <fail>

0001327c <test_10>:
   1327c:	0000c097          	auipc	ra,0xc
   13280:	a5808093          	addi	ra,ra,-1448 # 1ecd4 <tdat>
   13284:	fe008093          	addi	ra,ra,-32
   13288:	0200c183          	lbu	gp,32(ra)
   1328c:	0ff00e93          	li	t4,255
   13290:	00a00e13          	li	t3,10
   13294:	17d19a63          	bne	gp,t4,13408 <fail>

00013298 <test_11>:
   13298:	0000c097          	auipc	ra,0xc
   1329c:	a3c08093          	addi	ra,ra,-1476 # 1ecd4 <tdat>
   132a0:	ffa08093          	addi	ra,ra,-6
   132a4:	0070c183          	lbu	gp,7(ra)
   132a8:	00000e93          	li	t4,0
   132ac:	00b00e13          	li	t3,11
   132b0:	15d19c63          	bne	gp,t4,13408 <fail>

000132b4 <test_12>:
   132b4:	00c00e13          	li	t3,12
   132b8:	00000213          	li	tp,0
   132bc:	0000c097          	auipc	ra,0xc
   132c0:	a1908093          	addi	ra,ra,-1511 # 1ecd5 <tdat2>
   132c4:	0010c183          	lbu	gp,1(ra)
   132c8:	00018313          	mv	t1,gp
   132cc:	0f000e93          	li	t4,240
   132d0:	13d31c63          	bne	t1,t4,13408 <fail>
   132d4:	00120213          	addi	tp,tp,1 # 1 <_start+0x1>
   132d8:	00200293          	li	t0,2
   132dc:	fe5210e3          	bne	tp,t0,132bc <test_12+0x8>

000132e0 <test_13>:
   132e0:	00d00e13          	li	t3,13
   132e4:	00000213          	li	tp,0
   132e8:	0000c097          	auipc	ra,0xc
   132ec:	9ee08093          	addi	ra,ra,-1554 # 1ecd6 <tdat3>
   132f0:	0010c183          	lbu	gp,1(ra)
   132f4:	00000013          	nop
   132f8:	00018313          	mv	t1,gp
   132fc:	00f00e93          	li	t4,15
   13300:	11d31463          	bne	t1,t4,13408 <fail>
   13304:	00120213          	addi	tp,tp,1 # 1 <_start+0x1>
   13308:	00200293          	li	t0,2
   1330c:	fc521ee3          	bne	tp,t0,132e8 <test_13+0x8>

00013310 <test_14>:
   13310:	00e00e13          	li	t3,14
   13314:	00000213          	li	tp,0
   13318:	0000c097          	auipc	ra,0xc
   1331c:	9bc08093          	addi	ra,ra,-1604 # 1ecd4 <tdat>
   13320:	0010c183          	lbu	gp,1(ra)
   13324:	00000013          	nop
   13328:	00000013          	nop
   1332c:	00018313          	mv	t1,gp
   13330:	00000e93          	li	t4,0
   13334:	0dd31a63          	bne	t1,t4,13408 <fail>
   13338:	00120213          	addi	tp,tp,1 # 1 <_start+0x1>
   1333c:	00200293          	li	t0,2
   13340:	fc521ce3          	bne	tp,t0,13318 <test_14+0x8>

00013344 <test_15>:
   13344:	00f00e13          	li	t3,15
   13348:	00000213          	li	tp,0
   1334c:	0000c097          	auipc	ra,0xc
   13350:	98908093          	addi	ra,ra,-1655 # 1ecd5 <tdat2>
   13354:	0010c183          	lbu	gp,1(ra)
   13358:	0f000e93          	li	t4,240
   1335c:	0bd19663          	bne	gp,t4,13408 <fail>
   13360:	00120213          	addi	tp,tp,1 # 1 <_start+0x1>
   13364:	00200293          	li	t0,2
   13368:	fe5212e3          	bne	tp,t0,1334c <test_15+0x8>

0001336c <test_16>:
   1336c:	01000e13          	li	t3,16
   13370:	00000213          	li	tp,0
   13374:	0000c097          	auipc	ra,0xc
   13378:	96208093          	addi	ra,ra,-1694 # 1ecd6 <tdat3>
   1337c:	00000013          	nop
   13380:	0010c183          	lbu	gp,1(ra)
   13384:	00f00e93          	li	t4,15
   13388:	09d19063          	bne	gp,t4,13408 <fail>
   1338c:	00120213          	addi	tp,tp,1 # 1 <_start+0x1>
   13390:	00200293          	li	t0,2
   13394:	fe5210e3          	bne	tp,t0,13374 <test_16+0x8>

00013398 <test_17>:
   13398:	01100e13          	li	t3,17
   1339c:	00000213          	li	tp,0
   133a0:	0000c097          	auipc	ra,0xc
   133a4:	93408093          	addi	ra,ra,-1740 # 1ecd4 <tdat>
   133a8:	00000013          	nop
   133ac:	00000013          	nop
   133b0:	0010c183          	lbu	gp,1(ra)
   133b4:	00000e93          	li	t4,0
   133b8:	05d19863          	bne	gp,t4,13408 <fail>
   133bc:	00120213          	addi	tp,tp,1 # 1 <_start+0x1>
   133c0:	00200293          	li	t0,2
   133c4:	fc521ee3          	bne	tp,t0,133a0 <test_17+0x8>

000133c8 <test_18>:
   133c8:	0000c197          	auipc	gp,0xc
   133cc:	90c18193          	addi	gp,gp,-1780 # 1ecd4 <tdat>
   133d0:	0001c103          	lbu	sp,0(gp)
   133d4:	00200113          	li	sp,2
   133d8:	00200e93          	li	t4,2
   133dc:	01200e13          	li	t3,18
   133e0:	03d11463          	bne	sp,t4,13408 <fail>

000133e4 <test_19>:
   133e4:	0000c197          	auipc	gp,0xc
   133e8:	8f018193          	addi	gp,gp,-1808 # 1ecd4 <tdat>
   133ec:	0001c103          	lbu	sp,0(gp)
   133f0:	00000013          	nop
   133f4:	00200113          	li	sp,2
   133f8:	00200e93          	li	t4,2
   133fc:	01300e13          	li	t3,19
   13400:	01d11463          	bne	sp,t4,13408 <fail>
   13404:	05c01863          	bne	zero,t3,13454 <pass>

00013408 <fail>:
   13408:	04500513          	li	a0,69
   1340c:	00004137          	lui	sp,0x4
   13410:	5780a0ef          	jal	ra,1d988 <printf_c>
   13414:	05200513          	li	a0,82
   13418:	00004137          	lui	sp,0x4
   1341c:	56c0a0ef          	jal	ra,1d988 <printf_c>
   13420:	00004137          	lui	sp,0x4
   13424:	5640a0ef          	jal	ra,1d988 <printf_c>
   13428:	04f00513          	li	a0,79
   1342c:	00004137          	lui	sp,0x4
   13430:	5580a0ef          	jal	ra,1d988 <printf_c>
   13434:	00004137          	lui	sp,0x4
   13438:	05200513          	li	a0,82
   1343c:	00004137          	lui	sp,0x4
   13440:	5480a0ef          	jal	ra,1d988 <printf_c>
   13444:	00a00513          	li	a0,10
   13448:	00004137          	lui	sp,0x4
   1344c:	53c0a0ef          	jal	ra,1d988 <printf_c>
   13450:	0300006f          	j	13480 <lh>

00013454 <pass>:
   13454:	04f00513          	li	a0,79
   13458:	00004137          	lui	sp,0x4
   1345c:	52c0a0ef          	jal	ra,1d988 <printf_c>
   13460:	04b00513          	li	a0,75
   13464:	00004137          	lui	sp,0x4
   13468:	5200a0ef          	jal	ra,1d988 <printf_c>
   1346c:	00a00513          	li	a0,10
   13470:	00004137          	lui	sp,0x4
   13474:	5140a0ef          	jal	ra,1d988 <printf_c>
   13478:	0080006f          	j	13480 <lh>

0001347c <.test_name>:
   1347c:	686c                	flw	fa1,84(s0)
   1347e:	0009                	c.addi	zero,2

00013480 <lh>:
   13480:	00013537          	lui	a0,0x13
   13484:	47c50513          	addi	a0,a0,1148 # 1347c <.test_name>

00013488 <.prname_next>:
   13488:	00004137          	lui	sp,0x4
   1348c:	5140a0ef          	jal	ra,1d9a0 <printf_s>

00013490 <test_2>:
   13490:	0000c097          	auipc	ra,0xc
   13494:	84808093          	addi	ra,ra,-1976 # 1ecd8 <tdat>
   13498:	00009183          	lh	gp,0(ra)
   1349c:	0ff00e93          	li	t4,255
   134a0:	00200e13          	li	t3,2
   134a4:	25d19c63          	bne	gp,t4,136fc <fail>

000134a8 <test_3>:
   134a8:	0000c097          	auipc	ra,0xc
   134ac:	83008093          	addi	ra,ra,-2000 # 1ecd8 <tdat>
   134b0:	00209183          	lh	gp,2(ra)
   134b4:	f0000e93          	li	t4,-256
   134b8:	00300e13          	li	t3,3
   134bc:	25d19063          	bne	gp,t4,136fc <fail>

000134c0 <test_4>:
   134c0:	0000c097          	auipc	ra,0xc
   134c4:	81808093          	addi	ra,ra,-2024 # 1ecd8 <tdat>
   134c8:	00409183          	lh	gp,4(ra)
   134cc:	00001eb7          	lui	t4,0x1
   134d0:	ff0e8e93          	addi	t4,t4,-16 # ff0 <coremarkBenchmark+0xf48>
   134d4:	00400e13          	li	t3,4
   134d8:	23d19263          	bne	gp,t4,136fc <fail>

000134dc <test_5>:
   134dc:	0000b097          	auipc	ra,0xb
   134e0:	7fc08093          	addi	ra,ra,2044 # 1ecd8 <tdat>
   134e4:	00609183          	lh	gp,6(ra)
   134e8:	fffffeb7          	lui	t4,0xfffff
   134ec:	00fe8e93          	addi	t4,t4,15 # fffff00f <heap_memory_used+0xfffdd237>
   134f0:	00500e13          	li	t3,5
   134f4:	21d19463          	bne	gp,t4,136fc <fail>

000134f8 <test_6>:
   134f8:	0000b097          	auipc	ra,0xb
   134fc:	7e608093          	addi	ra,ra,2022 # 1ecde <tdat4>
   13500:	ffa09183          	lh	gp,-6(ra)
   13504:	0ff00e93          	li	t4,255
   13508:	00600e13          	li	t3,6
   1350c:	1fd19863          	bne	gp,t4,136fc <fail>

00013510 <test_7>:
   13510:	0000b097          	auipc	ra,0xb
   13514:	7ce08093          	addi	ra,ra,1998 # 1ecde <tdat4>
   13518:	ffc09183          	lh	gp,-4(ra)
   1351c:	f0000e93          	li	t4,-256
   13520:	00700e13          	li	t3,7
   13524:	1dd19c63          	bne	gp,t4,136fc <fail>

00013528 <test_8>:
   13528:	0000b097          	auipc	ra,0xb
   1352c:	7b608093          	addi	ra,ra,1974 # 1ecde <tdat4>
   13530:	ffe09183          	lh	gp,-2(ra)
   13534:	00001eb7          	lui	t4,0x1
   13538:	ff0e8e93          	addi	t4,t4,-16 # ff0 <coremarkBenchmark+0xf48>
   1353c:	00800e13          	li	t3,8
   13540:	1bd19e63          	bne	gp,t4,136fc <fail>

00013544 <test_9>:
   13544:	0000b097          	auipc	ra,0xb
   13548:	79a08093          	addi	ra,ra,1946 # 1ecde <tdat4>
   1354c:	00009183          	lh	gp,0(ra)
   13550:	fffffeb7          	lui	t4,0xfffff
   13554:	00fe8e93          	addi	t4,t4,15 # fffff00f <heap_memory_used+0xfffdd237>
   13558:	00900e13          	li	t3,9
   1355c:	1bd19063          	bne	gp,t4,136fc <fail>

00013560 <test_10>:
   13560:	0000b097          	auipc	ra,0xb
   13564:	77808093          	addi	ra,ra,1912 # 1ecd8 <tdat>
   13568:	fe008093          	addi	ra,ra,-32
   1356c:	02009183          	lh	gp,32(ra)
   13570:	0ff00e93          	li	t4,255
   13574:	00a00e13          	li	t3,10
   13578:	19d19263          	bne	gp,t4,136fc <fail>

0001357c <test_11>:
   1357c:	0000b097          	auipc	ra,0xb
   13580:	75c08093          	addi	ra,ra,1884 # 1ecd8 <tdat>
   13584:	ffb08093          	addi	ra,ra,-5
   13588:	00709183          	lh	gp,7(ra)
   1358c:	f0000e93          	li	t4,-256
   13590:	00b00e13          	li	t3,11
   13594:	17d19463          	bne	gp,t4,136fc <fail>

00013598 <test_12>:
   13598:	00c00e13          	li	t3,12
   1359c:	00000213          	li	tp,0
   135a0:	0000b097          	auipc	ra,0xb
   135a4:	73a08093          	addi	ra,ra,1850 # 1ecda <tdat2>
   135a8:	00209183          	lh	gp,2(ra)
   135ac:	00018313          	mv	t1,gp
   135b0:	00001eb7          	lui	t4,0x1
   135b4:	ff0e8e93          	addi	t4,t4,-16 # ff0 <coremarkBenchmark+0xf48>
   135b8:	15d31263          	bne	t1,t4,136fc <fail>
   135bc:	00120213          	addi	tp,tp,1 # 1 <_start+0x1>
   135c0:	00200293          	li	t0,2
   135c4:	fc521ee3          	bne	tp,t0,135a0 <test_12+0x8>

000135c8 <test_13>:
   135c8:	00d00e13          	li	t3,13
   135cc:	00000213          	li	tp,0
   135d0:	0000b097          	auipc	ra,0xb
   135d4:	70c08093          	addi	ra,ra,1804 # 1ecdc <tdat3>
   135d8:	00209183          	lh	gp,2(ra)
   135dc:	00000013          	nop
   135e0:	00018313          	mv	t1,gp
   135e4:	fffffeb7          	lui	t4,0xfffff
   135e8:	00fe8e93          	addi	t4,t4,15 # fffff00f <heap_memory_used+0xfffdd237>
   135ec:	11d31863          	bne	t1,t4,136fc <fail>
   135f0:	00120213          	addi	tp,tp,1 # 1 <_start+0x1>
   135f4:	00200293          	li	t0,2
   135f8:	fc521ce3          	bne	tp,t0,135d0 <test_13+0x8>

000135fc <test_14>:
   135fc:	00e00e13          	li	t3,14
   13600:	00000213          	li	tp,0
   13604:	0000b097          	auipc	ra,0xb
   13608:	6d408093          	addi	ra,ra,1748 # 1ecd8 <tdat>
   1360c:	00209183          	lh	gp,2(ra)
   13610:	00000013          	nop
   13614:	00000013          	nop
   13618:	00018313          	mv	t1,gp
   1361c:	f0000e93          	li	t4,-256
   13620:	0dd31e63          	bne	t1,t4,136fc <fail>
   13624:	00120213          	addi	tp,tp,1 # 1 <_start+0x1>
   13628:	00200293          	li	t0,2
   1362c:	fc521ce3          	bne	tp,t0,13604 <test_14+0x8>

00013630 <test_15>:
   13630:	00f00e13          	li	t3,15
   13634:	00000213          	li	tp,0
   13638:	0000b097          	auipc	ra,0xb
   1363c:	6a208093          	addi	ra,ra,1698 # 1ecda <tdat2>
   13640:	00209183          	lh	gp,2(ra)
   13644:	00001eb7          	lui	t4,0x1
   13648:	ff0e8e93          	addi	t4,t4,-16 # ff0 <coremarkBenchmark+0xf48>
   1364c:	0bd19863          	bne	gp,t4,136fc <fail>
   13650:	00120213          	addi	tp,tp,1 # 1 <_start+0x1>
   13654:	00200293          	li	t0,2
   13658:	fe5210e3          	bne	tp,t0,13638 <test_15+0x8>

0001365c <test_16>:
   1365c:	01000e13          	li	t3,16
   13660:	00000213          	li	tp,0
   13664:	0000b097          	auipc	ra,0xb
   13668:	67808093          	addi	ra,ra,1656 # 1ecdc <tdat3>
   1366c:	00000013          	nop
   13670:	00209183          	lh	gp,2(ra)
   13674:	fffffeb7          	lui	t4,0xfffff
   13678:	00fe8e93          	addi	t4,t4,15 # fffff00f <heap_memory_used+0xfffdd237>
   1367c:	09d19063          	bne	gp,t4,136fc <fail>
   13680:	00120213          	addi	tp,tp,1 # 1 <_start+0x1>
   13684:	00200293          	li	t0,2
   13688:	fc521ee3          	bne	tp,t0,13664 <test_16+0x8>

0001368c <test_17>:
   1368c:	01100e13          	li	t3,17
   13690:	00000213          	li	tp,0
   13694:	0000b097          	auipc	ra,0xb
   13698:	64408093          	addi	ra,ra,1604 # 1ecd8 <tdat>
   1369c:	00000013          	nop
   136a0:	00000013          	nop
   136a4:	00209183          	lh	gp,2(ra)
   136a8:	f0000e93          	li	t4,-256
   136ac:	05d19863          	bne	gp,t4,136fc <fail>
   136b0:	00120213          	addi	tp,tp,1 # 1 <_start+0x1>
   136b4:	00200293          	li	t0,2
   136b8:	fc521ee3          	bne	tp,t0,13694 <test_17+0x8>

000136bc <test_18>:
   136bc:	0000b197          	auipc	gp,0xb
   136c0:	61c18193          	addi	gp,gp,1564 # 1ecd8 <tdat>
   136c4:	00019103          	lh	sp,0(gp)
   136c8:	00200113          	li	sp,2
   136cc:	00200e93          	li	t4,2
   136d0:	01200e13          	li	t3,18
   136d4:	03d11463          	bne	sp,t4,136fc <fail>

000136d8 <test_19>:
   136d8:	0000b197          	auipc	gp,0xb
   136dc:	60018193          	addi	gp,gp,1536 # 1ecd8 <tdat>
   136e0:	00019103          	lh	sp,0(gp)
   136e4:	00000013          	nop
   136e8:	00200113          	li	sp,2
   136ec:	00200e93          	li	t4,2
   136f0:	01300e13          	li	t3,19
   136f4:	01d11463          	bne	sp,t4,136fc <fail>
   136f8:	05c01863          	bne	zero,t3,13748 <pass>

000136fc <fail>:
   136fc:	04500513          	li	a0,69
   13700:	00004137          	lui	sp,0x4
   13704:	2840a0ef          	jal	ra,1d988 <printf_c>
   13708:	05200513          	li	a0,82
   1370c:	00004137          	lui	sp,0x4
   13710:	2780a0ef          	jal	ra,1d988 <printf_c>
   13714:	00004137          	lui	sp,0x4
   13718:	2700a0ef          	jal	ra,1d988 <printf_c>
   1371c:	04f00513          	li	a0,79
   13720:	00004137          	lui	sp,0x4
   13724:	2640a0ef          	jal	ra,1d988 <printf_c>
   13728:	00004137          	lui	sp,0x4
   1372c:	05200513          	li	a0,82
   13730:	00004137          	lui	sp,0x4
   13734:	2540a0ef          	jal	ra,1d988 <printf_c>
   13738:	00a00513          	li	a0,10
   1373c:	00004137          	lui	sp,0x4
   13740:	2480a0ef          	jal	ra,1d988 <printf_c>
   13744:	0340006f          	j	13778 <lhu>

00013748 <pass>:
   13748:	04f00513          	li	a0,79
   1374c:	00004137          	lui	sp,0x4
   13750:	2380a0ef          	jal	ra,1d988 <printf_c>
   13754:	04b00513          	li	a0,75
   13758:	00004137          	lui	sp,0x4
   1375c:	22c0a0ef          	jal	ra,1d988 <printf_c>
   13760:	00a00513          	li	a0,10
   13764:	00004137          	lui	sp,0x4
   13768:	2200a0ef          	jal	ra,1d988 <printf_c>
   1376c:	00c0006f          	j	13778 <lhu>

00013770 <.test_name>:
   13770:	686c                	flw	fa1,84(s0)
   13772:	2075                	jal	1381e <test_7+0x12>
   13774:	0009                	c.addi	zero,2
	...

00013778 <lhu>:
   13778:	00013537          	lui	a0,0x13
   1377c:	77050513          	addi	a0,a0,1904 # 13770 <.test_name>

00013780 <.prname_next>:
   13780:	00004137          	lui	sp,0x4
   13784:	21c0a0ef          	jal	ra,1d9a0 <printf_s>

00013788 <test_2>:
   13788:	0000b097          	auipc	ra,0xb
   1378c:	55808093          	addi	ra,ra,1368 # 1ece0 <tdat>
   13790:	0000d183          	lhu	gp,0(ra)
   13794:	0ff00e93          	li	t4,255
   13798:	00200e13          	li	t3,2
   1379c:	27d19663          	bne	gp,t4,13a08 <fail>

000137a0 <test_3>:
   137a0:	0000b097          	auipc	ra,0xb
   137a4:	54008093          	addi	ra,ra,1344 # 1ece0 <tdat>
   137a8:	0020d183          	lhu	gp,2(ra)
   137ac:	00010eb7          	lui	t4,0x10
   137b0:	f00e8e93          	addi	t4,t4,-256 # ff00 <coremarkBenchmark+0xfe58>
   137b4:	00300e13          	li	t3,3
   137b8:	25d19863          	bne	gp,t4,13a08 <fail>

000137bc <test_4>:
   137bc:	0000b097          	auipc	ra,0xb
   137c0:	52408093          	addi	ra,ra,1316 # 1ece0 <tdat>
   137c4:	0040d183          	lhu	gp,4(ra)
   137c8:	00001eb7          	lui	t4,0x1
   137cc:	ff0e8e93          	addi	t4,t4,-16 # ff0 <coremarkBenchmark+0xf48>
   137d0:	00400e13          	li	t3,4
   137d4:	23d19a63          	bne	gp,t4,13a08 <fail>

000137d8 <test_5>:
   137d8:	0000b097          	auipc	ra,0xb
   137dc:	50808093          	addi	ra,ra,1288 # 1ece0 <tdat>
   137e0:	0060d183          	lhu	gp,6(ra)
   137e4:	0000feb7          	lui	t4,0xf
   137e8:	00fe8e93          	addi	t4,t4,15 # f00f <coremarkBenchmark+0xef67>
   137ec:	00500e13          	li	t3,5
   137f0:	21d19c63          	bne	gp,t4,13a08 <fail>

000137f4 <test_6>:
   137f4:	0000b097          	auipc	ra,0xb
   137f8:	4f208093          	addi	ra,ra,1266 # 1ece6 <tdat4>
   137fc:	ffa0d183          	lhu	gp,-6(ra)
   13800:	0ff00e93          	li	t4,255
   13804:	00600e13          	li	t3,6
   13808:	21d19063          	bne	gp,t4,13a08 <fail>

0001380c <test_7>:
   1380c:	0000b097          	auipc	ra,0xb
   13810:	4da08093          	addi	ra,ra,1242 # 1ece6 <tdat4>
   13814:	ffc0d183          	lhu	gp,-4(ra)
   13818:	00010eb7          	lui	t4,0x10
   1381c:	f00e8e93          	addi	t4,t4,-256 # ff00 <coremarkBenchmark+0xfe58>
   13820:	00700e13          	li	t3,7
   13824:	1fd19263          	bne	gp,t4,13a08 <fail>

00013828 <test_8>:
   13828:	0000b097          	auipc	ra,0xb
   1382c:	4be08093          	addi	ra,ra,1214 # 1ece6 <tdat4>
   13830:	ffe0d183          	lhu	gp,-2(ra)
   13834:	00001eb7          	lui	t4,0x1
   13838:	ff0e8e93          	addi	t4,t4,-16 # ff0 <coremarkBenchmark+0xf48>
   1383c:	00800e13          	li	t3,8
   13840:	1dd19463          	bne	gp,t4,13a08 <fail>

00013844 <test_9>:
   13844:	0000b097          	auipc	ra,0xb
   13848:	4a208093          	addi	ra,ra,1186 # 1ece6 <tdat4>
   1384c:	0000d183          	lhu	gp,0(ra)
   13850:	0000feb7          	lui	t4,0xf
   13854:	00fe8e93          	addi	t4,t4,15 # f00f <coremarkBenchmark+0xef67>
   13858:	00900e13          	li	t3,9
   1385c:	1bd19663          	bne	gp,t4,13a08 <fail>

00013860 <test_10>:
   13860:	0000b097          	auipc	ra,0xb
   13864:	48008093          	addi	ra,ra,1152 # 1ece0 <tdat>
   13868:	fe008093          	addi	ra,ra,-32
   1386c:	0200d183          	lhu	gp,32(ra)
   13870:	0ff00e93          	li	t4,255
   13874:	00a00e13          	li	t3,10
   13878:	19d19863          	bne	gp,t4,13a08 <fail>

0001387c <test_11>:
   1387c:	0000b097          	auipc	ra,0xb
   13880:	46408093          	addi	ra,ra,1124 # 1ece0 <tdat>
   13884:	ffb08093          	addi	ra,ra,-5
   13888:	0070d183          	lhu	gp,7(ra)
   1388c:	00010eb7          	lui	t4,0x10
   13890:	f00e8e93          	addi	t4,t4,-256 # ff00 <coremarkBenchmark+0xfe58>
   13894:	00b00e13          	li	t3,11
   13898:	17d19863          	bne	gp,t4,13a08 <fail>

0001389c <test_12>:
   1389c:	00c00e13          	li	t3,12
   138a0:	00000213          	li	tp,0
   138a4:	0000b097          	auipc	ra,0xb
   138a8:	43e08093          	addi	ra,ra,1086 # 1ece2 <tdat2>
   138ac:	0020d183          	lhu	gp,2(ra)
   138b0:	00018313          	mv	t1,gp
   138b4:	00001eb7          	lui	t4,0x1
   138b8:	ff0e8e93          	addi	t4,t4,-16 # ff0 <coremarkBenchmark+0xf48>
   138bc:	15d31663          	bne	t1,t4,13a08 <fail>
   138c0:	00120213          	addi	tp,tp,1 # 1 <_start+0x1>
   138c4:	00200293          	li	t0,2
   138c8:	fc521ee3          	bne	tp,t0,138a4 <test_12+0x8>

000138cc <test_13>:
   138cc:	00d00e13          	li	t3,13
   138d0:	00000213          	li	tp,0
   138d4:	0000b097          	auipc	ra,0xb
   138d8:	41008093          	addi	ra,ra,1040 # 1ece4 <tdat3>
   138dc:	0020d183          	lhu	gp,2(ra)
   138e0:	00000013          	nop
   138e4:	00018313          	mv	t1,gp
   138e8:	0000feb7          	lui	t4,0xf
   138ec:	00fe8e93          	addi	t4,t4,15 # f00f <coremarkBenchmark+0xef67>
   138f0:	11d31c63          	bne	t1,t4,13a08 <fail>
   138f4:	00120213          	addi	tp,tp,1 # 1 <_start+0x1>
   138f8:	00200293          	li	t0,2
   138fc:	fc521ce3          	bne	tp,t0,138d4 <test_13+0x8>

00013900 <test_14>:
   13900:	00e00e13          	li	t3,14
   13904:	00000213          	li	tp,0
   13908:	0000b097          	auipc	ra,0xb
   1390c:	3d808093          	addi	ra,ra,984 # 1ece0 <tdat>
   13910:	0020d183          	lhu	gp,2(ra)
   13914:	00000013          	nop
   13918:	00000013          	nop
   1391c:	00018313          	mv	t1,gp
   13920:	00010eb7          	lui	t4,0x10
   13924:	f00e8e93          	addi	t4,t4,-256 # ff00 <coremarkBenchmark+0xfe58>
   13928:	0fd31063          	bne	t1,t4,13a08 <fail>
   1392c:	00120213          	addi	tp,tp,1 # 1 <_start+0x1>
   13930:	00200293          	li	t0,2
   13934:	fc521ae3          	bne	tp,t0,13908 <test_14+0x8>

00013938 <test_15>:
   13938:	00f00e13          	li	t3,15
   1393c:	00000213          	li	tp,0
   13940:	0000b097          	auipc	ra,0xb
   13944:	3a208093          	addi	ra,ra,930 # 1ece2 <tdat2>
   13948:	0020d183          	lhu	gp,2(ra)
   1394c:	00001eb7          	lui	t4,0x1
   13950:	ff0e8e93          	addi	t4,t4,-16 # ff0 <coremarkBenchmark+0xf48>
   13954:	0bd19a63          	bne	gp,t4,13a08 <fail>
   13958:	00120213          	addi	tp,tp,1 # 1 <_start+0x1>
   1395c:	00200293          	li	t0,2
   13960:	fe5210e3          	bne	tp,t0,13940 <test_15+0x8>

00013964 <test_16>:
   13964:	01000e13          	li	t3,16
   13968:	00000213          	li	tp,0
   1396c:	0000b097          	auipc	ra,0xb
   13970:	37808093          	addi	ra,ra,888 # 1ece4 <tdat3>
   13974:	00000013          	nop
   13978:	0020d183          	lhu	gp,2(ra)
   1397c:	0000feb7          	lui	t4,0xf
   13980:	00fe8e93          	addi	t4,t4,15 # f00f <coremarkBenchmark+0xef67>
   13984:	09d19263          	bne	gp,t4,13a08 <fail>
   13988:	00120213          	addi	tp,tp,1 # 1 <_start+0x1>
   1398c:	00200293          	li	t0,2
   13990:	fc521ee3          	bne	tp,t0,1396c <test_16+0x8>

00013994 <test_17>:
   13994:	01100e13          	li	t3,17
   13998:	00000213          	li	tp,0
   1399c:	0000b097          	auipc	ra,0xb
   139a0:	34408093          	addi	ra,ra,836 # 1ece0 <tdat>
   139a4:	00000013          	nop
   139a8:	00000013          	nop
   139ac:	0020d183          	lhu	gp,2(ra)
   139b0:	00010eb7          	lui	t4,0x10
   139b4:	f00e8e93          	addi	t4,t4,-256 # ff00 <coremarkBenchmark+0xfe58>
   139b8:	05d19863          	bne	gp,t4,13a08 <fail>
   139bc:	00120213          	addi	tp,tp,1 # 1 <_start+0x1>
   139c0:	00200293          	li	t0,2
   139c4:	fc521ce3          	bne	tp,t0,1399c <test_17+0x8>

000139c8 <test_18>:
   139c8:	0000b197          	auipc	gp,0xb
   139cc:	31818193          	addi	gp,gp,792 # 1ece0 <tdat>
   139d0:	0001d103          	lhu	sp,0(gp)
   139d4:	00200113          	li	sp,2
   139d8:	00200e93          	li	t4,2
   139dc:	01200e13          	li	t3,18
   139e0:	03d11463          	bne	sp,t4,13a08 <fail>

000139e4 <test_19>:
   139e4:	0000b197          	auipc	gp,0xb
   139e8:	2fc18193          	addi	gp,gp,764 # 1ece0 <tdat>
   139ec:	0001d103          	lhu	sp,0(gp)
   139f0:	00000013          	nop
   139f4:	00200113          	li	sp,2
   139f8:	00200e93          	li	t4,2
   139fc:	01300e13          	li	t3,19
   13a00:	01d11463          	bne	sp,t4,13a08 <fail>
   13a04:	05c01863          	bne	zero,t3,13a54 <pass>

00013a08 <fail>:
   13a08:	04500513          	li	a0,69
   13a0c:	00004137          	lui	sp,0x4
   13a10:	779090ef          	jal	ra,1d988 <printf_c>
   13a14:	05200513          	li	a0,82
   13a18:	00004137          	lui	sp,0x4
   13a1c:	76d090ef          	jal	ra,1d988 <printf_c>
   13a20:	00004137          	lui	sp,0x4
   13a24:	765090ef          	jal	ra,1d988 <printf_c>
   13a28:	04f00513          	li	a0,79
   13a2c:	00004137          	lui	sp,0x4
   13a30:	759090ef          	jal	ra,1d988 <printf_c>
   13a34:	00004137          	lui	sp,0x4
   13a38:	05200513          	li	a0,82
   13a3c:	00004137          	lui	sp,0x4
   13a40:	749090ef          	jal	ra,1d988 <printf_c>
   13a44:	00a00513          	li	a0,10
   13a48:	00004137          	lui	sp,0x4
   13a4c:	73d090ef          	jal	ra,1d988 <printf_c>
   13a50:	0340006f          	j	13a84 <lui>

00013a54 <pass>:
   13a54:	04f00513          	li	a0,79
   13a58:	00004137          	lui	sp,0x4
   13a5c:	72d090ef          	jal	ra,1d988 <printf_c>
   13a60:	04b00513          	li	a0,75
   13a64:	00004137          	lui	sp,0x4
   13a68:	721090ef          	jal	ra,1d988 <printf_c>
   13a6c:	00a00513          	li	a0,10
   13a70:	00004137          	lui	sp,0x4
   13a74:	715090ef          	jal	ra,1d988 <printf_c>
   13a78:	00c0006f          	j	13a84 <lui>

00013a7c <.test_name>:
   13a7c:	756c                	flw	fa1,108(a0)
   13a7e:	2069                	jal	13b08 <fail+0x14>
   13a80:	0009                	c.addi	zero,2
	...

00013a84 <lui>:
   13a84:	00014537          	lui	a0,0x14
   13a88:	a7c50513          	addi	a0,a0,-1412 # 13a7c <.test_name>

00013a8c <.prname_next>:
   13a8c:	00004137          	lui	sp,0x4
   13a90:	711090ef          	jal	ra,1d9a0 <printf_s>

00013a94 <test_2>:
   13a94:	000000b7          	lui	ra,0x0
   13a98:	00000e93          	li	t4,0
   13a9c:	00200e13          	li	t3,2
   13aa0:	05d09a63          	bne	ra,t4,13af4 <fail>

00013aa4 <test_3>:
   13aa4:	fffff0b7          	lui	ra,0xfffff
   13aa8:	4010d093          	srai	ra,ra,0x1
   13aac:	80000e93          	li	t4,-2048
   13ab0:	00300e13          	li	t3,3
   13ab4:	05d09063          	bne	ra,t4,13af4 <fail>

00013ab8 <test_4>:
   13ab8:	7ffff0b7          	lui	ra,0x7ffff
   13abc:	4140d093          	srai	ra,ra,0x14
   13ac0:	7ff00e93          	li	t4,2047
   13ac4:	00400e13          	li	t3,4
   13ac8:	03d09663          	bne	ra,t4,13af4 <fail>

00013acc <test_5>:
   13acc:	800000b7          	lui	ra,0x80000
   13ad0:	4140d093          	srai	ra,ra,0x14
   13ad4:	80000e93          	li	t4,-2048
   13ad8:	00500e13          	li	t3,5
   13adc:	01d09c63          	bne	ra,t4,13af4 <fail>

00013ae0 <test_6>:
   13ae0:	80000037          	lui	zero,0x80000
   13ae4:	00000e93          	li	t4,0
   13ae8:	00600e13          	li	t3,6
   13aec:	01d01463          	bne	zero,t4,13af4 <fail>
   13af0:	05c01863          	bne	zero,t3,13b40 <pass>

00013af4 <fail>:
   13af4:	04500513          	li	a0,69
   13af8:	00004137          	lui	sp,0x4
   13afc:	68d090ef          	jal	ra,1d988 <printf_c>
   13b00:	05200513          	li	a0,82
   13b04:	00004137          	lui	sp,0x4
   13b08:	681090ef          	jal	ra,1d988 <printf_c>
   13b0c:	00004137          	lui	sp,0x4
   13b10:	679090ef          	jal	ra,1d988 <printf_c>
   13b14:	04f00513          	li	a0,79
   13b18:	00004137          	lui	sp,0x4
   13b1c:	66d090ef          	jal	ra,1d988 <printf_c>
   13b20:	00004137          	lui	sp,0x4
   13b24:	05200513          	li	a0,82
   13b28:	00004137          	lui	sp,0x4
   13b2c:	65d090ef          	jal	ra,1d988 <printf_c>
   13b30:	00a00513          	li	a0,10
   13b34:	00004137          	lui	sp,0x4
   13b38:	651090ef          	jal	ra,1d988 <printf_c>
   13b3c:	0300006f          	j	13b6c <lw>

00013b40 <pass>:
   13b40:	04f00513          	li	a0,79
   13b44:	00004137          	lui	sp,0x4
   13b48:	641090ef          	jal	ra,1d988 <printf_c>
   13b4c:	04b00513          	li	a0,75
   13b50:	00004137          	lui	sp,0x4
   13b54:	635090ef          	jal	ra,1d988 <printf_c>
   13b58:	00a00513          	li	a0,10
   13b5c:	00004137          	lui	sp,0x4
   13b60:	629090ef          	jal	ra,1d988 <printf_c>
   13b64:	0080006f          	j	13b6c <lw>

00013b68 <.test_name>:
   13b68:	776c                	flw	fa1,108(a4)
   13b6a:	0009                	c.addi	zero,2

00013b6c <lw>:
   13b6c:	00014537          	lui	a0,0x14
   13b70:	b6850513          	addi	a0,a0,-1176 # 13b68 <.test_name>

00013b74 <.prname_next>:
   13b74:	00004137          	lui	sp,0x4
   13b78:	629090ef          	jal	ra,1d9a0 <printf_s>

00013b7c <test_2>:
   13b7c:	0000b097          	auipc	ra,0xb
   13b80:	16c08093          	addi	ra,ra,364 # 1ece8 <tdat>
   13b84:	0000a183          	lw	gp,0(ra)
   13b88:	00ff0eb7          	lui	t4,0xff0
   13b8c:	0ffe8e93          	addi	t4,t4,255 # ff00ff <heap_memory_used+0xfce327>
   13b90:	00200e13          	li	t3,2
   13b94:	27d19a63          	bne	gp,t4,13e08 <fail>

00013b98 <test_3>:
   13b98:	0000b097          	auipc	ra,0xb
   13b9c:	15008093          	addi	ra,ra,336 # 1ece8 <tdat>
   13ba0:	0040a183          	lw	gp,4(ra)
   13ba4:	ff010eb7          	lui	t4,0xff010
   13ba8:	f00e8e93          	addi	t4,t4,-256 # ff00ff00 <heap_memory_used+0xfefee128>
   13bac:	00300e13          	li	t3,3
   13bb0:	25d19c63          	bne	gp,t4,13e08 <fail>

00013bb4 <test_4>:
   13bb4:	0000b097          	auipc	ra,0xb
   13bb8:	13408093          	addi	ra,ra,308 # 1ece8 <tdat>
   13bbc:	0080a183          	lw	gp,8(ra)
   13bc0:	0ff01eb7          	lui	t4,0xff01
   13bc4:	ff0e8e93          	addi	t4,t4,-16 # ff00ff0 <heap_memory_used+0xfedf218>
   13bc8:	00400e13          	li	t3,4
   13bcc:	23d19e63          	bne	gp,t4,13e08 <fail>

00013bd0 <test_5>:
   13bd0:	0000b097          	auipc	ra,0xb
   13bd4:	11808093          	addi	ra,ra,280 # 1ece8 <tdat>
   13bd8:	00c0a183          	lw	gp,12(ra)
   13bdc:	f00ffeb7          	lui	t4,0xf00ff
   13be0:	00fe8e93          	addi	t4,t4,15 # f00ff00f <heap_memory_used+0xf00dd237>
   13be4:	00500e13          	li	t3,5
   13be8:	23d19063          	bne	gp,t4,13e08 <fail>

00013bec <test_6>:
   13bec:	0000b097          	auipc	ra,0xb
   13bf0:	10808093          	addi	ra,ra,264 # 1ecf4 <tdat4>
   13bf4:	ff40a183          	lw	gp,-12(ra)
   13bf8:	00ff0eb7          	lui	t4,0xff0
   13bfc:	0ffe8e93          	addi	t4,t4,255 # ff00ff <heap_memory_used+0xfce327>
   13c00:	00600e13          	li	t3,6
   13c04:	21d19263          	bne	gp,t4,13e08 <fail>

00013c08 <test_7>:
   13c08:	0000b097          	auipc	ra,0xb
   13c0c:	0ec08093          	addi	ra,ra,236 # 1ecf4 <tdat4>
   13c10:	ff80a183          	lw	gp,-8(ra)
   13c14:	ff010eb7          	lui	t4,0xff010
   13c18:	f00e8e93          	addi	t4,t4,-256 # ff00ff00 <heap_memory_used+0xfefee128>
   13c1c:	00700e13          	li	t3,7
   13c20:	1fd19463          	bne	gp,t4,13e08 <fail>

00013c24 <test_8>:
   13c24:	0000b097          	auipc	ra,0xb
   13c28:	0d008093          	addi	ra,ra,208 # 1ecf4 <tdat4>
   13c2c:	ffc0a183          	lw	gp,-4(ra)
   13c30:	0ff01eb7          	lui	t4,0xff01
   13c34:	ff0e8e93          	addi	t4,t4,-16 # ff00ff0 <heap_memory_used+0xfedf218>
   13c38:	00800e13          	li	t3,8
   13c3c:	1dd19663          	bne	gp,t4,13e08 <fail>

00013c40 <test_9>:
   13c40:	0000b097          	auipc	ra,0xb
   13c44:	0b408093          	addi	ra,ra,180 # 1ecf4 <tdat4>
   13c48:	0000a183          	lw	gp,0(ra)
   13c4c:	f00ffeb7          	lui	t4,0xf00ff
   13c50:	00fe8e93          	addi	t4,t4,15 # f00ff00f <heap_memory_used+0xf00dd237>
   13c54:	00900e13          	li	t3,9
   13c58:	1bd19863          	bne	gp,t4,13e08 <fail>

00013c5c <test_10>:
   13c5c:	0000b097          	auipc	ra,0xb
   13c60:	08c08093          	addi	ra,ra,140 # 1ece8 <tdat>
   13c64:	fe008093          	addi	ra,ra,-32
   13c68:	0200a183          	lw	gp,32(ra)
   13c6c:	00ff0eb7          	lui	t4,0xff0
   13c70:	0ffe8e93          	addi	t4,t4,255 # ff00ff <heap_memory_used+0xfce327>
   13c74:	00a00e13          	li	t3,10
   13c78:	19d19863          	bne	gp,t4,13e08 <fail>

00013c7c <test_11>:
   13c7c:	0000b097          	auipc	ra,0xb
   13c80:	06c08093          	addi	ra,ra,108 # 1ece8 <tdat>
   13c84:	ffd08093          	addi	ra,ra,-3
   13c88:	0070a183          	lw	gp,7(ra)
   13c8c:	ff010eb7          	lui	t4,0xff010
   13c90:	f00e8e93          	addi	t4,t4,-256 # ff00ff00 <heap_memory_used+0xfefee128>
   13c94:	00b00e13          	li	t3,11
   13c98:	17d19863          	bne	gp,t4,13e08 <fail>

00013c9c <test_12>:
   13c9c:	00c00e13          	li	t3,12
   13ca0:	00000213          	li	tp,0
   13ca4:	0000b097          	auipc	ra,0xb
   13ca8:	04808093          	addi	ra,ra,72 # 1ecec <tdat2>
   13cac:	0040a183          	lw	gp,4(ra)
   13cb0:	00018313          	mv	t1,gp
   13cb4:	0ff01eb7          	lui	t4,0xff01
   13cb8:	ff0e8e93          	addi	t4,t4,-16 # ff00ff0 <heap_memory_used+0xfedf218>
   13cbc:	15d31663          	bne	t1,t4,13e08 <fail>
   13cc0:	00120213          	addi	tp,tp,1 # 1 <_start+0x1>
   13cc4:	00200293          	li	t0,2
   13cc8:	fc521ee3          	bne	tp,t0,13ca4 <test_12+0x8>

00013ccc <test_13>:
   13ccc:	00d00e13          	li	t3,13
   13cd0:	00000213          	li	tp,0
   13cd4:	0000b097          	auipc	ra,0xb
   13cd8:	01c08093          	addi	ra,ra,28 # 1ecf0 <tdat3>
   13cdc:	0040a183          	lw	gp,4(ra)
   13ce0:	00000013          	nop
   13ce4:	00018313          	mv	t1,gp
   13ce8:	f00ffeb7          	lui	t4,0xf00ff
   13cec:	00fe8e93          	addi	t4,t4,15 # f00ff00f <heap_memory_used+0xf00dd237>
   13cf0:	11d31c63          	bne	t1,t4,13e08 <fail>
   13cf4:	00120213          	addi	tp,tp,1 # 1 <_start+0x1>
   13cf8:	00200293          	li	t0,2
   13cfc:	fc521ce3          	bne	tp,t0,13cd4 <test_13+0x8>

00013d00 <test_14>:
   13d00:	00e00e13          	li	t3,14
   13d04:	00000213          	li	tp,0
   13d08:	0000b097          	auipc	ra,0xb
   13d0c:	fe008093          	addi	ra,ra,-32 # 1ece8 <tdat>
   13d10:	0040a183          	lw	gp,4(ra)
   13d14:	00000013          	nop
   13d18:	00000013          	nop
   13d1c:	00018313          	mv	t1,gp
   13d20:	ff010eb7          	lui	t4,0xff010
   13d24:	f00e8e93          	addi	t4,t4,-256 # ff00ff00 <heap_memory_used+0xfefee128>
   13d28:	0fd31063          	bne	t1,t4,13e08 <fail>
   13d2c:	00120213          	addi	tp,tp,1 # 1 <_start+0x1>
   13d30:	00200293          	li	t0,2
   13d34:	fc521ae3          	bne	tp,t0,13d08 <test_14+0x8>

00013d38 <test_15>:
   13d38:	00f00e13          	li	t3,15
   13d3c:	00000213          	li	tp,0
   13d40:	0000b097          	auipc	ra,0xb
   13d44:	fac08093          	addi	ra,ra,-84 # 1ecec <tdat2>
   13d48:	0040a183          	lw	gp,4(ra)
   13d4c:	0ff01eb7          	lui	t4,0xff01
   13d50:	ff0e8e93          	addi	t4,t4,-16 # ff00ff0 <heap_memory_used+0xfedf218>
   13d54:	0bd19a63          	bne	gp,t4,13e08 <fail>
   13d58:	00120213          	addi	tp,tp,1 # 1 <_start+0x1>
   13d5c:	00200293          	li	t0,2
   13d60:	fe5210e3          	bne	tp,t0,13d40 <test_15+0x8>

00013d64 <test_16>:
   13d64:	01000e13          	li	t3,16
   13d68:	00000213          	li	tp,0
   13d6c:	0000b097          	auipc	ra,0xb
   13d70:	f8408093          	addi	ra,ra,-124 # 1ecf0 <tdat3>
   13d74:	00000013          	nop
   13d78:	0040a183          	lw	gp,4(ra)
   13d7c:	f00ffeb7          	lui	t4,0xf00ff
   13d80:	00fe8e93          	addi	t4,t4,15 # f00ff00f <heap_memory_used+0xf00dd237>
   13d84:	09d19263          	bne	gp,t4,13e08 <fail>
   13d88:	00120213          	addi	tp,tp,1 # 1 <_start+0x1>
   13d8c:	00200293          	li	t0,2
   13d90:	fc521ee3          	bne	tp,t0,13d6c <test_16+0x8>

00013d94 <test_17>:
   13d94:	01100e13          	li	t3,17
   13d98:	00000213          	li	tp,0
   13d9c:	0000b097          	auipc	ra,0xb
   13da0:	f4c08093          	addi	ra,ra,-180 # 1ece8 <tdat>
   13da4:	00000013          	nop
   13da8:	00000013          	nop
   13dac:	0040a183          	lw	gp,4(ra)
   13db0:	ff010eb7          	lui	t4,0xff010
   13db4:	f00e8e93          	addi	t4,t4,-256 # ff00ff00 <heap_memory_used+0xfefee128>
   13db8:	05d19863          	bne	gp,t4,13e08 <fail>
   13dbc:	00120213          	addi	tp,tp,1 # 1 <_start+0x1>
   13dc0:	00200293          	li	t0,2
   13dc4:	fc521ce3          	bne	tp,t0,13d9c <test_17+0x8>

00013dc8 <test_18>:
   13dc8:	0000b197          	auipc	gp,0xb
   13dcc:	f2018193          	addi	gp,gp,-224 # 1ece8 <tdat>
   13dd0:	0001a103          	lw	sp,0(gp)
   13dd4:	00200113          	li	sp,2
   13dd8:	00200e93          	li	t4,2
   13ddc:	01200e13          	li	t3,18
   13de0:	03d11463          	bne	sp,t4,13e08 <fail>

00013de4 <test_19>:
   13de4:	0000b197          	auipc	gp,0xb
   13de8:	f0418193          	addi	gp,gp,-252 # 1ece8 <tdat>
   13dec:	0001a103          	lw	sp,0(gp)
   13df0:	00000013          	nop
   13df4:	00200113          	li	sp,2
   13df8:	00200e93          	li	t4,2
   13dfc:	01300e13          	li	t3,19
   13e00:	01d11463          	bne	sp,t4,13e08 <fail>
   13e04:	05c01863          	bne	zero,t3,13e54 <pass>

00013e08 <fail>:
   13e08:	04500513          	li	a0,69
   13e0c:	00004137          	lui	sp,0x4
   13e10:	379090ef          	jal	ra,1d988 <printf_c>
   13e14:	05200513          	li	a0,82
   13e18:	00004137          	lui	sp,0x4
   13e1c:	36d090ef          	jal	ra,1d988 <printf_c>
   13e20:	00004137          	lui	sp,0x4
   13e24:	365090ef          	jal	ra,1d988 <printf_c>
   13e28:	04f00513          	li	a0,79
   13e2c:	00004137          	lui	sp,0x4
   13e30:	359090ef          	jal	ra,1d988 <printf_c>
   13e34:	00004137          	lui	sp,0x4
   13e38:	05200513          	li	a0,82
   13e3c:	00004137          	lui	sp,0x4
   13e40:	349090ef          	jal	ra,1d988 <printf_c>
   13e44:	00a00513          	li	a0,10
   13e48:	00004137          	lui	sp,0x4
   13e4c:	33d090ef          	jal	ra,1d988 <printf_c>
   13e50:	5800106f          	j	153d0 <or>

00013e54 <pass>:
   13e54:	04f00513          	li	a0,79
   13e58:	00004137          	lui	sp,0x4
   13e5c:	32d090ef          	jal	ra,1d988 <printf_c>
   13e60:	04b00513          	li	a0,75
   13e64:	00004137          	lui	sp,0x4
   13e68:	321090ef          	jal	ra,1d988 <printf_c>
   13e6c:	00a00513          	li	a0,10
   13e70:	00004137          	lui	sp,0x4
   13e74:	315090ef          	jal	ra,1d988 <printf_c>
   13e78:	5580106f          	j	153d0 <or>

00013e7c <.test_name>:
   13e7c:	756d                	lui	a0,0xffffb
   13e7e:	206c                	fld	fa1,192(s0)
   13e80:	0009                	c.addi	zero,2
	...

00013e84 <mul>:
   13e84:	00014537          	lui	a0,0x14
   13e88:	e7c50513          	addi	a0,a0,-388 # 13e7c <.test_name>

00013e8c <.prname_next>:
   13e8c:	00004137          	lui	sp,0x4
   13e90:	311090ef          	jal	ra,1d9a0 <printf_s>

00013e94 <test_32>:
   13e94:	000080b7          	lui	ra,0x8
   13e98:	e0008093          	addi	ra,ra,-512 # 7e00 <coremarkBenchmark+0x7d58>
   13e9c:	b6db7137          	lui	sp,0xb6db7
   13ea0:	db710113          	addi	sp,sp,-585 # b6db6db7 <heap_memory_used+0xb6d94fdf>
   13ea4:	022081b3          	mul	gp,ra,sp
   13ea8:	00001eb7          	lui	t4,0x1
   13eac:	200e8e93          	addi	t4,t4,512 # 1200 <coremarkBenchmark+0x1158>
   13eb0:	02000e13          	li	t3,32
   13eb4:	4bd19463          	bne	gp,t4,1435c <fail>

00013eb8 <test_33>:
   13eb8:	000080b7          	lui	ra,0x8
   13ebc:	fc008093          	addi	ra,ra,-64 # 7fc0 <coremarkBenchmark+0x7f18>
   13ec0:	b6db7137          	lui	sp,0xb6db7
   13ec4:	db710113          	addi	sp,sp,-585 # b6db6db7 <heap_memory_used+0xb6d94fdf>
   13ec8:	022081b3          	mul	gp,ra,sp
   13ecc:	00001eb7          	lui	t4,0x1
   13ed0:	240e8e93          	addi	t4,t4,576 # 1240 <coremarkBenchmark+0x1198>
   13ed4:	02100e13          	li	t3,33
   13ed8:	49d19263          	bne	gp,t4,1435c <fail>

00013edc <test_2>:
   13edc:	00000093          	li	ra,0
   13ee0:	00000113          	li	sp,0
   13ee4:	022081b3          	mul	gp,ra,sp
   13ee8:	00000e93          	li	t4,0
   13eec:	00200e13          	li	t3,2
   13ef0:	47d19663          	bne	gp,t4,1435c <fail>

00013ef4 <test_3>:
   13ef4:	00100093          	li	ra,1
   13ef8:	00100113          	li	sp,1
   13efc:	022081b3          	mul	gp,ra,sp
   13f00:	00100e93          	li	t4,1
   13f04:	00300e13          	li	t3,3
   13f08:	45d19a63          	bne	gp,t4,1435c <fail>

00013f0c <test_4>:
   13f0c:	00300093          	li	ra,3
   13f10:	00700113          	li	sp,7
   13f14:	022081b3          	mul	gp,ra,sp
   13f18:	01500e93          	li	t4,21
   13f1c:	00400e13          	li	t3,4
   13f20:	43d19e63          	bne	gp,t4,1435c <fail>

00013f24 <test_5>:
   13f24:	00000093          	li	ra,0
   13f28:	ffff8137          	lui	sp,0xffff8
   13f2c:	022081b3          	mul	gp,ra,sp
   13f30:	00000e93          	li	t4,0
   13f34:	00500e13          	li	t3,5
   13f38:	43d19263          	bne	gp,t4,1435c <fail>

00013f3c <test_6>:
   13f3c:	800000b7          	lui	ra,0x80000
   13f40:	00000113          	li	sp,0
   13f44:	022081b3          	mul	gp,ra,sp
   13f48:	00000e93          	li	t4,0
   13f4c:	00600e13          	li	t3,6
   13f50:	41d19663          	bne	gp,t4,1435c <fail>

00013f54 <test_7>:
   13f54:	800000b7          	lui	ra,0x80000
   13f58:	ffff8137          	lui	sp,0xffff8
   13f5c:	022081b3          	mul	gp,ra,sp
   13f60:	00000e93          	li	t4,0
   13f64:	00700e13          	li	t3,7
   13f68:	3fd19a63          	bne	gp,t4,1435c <fail>

00013f6c <test_30>:
   13f6c:	aaaab0b7          	lui	ra,0xaaaab
   13f70:	aab08093          	addi	ra,ra,-1365 # aaaaaaab <heap_memory_used+0xaaa88cd3>
   13f74:	00030137          	lui	sp,0x30
   13f78:	e7d10113          	addi	sp,sp,-387 # 2fe7d <heap_memory_used+0xe0a5>
   13f7c:	022081b3          	mul	gp,ra,sp
   13f80:	00010eb7          	lui	t4,0x10
   13f84:	f7fe8e93          	addi	t4,t4,-129 # ff7f <coremarkBenchmark+0xfed7>
   13f88:	01e00e13          	li	t3,30
   13f8c:	3dd19863          	bne	gp,t4,1435c <fail>

00013f90 <test_31>:
   13f90:	000300b7          	lui	ra,0x30
   13f94:	e7d08093          	addi	ra,ra,-387 # 2fe7d <heap_memory_used+0xe0a5>
   13f98:	aaaab137          	lui	sp,0xaaaab
   13f9c:	aab10113          	addi	sp,sp,-1365 # aaaaaaab <heap_memory_used+0xaaa88cd3>
   13fa0:	022081b3          	mul	gp,ra,sp
   13fa4:	00010eb7          	lui	t4,0x10
   13fa8:	f7fe8e93          	addi	t4,t4,-129 # ff7f <coremarkBenchmark+0xfed7>
   13fac:	01f00e13          	li	t3,31
   13fb0:	3bd19663          	bne	gp,t4,1435c <fail>

00013fb4 <test_34>:
   13fb4:	ff0000b7          	lui	ra,0xff000
   13fb8:	ff000137          	lui	sp,0xff000
   13fbc:	022081b3          	mul	gp,ra,sp
   13fc0:	00000e93          	li	t4,0
   13fc4:	02200e13          	li	t3,34
   13fc8:	39d19a63          	bne	gp,t4,1435c <fail>

00013fcc <test_35>:
   13fcc:	fff00093          	li	ra,-1
   13fd0:	fff00113          	li	sp,-1
   13fd4:	022081b3          	mul	gp,ra,sp
   13fd8:	00100e93          	li	t4,1
   13fdc:	02300e13          	li	t3,35
   13fe0:	37d19e63          	bne	gp,t4,1435c <fail>

00013fe4 <test_36>:
   13fe4:	fff00093          	li	ra,-1
   13fe8:	00100113          	li	sp,1
   13fec:	022081b3          	mul	gp,ra,sp
   13ff0:	fff00e93          	li	t4,-1
   13ff4:	02400e13          	li	t3,36
   13ff8:	37d19263          	bne	gp,t4,1435c <fail>

00013ffc <test_37>:
   13ffc:	00100093          	li	ra,1
   14000:	fff00113          	li	sp,-1
   14004:	022081b3          	mul	gp,ra,sp
   14008:	fff00e93          	li	t4,-1
   1400c:	02500e13          	li	t3,37
   14010:	35d19663          	bne	gp,t4,1435c <fail>

00014014 <test_8>:
   14014:	00d00093          	li	ra,13
   14018:	00b00113          	li	sp,11
   1401c:	022080b3          	mul	ra,ra,sp
   14020:	08f00e93          	li	t4,143
   14024:	00800e13          	li	t3,8
   14028:	33d09a63          	bne	ra,t4,1435c <fail>

0001402c <test_9>:
   1402c:	00e00093          	li	ra,14
   14030:	00b00113          	li	sp,11
   14034:	02208133          	mul	sp,ra,sp
   14038:	09a00e93          	li	t4,154
   1403c:	00900e13          	li	t3,9
   14040:	31d11e63          	bne	sp,t4,1435c <fail>

00014044 <test_10>:
   14044:	00d00093          	li	ra,13
   14048:	021080b3          	mul	ra,ra,ra
   1404c:	0a900e93          	li	t4,169
   14050:	00a00e13          	li	t3,10
   14054:	31d09463          	bne	ra,t4,1435c <fail>

00014058 <test_11>:
   14058:	00000213          	li	tp,0
   1405c:	00d00093          	li	ra,13
   14060:	00b00113          	li	sp,11
   14064:	022081b3          	mul	gp,ra,sp
   14068:	00018313          	mv	t1,gp
   1406c:	00120213          	addi	tp,tp,1 # 1 <_start+0x1>
   14070:	00200293          	li	t0,2
   14074:	fe5214e3          	bne	tp,t0,1405c <test_11+0x4>
   14078:	08f00e93          	li	t4,143
   1407c:	00b00e13          	li	t3,11
   14080:	2dd31e63          	bne	t1,t4,1435c <fail>

00014084 <test_12>:
   14084:	00000213          	li	tp,0
   14088:	00e00093          	li	ra,14
   1408c:	00b00113          	li	sp,11
   14090:	022081b3          	mul	gp,ra,sp
   14094:	00000013          	nop
   14098:	00018313          	mv	t1,gp
   1409c:	00120213          	addi	tp,tp,1 # 1 <_start+0x1>
   140a0:	00200293          	li	t0,2
   140a4:	fe5212e3          	bne	tp,t0,14088 <test_12+0x4>
   140a8:	09a00e93          	li	t4,154
   140ac:	00c00e13          	li	t3,12
   140b0:	2bd31663          	bne	t1,t4,1435c <fail>

000140b4 <test_13>:
   140b4:	00000213          	li	tp,0
   140b8:	00f00093          	li	ra,15
   140bc:	00b00113          	li	sp,11
   140c0:	022081b3          	mul	gp,ra,sp
   140c4:	00000013          	nop
   140c8:	00000013          	nop
   140cc:	00018313          	mv	t1,gp
   140d0:	00120213          	addi	tp,tp,1 # 1 <_start+0x1>
   140d4:	00200293          	li	t0,2
   140d8:	fe5210e3          	bne	tp,t0,140b8 <test_13+0x4>
   140dc:	0a500e93          	li	t4,165
   140e0:	00d00e13          	li	t3,13
   140e4:	27d31c63          	bne	t1,t4,1435c <fail>

000140e8 <test_14>:
   140e8:	00000213          	li	tp,0
   140ec:	00d00093          	li	ra,13
   140f0:	00b00113          	li	sp,11
   140f4:	022081b3          	mul	gp,ra,sp
   140f8:	00120213          	addi	tp,tp,1 # 1 <_start+0x1>
   140fc:	00200293          	li	t0,2
   14100:	fe5216e3          	bne	tp,t0,140ec <test_14+0x4>
   14104:	08f00e93          	li	t4,143
   14108:	00e00e13          	li	t3,14
   1410c:	25d19863          	bne	gp,t4,1435c <fail>

00014110 <test_15>:
   14110:	00000213          	li	tp,0
   14114:	00e00093          	li	ra,14
   14118:	00b00113          	li	sp,11
   1411c:	00000013          	nop
   14120:	022081b3          	mul	gp,ra,sp
   14124:	00120213          	addi	tp,tp,1 # 1 <_start+0x1>
   14128:	00200293          	li	t0,2
   1412c:	fe5214e3          	bne	tp,t0,14114 <test_15+0x4>
   14130:	09a00e93          	li	t4,154
   14134:	00f00e13          	li	t3,15
   14138:	23d19263          	bne	gp,t4,1435c <fail>

0001413c <test_16>:
   1413c:	00000213          	li	tp,0
   14140:	00f00093          	li	ra,15
   14144:	00b00113          	li	sp,11
   14148:	00000013          	nop
   1414c:	00000013          	nop
   14150:	022081b3          	mul	gp,ra,sp
   14154:	00120213          	addi	tp,tp,1 # 1 <_start+0x1>
   14158:	00200293          	li	t0,2
   1415c:	fe5212e3          	bne	tp,t0,14140 <test_16+0x4>
   14160:	0a500e93          	li	t4,165
   14164:	01000e13          	li	t3,16
   14168:	1fd19a63          	bne	gp,t4,1435c <fail>

0001416c <test_17>:
   1416c:	00000213          	li	tp,0
   14170:	00d00093          	li	ra,13
   14174:	00000013          	nop
   14178:	00b00113          	li	sp,11
   1417c:	022081b3          	mul	gp,ra,sp
   14180:	00120213          	addi	tp,tp,1 # 1 <_start+0x1>
   14184:	00200293          	li	t0,2
   14188:	fe5214e3          	bne	tp,t0,14170 <test_17+0x4>
   1418c:	08f00e93          	li	t4,143
   14190:	01100e13          	li	t3,17
   14194:	1dd19463          	bne	gp,t4,1435c <fail>

00014198 <test_18>:
   14198:	00000213          	li	tp,0
   1419c:	00e00093          	li	ra,14
   141a0:	00000013          	nop
   141a4:	00b00113          	li	sp,11
   141a8:	00000013          	nop
   141ac:	022081b3          	mul	gp,ra,sp
   141b0:	00120213          	addi	tp,tp,1 # 1 <_start+0x1>
   141b4:	00200293          	li	t0,2
   141b8:	fe5212e3          	bne	tp,t0,1419c <test_18+0x4>
   141bc:	09a00e93          	li	t4,154
   141c0:	01200e13          	li	t3,18
   141c4:	19d19c63          	bne	gp,t4,1435c <fail>

000141c8 <test_19>:
   141c8:	00000213          	li	tp,0
   141cc:	00f00093          	li	ra,15
   141d0:	00000013          	nop
   141d4:	00000013          	nop
   141d8:	00b00113          	li	sp,11
   141dc:	022081b3          	mul	gp,ra,sp
   141e0:	00120213          	addi	tp,tp,1 # 1 <_start+0x1>
   141e4:	00200293          	li	t0,2
   141e8:	fe5212e3          	bne	tp,t0,141cc <test_19+0x4>
   141ec:	0a500e93          	li	t4,165
   141f0:	01300e13          	li	t3,19
   141f4:	17d19463          	bne	gp,t4,1435c <fail>

000141f8 <test_20>:
   141f8:	00000213          	li	tp,0
   141fc:	00b00113          	li	sp,11
   14200:	00d00093          	li	ra,13
   14204:	022081b3          	mul	gp,ra,sp
   14208:	00120213          	addi	tp,tp,1 # 1 <_start+0x1>
   1420c:	00200293          	li	t0,2
   14210:	fe5216e3          	bne	tp,t0,141fc <test_20+0x4>
   14214:	08f00e93          	li	t4,143
   14218:	01400e13          	li	t3,20
   1421c:	15d19063          	bne	gp,t4,1435c <fail>

00014220 <test_21>:
   14220:	00000213          	li	tp,0
   14224:	00b00113          	li	sp,11
   14228:	00e00093          	li	ra,14
   1422c:	00000013          	nop
   14230:	022081b3          	mul	gp,ra,sp
   14234:	00120213          	addi	tp,tp,1 # 1 <_start+0x1>
   14238:	00200293          	li	t0,2
   1423c:	fe5214e3          	bne	tp,t0,14224 <test_21+0x4>
   14240:	09a00e93          	li	t4,154
   14244:	01500e13          	li	t3,21
   14248:	11d19a63          	bne	gp,t4,1435c <fail>

0001424c <test_22>:
   1424c:	00000213          	li	tp,0
   14250:	00b00113          	li	sp,11
   14254:	00f00093          	li	ra,15
   14258:	00000013          	nop
   1425c:	00000013          	nop
   14260:	022081b3          	mul	gp,ra,sp
   14264:	00120213          	addi	tp,tp,1 # 1 <_start+0x1>
   14268:	00200293          	li	t0,2
   1426c:	fe5212e3          	bne	tp,t0,14250 <test_22+0x4>
   14270:	0a500e93          	li	t4,165
   14274:	01600e13          	li	t3,22
   14278:	0fd19263          	bne	gp,t4,1435c <fail>

0001427c <test_23>:
   1427c:	00000213          	li	tp,0
   14280:	00b00113          	li	sp,11
   14284:	00000013          	nop
   14288:	00d00093          	li	ra,13
   1428c:	022081b3          	mul	gp,ra,sp
   14290:	00120213          	addi	tp,tp,1 # 1 <_start+0x1>
   14294:	00200293          	li	t0,2
   14298:	fe5214e3          	bne	tp,t0,14280 <test_23+0x4>
   1429c:	08f00e93          	li	t4,143
   142a0:	01700e13          	li	t3,23
   142a4:	0bd19c63          	bne	gp,t4,1435c <fail>

000142a8 <test_24>:
   142a8:	00000213          	li	tp,0
   142ac:	00b00113          	li	sp,11
   142b0:	00000013          	nop
   142b4:	00e00093          	li	ra,14
   142b8:	00000013          	nop
   142bc:	022081b3          	mul	gp,ra,sp
   142c0:	00120213          	addi	tp,tp,1 # 1 <_start+0x1>
   142c4:	00200293          	li	t0,2
   142c8:	fe5212e3          	bne	tp,t0,142ac <test_24+0x4>
   142cc:	09a00e93          	li	t4,154
   142d0:	01800e13          	li	t3,24
   142d4:	09d19463          	bne	gp,t4,1435c <fail>

000142d8 <test_25>:
   142d8:	00000213          	li	tp,0
   142dc:	00b00113          	li	sp,11
   142e0:	00000013          	nop
   142e4:	00000013          	nop
   142e8:	00f00093          	li	ra,15
   142ec:	022081b3          	mul	gp,ra,sp
   142f0:	00120213          	addi	tp,tp,1 # 1 <_start+0x1>
   142f4:	00200293          	li	t0,2
   142f8:	fe5212e3          	bne	tp,t0,142dc <test_25+0x4>
   142fc:	0a500e93          	li	t4,165
   14300:	01900e13          	li	t3,25
   14304:	05d19c63          	bne	gp,t4,1435c <fail>

00014308 <test_26>:
   14308:	01f00093          	li	ra,31
   1430c:	02100133          	mul	sp,zero,ra
   14310:	00000e93          	li	t4,0
   14314:	01a00e13          	li	t3,26
   14318:	05d11263          	bne	sp,t4,1435c <fail>

0001431c <test_27>:
   1431c:	02000093          	li	ra,32
   14320:	02008133          	mul	sp,ra,zero
   14324:	00000e93          	li	t4,0
   14328:	01b00e13          	li	t3,27
   1432c:	03d11863          	bne	sp,t4,1435c <fail>

00014330 <test_28>:
   14330:	020000b3          	mul	ra,zero,zero
   14334:	00000e93          	li	t4,0
   14338:	01c00e13          	li	t3,28
   1433c:	03d09063          	bne	ra,t4,1435c <fail>

00014340 <test_29>:
   14340:	02100093          	li	ra,33
   14344:	02200113          	li	sp,34
   14348:	02208033          	mul	zero,ra,sp
   1434c:	00000e93          	li	t4,0
   14350:	01d00e13          	li	t3,29
   14354:	01d01463          	bne	zero,t4,1435c <fail>
   14358:	05c01863          	bne	zero,t3,143a8 <pass>

0001435c <fail>:
   1435c:	04500513          	li	a0,69
   14360:	00004137          	lui	sp,0x4
   14364:	624090ef          	jal	ra,1d988 <printf_c>
   14368:	05200513          	li	a0,82
   1436c:	00004137          	lui	sp,0x4
   14370:	618090ef          	jal	ra,1d988 <printf_c>
   14374:	00004137          	lui	sp,0x4
   14378:	610090ef          	jal	ra,1d988 <printf_c>
   1437c:	04f00513          	li	a0,79
   14380:	00004137          	lui	sp,0x4
   14384:	604090ef          	jal	ra,1d988 <printf_c>
   14388:	00004137          	lui	sp,0x4
   1438c:	05200513          	li	a0,82
   14390:	00004137          	lui	sp,0x4
   14394:	5f4090ef          	jal	ra,1d988 <printf_c>
   14398:	00a00513          	li	a0,10
   1439c:	00004137          	lui	sp,0x4
   143a0:	5e8090ef          	jal	ra,1d988 <printf_c>
   143a4:	0340006f          	j	143d8 <mulh>

000143a8 <pass>:
   143a8:	04f00513          	li	a0,79
   143ac:	00004137          	lui	sp,0x4
   143b0:	5d8090ef          	jal	ra,1d988 <printf_c>
   143b4:	04b00513          	li	a0,75
   143b8:	00004137          	lui	sp,0x4
   143bc:	5cc090ef          	jal	ra,1d988 <printf_c>
   143c0:	00a00513          	li	a0,10
   143c4:	00004137          	lui	sp,0x4
   143c8:	5c0090ef          	jal	ra,1d988 <printf_c>
   143cc:	00c0006f          	j	143d8 <mulh>

000143d0 <.test_name>:
   143d0:	756d                	lui	a0,0xffffb
   143d2:	686c                	flw	fa1,84(s0)
   143d4:	0009                	c.addi	zero,2
	...

000143d8 <mulh>:
   143d8:	00014537          	lui	a0,0x14
   143dc:	3d050513          	addi	a0,a0,976 # 143d0 <.test_name>

000143e0 <.prname_next>:
   143e0:	00004137          	lui	sp,0x4
   143e4:	5bc090ef          	jal	ra,1d9a0 <printf_s>

000143e8 <test_2>:
   143e8:	00000093          	li	ra,0
   143ec:	00000113          	li	sp,0
   143f0:	022091b3          	mulh	gp,ra,sp
   143f4:	00000e93          	li	t4,0
   143f8:	00200e13          	li	t3,2
   143fc:	4bd19a63          	bne	gp,t4,148b0 <fail>

00014400 <test_3>:
   14400:	00100093          	li	ra,1
   14404:	00100113          	li	sp,1
   14408:	022091b3          	mulh	gp,ra,sp
   1440c:	00000e93          	li	t4,0
   14410:	00300e13          	li	t3,3
   14414:	49d19e63          	bne	gp,t4,148b0 <fail>

00014418 <test_4>:
   14418:	00300093          	li	ra,3
   1441c:	00700113          	li	sp,7
   14420:	022091b3          	mulh	gp,ra,sp
   14424:	00000e93          	li	t4,0
   14428:	00400e13          	li	t3,4
   1442c:	49d19263          	bne	gp,t4,148b0 <fail>

00014430 <test_5>:
   14430:	00000093          	li	ra,0
   14434:	ffff8137          	lui	sp,0xffff8
   14438:	022091b3          	mulh	gp,ra,sp
   1443c:	00000e93          	li	t4,0
   14440:	00500e13          	li	t3,5
   14444:	47d19663          	bne	gp,t4,148b0 <fail>

00014448 <test_6>:
   14448:	800000b7          	lui	ra,0x80000
   1444c:	00000113          	li	sp,0
   14450:	022091b3          	mulh	gp,ra,sp
   14454:	00000e93          	li	t4,0
   14458:	00600e13          	li	t3,6
   1445c:	45d19a63          	bne	gp,t4,148b0 <fail>

00014460 <test_7>:
   14460:	800000b7          	lui	ra,0x80000
   14464:	00000113          	li	sp,0
   14468:	022091b3          	mulh	gp,ra,sp
   1446c:	00000e93          	li	t4,0
   14470:	00700e13          	li	t3,7
   14474:	43d19e63          	bne	gp,t4,148b0 <fail>

00014478 <test_30>:
   14478:	aaaab0b7          	lui	ra,0xaaaab
   1447c:	aab08093          	addi	ra,ra,-1365 # aaaaaaab <heap_memory_used+0xaaa88cd3>
   14480:	00030137          	lui	sp,0x30
   14484:	e7d10113          	addi	sp,sp,-387 # 2fe7d <heap_memory_used+0xe0a5>
   14488:	022091b3          	mulh	gp,ra,sp
   1448c:	ffff0eb7          	lui	t4,0xffff0
   14490:	081e8e93          	addi	t4,t4,129 # ffff0081 <heap_memory_used+0xfffce2a9>
   14494:	01e00e13          	li	t3,30
   14498:	41d19c63          	bne	gp,t4,148b0 <fail>

0001449c <test_31>:
   1449c:	000300b7          	lui	ra,0x30
   144a0:	e7d08093          	addi	ra,ra,-387 # 2fe7d <heap_memory_used+0xe0a5>
   144a4:	aaaab137          	lui	sp,0xaaaab
   144a8:	aab10113          	addi	sp,sp,-1365 # aaaaaaab <heap_memory_used+0xaaa88cd3>
   144ac:	022091b3          	mulh	gp,ra,sp
   144b0:	ffff0eb7          	lui	t4,0xffff0
   144b4:	081e8e93          	addi	t4,t4,129 # ffff0081 <heap_memory_used+0xfffce2a9>
   144b8:	01f00e13          	li	t3,31
   144bc:	3fd19a63          	bne	gp,t4,148b0 <fail>

000144c0 <test_32>:
   144c0:	ff0000b7          	lui	ra,0xff000
   144c4:	ff000137          	lui	sp,0xff000
   144c8:	022091b3          	mulh	gp,ra,sp
   144cc:	00010eb7          	lui	t4,0x10
   144d0:	02000e13          	li	t3,32
   144d4:	3dd19e63          	bne	gp,t4,148b0 <fail>

000144d8 <test_33>:
   144d8:	fff00093          	li	ra,-1
   144dc:	fff00113          	li	sp,-1
   144e0:	022091b3          	mulh	gp,ra,sp
   144e4:	00000e93          	li	t4,0
   144e8:	02100e13          	li	t3,33
   144ec:	3dd19263          	bne	gp,t4,148b0 <fail>

000144f0 <test_34>:
   144f0:	fff00093          	li	ra,-1
   144f4:	00100113          	li	sp,1
   144f8:	022091b3          	mulh	gp,ra,sp
   144fc:	fff00e93          	li	t4,-1
   14500:	02200e13          	li	t3,34
   14504:	3bd19663          	bne	gp,t4,148b0 <fail>

00014508 <test_35>:
   14508:	00100093          	li	ra,1
   1450c:	fff00113          	li	sp,-1
   14510:	022091b3          	mulh	gp,ra,sp
   14514:	fff00e93          	li	t4,-1
   14518:	02300e13          	li	t3,35
   1451c:	39d19a63          	bne	gp,t4,148b0 <fail>

00014520 <test_8>:
   14520:	00d000b7          	lui	ra,0xd00
   14524:	00b00137          	lui	sp,0xb00
   14528:	022090b3          	mulh	ra,ra,sp
   1452c:	00009eb7          	lui	t4,0x9
   14530:	f00e8e93          	addi	t4,t4,-256 # 8f00 <coremarkBenchmark+0x8e58>
   14534:	00800e13          	li	t3,8
   14538:	37d09c63          	bne	ra,t4,148b0 <fail>

0001453c <test_9>:
   1453c:	00e000b7          	lui	ra,0xe00
   14540:	00b00137          	lui	sp,0xb00
   14544:	02209133          	mulh	sp,ra,sp
   14548:	0000aeb7          	lui	t4,0xa
   1454c:	a00e8e93          	addi	t4,t4,-1536 # 9a00 <coremarkBenchmark+0x9958>
   14550:	00900e13          	li	t3,9
   14554:	35d11e63          	bne	sp,t4,148b0 <fail>

00014558 <test_10>:
   14558:	00d000b7          	lui	ra,0xd00
   1455c:	021090b3          	mulh	ra,ra,ra
   14560:	0000beb7          	lui	t4,0xb
   14564:	900e8e93          	addi	t4,t4,-1792 # a900 <coremarkBenchmark+0xa858>
   14568:	00a00e13          	li	t3,10
   1456c:	35d09263          	bne	ra,t4,148b0 <fail>

00014570 <test_11>:
   14570:	00000213          	li	tp,0
   14574:	00d000b7          	lui	ra,0xd00
   14578:	00b00137          	lui	sp,0xb00
   1457c:	022091b3          	mulh	gp,ra,sp
   14580:	00018313          	mv	t1,gp
   14584:	00120213          	addi	tp,tp,1 # 1 <_start+0x1>
   14588:	00200293          	li	t0,2
   1458c:	fe5214e3          	bne	tp,t0,14574 <test_11+0x4>
   14590:	00009eb7          	lui	t4,0x9
   14594:	f00e8e93          	addi	t4,t4,-256 # 8f00 <coremarkBenchmark+0x8e58>
   14598:	00b00e13          	li	t3,11
   1459c:	31d31a63          	bne	t1,t4,148b0 <fail>

000145a0 <test_12>:
   145a0:	00000213          	li	tp,0
   145a4:	00e000b7          	lui	ra,0xe00
   145a8:	00b00137          	lui	sp,0xb00
   145ac:	022091b3          	mulh	gp,ra,sp
   145b0:	00000013          	nop
   145b4:	00018313          	mv	t1,gp
   145b8:	00120213          	addi	tp,tp,1 # 1 <_start+0x1>
   145bc:	00200293          	li	t0,2
   145c0:	fe5212e3          	bne	tp,t0,145a4 <test_12+0x4>
   145c4:	0000aeb7          	lui	t4,0xa
   145c8:	a00e8e93          	addi	t4,t4,-1536 # 9a00 <coremarkBenchmark+0x9958>
   145cc:	00c00e13          	li	t3,12
   145d0:	2fd31063          	bne	t1,t4,148b0 <fail>

000145d4 <test_13>:
   145d4:	00000213          	li	tp,0
   145d8:	00f000b7          	lui	ra,0xf00
   145dc:	00b00137          	lui	sp,0xb00
   145e0:	022091b3          	mulh	gp,ra,sp
   145e4:	00000013          	nop
   145e8:	00000013          	nop
   145ec:	00018313          	mv	t1,gp
   145f0:	00120213          	addi	tp,tp,1 # 1 <_start+0x1>
   145f4:	00200293          	li	t0,2
   145f8:	fe5210e3          	bne	tp,t0,145d8 <test_13+0x4>
   145fc:	0000aeb7          	lui	t4,0xa
   14600:	500e8e93          	addi	t4,t4,1280 # a500 <coremarkBenchmark+0xa458>
   14604:	00d00e13          	li	t3,13
   14608:	2bd31463          	bne	t1,t4,148b0 <fail>

0001460c <test_14>:
   1460c:	00000213          	li	tp,0
   14610:	00d000b7          	lui	ra,0xd00
   14614:	00b00137          	lui	sp,0xb00
   14618:	022091b3          	mulh	gp,ra,sp
   1461c:	00120213          	addi	tp,tp,1 # 1 <_start+0x1>
   14620:	00200293          	li	t0,2
   14624:	fe5216e3          	bne	tp,t0,14610 <test_14+0x4>
   14628:	00009eb7          	lui	t4,0x9
   1462c:	f00e8e93          	addi	t4,t4,-256 # 8f00 <coremarkBenchmark+0x8e58>
   14630:	00e00e13          	li	t3,14
   14634:	27d19e63          	bne	gp,t4,148b0 <fail>

00014638 <test_15>:
   14638:	00000213          	li	tp,0
   1463c:	00e000b7          	lui	ra,0xe00
   14640:	00b00137          	lui	sp,0xb00
   14644:	00000013          	nop
   14648:	022091b3          	mulh	gp,ra,sp
   1464c:	00120213          	addi	tp,tp,1 # 1 <_start+0x1>
   14650:	00200293          	li	t0,2
   14654:	fe5214e3          	bne	tp,t0,1463c <test_15+0x4>
   14658:	0000aeb7          	lui	t4,0xa
   1465c:	a00e8e93          	addi	t4,t4,-1536 # 9a00 <coremarkBenchmark+0x9958>
   14660:	00f00e13          	li	t3,15
   14664:	25d19663          	bne	gp,t4,148b0 <fail>

00014668 <test_16>:
   14668:	00000213          	li	tp,0
   1466c:	00f000b7          	lui	ra,0xf00
   14670:	00b00137          	lui	sp,0xb00
   14674:	00000013          	nop
   14678:	00000013          	nop
   1467c:	022091b3          	mulh	gp,ra,sp
   14680:	00120213          	addi	tp,tp,1 # 1 <_start+0x1>
   14684:	00200293          	li	t0,2
   14688:	fe5212e3          	bne	tp,t0,1466c <test_16+0x4>
   1468c:	0000aeb7          	lui	t4,0xa
   14690:	500e8e93          	addi	t4,t4,1280 # a500 <coremarkBenchmark+0xa458>
   14694:	01000e13          	li	t3,16
   14698:	21d19c63          	bne	gp,t4,148b0 <fail>

0001469c <test_17>:
   1469c:	00000213          	li	tp,0
   146a0:	00d000b7          	lui	ra,0xd00
   146a4:	00000013          	nop
   146a8:	00b00137          	lui	sp,0xb00
   146ac:	022091b3          	mulh	gp,ra,sp
   146b0:	00120213          	addi	tp,tp,1 # 1 <_start+0x1>
   146b4:	00200293          	li	t0,2
   146b8:	fe5214e3          	bne	tp,t0,146a0 <test_17+0x4>
   146bc:	00009eb7          	lui	t4,0x9
   146c0:	f00e8e93          	addi	t4,t4,-256 # 8f00 <coremarkBenchmark+0x8e58>
   146c4:	01100e13          	li	t3,17
   146c8:	1fd19463          	bne	gp,t4,148b0 <fail>

000146cc <test_18>:
   146cc:	00000213          	li	tp,0
   146d0:	00e000b7          	lui	ra,0xe00
   146d4:	00000013          	nop
   146d8:	00b00137          	lui	sp,0xb00
   146dc:	00000013          	nop
   146e0:	022091b3          	mulh	gp,ra,sp
   146e4:	00120213          	addi	tp,tp,1 # 1 <_start+0x1>
   146e8:	00200293          	li	t0,2
   146ec:	fe5212e3          	bne	tp,t0,146d0 <test_18+0x4>
   146f0:	0000aeb7          	lui	t4,0xa
   146f4:	a00e8e93          	addi	t4,t4,-1536 # 9a00 <coremarkBenchmark+0x9958>
   146f8:	01200e13          	li	t3,18
   146fc:	1bd19a63          	bne	gp,t4,148b0 <fail>

00014700 <test_19>:
   14700:	00000213          	li	tp,0
   14704:	00f000b7          	lui	ra,0xf00
   14708:	00000013          	nop
   1470c:	00000013          	nop
   14710:	00b00137          	lui	sp,0xb00
   14714:	022091b3          	mulh	gp,ra,sp
   14718:	00120213          	addi	tp,tp,1 # 1 <_start+0x1>
   1471c:	00200293          	li	t0,2
   14720:	fe5212e3          	bne	tp,t0,14704 <test_19+0x4>
   14724:	0000aeb7          	lui	t4,0xa
   14728:	500e8e93          	addi	t4,t4,1280 # a500 <coremarkBenchmark+0xa458>
   1472c:	01300e13          	li	t3,19
   14730:	19d19063          	bne	gp,t4,148b0 <fail>

00014734 <test_20>:
   14734:	00000213          	li	tp,0
   14738:	00b00137          	lui	sp,0xb00
   1473c:	00d000b7          	lui	ra,0xd00
   14740:	022091b3          	mulh	gp,ra,sp
   14744:	00120213          	addi	tp,tp,1 # 1 <_start+0x1>
   14748:	00200293          	li	t0,2
   1474c:	fe5216e3          	bne	tp,t0,14738 <test_20+0x4>
   14750:	00009eb7          	lui	t4,0x9
   14754:	f00e8e93          	addi	t4,t4,-256 # 8f00 <coremarkBenchmark+0x8e58>
   14758:	01400e13          	li	t3,20
   1475c:	15d19a63          	bne	gp,t4,148b0 <fail>

00014760 <test_21>:
   14760:	00000213          	li	tp,0
   14764:	00b00137          	lui	sp,0xb00
   14768:	00e000b7          	lui	ra,0xe00
   1476c:	00000013          	nop
   14770:	022091b3          	mulh	gp,ra,sp
   14774:	00120213          	addi	tp,tp,1 # 1 <_start+0x1>
   14778:	00200293          	li	t0,2
   1477c:	fe5214e3          	bne	tp,t0,14764 <test_21+0x4>
   14780:	0000aeb7          	lui	t4,0xa
   14784:	a00e8e93          	addi	t4,t4,-1536 # 9a00 <coremarkBenchmark+0x9958>
   14788:	01500e13          	li	t3,21
   1478c:	13d19263          	bne	gp,t4,148b0 <fail>

00014790 <test_22>:
   14790:	00000213          	li	tp,0
   14794:	00b00137          	lui	sp,0xb00
   14798:	00f000b7          	lui	ra,0xf00
   1479c:	00000013          	nop
   147a0:	00000013          	nop
   147a4:	022091b3          	mulh	gp,ra,sp
   147a8:	00120213          	addi	tp,tp,1 # 1 <_start+0x1>
   147ac:	00200293          	li	t0,2
   147b0:	fe5212e3          	bne	tp,t0,14794 <test_22+0x4>
   147b4:	0000aeb7          	lui	t4,0xa
   147b8:	500e8e93          	addi	t4,t4,1280 # a500 <coremarkBenchmark+0xa458>
   147bc:	01600e13          	li	t3,22
   147c0:	0fd19863          	bne	gp,t4,148b0 <fail>

000147c4 <test_23>:
   147c4:	00000213          	li	tp,0
   147c8:	00b00137          	lui	sp,0xb00
   147cc:	00000013          	nop
   147d0:	00d000b7          	lui	ra,0xd00
   147d4:	022091b3          	mulh	gp,ra,sp
   147d8:	00120213          	addi	tp,tp,1 # 1 <_start+0x1>
   147dc:	00200293          	li	t0,2
   147e0:	fe5214e3          	bne	tp,t0,147c8 <test_23+0x4>
   147e4:	00009eb7          	lui	t4,0x9
   147e8:	f00e8e93          	addi	t4,t4,-256 # 8f00 <coremarkBenchmark+0x8e58>
   147ec:	01700e13          	li	t3,23
   147f0:	0dd19063          	bne	gp,t4,148b0 <fail>

000147f4 <test_24>:
   147f4:	00000213          	li	tp,0
   147f8:	00b00137          	lui	sp,0xb00
   147fc:	00000013          	nop
   14800:	00e000b7          	lui	ra,0xe00
   14804:	00000013          	nop
   14808:	022091b3          	mulh	gp,ra,sp
   1480c:	00120213          	addi	tp,tp,1 # 1 <_start+0x1>
   14810:	00200293          	li	t0,2
   14814:	fe5212e3          	bne	tp,t0,147f8 <test_24+0x4>
   14818:	0000aeb7          	lui	t4,0xa
   1481c:	a00e8e93          	addi	t4,t4,-1536 # 9a00 <coremarkBenchmark+0x9958>
   14820:	01800e13          	li	t3,24
   14824:	09d19663          	bne	gp,t4,148b0 <fail>

00014828 <test_25>:
   14828:	00000213          	li	tp,0
   1482c:	00b00137          	lui	sp,0xb00
   14830:	00000013          	nop
   14834:	00000013          	nop
   14838:	00f000b7          	lui	ra,0xf00
   1483c:	022091b3          	mulh	gp,ra,sp
   14840:	00120213          	addi	tp,tp,1 # 1 <_start+0x1>
   14844:	00200293          	li	t0,2
   14848:	fe5212e3          	bne	tp,t0,1482c <test_25+0x4>
   1484c:	0000aeb7          	lui	t4,0xa
   14850:	500e8e93          	addi	t4,t4,1280 # a500 <coremarkBenchmark+0xa458>
   14854:	01900e13          	li	t3,25
   14858:	05d19c63          	bne	gp,t4,148b0 <fail>

0001485c <test_26>:
   1485c:	7c0000b7          	lui	ra,0x7c000
   14860:	02101133          	mulh	sp,zero,ra
   14864:	00000e93          	li	t4,0
   14868:	01a00e13          	li	t3,26
   1486c:	05d11263          	bne	sp,t4,148b0 <fail>

00014870 <test_27>:
   14870:	800000b7          	lui	ra,0x80000
   14874:	02009133          	mulh	sp,ra,zero
   14878:	00000e93          	li	t4,0
   1487c:	01b00e13          	li	t3,27
   14880:	03d11863          	bne	sp,t4,148b0 <fail>

00014884 <test_28>:
   14884:	020010b3          	mulh	ra,zero,zero
   14888:	00000e93          	li	t4,0
   1488c:	01c00e13          	li	t3,28
   14890:	03d09063          	bne	ra,t4,148b0 <fail>

00014894 <test_29>:
   14894:	021000b7          	lui	ra,0x2100
   14898:	02200137          	lui	sp,0x2200
   1489c:	02209033          	mulh	zero,ra,sp
   148a0:	00000e93          	li	t4,0
   148a4:	01d00e13          	li	t3,29
   148a8:	01d01463          	bne	zero,t4,148b0 <fail>
   148ac:	05c01863          	bne	zero,t3,148fc <pass>

000148b0 <fail>:
   148b0:	04500513          	li	a0,69
   148b4:	00004137          	lui	sp,0x4
   148b8:	0d0090ef          	jal	ra,1d988 <printf_c>
   148bc:	05200513          	li	a0,82
   148c0:	00004137          	lui	sp,0x4
   148c4:	0c4090ef          	jal	ra,1d988 <printf_c>
   148c8:	00004137          	lui	sp,0x4
   148cc:	0bc090ef          	jal	ra,1d988 <printf_c>
   148d0:	04f00513          	li	a0,79
   148d4:	00004137          	lui	sp,0x4
   148d8:	0b0090ef          	jal	ra,1d988 <printf_c>
   148dc:	00004137          	lui	sp,0x4
   148e0:	05200513          	li	a0,82
   148e4:	00004137          	lui	sp,0x4
   148e8:	0a0090ef          	jal	ra,1d988 <printf_c>
   148ec:	00a00513          	li	a0,10
   148f0:	00004137          	lui	sp,0x4
   148f4:	094090ef          	jal	ra,1d988 <printf_c>
   148f8:	0340006f          	j	1492c <mulhsu>

000148fc <pass>:
   148fc:	04f00513          	li	a0,79
   14900:	00004137          	lui	sp,0x4
   14904:	084090ef          	jal	ra,1d988 <printf_c>
   14908:	04b00513          	li	a0,75
   1490c:	00004137          	lui	sp,0x4
   14910:	078090ef          	jal	ra,1d988 <printf_c>
   14914:	00a00513          	li	a0,10
   14918:	00004137          	lui	sp,0x4
   1491c:	06c090ef          	jal	ra,1d988 <printf_c>
   14920:	00c0006f          	j	1492c <mulhsu>

00014924 <.test_name>:
   14924:	756d                	lui	a0,0xffffb
   14926:	686c                	flw	fa1,84(s0)
   14928:	00097573          	csrrci	a0,0x0,18

0001492c <mulhsu>:
   1492c:	00015537          	lui	a0,0x15
   14930:	92450513          	addi	a0,a0,-1756 # 14924 <.test_name>

00014934 <.prname_next>:
   14934:	00004137          	lui	sp,0x4
   14938:	068090ef          	jal	ra,1d9a0 <printf_s>

0001493c <test_2>:
   1493c:	00000093          	li	ra,0
   14940:	00000113          	li	sp,0
   14944:	0220a1b3          	mulhsu	gp,ra,sp
   14948:	00000e93          	li	t4,0
   1494c:	00200e13          	li	t3,2
   14950:	4bd19a63          	bne	gp,t4,14e04 <fail>

00014954 <test_3>:
   14954:	00100093          	li	ra,1
   14958:	00100113          	li	sp,1
   1495c:	0220a1b3          	mulhsu	gp,ra,sp
   14960:	00000e93          	li	t4,0
   14964:	00300e13          	li	t3,3
   14968:	49d19e63          	bne	gp,t4,14e04 <fail>

0001496c <test_4>:
   1496c:	00300093          	li	ra,3
   14970:	00700113          	li	sp,7
   14974:	0220a1b3          	mulhsu	gp,ra,sp
   14978:	00000e93          	li	t4,0
   1497c:	00400e13          	li	t3,4
   14980:	49d19263          	bne	gp,t4,14e04 <fail>

00014984 <test_5>:
   14984:	00000093          	li	ra,0
   14988:	ffff8137          	lui	sp,0xffff8
   1498c:	0220a1b3          	mulhsu	gp,ra,sp
   14990:	00000e93          	li	t4,0
   14994:	00500e13          	li	t3,5
   14998:	47d19663          	bne	gp,t4,14e04 <fail>

0001499c <test_6>:
   1499c:	800000b7          	lui	ra,0x80000
   149a0:	00000113          	li	sp,0
   149a4:	0220a1b3          	mulhsu	gp,ra,sp
   149a8:	00000e93          	li	t4,0
   149ac:	00600e13          	li	t3,6
   149b0:	45d19a63          	bne	gp,t4,14e04 <fail>

000149b4 <test_7>:
   149b4:	800000b7          	lui	ra,0x80000
   149b8:	ffff8137          	lui	sp,0xffff8
   149bc:	0220a1b3          	mulhsu	gp,ra,sp
   149c0:	80004eb7          	lui	t4,0x80004
   149c4:	00700e13          	li	t3,7
   149c8:	43d19e63          	bne	gp,t4,14e04 <fail>

000149cc <test_30>:
   149cc:	aaaab0b7          	lui	ra,0xaaaab
   149d0:	aab08093          	addi	ra,ra,-1365 # aaaaaaab <heap_memory_used+0xaaa88cd3>
   149d4:	00030137          	lui	sp,0x30
   149d8:	e7d10113          	addi	sp,sp,-387 # 2fe7d <heap_memory_used+0xe0a5>
   149dc:	0220a1b3          	mulhsu	gp,ra,sp
   149e0:	ffff0eb7          	lui	t4,0xffff0
   149e4:	081e8e93          	addi	t4,t4,129 # ffff0081 <heap_memory_used+0xfffce2a9>
   149e8:	01e00e13          	li	t3,30
   149ec:	41d19c63          	bne	gp,t4,14e04 <fail>

000149f0 <test_31>:
   149f0:	000300b7          	lui	ra,0x30
   149f4:	e7d08093          	addi	ra,ra,-387 # 2fe7d <heap_memory_used+0xe0a5>
   149f8:	aaaab137          	lui	sp,0xaaaab
   149fc:	aab10113          	addi	sp,sp,-1365 # aaaaaaab <heap_memory_used+0xaaa88cd3>
   14a00:	0220a1b3          	mulhsu	gp,ra,sp
   14a04:	00020eb7          	lui	t4,0x20
   14a08:	efee8e93          	addi	t4,t4,-258 # 1fefe <Arr_2_Glob+0xd3a>
   14a0c:	01f00e13          	li	t3,31
   14a10:	3fd19a63          	bne	gp,t4,14e04 <fail>

00014a14 <test_32>:
   14a14:	ff0000b7          	lui	ra,0xff000
   14a18:	ff000137          	lui	sp,0xff000
   14a1c:	0220a1b3          	mulhsu	gp,ra,sp
   14a20:	ff010eb7          	lui	t4,0xff010
   14a24:	02000e13          	li	t3,32
   14a28:	3dd19e63          	bne	gp,t4,14e04 <fail>

00014a2c <test_33>:
   14a2c:	fff00093          	li	ra,-1
   14a30:	fff00113          	li	sp,-1
   14a34:	0220a1b3          	mulhsu	gp,ra,sp
   14a38:	fff00e93          	li	t4,-1
   14a3c:	02100e13          	li	t3,33
   14a40:	3dd19263          	bne	gp,t4,14e04 <fail>

00014a44 <test_34>:
   14a44:	fff00093          	li	ra,-1
   14a48:	00100113          	li	sp,1
   14a4c:	0220a1b3          	mulhsu	gp,ra,sp
   14a50:	fff00e93          	li	t4,-1
   14a54:	02200e13          	li	t3,34
   14a58:	3bd19663          	bne	gp,t4,14e04 <fail>

00014a5c <test_35>:
   14a5c:	00100093          	li	ra,1
   14a60:	fff00113          	li	sp,-1
   14a64:	0220a1b3          	mulhsu	gp,ra,sp
   14a68:	00000e93          	li	t4,0
   14a6c:	02300e13          	li	t3,35
   14a70:	39d19a63          	bne	gp,t4,14e04 <fail>

00014a74 <test_8>:
   14a74:	00d000b7          	lui	ra,0xd00
   14a78:	00b00137          	lui	sp,0xb00
   14a7c:	0220a0b3          	mulhsu	ra,ra,sp
   14a80:	00009eb7          	lui	t4,0x9
   14a84:	f00e8e93          	addi	t4,t4,-256 # 8f00 <coremarkBenchmark+0x8e58>
   14a88:	00800e13          	li	t3,8
   14a8c:	37d09c63          	bne	ra,t4,14e04 <fail>

00014a90 <test_9>:
   14a90:	00e000b7          	lui	ra,0xe00
   14a94:	00b00137          	lui	sp,0xb00
   14a98:	0220a133          	mulhsu	sp,ra,sp
   14a9c:	0000aeb7          	lui	t4,0xa
   14aa0:	a00e8e93          	addi	t4,t4,-1536 # 9a00 <coremarkBenchmark+0x9958>
   14aa4:	00900e13          	li	t3,9
   14aa8:	35d11e63          	bne	sp,t4,14e04 <fail>

00014aac <test_10>:
   14aac:	00d000b7          	lui	ra,0xd00
   14ab0:	0210a0b3          	mulhsu	ra,ra,ra
   14ab4:	0000beb7          	lui	t4,0xb
   14ab8:	900e8e93          	addi	t4,t4,-1792 # a900 <coremarkBenchmark+0xa858>
   14abc:	00a00e13          	li	t3,10
   14ac0:	35d09263          	bne	ra,t4,14e04 <fail>

00014ac4 <test_11>:
   14ac4:	00000213          	li	tp,0
   14ac8:	00d000b7          	lui	ra,0xd00
   14acc:	00b00137          	lui	sp,0xb00
   14ad0:	0220a1b3          	mulhsu	gp,ra,sp
   14ad4:	00018313          	mv	t1,gp
   14ad8:	00120213          	addi	tp,tp,1 # 1 <_start+0x1>
   14adc:	00200293          	li	t0,2
   14ae0:	fe5214e3          	bne	tp,t0,14ac8 <test_11+0x4>
   14ae4:	00009eb7          	lui	t4,0x9
   14ae8:	f00e8e93          	addi	t4,t4,-256 # 8f00 <coremarkBenchmark+0x8e58>
   14aec:	00b00e13          	li	t3,11
   14af0:	31d31a63          	bne	t1,t4,14e04 <fail>

00014af4 <test_12>:
   14af4:	00000213          	li	tp,0
   14af8:	00e000b7          	lui	ra,0xe00
   14afc:	00b00137          	lui	sp,0xb00
   14b00:	0220a1b3          	mulhsu	gp,ra,sp
   14b04:	00000013          	nop
   14b08:	00018313          	mv	t1,gp
   14b0c:	00120213          	addi	tp,tp,1 # 1 <_start+0x1>
   14b10:	00200293          	li	t0,2
   14b14:	fe5212e3          	bne	tp,t0,14af8 <test_12+0x4>
   14b18:	0000aeb7          	lui	t4,0xa
   14b1c:	a00e8e93          	addi	t4,t4,-1536 # 9a00 <coremarkBenchmark+0x9958>
   14b20:	00c00e13          	li	t3,12
   14b24:	2fd31063          	bne	t1,t4,14e04 <fail>

00014b28 <test_13>:
   14b28:	00000213          	li	tp,0
   14b2c:	00f000b7          	lui	ra,0xf00
   14b30:	00b00137          	lui	sp,0xb00
   14b34:	0220a1b3          	mulhsu	gp,ra,sp
   14b38:	00000013          	nop
   14b3c:	00000013          	nop
   14b40:	00018313          	mv	t1,gp
   14b44:	00120213          	addi	tp,tp,1 # 1 <_start+0x1>
   14b48:	00200293          	li	t0,2
   14b4c:	fe5210e3          	bne	tp,t0,14b2c <test_13+0x4>
   14b50:	0000aeb7          	lui	t4,0xa
   14b54:	500e8e93          	addi	t4,t4,1280 # a500 <coremarkBenchmark+0xa458>
   14b58:	00d00e13          	li	t3,13
   14b5c:	2bd31463          	bne	t1,t4,14e04 <fail>

00014b60 <test_14>:
   14b60:	00000213          	li	tp,0
   14b64:	00d000b7          	lui	ra,0xd00
   14b68:	00b00137          	lui	sp,0xb00
   14b6c:	0220a1b3          	mulhsu	gp,ra,sp
   14b70:	00120213          	addi	tp,tp,1 # 1 <_start+0x1>
   14b74:	00200293          	li	t0,2
   14b78:	fe5216e3          	bne	tp,t0,14b64 <test_14+0x4>
   14b7c:	00009eb7          	lui	t4,0x9
   14b80:	f00e8e93          	addi	t4,t4,-256 # 8f00 <coremarkBenchmark+0x8e58>
   14b84:	00e00e13          	li	t3,14
   14b88:	27d19e63          	bne	gp,t4,14e04 <fail>

00014b8c <test_15>:
   14b8c:	00000213          	li	tp,0
   14b90:	00e000b7          	lui	ra,0xe00
   14b94:	00b00137          	lui	sp,0xb00
   14b98:	00000013          	nop
   14b9c:	0220a1b3          	mulhsu	gp,ra,sp
   14ba0:	00120213          	addi	tp,tp,1 # 1 <_start+0x1>
   14ba4:	00200293          	li	t0,2
   14ba8:	fe5214e3          	bne	tp,t0,14b90 <test_15+0x4>
   14bac:	0000aeb7          	lui	t4,0xa
   14bb0:	a00e8e93          	addi	t4,t4,-1536 # 9a00 <coremarkBenchmark+0x9958>
   14bb4:	00f00e13          	li	t3,15
   14bb8:	25d19663          	bne	gp,t4,14e04 <fail>

00014bbc <test_16>:
   14bbc:	00000213          	li	tp,0
   14bc0:	00f000b7          	lui	ra,0xf00
   14bc4:	00b00137          	lui	sp,0xb00
   14bc8:	00000013          	nop
   14bcc:	00000013          	nop
   14bd0:	0220a1b3          	mulhsu	gp,ra,sp
   14bd4:	00120213          	addi	tp,tp,1 # 1 <_start+0x1>
   14bd8:	00200293          	li	t0,2
   14bdc:	fe5212e3          	bne	tp,t0,14bc0 <test_16+0x4>
   14be0:	0000aeb7          	lui	t4,0xa
   14be4:	500e8e93          	addi	t4,t4,1280 # a500 <coremarkBenchmark+0xa458>
   14be8:	01000e13          	li	t3,16
   14bec:	21d19c63          	bne	gp,t4,14e04 <fail>

00014bf0 <test_17>:
   14bf0:	00000213          	li	tp,0
   14bf4:	00d000b7          	lui	ra,0xd00
   14bf8:	00000013          	nop
   14bfc:	00b00137          	lui	sp,0xb00
   14c00:	0220a1b3          	mulhsu	gp,ra,sp
   14c04:	00120213          	addi	tp,tp,1 # 1 <_start+0x1>
   14c08:	00200293          	li	t0,2
   14c0c:	fe5214e3          	bne	tp,t0,14bf4 <test_17+0x4>
   14c10:	00009eb7          	lui	t4,0x9
   14c14:	f00e8e93          	addi	t4,t4,-256 # 8f00 <coremarkBenchmark+0x8e58>
   14c18:	01100e13          	li	t3,17
   14c1c:	1fd19463          	bne	gp,t4,14e04 <fail>

00014c20 <test_18>:
   14c20:	00000213          	li	tp,0
   14c24:	00e000b7          	lui	ra,0xe00
   14c28:	00000013          	nop
   14c2c:	00b00137          	lui	sp,0xb00
   14c30:	00000013          	nop
   14c34:	0220a1b3          	mulhsu	gp,ra,sp
   14c38:	00120213          	addi	tp,tp,1 # 1 <_start+0x1>
   14c3c:	00200293          	li	t0,2
   14c40:	fe5212e3          	bne	tp,t0,14c24 <test_18+0x4>
   14c44:	0000aeb7          	lui	t4,0xa
   14c48:	a00e8e93          	addi	t4,t4,-1536 # 9a00 <coremarkBenchmark+0x9958>
   14c4c:	01200e13          	li	t3,18
   14c50:	1bd19a63          	bne	gp,t4,14e04 <fail>

00014c54 <test_19>:
   14c54:	00000213          	li	tp,0
   14c58:	00f000b7          	lui	ra,0xf00
   14c5c:	00000013          	nop
   14c60:	00000013          	nop
   14c64:	00b00137          	lui	sp,0xb00
   14c68:	0220a1b3          	mulhsu	gp,ra,sp
   14c6c:	00120213          	addi	tp,tp,1 # 1 <_start+0x1>
   14c70:	00200293          	li	t0,2
   14c74:	fe5212e3          	bne	tp,t0,14c58 <test_19+0x4>
   14c78:	0000aeb7          	lui	t4,0xa
   14c7c:	500e8e93          	addi	t4,t4,1280 # a500 <coremarkBenchmark+0xa458>
   14c80:	01300e13          	li	t3,19
   14c84:	19d19063          	bne	gp,t4,14e04 <fail>

00014c88 <test_20>:
   14c88:	00000213          	li	tp,0
   14c8c:	00b00137          	lui	sp,0xb00
   14c90:	00d000b7          	lui	ra,0xd00
   14c94:	0220a1b3          	mulhsu	gp,ra,sp
   14c98:	00120213          	addi	tp,tp,1 # 1 <_start+0x1>
   14c9c:	00200293          	li	t0,2
   14ca0:	fe5216e3          	bne	tp,t0,14c8c <test_20+0x4>
   14ca4:	00009eb7          	lui	t4,0x9
   14ca8:	f00e8e93          	addi	t4,t4,-256 # 8f00 <coremarkBenchmark+0x8e58>
   14cac:	01400e13          	li	t3,20
   14cb0:	15d19a63          	bne	gp,t4,14e04 <fail>

00014cb4 <test_21>:
   14cb4:	00000213          	li	tp,0
   14cb8:	00b00137          	lui	sp,0xb00
   14cbc:	00e000b7          	lui	ra,0xe00
   14cc0:	00000013          	nop
   14cc4:	0220a1b3          	mulhsu	gp,ra,sp
   14cc8:	00120213          	addi	tp,tp,1 # 1 <_start+0x1>
   14ccc:	00200293          	li	t0,2
   14cd0:	fe5214e3          	bne	tp,t0,14cb8 <test_21+0x4>
   14cd4:	0000aeb7          	lui	t4,0xa
   14cd8:	a00e8e93          	addi	t4,t4,-1536 # 9a00 <coremarkBenchmark+0x9958>
   14cdc:	01500e13          	li	t3,21
   14ce0:	13d19263          	bne	gp,t4,14e04 <fail>

00014ce4 <test_22>:
   14ce4:	00000213          	li	tp,0
   14ce8:	00b00137          	lui	sp,0xb00
   14cec:	00f000b7          	lui	ra,0xf00
   14cf0:	00000013          	nop
   14cf4:	00000013          	nop
   14cf8:	0220a1b3          	mulhsu	gp,ra,sp
   14cfc:	00120213          	addi	tp,tp,1 # 1 <_start+0x1>
   14d00:	00200293          	li	t0,2
   14d04:	fe5212e3          	bne	tp,t0,14ce8 <test_22+0x4>
   14d08:	0000aeb7          	lui	t4,0xa
   14d0c:	500e8e93          	addi	t4,t4,1280 # a500 <coremarkBenchmark+0xa458>
   14d10:	01600e13          	li	t3,22
   14d14:	0fd19863          	bne	gp,t4,14e04 <fail>

00014d18 <test_23>:
   14d18:	00000213          	li	tp,0
   14d1c:	00b00137          	lui	sp,0xb00
   14d20:	00000013          	nop
   14d24:	00d000b7          	lui	ra,0xd00
   14d28:	0220a1b3          	mulhsu	gp,ra,sp
   14d2c:	00120213          	addi	tp,tp,1 # 1 <_start+0x1>
   14d30:	00200293          	li	t0,2
   14d34:	fe5214e3          	bne	tp,t0,14d1c <test_23+0x4>
   14d38:	00009eb7          	lui	t4,0x9
   14d3c:	f00e8e93          	addi	t4,t4,-256 # 8f00 <coremarkBenchmark+0x8e58>
   14d40:	01700e13          	li	t3,23
   14d44:	0dd19063          	bne	gp,t4,14e04 <fail>

00014d48 <test_24>:
   14d48:	00000213          	li	tp,0
   14d4c:	00b00137          	lui	sp,0xb00
   14d50:	00000013          	nop
   14d54:	00e000b7          	lui	ra,0xe00
   14d58:	00000013          	nop
   14d5c:	0220a1b3          	mulhsu	gp,ra,sp
   14d60:	00120213          	addi	tp,tp,1 # 1 <_start+0x1>
   14d64:	00200293          	li	t0,2
   14d68:	fe5212e3          	bne	tp,t0,14d4c <test_24+0x4>
   14d6c:	0000aeb7          	lui	t4,0xa
   14d70:	a00e8e93          	addi	t4,t4,-1536 # 9a00 <coremarkBenchmark+0x9958>
   14d74:	01800e13          	li	t3,24
   14d78:	09d19663          	bne	gp,t4,14e04 <fail>

00014d7c <test_25>:
   14d7c:	00000213          	li	tp,0
   14d80:	00b00137          	lui	sp,0xb00
   14d84:	00000013          	nop
   14d88:	00000013          	nop
   14d8c:	00f000b7          	lui	ra,0xf00
   14d90:	0220a1b3          	mulhsu	gp,ra,sp
   14d94:	00120213          	addi	tp,tp,1 # 1 <_start+0x1>
   14d98:	00200293          	li	t0,2
   14d9c:	fe5212e3          	bne	tp,t0,14d80 <test_25+0x4>
   14da0:	0000aeb7          	lui	t4,0xa
   14da4:	500e8e93          	addi	t4,t4,1280 # a500 <coremarkBenchmark+0xa458>
   14da8:	01900e13          	li	t3,25
   14dac:	05d19c63          	bne	gp,t4,14e04 <fail>

00014db0 <test_26>:
   14db0:	7c0000b7          	lui	ra,0x7c000
   14db4:	02102133          	mulhsu	sp,zero,ra
   14db8:	00000e93          	li	t4,0
   14dbc:	01a00e13          	li	t3,26
   14dc0:	05d11263          	bne	sp,t4,14e04 <fail>

00014dc4 <test_27>:
   14dc4:	800000b7          	lui	ra,0x80000
   14dc8:	0200a133          	mulhsu	sp,ra,zero
   14dcc:	00000e93          	li	t4,0
   14dd0:	01b00e13          	li	t3,27
   14dd4:	03d11863          	bne	sp,t4,14e04 <fail>

00014dd8 <test_28>:
   14dd8:	020020b3          	mulhsu	ra,zero,zero
   14ddc:	00000e93          	li	t4,0
   14de0:	01c00e13          	li	t3,28
   14de4:	03d09063          	bne	ra,t4,14e04 <fail>

00014de8 <test_29>:
   14de8:	021000b7          	lui	ra,0x2100
   14dec:	02200137          	lui	sp,0x2200
   14df0:	0220a033          	mulhsu	zero,ra,sp
   14df4:	00000e93          	li	t4,0
   14df8:	01d00e13          	li	t3,29
   14dfc:	01d01463          	bne	zero,t4,14e04 <fail>
   14e00:	05c01863          	bne	zero,t3,14e50 <pass>

00014e04 <fail>:
   14e04:	04500513          	li	a0,69
   14e08:	00004137          	lui	sp,0x4
   14e0c:	37d080ef          	jal	ra,1d988 <printf_c>
   14e10:	05200513          	li	a0,82
   14e14:	00004137          	lui	sp,0x4
   14e18:	371080ef          	jal	ra,1d988 <printf_c>
   14e1c:	00004137          	lui	sp,0x4
   14e20:	369080ef          	jal	ra,1d988 <printf_c>
   14e24:	04f00513          	li	a0,79
   14e28:	00004137          	lui	sp,0x4
   14e2c:	35d080ef          	jal	ra,1d988 <printf_c>
   14e30:	00004137          	lui	sp,0x4
   14e34:	05200513          	li	a0,82
   14e38:	00004137          	lui	sp,0x4
   14e3c:	34d080ef          	jal	ra,1d988 <printf_c>
   14e40:	00a00513          	li	a0,10
   14e44:	00004137          	lui	sp,0x4
   14e48:	341080ef          	jal	ra,1d988 <printf_c>
   14e4c:	0340006f          	j	14e80 <mulhu>

00014e50 <pass>:
   14e50:	04f00513          	li	a0,79
   14e54:	00004137          	lui	sp,0x4
   14e58:	331080ef          	jal	ra,1d988 <printf_c>
   14e5c:	04b00513          	li	a0,75
   14e60:	00004137          	lui	sp,0x4
   14e64:	325080ef          	jal	ra,1d988 <printf_c>
   14e68:	00a00513          	li	a0,10
   14e6c:	00004137          	lui	sp,0x4
   14e70:	319080ef          	jal	ra,1d988 <printf_c>
   14e74:	00c0006f          	j	14e80 <mulhu>

00014e78 <.test_name>:
   14e78:	756d                	lui	a0,0xffffb
   14e7a:	686c                	flw	fa1,84(s0)
   14e7c:	0975                	addi	s2,s2,29
	...

00014e80 <mulhu>:
   14e80:	00015537          	lui	a0,0x15
   14e84:	e7850513          	addi	a0,a0,-392 # 14e78 <.test_name>

00014e88 <.prname_next>:
   14e88:	00004137          	lui	sp,0x4
   14e8c:	315080ef          	jal	ra,1d9a0 <printf_s>

00014e90 <test_2>:
   14e90:	00000093          	li	ra,0
   14e94:	00000113          	li	sp,0
   14e98:	0220b1b3          	mulhu	gp,ra,sp
   14e9c:	00000e93          	li	t4,0
   14ea0:	00200e13          	li	t3,2
   14ea4:	4bd19a63          	bne	gp,t4,15358 <fail>

00014ea8 <test_3>:
   14ea8:	00100093          	li	ra,1
   14eac:	00100113          	li	sp,1
   14eb0:	0220b1b3          	mulhu	gp,ra,sp
   14eb4:	00000e93          	li	t4,0
   14eb8:	00300e13          	li	t3,3
   14ebc:	49d19e63          	bne	gp,t4,15358 <fail>

00014ec0 <test_4>:
   14ec0:	00300093          	li	ra,3
   14ec4:	00700113          	li	sp,7
   14ec8:	0220b1b3          	mulhu	gp,ra,sp
   14ecc:	00000e93          	li	t4,0
   14ed0:	00400e13          	li	t3,4
   14ed4:	49d19263          	bne	gp,t4,15358 <fail>

00014ed8 <test_5>:
   14ed8:	00000093          	li	ra,0
   14edc:	ffff8137          	lui	sp,0xffff8
   14ee0:	0220b1b3          	mulhu	gp,ra,sp
   14ee4:	00000e93          	li	t4,0
   14ee8:	00500e13          	li	t3,5
   14eec:	47d19663          	bne	gp,t4,15358 <fail>

00014ef0 <test_6>:
   14ef0:	800000b7          	lui	ra,0x80000
   14ef4:	00000113          	li	sp,0
   14ef8:	0220b1b3          	mulhu	gp,ra,sp
   14efc:	00000e93          	li	t4,0
   14f00:	00600e13          	li	t3,6
   14f04:	45d19a63          	bne	gp,t4,15358 <fail>

00014f08 <test_7>:
   14f08:	800000b7          	lui	ra,0x80000
   14f0c:	ffff8137          	lui	sp,0xffff8
   14f10:	0220b1b3          	mulhu	gp,ra,sp
   14f14:	7fffceb7          	lui	t4,0x7fffc
   14f18:	00700e13          	li	t3,7
   14f1c:	43d19e63          	bne	gp,t4,15358 <fail>

00014f20 <test_30>:
   14f20:	aaaab0b7          	lui	ra,0xaaaab
   14f24:	aab08093          	addi	ra,ra,-1365 # aaaaaaab <heap_memory_used+0xaaa88cd3>
   14f28:	00030137          	lui	sp,0x30
   14f2c:	e7d10113          	addi	sp,sp,-387 # 2fe7d <heap_memory_used+0xe0a5>
   14f30:	0220b1b3          	mulhu	gp,ra,sp
   14f34:	00020eb7          	lui	t4,0x20
   14f38:	efee8e93          	addi	t4,t4,-258 # 1fefe <Arr_2_Glob+0xd3a>
   14f3c:	01e00e13          	li	t3,30
   14f40:	41d19c63          	bne	gp,t4,15358 <fail>

00014f44 <test_31>:
   14f44:	000300b7          	lui	ra,0x30
   14f48:	e7d08093          	addi	ra,ra,-387 # 2fe7d <heap_memory_used+0xe0a5>
   14f4c:	aaaab137          	lui	sp,0xaaaab
   14f50:	aab10113          	addi	sp,sp,-1365 # aaaaaaab <heap_memory_used+0xaaa88cd3>
   14f54:	0220b1b3          	mulhu	gp,ra,sp
   14f58:	00020eb7          	lui	t4,0x20
   14f5c:	efee8e93          	addi	t4,t4,-258 # 1fefe <Arr_2_Glob+0xd3a>
   14f60:	01f00e13          	li	t3,31
   14f64:	3fd19a63          	bne	gp,t4,15358 <fail>

00014f68 <test_32>:
   14f68:	ff0000b7          	lui	ra,0xff000
   14f6c:	ff000137          	lui	sp,0xff000
   14f70:	0220b1b3          	mulhu	gp,ra,sp
   14f74:	fe010eb7          	lui	t4,0xfe010
   14f78:	02000e13          	li	t3,32
   14f7c:	3dd19e63          	bne	gp,t4,15358 <fail>

00014f80 <test_33>:
   14f80:	fff00093          	li	ra,-1
   14f84:	fff00113          	li	sp,-1
   14f88:	0220b1b3          	mulhu	gp,ra,sp
   14f8c:	ffe00e93          	li	t4,-2
   14f90:	02100e13          	li	t3,33
   14f94:	3dd19263          	bne	gp,t4,15358 <fail>

00014f98 <test_34>:
   14f98:	fff00093          	li	ra,-1
   14f9c:	00100113          	li	sp,1
   14fa0:	0220b1b3          	mulhu	gp,ra,sp
   14fa4:	00000e93          	li	t4,0
   14fa8:	02200e13          	li	t3,34
   14fac:	3bd19663          	bne	gp,t4,15358 <fail>

00014fb0 <test_35>:
   14fb0:	00100093          	li	ra,1
   14fb4:	fff00113          	li	sp,-1
   14fb8:	0220b1b3          	mulhu	gp,ra,sp
   14fbc:	00000e93          	li	t4,0
   14fc0:	02300e13          	li	t3,35
   14fc4:	39d19a63          	bne	gp,t4,15358 <fail>

00014fc8 <test_8>:
   14fc8:	00d000b7          	lui	ra,0xd00
   14fcc:	00b00137          	lui	sp,0xb00
   14fd0:	0220b0b3          	mulhu	ra,ra,sp
   14fd4:	00009eb7          	lui	t4,0x9
   14fd8:	f00e8e93          	addi	t4,t4,-256 # 8f00 <coremarkBenchmark+0x8e58>
   14fdc:	00800e13          	li	t3,8
   14fe0:	37d09c63          	bne	ra,t4,15358 <fail>

00014fe4 <test_9>:
   14fe4:	00e000b7          	lui	ra,0xe00
   14fe8:	00b00137          	lui	sp,0xb00
   14fec:	0220b133          	mulhu	sp,ra,sp
   14ff0:	0000aeb7          	lui	t4,0xa
   14ff4:	a00e8e93          	addi	t4,t4,-1536 # 9a00 <coremarkBenchmark+0x9958>
   14ff8:	00900e13          	li	t3,9
   14ffc:	35d11e63          	bne	sp,t4,15358 <fail>

00015000 <test_10>:
   15000:	00d000b7          	lui	ra,0xd00
   15004:	0210b0b3          	mulhu	ra,ra,ra
   15008:	0000beb7          	lui	t4,0xb
   1500c:	900e8e93          	addi	t4,t4,-1792 # a900 <coremarkBenchmark+0xa858>
   15010:	00a00e13          	li	t3,10
   15014:	35d09263          	bne	ra,t4,15358 <fail>

00015018 <test_11>:
   15018:	00000213          	li	tp,0
   1501c:	00d000b7          	lui	ra,0xd00
   15020:	00b00137          	lui	sp,0xb00
   15024:	0220b1b3          	mulhu	gp,ra,sp
   15028:	00018313          	mv	t1,gp
   1502c:	00120213          	addi	tp,tp,1 # 1 <_start+0x1>
   15030:	00200293          	li	t0,2
   15034:	fe5214e3          	bne	tp,t0,1501c <test_11+0x4>
   15038:	00009eb7          	lui	t4,0x9
   1503c:	f00e8e93          	addi	t4,t4,-256 # 8f00 <coremarkBenchmark+0x8e58>
   15040:	00b00e13          	li	t3,11
   15044:	31d31a63          	bne	t1,t4,15358 <fail>

00015048 <test_12>:
   15048:	00000213          	li	tp,0
   1504c:	00e000b7          	lui	ra,0xe00
   15050:	00b00137          	lui	sp,0xb00
   15054:	0220b1b3          	mulhu	gp,ra,sp
   15058:	00000013          	nop
   1505c:	00018313          	mv	t1,gp
   15060:	00120213          	addi	tp,tp,1 # 1 <_start+0x1>
   15064:	00200293          	li	t0,2
   15068:	fe5212e3          	bne	tp,t0,1504c <test_12+0x4>
   1506c:	0000aeb7          	lui	t4,0xa
   15070:	a00e8e93          	addi	t4,t4,-1536 # 9a00 <coremarkBenchmark+0x9958>
   15074:	00c00e13          	li	t3,12
   15078:	2fd31063          	bne	t1,t4,15358 <fail>

0001507c <test_13>:
   1507c:	00000213          	li	tp,0
   15080:	00f000b7          	lui	ra,0xf00
   15084:	00b00137          	lui	sp,0xb00
   15088:	0220b1b3          	mulhu	gp,ra,sp
   1508c:	00000013          	nop
   15090:	00000013          	nop
   15094:	00018313          	mv	t1,gp
   15098:	00120213          	addi	tp,tp,1 # 1 <_start+0x1>
   1509c:	00200293          	li	t0,2
   150a0:	fe5210e3          	bne	tp,t0,15080 <test_13+0x4>
   150a4:	0000aeb7          	lui	t4,0xa
   150a8:	500e8e93          	addi	t4,t4,1280 # a500 <coremarkBenchmark+0xa458>
   150ac:	00d00e13          	li	t3,13
   150b0:	2bd31463          	bne	t1,t4,15358 <fail>

000150b4 <test_14>:
   150b4:	00000213          	li	tp,0
   150b8:	00d000b7          	lui	ra,0xd00
   150bc:	00b00137          	lui	sp,0xb00
   150c0:	0220b1b3          	mulhu	gp,ra,sp
   150c4:	00120213          	addi	tp,tp,1 # 1 <_start+0x1>
   150c8:	00200293          	li	t0,2
   150cc:	fe5216e3          	bne	tp,t0,150b8 <test_14+0x4>
   150d0:	00009eb7          	lui	t4,0x9
   150d4:	f00e8e93          	addi	t4,t4,-256 # 8f00 <coremarkBenchmark+0x8e58>
   150d8:	00e00e13          	li	t3,14
   150dc:	27d19e63          	bne	gp,t4,15358 <fail>

000150e0 <test_15>:
   150e0:	00000213          	li	tp,0
   150e4:	00e000b7          	lui	ra,0xe00
   150e8:	00b00137          	lui	sp,0xb00
   150ec:	00000013          	nop
   150f0:	0220b1b3          	mulhu	gp,ra,sp
   150f4:	00120213          	addi	tp,tp,1 # 1 <_start+0x1>
   150f8:	00200293          	li	t0,2
   150fc:	fe5214e3          	bne	tp,t0,150e4 <test_15+0x4>
   15100:	0000aeb7          	lui	t4,0xa
   15104:	a00e8e93          	addi	t4,t4,-1536 # 9a00 <coremarkBenchmark+0x9958>
   15108:	00f00e13          	li	t3,15
   1510c:	25d19663          	bne	gp,t4,15358 <fail>

00015110 <test_16>:
   15110:	00000213          	li	tp,0
   15114:	00f000b7          	lui	ra,0xf00
   15118:	00b00137          	lui	sp,0xb00
   1511c:	00000013          	nop
   15120:	00000013          	nop
   15124:	0220b1b3          	mulhu	gp,ra,sp
   15128:	00120213          	addi	tp,tp,1 # 1 <_start+0x1>
   1512c:	00200293          	li	t0,2
   15130:	fe5212e3          	bne	tp,t0,15114 <test_16+0x4>
   15134:	0000aeb7          	lui	t4,0xa
   15138:	500e8e93          	addi	t4,t4,1280 # a500 <coremarkBenchmark+0xa458>
   1513c:	01000e13          	li	t3,16
   15140:	21d19c63          	bne	gp,t4,15358 <fail>

00015144 <test_17>:
   15144:	00000213          	li	tp,0
   15148:	00d000b7          	lui	ra,0xd00
   1514c:	00000013          	nop
   15150:	00b00137          	lui	sp,0xb00
   15154:	0220b1b3          	mulhu	gp,ra,sp
   15158:	00120213          	addi	tp,tp,1 # 1 <_start+0x1>
   1515c:	00200293          	li	t0,2
   15160:	fe5214e3          	bne	tp,t0,15148 <test_17+0x4>
   15164:	00009eb7          	lui	t4,0x9
   15168:	f00e8e93          	addi	t4,t4,-256 # 8f00 <coremarkBenchmark+0x8e58>
   1516c:	01100e13          	li	t3,17
   15170:	1fd19463          	bne	gp,t4,15358 <fail>

00015174 <test_18>:
   15174:	00000213          	li	tp,0
   15178:	00e000b7          	lui	ra,0xe00
   1517c:	00000013          	nop
   15180:	00b00137          	lui	sp,0xb00
   15184:	00000013          	nop
   15188:	0220b1b3          	mulhu	gp,ra,sp
   1518c:	00120213          	addi	tp,tp,1 # 1 <_start+0x1>
   15190:	00200293          	li	t0,2
   15194:	fe5212e3          	bne	tp,t0,15178 <test_18+0x4>
   15198:	0000aeb7          	lui	t4,0xa
   1519c:	a00e8e93          	addi	t4,t4,-1536 # 9a00 <coremarkBenchmark+0x9958>
   151a0:	01200e13          	li	t3,18
   151a4:	1bd19a63          	bne	gp,t4,15358 <fail>

000151a8 <test_19>:
   151a8:	00000213          	li	tp,0
   151ac:	00f000b7          	lui	ra,0xf00
   151b0:	00000013          	nop
   151b4:	00000013          	nop
   151b8:	00b00137          	lui	sp,0xb00
   151bc:	0220b1b3          	mulhu	gp,ra,sp
   151c0:	00120213          	addi	tp,tp,1 # 1 <_start+0x1>
   151c4:	00200293          	li	t0,2
   151c8:	fe5212e3          	bne	tp,t0,151ac <test_19+0x4>
   151cc:	0000aeb7          	lui	t4,0xa
   151d0:	500e8e93          	addi	t4,t4,1280 # a500 <coremarkBenchmark+0xa458>
   151d4:	01300e13          	li	t3,19
   151d8:	19d19063          	bne	gp,t4,15358 <fail>

000151dc <test_20>:
   151dc:	00000213          	li	tp,0
   151e0:	00b00137          	lui	sp,0xb00
   151e4:	00d000b7          	lui	ra,0xd00
   151e8:	0220b1b3          	mulhu	gp,ra,sp
   151ec:	00120213          	addi	tp,tp,1 # 1 <_start+0x1>
   151f0:	00200293          	li	t0,2
   151f4:	fe5216e3          	bne	tp,t0,151e0 <test_20+0x4>
   151f8:	00009eb7          	lui	t4,0x9
   151fc:	f00e8e93          	addi	t4,t4,-256 # 8f00 <coremarkBenchmark+0x8e58>
   15200:	01400e13          	li	t3,20
   15204:	15d19a63          	bne	gp,t4,15358 <fail>

00015208 <test_21>:
   15208:	00000213          	li	tp,0
   1520c:	00b00137          	lui	sp,0xb00
   15210:	00e000b7          	lui	ra,0xe00
   15214:	00000013          	nop
   15218:	0220b1b3          	mulhu	gp,ra,sp
   1521c:	00120213          	addi	tp,tp,1 # 1 <_start+0x1>
   15220:	00200293          	li	t0,2
   15224:	fe5214e3          	bne	tp,t0,1520c <test_21+0x4>
   15228:	0000aeb7          	lui	t4,0xa
   1522c:	a00e8e93          	addi	t4,t4,-1536 # 9a00 <coremarkBenchmark+0x9958>
   15230:	01500e13          	li	t3,21
   15234:	13d19263          	bne	gp,t4,15358 <fail>

00015238 <test_22>:
   15238:	00000213          	li	tp,0
   1523c:	00b00137          	lui	sp,0xb00
   15240:	00f000b7          	lui	ra,0xf00
   15244:	00000013          	nop
   15248:	00000013          	nop
   1524c:	0220b1b3          	mulhu	gp,ra,sp
   15250:	00120213          	addi	tp,tp,1 # 1 <_start+0x1>
   15254:	00200293          	li	t0,2
   15258:	fe5212e3          	bne	tp,t0,1523c <test_22+0x4>
   1525c:	0000aeb7          	lui	t4,0xa
   15260:	500e8e93          	addi	t4,t4,1280 # a500 <coremarkBenchmark+0xa458>
   15264:	01600e13          	li	t3,22
   15268:	0fd19863          	bne	gp,t4,15358 <fail>

0001526c <test_23>:
   1526c:	00000213          	li	tp,0
   15270:	00b00137          	lui	sp,0xb00
   15274:	00000013          	nop
   15278:	00d000b7          	lui	ra,0xd00
   1527c:	0220b1b3          	mulhu	gp,ra,sp
   15280:	00120213          	addi	tp,tp,1 # 1 <_start+0x1>
   15284:	00200293          	li	t0,2
   15288:	fe5214e3          	bne	tp,t0,15270 <test_23+0x4>
   1528c:	00009eb7          	lui	t4,0x9
   15290:	f00e8e93          	addi	t4,t4,-256 # 8f00 <coremarkBenchmark+0x8e58>
   15294:	01700e13          	li	t3,23
   15298:	0dd19063          	bne	gp,t4,15358 <fail>

0001529c <test_24>:
   1529c:	00000213          	li	tp,0
   152a0:	00b00137          	lui	sp,0xb00
   152a4:	00000013          	nop
   152a8:	00e000b7          	lui	ra,0xe00
   152ac:	00000013          	nop
   152b0:	0220b1b3          	mulhu	gp,ra,sp
   152b4:	00120213          	addi	tp,tp,1 # 1 <_start+0x1>
   152b8:	00200293          	li	t0,2
   152bc:	fe5212e3          	bne	tp,t0,152a0 <test_24+0x4>
   152c0:	0000aeb7          	lui	t4,0xa
   152c4:	a00e8e93          	addi	t4,t4,-1536 # 9a00 <coremarkBenchmark+0x9958>
   152c8:	01800e13          	li	t3,24
   152cc:	09d19663          	bne	gp,t4,15358 <fail>

000152d0 <test_25>:
   152d0:	00000213          	li	tp,0
   152d4:	00b00137          	lui	sp,0xb00
   152d8:	00000013          	nop
   152dc:	00000013          	nop
   152e0:	00f000b7          	lui	ra,0xf00
   152e4:	0220b1b3          	mulhu	gp,ra,sp
   152e8:	00120213          	addi	tp,tp,1 # 1 <_start+0x1>
   152ec:	00200293          	li	t0,2
   152f0:	fe5212e3          	bne	tp,t0,152d4 <test_25+0x4>
   152f4:	0000aeb7          	lui	t4,0xa
   152f8:	500e8e93          	addi	t4,t4,1280 # a500 <coremarkBenchmark+0xa458>
   152fc:	01900e13          	li	t3,25
   15300:	05d19c63          	bne	gp,t4,15358 <fail>

00015304 <test_26>:
   15304:	7c0000b7          	lui	ra,0x7c000
   15308:	02103133          	mulhu	sp,zero,ra
   1530c:	00000e93          	li	t4,0
   15310:	01a00e13          	li	t3,26
   15314:	05d11263          	bne	sp,t4,15358 <fail>

00015318 <test_27>:
   15318:	800000b7          	lui	ra,0x80000
   1531c:	0200b133          	mulhu	sp,ra,zero
   15320:	00000e93          	li	t4,0
   15324:	01b00e13          	li	t3,27
   15328:	03d11863          	bne	sp,t4,15358 <fail>

0001532c <test_28>:
   1532c:	020030b3          	mulhu	ra,zero,zero
   15330:	00000e93          	li	t4,0
   15334:	01c00e13          	li	t3,28
   15338:	03d09063          	bne	ra,t4,15358 <fail>

0001533c <test_29>:
   1533c:	021000b7          	lui	ra,0x2100
   15340:	02200137          	lui	sp,0x2200
   15344:	0220b033          	mulhu	zero,ra,sp
   15348:	00000e93          	li	t4,0
   1534c:	01d00e13          	li	t3,29
   15350:	01d01463          	bne	zero,t4,15358 <fail>
   15354:	05c01863          	bne	zero,t3,153a4 <pass>

00015358 <fail>:
   15358:	04500513          	li	a0,69
   1535c:	00004137          	lui	sp,0x4
   15360:	628080ef          	jal	ra,1d988 <printf_c>
   15364:	05200513          	li	a0,82
   15368:	00004137          	lui	sp,0x4
   1536c:	61c080ef          	jal	ra,1d988 <printf_c>
   15370:	00004137          	lui	sp,0x4
   15374:	614080ef          	jal	ra,1d988 <printf_c>
   15378:	04f00513          	li	a0,79
   1537c:	00004137          	lui	sp,0x4
   15380:	608080ef          	jal	ra,1d988 <printf_c>
   15384:	00004137          	lui	sp,0x4
   15388:	05200513          	li	a0,82
   1538c:	00004137          	lui	sp,0x4
   15390:	5f8080ef          	jal	ra,1d988 <printf_c>
   15394:	00a00513          	li	a0,10
   15398:	00004137          	lui	sp,0x4
   1539c:	5ec080ef          	jal	ra,1d988 <printf_c>
   153a0:	c6cfd06f          	j	1280c <div>

000153a4 <pass>:
   153a4:	04f00513          	li	a0,79
   153a8:	00004137          	lui	sp,0x4
   153ac:	5dc080ef          	jal	ra,1d988 <printf_c>
   153b0:	04b00513          	li	a0,75
   153b4:	00004137          	lui	sp,0x4
   153b8:	5d0080ef          	jal	ra,1d988 <printf_c>
   153bc:	00a00513          	li	a0,10
   153c0:	00004137          	lui	sp,0x4
   153c4:	5c4080ef          	jal	ra,1d988 <printf_c>
   153c8:	c44fd06f          	j	1280c <div>

000153cc <.test_name>:
   153cc:	0009726f          	jal	tp,ac3cc <heap_memory_used+0x8a5f4>

000153d0 <or>:
   153d0:	00015537          	lui	a0,0x15
   153d4:	3cc50513          	addi	a0,a0,972 # 153cc <.test_name>

000153d8 <.prname_next>:
   153d8:	00004137          	lui	sp,0x4
   153dc:	5c4080ef          	jal	ra,1d9a0 <printf_s>

000153e0 <test_2>:
   153e0:	ff0100b7          	lui	ra,0xff010
   153e4:	f0008093          	addi	ra,ra,-256 # ff00ff00 <heap_memory_used+0xfefee128>
   153e8:	0f0f1137          	lui	sp,0xf0f1
   153ec:	f0f10113          	addi	sp,sp,-241 # f0f0f0f <heap_memory_used+0xf0cf137>
   153f0:	0020e1b3          	or	gp,ra,sp
   153f4:	ff100eb7          	lui	t4,0xff100
   153f8:	f0fe8e93          	addi	t4,t4,-241 # ff0fff0f <heap_memory_used+0xff0de137>
   153fc:	00200e13          	li	t3,2
   15400:	4bd19263          	bne	gp,t4,158a4 <fail>

00015404 <test_3>:
   15404:	0ff010b7          	lui	ra,0xff01
   15408:	ff008093          	addi	ra,ra,-16 # ff00ff0 <heap_memory_used+0xfedf218>
   1540c:	f0f0f137          	lui	sp,0xf0f0f
   15410:	0f010113          	addi	sp,sp,240 # f0f0f0f0 <heap_memory_used+0xf0eed318>
   15414:	0020e1b3          	or	gp,ra,sp
   15418:	fff10eb7          	lui	t4,0xfff10
   1541c:	ff0e8e93          	addi	t4,t4,-16 # fff0fff0 <heap_memory_used+0xffeee218>
   15420:	00300e13          	li	t3,3
   15424:	49d19063          	bne	gp,t4,158a4 <fail>

00015428 <test_4>:
   15428:	00ff00b7          	lui	ra,0xff0
   1542c:	0ff08093          	addi	ra,ra,255 # ff00ff <heap_memory_used+0xfce327>
   15430:	0f0f1137          	lui	sp,0xf0f1
   15434:	f0f10113          	addi	sp,sp,-241 # f0f0f0f <heap_memory_used+0xf0cf137>
   15438:	0020e1b3          	or	gp,ra,sp
   1543c:	0fff1eb7          	lui	t4,0xfff1
   15440:	fffe8e93          	addi	t4,t4,-1 # fff0fff <heap_memory_used+0xffcf227>
   15444:	00400e13          	li	t3,4
   15448:	45d19e63          	bne	gp,t4,158a4 <fail>

0001544c <test_5>:
   1544c:	f00ff0b7          	lui	ra,0xf00ff
   15450:	00f08093          	addi	ra,ra,15 # f00ff00f <heap_memory_used+0xf00dd237>
   15454:	f0f0f137          	lui	sp,0xf0f0f
   15458:	0f010113          	addi	sp,sp,240 # f0f0f0f0 <heap_memory_used+0xf0eed318>
   1545c:	0020e1b3          	or	gp,ra,sp
   15460:	f0fffeb7          	lui	t4,0xf0fff
   15464:	0ffe8e93          	addi	t4,t4,255 # f0fff0ff <heap_memory_used+0xf0fdd327>
   15468:	00500e13          	li	t3,5
   1546c:	43d19c63          	bne	gp,t4,158a4 <fail>

00015470 <test_6>:
   15470:	ff0100b7          	lui	ra,0xff010
   15474:	f0008093          	addi	ra,ra,-256 # ff00ff00 <heap_memory_used+0xfefee128>
   15478:	0f0f1137          	lui	sp,0xf0f1
   1547c:	f0f10113          	addi	sp,sp,-241 # f0f0f0f <heap_memory_used+0xf0cf137>
   15480:	0020e0b3          	or	ra,ra,sp
   15484:	ff100eb7          	lui	t4,0xff100
   15488:	f0fe8e93          	addi	t4,t4,-241 # ff0fff0f <heap_memory_used+0xff0de137>
   1548c:	00600e13          	li	t3,6
   15490:	41d09a63          	bne	ra,t4,158a4 <fail>

00015494 <test_7>:
   15494:	ff0100b7          	lui	ra,0xff010
   15498:	f0008093          	addi	ra,ra,-256 # ff00ff00 <heap_memory_used+0xfefee128>
   1549c:	0f0f1137          	lui	sp,0xf0f1
   154a0:	f0f10113          	addi	sp,sp,-241 # f0f0f0f <heap_memory_used+0xf0cf137>
   154a4:	0020e133          	or	sp,ra,sp
   154a8:	ff100eb7          	lui	t4,0xff100
   154ac:	f0fe8e93          	addi	t4,t4,-241 # ff0fff0f <heap_memory_used+0xff0de137>
   154b0:	00700e13          	li	t3,7
   154b4:	3fd11863          	bne	sp,t4,158a4 <fail>

000154b8 <test_8>:
   154b8:	ff0100b7          	lui	ra,0xff010
   154bc:	f0008093          	addi	ra,ra,-256 # ff00ff00 <heap_memory_used+0xfefee128>
   154c0:	0010e0b3          	or	ra,ra,ra
   154c4:	ff010eb7          	lui	t4,0xff010
   154c8:	f00e8e93          	addi	t4,t4,-256 # ff00ff00 <heap_memory_used+0xfefee128>
   154cc:	00800e13          	li	t3,8
   154d0:	3dd09a63          	bne	ra,t4,158a4 <fail>

000154d4 <test_9>:
   154d4:	00000213          	li	tp,0
   154d8:	ff0100b7          	lui	ra,0xff010
   154dc:	f0008093          	addi	ra,ra,-256 # ff00ff00 <heap_memory_used+0xfefee128>
   154e0:	0f0f1137          	lui	sp,0xf0f1
   154e4:	f0f10113          	addi	sp,sp,-241 # f0f0f0f <heap_memory_used+0xf0cf137>
   154e8:	0020e1b3          	or	gp,ra,sp
   154ec:	00018313          	mv	t1,gp
   154f0:	00120213          	addi	tp,tp,1 # 1 <_start+0x1>
   154f4:	00200293          	li	t0,2
   154f8:	fe5210e3          	bne	tp,t0,154d8 <test_9+0x4>
   154fc:	ff100eb7          	lui	t4,0xff100
   15500:	f0fe8e93          	addi	t4,t4,-241 # ff0fff0f <heap_memory_used+0xff0de137>
   15504:	00900e13          	li	t3,9
   15508:	39d31e63          	bne	t1,t4,158a4 <fail>

0001550c <test_10>:
   1550c:	00000213          	li	tp,0
   15510:	0ff010b7          	lui	ra,0xff01
   15514:	ff008093          	addi	ra,ra,-16 # ff00ff0 <heap_memory_used+0xfedf218>
   15518:	f0f0f137          	lui	sp,0xf0f0f
   1551c:	0f010113          	addi	sp,sp,240 # f0f0f0f0 <heap_memory_used+0xf0eed318>
   15520:	0020e1b3          	or	gp,ra,sp
   15524:	00000013          	nop
   15528:	00018313          	mv	t1,gp
   1552c:	00120213          	addi	tp,tp,1 # 1 <_start+0x1>
   15530:	00200293          	li	t0,2
   15534:	fc521ee3          	bne	tp,t0,15510 <test_10+0x4>
   15538:	fff10eb7          	lui	t4,0xfff10
   1553c:	ff0e8e93          	addi	t4,t4,-16 # fff0fff0 <heap_memory_used+0xffeee218>
   15540:	00a00e13          	li	t3,10
   15544:	37d31063          	bne	t1,t4,158a4 <fail>

00015548 <test_11>:
   15548:	00000213          	li	tp,0
   1554c:	00ff00b7          	lui	ra,0xff0
   15550:	0ff08093          	addi	ra,ra,255 # ff00ff <heap_memory_used+0xfce327>
   15554:	0f0f1137          	lui	sp,0xf0f1
   15558:	f0f10113          	addi	sp,sp,-241 # f0f0f0f <heap_memory_used+0xf0cf137>
   1555c:	0020e1b3          	or	gp,ra,sp
   15560:	00000013          	nop
   15564:	00000013          	nop
   15568:	00018313          	mv	t1,gp
   1556c:	00120213          	addi	tp,tp,1 # 1 <_start+0x1>
   15570:	00200293          	li	t0,2
   15574:	fc521ce3          	bne	tp,t0,1554c <test_11+0x4>
   15578:	0fff1eb7          	lui	t4,0xfff1
   1557c:	fffe8e93          	addi	t4,t4,-1 # fff0fff <heap_memory_used+0xffcf227>
   15580:	00b00e13          	li	t3,11
   15584:	33d31063          	bne	t1,t4,158a4 <fail>

00015588 <test_12>:
   15588:	00000213          	li	tp,0
   1558c:	ff0100b7          	lui	ra,0xff010
   15590:	f0008093          	addi	ra,ra,-256 # ff00ff00 <heap_memory_used+0xfefee128>
   15594:	0f0f1137          	lui	sp,0xf0f1
   15598:	f0f10113          	addi	sp,sp,-241 # f0f0f0f <heap_memory_used+0xf0cf137>
   1559c:	0020e1b3          	or	gp,ra,sp
   155a0:	00120213          	addi	tp,tp,1 # 1 <_start+0x1>
   155a4:	00200293          	li	t0,2
   155a8:	fe5212e3          	bne	tp,t0,1558c <test_12+0x4>
   155ac:	ff100eb7          	lui	t4,0xff100
   155b0:	f0fe8e93          	addi	t4,t4,-241 # ff0fff0f <heap_memory_used+0xff0de137>
   155b4:	00c00e13          	li	t3,12
   155b8:	2fd19663          	bne	gp,t4,158a4 <fail>

000155bc <test_13>:
   155bc:	00000213          	li	tp,0
   155c0:	0ff010b7          	lui	ra,0xff01
   155c4:	ff008093          	addi	ra,ra,-16 # ff00ff0 <heap_memory_used+0xfedf218>
   155c8:	f0f0f137          	lui	sp,0xf0f0f
   155cc:	0f010113          	addi	sp,sp,240 # f0f0f0f0 <heap_memory_used+0xf0eed318>
   155d0:	00000013          	nop
   155d4:	0020e1b3          	or	gp,ra,sp
   155d8:	00120213          	addi	tp,tp,1 # 1 <_start+0x1>
   155dc:	00200293          	li	t0,2
   155e0:	fe5210e3          	bne	tp,t0,155c0 <test_13+0x4>
   155e4:	fff10eb7          	lui	t4,0xfff10
   155e8:	ff0e8e93          	addi	t4,t4,-16 # fff0fff0 <heap_memory_used+0xffeee218>
   155ec:	00d00e13          	li	t3,13
   155f0:	2bd19a63          	bne	gp,t4,158a4 <fail>

000155f4 <test_14>:
   155f4:	00000213          	li	tp,0
   155f8:	00ff00b7          	lui	ra,0xff0
   155fc:	0ff08093          	addi	ra,ra,255 # ff00ff <heap_memory_used+0xfce327>
   15600:	0f0f1137          	lui	sp,0xf0f1
   15604:	f0f10113          	addi	sp,sp,-241 # f0f0f0f <heap_memory_used+0xf0cf137>
   15608:	00000013          	nop
   1560c:	00000013          	nop
   15610:	0020e1b3          	or	gp,ra,sp
   15614:	00120213          	addi	tp,tp,1 # 1 <_start+0x1>
   15618:	00200293          	li	t0,2
   1561c:	fc521ee3          	bne	tp,t0,155f8 <test_14+0x4>
   15620:	0fff1eb7          	lui	t4,0xfff1
   15624:	fffe8e93          	addi	t4,t4,-1 # fff0fff <heap_memory_used+0xffcf227>
   15628:	00e00e13          	li	t3,14
   1562c:	27d19c63          	bne	gp,t4,158a4 <fail>

00015630 <test_15>:
   15630:	00000213          	li	tp,0
   15634:	ff0100b7          	lui	ra,0xff010
   15638:	f0008093          	addi	ra,ra,-256 # ff00ff00 <heap_memory_used+0xfefee128>
   1563c:	00000013          	nop
   15640:	0f0f1137          	lui	sp,0xf0f1
   15644:	f0f10113          	addi	sp,sp,-241 # f0f0f0f <heap_memory_used+0xf0cf137>
   15648:	0020e1b3          	or	gp,ra,sp
   1564c:	00120213          	addi	tp,tp,1 # 1 <_start+0x1>
   15650:	00200293          	li	t0,2
   15654:	fe5210e3          	bne	tp,t0,15634 <test_15+0x4>
   15658:	ff100eb7          	lui	t4,0xff100
   1565c:	f0fe8e93          	addi	t4,t4,-241 # ff0fff0f <heap_memory_used+0xff0de137>
   15660:	00f00e13          	li	t3,15
   15664:	25d19063          	bne	gp,t4,158a4 <fail>

00015668 <test_16>:
   15668:	00000213          	li	tp,0
   1566c:	0ff010b7          	lui	ra,0xff01
   15670:	ff008093          	addi	ra,ra,-16 # ff00ff0 <heap_memory_used+0xfedf218>
   15674:	00000013          	nop
   15678:	f0f0f137          	lui	sp,0xf0f0f
   1567c:	0f010113          	addi	sp,sp,240 # f0f0f0f0 <heap_memory_used+0xf0eed318>
   15680:	00000013          	nop
   15684:	0020e1b3          	or	gp,ra,sp
   15688:	00120213          	addi	tp,tp,1 # 1 <_start+0x1>
   1568c:	00200293          	li	t0,2
   15690:	fc521ee3          	bne	tp,t0,1566c <test_16+0x4>
   15694:	fff10eb7          	lui	t4,0xfff10
   15698:	ff0e8e93          	addi	t4,t4,-16 # fff0fff0 <heap_memory_used+0xffeee218>
   1569c:	01000e13          	li	t3,16
   156a0:	21d19263          	bne	gp,t4,158a4 <fail>

000156a4 <test_17>:
   156a4:	00000213          	li	tp,0
   156a8:	00ff00b7          	lui	ra,0xff0
   156ac:	0ff08093          	addi	ra,ra,255 # ff00ff <heap_memory_used+0xfce327>
   156b0:	00000013          	nop
   156b4:	00000013          	nop
   156b8:	0f0f1137          	lui	sp,0xf0f1
   156bc:	f0f10113          	addi	sp,sp,-241 # f0f0f0f <heap_memory_used+0xf0cf137>
   156c0:	0020e1b3          	or	gp,ra,sp
   156c4:	00120213          	addi	tp,tp,1 # 1 <_start+0x1>
   156c8:	00200293          	li	t0,2
   156cc:	fc521ee3          	bne	tp,t0,156a8 <test_17+0x4>
   156d0:	0fff1eb7          	lui	t4,0xfff1
   156d4:	fffe8e93          	addi	t4,t4,-1 # fff0fff <heap_memory_used+0xffcf227>
   156d8:	01100e13          	li	t3,17
   156dc:	1dd19463          	bne	gp,t4,158a4 <fail>

000156e0 <test_18>:
   156e0:	00000213          	li	tp,0
   156e4:	0f0f1137          	lui	sp,0xf0f1
   156e8:	f0f10113          	addi	sp,sp,-241 # f0f0f0f <heap_memory_used+0xf0cf137>
   156ec:	ff0100b7          	lui	ra,0xff010
   156f0:	f0008093          	addi	ra,ra,-256 # ff00ff00 <heap_memory_used+0xfefee128>
   156f4:	0020e1b3          	or	gp,ra,sp
   156f8:	00120213          	addi	tp,tp,1 # 1 <_start+0x1>
   156fc:	00200293          	li	t0,2
   15700:	fe5212e3          	bne	tp,t0,156e4 <test_18+0x4>
   15704:	ff100eb7          	lui	t4,0xff100
   15708:	f0fe8e93          	addi	t4,t4,-241 # ff0fff0f <heap_memory_used+0xff0de137>
   1570c:	01200e13          	li	t3,18
   15710:	19d19a63          	bne	gp,t4,158a4 <fail>

00015714 <test_19>:
   15714:	00000213          	li	tp,0
   15718:	f0f0f137          	lui	sp,0xf0f0f
   1571c:	0f010113          	addi	sp,sp,240 # f0f0f0f0 <heap_memory_used+0xf0eed318>
   15720:	0ff010b7          	lui	ra,0xff01
   15724:	ff008093          	addi	ra,ra,-16 # ff00ff0 <heap_memory_used+0xfedf218>
   15728:	00000013          	nop
   1572c:	0020e1b3          	or	gp,ra,sp
   15730:	00120213          	addi	tp,tp,1 # 1 <_start+0x1>
   15734:	00200293          	li	t0,2
   15738:	fe5210e3          	bne	tp,t0,15718 <test_19+0x4>
   1573c:	fff10eb7          	lui	t4,0xfff10
   15740:	ff0e8e93          	addi	t4,t4,-16 # fff0fff0 <heap_memory_used+0xffeee218>
   15744:	01300e13          	li	t3,19
   15748:	15d19e63          	bne	gp,t4,158a4 <fail>

0001574c <test_20>:
   1574c:	00000213          	li	tp,0
   15750:	0f0f1137          	lui	sp,0xf0f1
   15754:	f0f10113          	addi	sp,sp,-241 # f0f0f0f <heap_memory_used+0xf0cf137>
   15758:	00ff00b7          	lui	ra,0xff0
   1575c:	0ff08093          	addi	ra,ra,255 # ff00ff <heap_memory_used+0xfce327>
   15760:	00000013          	nop
   15764:	00000013          	nop
   15768:	0020e1b3          	or	gp,ra,sp
   1576c:	00120213          	addi	tp,tp,1 # 1 <_start+0x1>
   15770:	00200293          	li	t0,2
   15774:	fc521ee3          	bne	tp,t0,15750 <test_20+0x4>
   15778:	0fff1eb7          	lui	t4,0xfff1
   1577c:	fffe8e93          	addi	t4,t4,-1 # fff0fff <heap_memory_used+0xffcf227>
   15780:	01400e13          	li	t3,20
   15784:	13d19063          	bne	gp,t4,158a4 <fail>

00015788 <test_21>:
   15788:	00000213          	li	tp,0
   1578c:	0f0f1137          	lui	sp,0xf0f1
   15790:	f0f10113          	addi	sp,sp,-241 # f0f0f0f <heap_memory_used+0xf0cf137>
   15794:	00000013          	nop
   15798:	ff0100b7          	lui	ra,0xff010
   1579c:	f0008093          	addi	ra,ra,-256 # ff00ff00 <heap_memory_used+0xfefee128>
   157a0:	0020e1b3          	or	gp,ra,sp
   157a4:	00120213          	addi	tp,tp,1 # 1 <_start+0x1>
   157a8:	00200293          	li	t0,2
   157ac:	fe5210e3          	bne	tp,t0,1578c <test_21+0x4>
   157b0:	ff100eb7          	lui	t4,0xff100
   157b4:	f0fe8e93          	addi	t4,t4,-241 # ff0fff0f <heap_memory_used+0xff0de137>
   157b8:	01500e13          	li	t3,21
   157bc:	0fd19463          	bne	gp,t4,158a4 <fail>

000157c0 <test_22>:
   157c0:	00000213          	li	tp,0
   157c4:	f0f0f137          	lui	sp,0xf0f0f
   157c8:	0f010113          	addi	sp,sp,240 # f0f0f0f0 <heap_memory_used+0xf0eed318>
   157cc:	00000013          	nop
   157d0:	0ff010b7          	lui	ra,0xff01
   157d4:	ff008093          	addi	ra,ra,-16 # ff00ff0 <heap_memory_used+0xfedf218>
   157d8:	00000013          	nop
   157dc:	0020e1b3          	or	gp,ra,sp
   157e0:	00120213          	addi	tp,tp,1 # 1 <_start+0x1>
   157e4:	00200293          	li	t0,2
   157e8:	fc521ee3          	bne	tp,t0,157c4 <test_22+0x4>
   157ec:	fff10eb7          	lui	t4,0xfff10
   157f0:	ff0e8e93          	addi	t4,t4,-16 # fff0fff0 <heap_memory_used+0xffeee218>
   157f4:	01600e13          	li	t3,22
   157f8:	0bd19663          	bne	gp,t4,158a4 <fail>

000157fc <test_23>:
   157fc:	00000213          	li	tp,0
   15800:	0f0f1137          	lui	sp,0xf0f1
   15804:	f0f10113          	addi	sp,sp,-241 # f0f0f0f <heap_memory_used+0xf0cf137>
   15808:	00000013          	nop
   1580c:	00000013          	nop
   15810:	00ff00b7          	lui	ra,0xff0
   15814:	0ff08093          	addi	ra,ra,255 # ff00ff <heap_memory_used+0xfce327>
   15818:	0020e1b3          	or	gp,ra,sp
   1581c:	00120213          	addi	tp,tp,1 # 1 <_start+0x1>
   15820:	00200293          	li	t0,2
   15824:	fc521ee3          	bne	tp,t0,15800 <test_23+0x4>
   15828:	0fff1eb7          	lui	t4,0xfff1
   1582c:	fffe8e93          	addi	t4,t4,-1 # fff0fff <heap_memory_used+0xffcf227>
   15830:	01700e13          	li	t3,23
   15834:	07d19863          	bne	gp,t4,158a4 <fail>

00015838 <test_24>:
   15838:	ff0100b7          	lui	ra,0xff010
   1583c:	f0008093          	addi	ra,ra,-256 # ff00ff00 <heap_memory_used+0xfefee128>
   15840:	00106133          	or	sp,zero,ra
   15844:	ff010eb7          	lui	t4,0xff010
   15848:	f00e8e93          	addi	t4,t4,-256 # ff00ff00 <heap_memory_used+0xfefee128>
   1584c:	01800e13          	li	t3,24
   15850:	05d11a63          	bne	sp,t4,158a4 <fail>

00015854 <test_25>:
   15854:	00ff00b7          	lui	ra,0xff0
   15858:	0ff08093          	addi	ra,ra,255 # ff00ff <heap_memory_used+0xfce327>
   1585c:	0000e133          	or	sp,ra,zero
   15860:	00ff0eb7          	lui	t4,0xff0
   15864:	0ffe8e93          	addi	t4,t4,255 # ff00ff <heap_memory_used+0xfce327>
   15868:	01900e13          	li	t3,25
   1586c:	03d11c63          	bne	sp,t4,158a4 <fail>

00015870 <test_26>:
   15870:	000060b3          	or	ra,zero,zero
   15874:	00000e93          	li	t4,0
   15878:	01a00e13          	li	t3,26
   1587c:	03d09463          	bne	ra,t4,158a4 <fail>

00015880 <test_27>:
   15880:	111110b7          	lui	ra,0x11111
   15884:	11108093          	addi	ra,ra,273 # 11111111 <heap_memory_used+0x110ef339>
   15888:	22222137          	lui	sp,0x22222
   1588c:	22210113          	addi	sp,sp,546 # 22222222 <heap_memory_used+0x2220044a>
   15890:	0020e033          	or	zero,ra,sp
   15894:	00000e93          	li	t4,0
   15898:	01b00e13          	li	t3,27
   1589c:	01d01463          	bne	zero,t4,158a4 <fail>
   158a0:	05c01863          	bne	zero,t3,158f0 <pass>

000158a4 <fail>:
   158a4:	04500513          	li	a0,69
   158a8:	00004137          	lui	sp,0x4
   158ac:	0dc080ef          	jal	ra,1d988 <printf_c>
   158b0:	05200513          	li	a0,82
   158b4:	00004137          	lui	sp,0x4
   158b8:	0d0080ef          	jal	ra,1d988 <printf_c>
   158bc:	00004137          	lui	sp,0x4
   158c0:	0c8080ef          	jal	ra,1d988 <printf_c>
   158c4:	04f00513          	li	a0,79
   158c8:	00004137          	lui	sp,0x4
   158cc:	0bc080ef          	jal	ra,1d988 <printf_c>
   158d0:	00004137          	lui	sp,0x4
   158d4:	05200513          	li	a0,82
   158d8:	00004137          	lui	sp,0x4
   158dc:	0ac080ef          	jal	ra,1d988 <printf_c>
   158e0:	00a00513          	li	a0,10
   158e4:	00004137          	lui	sp,0x4
   158e8:	0a0080ef          	jal	ra,1d988 <printf_c>
   158ec:	0340006f          	j	15920 <ori>

000158f0 <pass>:
   158f0:	04f00513          	li	a0,79
   158f4:	00004137          	lui	sp,0x4
   158f8:	090080ef          	jal	ra,1d988 <printf_c>
   158fc:	04b00513          	li	a0,75
   15900:	00004137          	lui	sp,0x4
   15904:	084080ef          	jal	ra,1d988 <printf_c>
   15908:	00a00513          	li	a0,10
   1590c:	00004137          	lui	sp,0x4
   15910:	078080ef          	jal	ra,1d988 <printf_c>
   15914:	00c0006f          	j	15920 <ori>

00015918 <.test_name>:
   15918:	2069726f          	jal	tp,acb1e <heap_memory_used+0x8ad46>
   1591c:	0009                	c.addi	zero,2
	...

00015920 <ori>:
   15920:	00016537          	lui	a0,0x16
   15924:	91850513          	addi	a0,a0,-1768 # 15918 <.test_name>

00015928 <.prname_next>:
   15928:	00004137          	lui	sp,0x4
   1592c:	074080ef          	jal	ra,1d9a0 <printf_s>

00015930 <test_2>:
   15930:	ff0100b7          	lui	ra,0xff010
   15934:	f0008093          	addi	ra,ra,-256 # ff00ff00 <heap_memory_used+0xfefee128>
   15938:	f0f0e193          	ori	gp,ra,-241
   1593c:	f0f00e93          	li	t4,-241
   15940:	00200e13          	li	t3,2
   15944:	1dd19463          	bne	gp,t4,15b0c <fail>

00015948 <test_3>:
   15948:	0ff010b7          	lui	ra,0xff01
   1594c:	ff008093          	addi	ra,ra,-16 # ff00ff0 <heap_memory_used+0xfedf218>
   15950:	0f00e193          	ori	gp,ra,240
   15954:	0ff01eb7          	lui	t4,0xff01
   15958:	ff0e8e93          	addi	t4,t4,-16 # ff00ff0 <heap_memory_used+0xfedf218>
   1595c:	00300e13          	li	t3,3
   15960:	1bd19663          	bne	gp,t4,15b0c <fail>

00015964 <test_4>:
   15964:	00ff00b7          	lui	ra,0xff0
   15968:	0ff08093          	addi	ra,ra,255 # ff00ff <heap_memory_used+0xfce327>
   1596c:	70f0e193          	ori	gp,ra,1807
   15970:	00ff0eb7          	lui	t4,0xff0
   15974:	7ffe8e93          	addi	t4,t4,2047 # ff07ff <heap_memory_used+0xfcea27>
   15978:	00400e13          	li	t3,4
   1597c:	19d19863          	bne	gp,t4,15b0c <fail>

00015980 <test_5>:
   15980:	f00ff0b7          	lui	ra,0xf00ff
   15984:	00f08093          	addi	ra,ra,15 # f00ff00f <heap_memory_used+0xf00dd237>
   15988:	0f00e193          	ori	gp,ra,240
   1598c:	f00ffeb7          	lui	t4,0xf00ff
   15990:	0ffe8e93          	addi	t4,t4,255 # f00ff0ff <heap_memory_used+0xf00dd327>
   15994:	00500e13          	li	t3,5
   15998:	17d19a63          	bne	gp,t4,15b0c <fail>

0001599c <test_6>:
   1599c:	ff0100b7          	lui	ra,0xff010
   159a0:	f0008093          	addi	ra,ra,-256 # ff00ff00 <heap_memory_used+0xfefee128>
   159a4:	0f00e093          	ori	ra,ra,240
   159a8:	ff010eb7          	lui	t4,0xff010
   159ac:	ff0e8e93          	addi	t4,t4,-16 # ff00fff0 <heap_memory_used+0xfefee218>
   159b0:	00600e13          	li	t3,6
   159b4:	15d09c63          	bne	ra,t4,15b0c <fail>

000159b8 <test_7>:
   159b8:	00000213          	li	tp,0
   159bc:	0ff010b7          	lui	ra,0xff01
   159c0:	ff008093          	addi	ra,ra,-16 # ff00ff0 <heap_memory_used+0xfedf218>
   159c4:	0f00e193          	ori	gp,ra,240
   159c8:	00018313          	mv	t1,gp
   159cc:	00120213          	addi	tp,tp,1 # 1 <_start+0x1>
   159d0:	00200293          	li	t0,2
   159d4:	fe5214e3          	bne	tp,t0,159bc <test_7+0x4>
   159d8:	0ff01eb7          	lui	t4,0xff01
   159dc:	ff0e8e93          	addi	t4,t4,-16 # ff00ff0 <heap_memory_used+0xfedf218>
   159e0:	00700e13          	li	t3,7
   159e4:	13d31463          	bne	t1,t4,15b0c <fail>

000159e8 <test_8>:
   159e8:	00000213          	li	tp,0
   159ec:	00ff00b7          	lui	ra,0xff0
   159f0:	0ff08093          	addi	ra,ra,255 # ff00ff <heap_memory_used+0xfce327>
   159f4:	70f0e193          	ori	gp,ra,1807
   159f8:	00000013          	nop
   159fc:	00018313          	mv	t1,gp
   15a00:	00120213          	addi	tp,tp,1 # 1 <_start+0x1>
   15a04:	00200293          	li	t0,2
   15a08:	fe5212e3          	bne	tp,t0,159ec <test_8+0x4>
   15a0c:	00ff0eb7          	lui	t4,0xff0
   15a10:	7ffe8e93          	addi	t4,t4,2047 # ff07ff <heap_memory_used+0xfcea27>
   15a14:	00800e13          	li	t3,8
   15a18:	0fd31a63          	bne	t1,t4,15b0c <fail>

00015a1c <test_9>:
   15a1c:	00000213          	li	tp,0
   15a20:	f00ff0b7          	lui	ra,0xf00ff
   15a24:	00f08093          	addi	ra,ra,15 # f00ff00f <heap_memory_used+0xf00dd237>
   15a28:	0f00e193          	ori	gp,ra,240
   15a2c:	00000013          	nop
   15a30:	00000013          	nop
   15a34:	00018313          	mv	t1,gp
   15a38:	00120213          	addi	tp,tp,1 # 1 <_start+0x1>
   15a3c:	00200293          	li	t0,2
   15a40:	fe5210e3          	bne	tp,t0,15a20 <test_9+0x4>
   15a44:	f00ffeb7          	lui	t4,0xf00ff
   15a48:	0ffe8e93          	addi	t4,t4,255 # f00ff0ff <heap_memory_used+0xf00dd327>
   15a4c:	00900e13          	li	t3,9
   15a50:	0bd31e63          	bne	t1,t4,15b0c <fail>

00015a54 <test_10>:
   15a54:	00000213          	li	tp,0
   15a58:	0ff010b7          	lui	ra,0xff01
   15a5c:	ff008093          	addi	ra,ra,-16 # ff00ff0 <heap_memory_used+0xfedf218>
   15a60:	0f00e193          	ori	gp,ra,240
   15a64:	00120213          	addi	tp,tp,1 # 1 <_start+0x1>
   15a68:	00200293          	li	t0,2
   15a6c:	fe5216e3          	bne	tp,t0,15a58 <test_10+0x4>
   15a70:	0ff01eb7          	lui	t4,0xff01
   15a74:	ff0e8e93          	addi	t4,t4,-16 # ff00ff0 <heap_memory_used+0xfedf218>
   15a78:	00a00e13          	li	t3,10
   15a7c:	09d19863          	bne	gp,t4,15b0c <fail>

00015a80 <test_11>:
   15a80:	00000213          	li	tp,0
   15a84:	00ff00b7          	lui	ra,0xff0
   15a88:	0ff08093          	addi	ra,ra,255 # ff00ff <heap_memory_used+0xfce327>
   15a8c:	00000013          	nop
   15a90:	f0f0e193          	ori	gp,ra,-241
   15a94:	00120213          	addi	tp,tp,1 # 1 <_start+0x1>
   15a98:	00200293          	li	t0,2
   15a9c:	fe5214e3          	bne	tp,t0,15a84 <test_11+0x4>
   15aa0:	fff00e93          	li	t4,-1
   15aa4:	00b00e13          	li	t3,11
   15aa8:	07d19263          	bne	gp,t4,15b0c <fail>

00015aac <test_12>:
   15aac:	00000213          	li	tp,0
   15ab0:	f00ff0b7          	lui	ra,0xf00ff
   15ab4:	00f08093          	addi	ra,ra,15 # f00ff00f <heap_memory_used+0xf00dd237>
   15ab8:	00000013          	nop
   15abc:	00000013          	nop
   15ac0:	0f00e193          	ori	gp,ra,240
   15ac4:	00120213          	addi	tp,tp,1 # 1 <_start+0x1>
   15ac8:	00200293          	li	t0,2
   15acc:	fe5212e3          	bne	tp,t0,15ab0 <test_12+0x4>
   15ad0:	f00ffeb7          	lui	t4,0xf00ff
   15ad4:	0ffe8e93          	addi	t4,t4,255 # f00ff0ff <heap_memory_used+0xf00dd327>
   15ad8:	00c00e13          	li	t3,12
   15adc:	03d19863          	bne	gp,t4,15b0c <fail>

00015ae0 <test_13>:
   15ae0:	0f006093          	ori	ra,zero,240
   15ae4:	0f000e93          	li	t4,240
   15ae8:	00d00e13          	li	t3,13
   15aec:	03d09063          	bne	ra,t4,15b0c <fail>

00015af0 <test_14>:
   15af0:	00ff00b7          	lui	ra,0xff0
   15af4:	0ff08093          	addi	ra,ra,255 # ff00ff <heap_memory_used+0xfce327>
   15af8:	70f0e013          	ori	zero,ra,1807
   15afc:	00000e93          	li	t4,0
   15b00:	00e00e13          	li	t3,14
   15b04:	01d01463          	bne	zero,t4,15b0c <fail>
   15b08:	05c01863          	bne	zero,t3,15b58 <pass>

00015b0c <fail>:
   15b0c:	04500513          	li	a0,69
   15b10:	00004137          	lui	sp,0x4
   15b14:	675070ef          	jal	ra,1d988 <printf_c>
   15b18:	05200513          	li	a0,82
   15b1c:	00004137          	lui	sp,0x4
   15b20:	669070ef          	jal	ra,1d988 <printf_c>
   15b24:	00004137          	lui	sp,0x4
   15b28:	661070ef          	jal	ra,1d988 <printf_c>
   15b2c:	04f00513          	li	a0,79
   15b30:	00004137          	lui	sp,0x4
   15b34:	655070ef          	jal	ra,1d988 <printf_c>
   15b38:	00004137          	lui	sp,0x4
   15b3c:	05200513          	li	a0,82
   15b40:	00004137          	lui	sp,0x4
   15b44:	645070ef          	jal	ra,1d988 <printf_c>
   15b48:	00a00513          	li	a0,10
   15b4c:	00004137          	lui	sp,0x4
   15b50:	639070ef          	jal	ra,1d988 <printf_c>
   15b54:	3000006f          	j	15e54 <sb>

00015b58 <pass>:
   15b58:	04f00513          	li	a0,79
   15b5c:	00004137          	lui	sp,0x4
   15b60:	629070ef          	jal	ra,1d988 <printf_c>
   15b64:	04b00513          	li	a0,75
   15b68:	00004137          	lui	sp,0x4
   15b6c:	61d070ef          	jal	ra,1d988 <printf_c>
   15b70:	00a00513          	li	a0,10
   15b74:	00004137          	lui	sp,0x4
   15b78:	611070ef          	jal	ra,1d988 <printf_c>
   15b7c:	2d80006f          	j	15e54 <sb>

00015b80 <.test_name>:
   15b80:	6572                	flw	fa0,28(sp)
   15b82:	206d                	jal	15c2c <test_8+0x4>
   15b84:	0009                	c.addi	zero,2
	...

00015b88 <rem>:
   15b88:	00016537          	lui	a0,0x16
   15b8c:	b8050513          	addi	a0,a0,-1152 # 15b80 <.test_name>

00015b90 <.prname_next>:
   15b90:	00004137          	lui	sp,0x4
   15b94:	60d070ef          	jal	ra,1d9a0 <printf_s>

00015b98 <test_2>:
   15b98:	01400093          	li	ra,20
   15b9c:	00600113          	li	sp,6
   15ba0:	0220e1b3          	rem	gp,ra,sp
   15ba4:	00200e93          	li	t4,2
   15ba8:	00200e13          	li	t3,2
   15bac:	0dd19463          	bne	gp,t4,15c74 <fail>

00015bb0 <test_3>:
   15bb0:	fec00093          	li	ra,-20
   15bb4:	00600113          	li	sp,6
   15bb8:	0220e1b3          	rem	gp,ra,sp
   15bbc:	ffe00e93          	li	t4,-2
   15bc0:	00300e13          	li	t3,3
   15bc4:	0bd19863          	bne	gp,t4,15c74 <fail>

00015bc8 <test_4>:
   15bc8:	01400093          	li	ra,20
   15bcc:	ffa00113          	li	sp,-6
   15bd0:	0220e1b3          	rem	gp,ra,sp
   15bd4:	00200e93          	li	t4,2
   15bd8:	00400e13          	li	t3,4
   15bdc:	09d19c63          	bne	gp,t4,15c74 <fail>

00015be0 <test_5>:
   15be0:	fec00093          	li	ra,-20
   15be4:	ffa00113          	li	sp,-6
   15be8:	0220e1b3          	rem	gp,ra,sp
   15bec:	ffe00e93          	li	t4,-2
   15bf0:	00500e13          	li	t3,5
   15bf4:	09d19063          	bne	gp,t4,15c74 <fail>

00015bf8 <test_6>:
   15bf8:	800000b7          	lui	ra,0x80000
   15bfc:	00100113          	li	sp,1
   15c00:	0220e1b3          	rem	gp,ra,sp
   15c04:	00000e93          	li	t4,0
   15c08:	00600e13          	li	t3,6
   15c0c:	07d19463          	bne	gp,t4,15c74 <fail>

00015c10 <test_7>:
   15c10:	800000b7          	lui	ra,0x80000
   15c14:	fff00113          	li	sp,-1
   15c18:	0220e1b3          	rem	gp,ra,sp
   15c1c:	00000e93          	li	t4,0
   15c20:	00700e13          	li	t3,7
   15c24:	05d19863          	bne	gp,t4,15c74 <fail>

00015c28 <test_8>:
   15c28:	800000b7          	lui	ra,0x80000
   15c2c:	00000113          	li	sp,0
   15c30:	0220e1b3          	rem	gp,ra,sp
   15c34:	80000eb7          	lui	t4,0x80000
   15c38:	00800e13          	li	t3,8
   15c3c:	03d19c63          	bne	gp,t4,15c74 <fail>

00015c40 <test_9>:
   15c40:	00100093          	li	ra,1
   15c44:	00000113          	li	sp,0
   15c48:	0220e1b3          	rem	gp,ra,sp
   15c4c:	00100e93          	li	t4,1
   15c50:	00900e13          	li	t3,9
   15c54:	03d19063          	bne	gp,t4,15c74 <fail>

00015c58 <test_10>:
   15c58:	00000093          	li	ra,0
   15c5c:	00000113          	li	sp,0
   15c60:	0220e1b3          	rem	gp,ra,sp
   15c64:	00000e93          	li	t4,0
   15c68:	00a00e13          	li	t3,10
   15c6c:	01d19463          	bne	gp,t4,15c74 <fail>
   15c70:	05c01863          	bne	zero,t3,15cc0 <pass>

00015c74 <fail>:
   15c74:	04500513          	li	a0,69
   15c78:	00004137          	lui	sp,0x4
   15c7c:	50d070ef          	jal	ra,1d988 <printf_c>
   15c80:	05200513          	li	a0,82
   15c84:	00004137          	lui	sp,0x4
   15c88:	501070ef          	jal	ra,1d988 <printf_c>
   15c8c:	00004137          	lui	sp,0x4
   15c90:	4f9070ef          	jal	ra,1d988 <printf_c>
   15c94:	04f00513          	li	a0,79
   15c98:	00004137          	lui	sp,0x4
   15c9c:	4ed070ef          	jal	ra,1d988 <printf_c>
   15ca0:	00004137          	lui	sp,0x4
   15ca4:	05200513          	li	a0,82
   15ca8:	00004137          	lui	sp,0x4
   15cac:	4dd070ef          	jal	ra,1d988 <printf_c>
   15cb0:	00a00513          	li	a0,10
   15cb4:	00004137          	lui	sp,0x4
   15cb8:	4d1070ef          	jal	ra,1d988 <printf_c>
   15cbc:	0340006f          	j	15cf0 <remu>

00015cc0 <pass>:
   15cc0:	04f00513          	li	a0,79
   15cc4:	00004137          	lui	sp,0x4
   15cc8:	4c1070ef          	jal	ra,1d988 <printf_c>
   15ccc:	04b00513          	li	a0,75
   15cd0:	00004137          	lui	sp,0x4
   15cd4:	4b5070ef          	jal	ra,1d988 <printf_c>
   15cd8:	00a00513          	li	a0,10
   15cdc:	00004137          	lui	sp,0x4
   15ce0:	4a9070ef          	jal	ra,1d988 <printf_c>
   15ce4:	00c0006f          	j	15cf0 <remu>

00015ce8 <.test_name>:
   15ce8:	6572                	flw	fa0,28(sp)
   15cea:	756d                	lui	a0,0xffffb
   15cec:	0009                	c.addi	zero,2
	...

00015cf0 <remu>:
   15cf0:	00016537          	lui	a0,0x16
   15cf4:	ce850513          	addi	a0,a0,-792 # 15ce8 <.test_name>

00015cf8 <.prname_next>:
   15cf8:	00004137          	lui	sp,0x4
   15cfc:	4a5070ef          	jal	ra,1d9a0 <printf_s>

00015d00 <test_2>:
   15d00:	01400093          	li	ra,20
   15d04:	00600113          	li	sp,6
   15d08:	0220f1b3          	remu	gp,ra,sp
   15d0c:	00200e93          	li	t4,2
   15d10:	00200e13          	li	t3,2
   15d14:	0dd19463          	bne	gp,t4,15ddc <fail>

00015d18 <test_3>:
   15d18:	fec00093          	li	ra,-20
   15d1c:	00600113          	li	sp,6
   15d20:	0220f1b3          	remu	gp,ra,sp
   15d24:	00200e93          	li	t4,2
   15d28:	00300e13          	li	t3,3
   15d2c:	0bd19863          	bne	gp,t4,15ddc <fail>

00015d30 <test_4>:
   15d30:	01400093          	li	ra,20
   15d34:	ffa00113          	li	sp,-6
   15d38:	0220f1b3          	remu	gp,ra,sp
   15d3c:	01400e93          	li	t4,20
   15d40:	00400e13          	li	t3,4
   15d44:	09d19c63          	bne	gp,t4,15ddc <fail>

00015d48 <test_5>:
   15d48:	fec00093          	li	ra,-20
   15d4c:	ffa00113          	li	sp,-6
   15d50:	0220f1b3          	remu	gp,ra,sp
   15d54:	fec00e93          	li	t4,-20
   15d58:	00500e13          	li	t3,5
   15d5c:	09d19063          	bne	gp,t4,15ddc <fail>

00015d60 <test_6>:
   15d60:	800000b7          	lui	ra,0x80000
   15d64:	00100113          	li	sp,1
   15d68:	0220f1b3          	remu	gp,ra,sp
   15d6c:	00000e93          	li	t4,0
   15d70:	00600e13          	li	t3,6
   15d74:	07d19463          	bne	gp,t4,15ddc <fail>

00015d78 <test_7>:
   15d78:	800000b7          	lui	ra,0x80000
   15d7c:	fff00113          	li	sp,-1
   15d80:	0220f1b3          	remu	gp,ra,sp
   15d84:	80000eb7          	lui	t4,0x80000
   15d88:	00700e13          	li	t3,7
   15d8c:	05d19863          	bne	gp,t4,15ddc <fail>

00015d90 <test_8>:
   15d90:	800000b7          	lui	ra,0x80000
   15d94:	00000113          	li	sp,0
   15d98:	0220f1b3          	remu	gp,ra,sp
   15d9c:	80000eb7          	lui	t4,0x80000
   15da0:	00800e13          	li	t3,8
   15da4:	03d19c63          	bne	gp,t4,15ddc <fail>

00015da8 <test_9>:
   15da8:	00100093          	li	ra,1
   15dac:	00000113          	li	sp,0
   15db0:	0220f1b3          	remu	gp,ra,sp
   15db4:	00100e93          	li	t4,1
   15db8:	00900e13          	li	t3,9
   15dbc:	03d19063          	bne	gp,t4,15ddc <fail>

00015dc0 <test_10>:
   15dc0:	00000093          	li	ra,0
   15dc4:	00000113          	li	sp,0
   15dc8:	0220f1b3          	remu	gp,ra,sp
   15dcc:	00000e93          	li	t4,0
   15dd0:	00a00e13          	li	t3,10
   15dd4:	01d19463          	bne	gp,t4,15ddc <fail>
   15dd8:	05c01863          	bne	zero,t3,15e28 <pass>

00015ddc <fail>:
   15ddc:	04500513          	li	a0,69
   15de0:	00004137          	lui	sp,0x4
   15de4:	3a5070ef          	jal	ra,1d988 <printf_c>
   15de8:	05200513          	li	a0,82
   15dec:	00004137          	lui	sp,0x4
   15df0:	399070ef          	jal	ra,1d988 <printf_c>
   15df4:	00004137          	lui	sp,0x4
   15df8:	391070ef          	jal	ra,1d988 <printf_c>
   15dfc:	04f00513          	li	a0,79
   15e00:	00004137          	lui	sp,0x4
   15e04:	385070ef          	jal	ra,1d988 <printf_c>
   15e08:	00004137          	lui	sp,0x4
   15e0c:	05200513          	li	a0,82
   15e10:	00004137          	lui	sp,0x4
   15e14:	375070ef          	jal	ra,1d988 <printf_c>
   15e18:	00a00513          	li	a0,10
   15e1c:	00004137          	lui	sp,0x4
   15e20:	369070ef          	jal	ra,1d988 <printf_c>
   15e24:	fb8fc06f          	j	125dc <csr>

00015e28 <pass>:
   15e28:	04f00513          	li	a0,79
   15e2c:	00004137          	lui	sp,0x4
   15e30:	359070ef          	jal	ra,1d988 <printf_c>
   15e34:	04b00513          	li	a0,75
   15e38:	00004137          	lui	sp,0x4
   15e3c:	34d070ef          	jal	ra,1d988 <printf_c>
   15e40:	00a00513          	li	a0,10
   15e44:	00004137          	lui	sp,0x4
   15e48:	341070ef          	jal	ra,1d988 <printf_c>
   15e4c:	f90fc06f          	j	125dc <csr>

00015e50 <.test_name>:
   15e50:	00096273          	csrrsi	tp,0x0,18

00015e54 <sb>:
   15e54:	00016537          	lui	a0,0x16
   15e58:	e5050513          	addi	a0,a0,-432 # 15e50 <.test_name>

00015e5c <.prname_next>:
   15e5c:	00004137          	lui	sp,0x4
   15e60:	341070ef          	jal	ra,1d9a0 <printf_s>

00015e64 <test_2>:
   15e64:	00009097          	auipc	ra,0x9
   15e68:	e9408093          	addi	ra,ra,-364 # 1ecf8 <tdat>
   15e6c:	faa00113          	li	sp,-86
   15e70:	00208023          	sb	sp,0(ra)
   15e74:	00008183          	lb	gp,0(ra)
   15e78:	faa00e93          	li	t4,-86
   15e7c:	00200e13          	li	t3,2
   15e80:	3dd19c63          	bne	gp,t4,16258 <fail>

00015e84 <test_3>:
   15e84:	00009097          	auipc	ra,0x9
   15e88:	e7408093          	addi	ra,ra,-396 # 1ecf8 <tdat>
   15e8c:	00000113          	li	sp,0
   15e90:	002080a3          	sb	sp,1(ra)
   15e94:	00108183          	lb	gp,1(ra)
   15e98:	00000e93          	li	t4,0
   15e9c:	00300e13          	li	t3,3
   15ea0:	3bd19c63          	bne	gp,t4,16258 <fail>

00015ea4 <test_4>:
   15ea4:	00009097          	auipc	ra,0x9
   15ea8:	e5408093          	addi	ra,ra,-428 # 1ecf8 <tdat>
   15eac:	fffff137          	lui	sp,0xfffff
   15eb0:	fa010113          	addi	sp,sp,-96 # ffffefa0 <heap_memory_used+0xfffdd1c8>
   15eb4:	00208123          	sb	sp,2(ra)
   15eb8:	00209183          	lh	gp,2(ra)
   15ebc:	fffffeb7          	lui	t4,0xfffff
   15ec0:	fa0e8e93          	addi	t4,t4,-96 # ffffefa0 <heap_memory_used+0xfffdd1c8>
   15ec4:	00400e13          	li	t3,4
   15ec8:	39d19863          	bne	gp,t4,16258 <fail>

00015ecc <test_5>:
   15ecc:	00009097          	auipc	ra,0x9
   15ed0:	e2c08093          	addi	ra,ra,-468 # 1ecf8 <tdat>
   15ed4:	00a00113          	li	sp,10
   15ed8:	002081a3          	sb	sp,3(ra)
   15edc:	00308183          	lb	gp,3(ra)
   15ee0:	00a00e93          	li	t4,10
   15ee4:	00500e13          	li	t3,5
   15ee8:	37d19863          	bne	gp,t4,16258 <fail>

00015eec <test_6>:
   15eec:	00009097          	auipc	ra,0x9
   15ef0:	e1308093          	addi	ra,ra,-493 # 1ecff <tdat8>
   15ef4:	faa00113          	li	sp,-86
   15ef8:	fe208ea3          	sb	sp,-3(ra)
   15efc:	ffd08183          	lb	gp,-3(ra)
   15f00:	faa00e93          	li	t4,-86
   15f04:	00600e13          	li	t3,6
   15f08:	35d19863          	bne	gp,t4,16258 <fail>

00015f0c <test_7>:
   15f0c:	00009097          	auipc	ra,0x9
   15f10:	df308093          	addi	ra,ra,-525 # 1ecff <tdat8>
   15f14:	00000113          	li	sp,0
   15f18:	fe208f23          	sb	sp,-2(ra)
   15f1c:	ffe08183          	lb	gp,-2(ra)
   15f20:	00000e93          	li	t4,0
   15f24:	00700e13          	li	t3,7
   15f28:	33d19863          	bne	gp,t4,16258 <fail>

00015f2c <test_8>:
   15f2c:	00009097          	auipc	ra,0x9
   15f30:	dd308093          	addi	ra,ra,-557 # 1ecff <tdat8>
   15f34:	fa000113          	li	sp,-96
   15f38:	fe208fa3          	sb	sp,-1(ra)
   15f3c:	fff08183          	lb	gp,-1(ra)
   15f40:	fa000e93          	li	t4,-96
   15f44:	00800e13          	li	t3,8
   15f48:	31d19863          	bne	gp,t4,16258 <fail>

00015f4c <test_9>:
   15f4c:	00009097          	auipc	ra,0x9
   15f50:	db308093          	addi	ra,ra,-589 # 1ecff <tdat8>
   15f54:	00a00113          	li	sp,10
   15f58:	00208023          	sb	sp,0(ra)
   15f5c:	00008183          	lb	gp,0(ra)
   15f60:	00a00e93          	li	t4,10
   15f64:	00900e13          	li	t3,9
   15f68:	2fd19863          	bne	gp,t4,16258 <fail>

00015f6c <test_10>:
   15f6c:	00009097          	auipc	ra,0x9
   15f70:	d9408093          	addi	ra,ra,-620 # 1ed00 <tdat9>
   15f74:	12345137          	lui	sp,0x12345
   15f78:	67810113          	addi	sp,sp,1656 # 12345678 <heap_memory_used+0x123238a0>
   15f7c:	fe008213          	addi	tp,ra,-32
   15f80:	02220023          	sb	sp,32(tp) # 20 <initReg+0x18>
   15f84:	00008183          	lb	gp,0(ra)
   15f88:	07800e93          	li	t4,120
   15f8c:	00a00e13          	li	t3,10
   15f90:	2dd19463          	bne	gp,t4,16258 <fail>

00015f94 <test_11>:
   15f94:	00009097          	auipc	ra,0x9
   15f98:	d6c08093          	addi	ra,ra,-660 # 1ed00 <tdat9>
   15f9c:	00003137          	lui	sp,0x3
   15fa0:	09810113          	addi	sp,sp,152 # 3098 <coremarkBenchmark+0x2ff0>
   15fa4:	ffa08093          	addi	ra,ra,-6
   15fa8:	002083a3          	sb	sp,7(ra)
   15fac:	00009217          	auipc	tp,0x9
   15fb0:	d5520213          	addi	tp,tp,-683 # 1ed01 <tdat10>
   15fb4:	00020183          	lb	gp,0(tp) # 0 <_start>
   15fb8:	f9800e93          	li	t4,-104
   15fbc:	00b00e13          	li	t3,11
   15fc0:	29d19c63          	bne	gp,t4,16258 <fail>

00015fc4 <test_12>:
   15fc4:	00c00e13          	li	t3,12
   15fc8:	00000213          	li	tp,0
   15fcc:	fdd00093          	li	ra,-35
   15fd0:	00009117          	auipc	sp,0x9
   15fd4:	d2810113          	addi	sp,sp,-728 # 1ecf8 <tdat>
   15fd8:	00110023          	sb	ra,0(sp)
   15fdc:	00010183          	lb	gp,0(sp)
   15fe0:	fdd00e93          	li	t4,-35
   15fe4:	27d19a63          	bne	gp,t4,16258 <fail>
   15fe8:	00120213          	addi	tp,tp,1 # 1 <_start+0x1>
   15fec:	00200293          	li	t0,2
   15ff0:	fc521ee3          	bne	tp,t0,15fcc <test_12+0x8>

00015ff4 <test_13>:
   15ff4:	00d00e13          	li	t3,13
   15ff8:	00000213          	li	tp,0
   15ffc:	fcd00093          	li	ra,-51
   16000:	00009117          	auipc	sp,0x9
   16004:	cf810113          	addi	sp,sp,-776 # 1ecf8 <tdat>
   16008:	00000013          	nop
   1600c:	001100a3          	sb	ra,1(sp)
   16010:	00110183          	lb	gp,1(sp)
   16014:	fcd00e93          	li	t4,-51
   16018:	25d19063          	bne	gp,t4,16258 <fail>
   1601c:	00120213          	addi	tp,tp,1 # 1 <_start+0x1>
   16020:	00200293          	li	t0,2
   16024:	fc521ce3          	bne	tp,t0,15ffc <test_13+0x8>

00016028 <test_14>:
   16028:	00e00e13          	li	t3,14
   1602c:	00000213          	li	tp,0
   16030:	fcc00093          	li	ra,-52
   16034:	00009117          	auipc	sp,0x9
   16038:	cc410113          	addi	sp,sp,-828 # 1ecf8 <tdat>
   1603c:	00000013          	nop
   16040:	00000013          	nop
   16044:	00110123          	sb	ra,2(sp)
   16048:	00210183          	lb	gp,2(sp)
   1604c:	fcc00e93          	li	t4,-52
   16050:	21d19463          	bne	gp,t4,16258 <fail>
   16054:	00120213          	addi	tp,tp,1 # 1 <_start+0x1>
   16058:	00200293          	li	t0,2
   1605c:	fc521ae3          	bne	tp,t0,16030 <test_14+0x8>

00016060 <test_15>:
   16060:	00f00e13          	li	t3,15
   16064:	00000213          	li	tp,0
   16068:	fbc00093          	li	ra,-68
   1606c:	00000013          	nop
   16070:	00009117          	auipc	sp,0x9
   16074:	c8810113          	addi	sp,sp,-888 # 1ecf8 <tdat>
   16078:	001101a3          	sb	ra,3(sp)
   1607c:	00310183          	lb	gp,3(sp)
   16080:	fbc00e93          	li	t4,-68
   16084:	1dd19a63          	bne	gp,t4,16258 <fail>
   16088:	00120213          	addi	tp,tp,1 # 1 <_start+0x1>
   1608c:	00200293          	li	t0,2
   16090:	fc521ce3          	bne	tp,t0,16068 <test_15+0x8>

00016094 <test_16>:
   16094:	01000e13          	li	t3,16
   16098:	00000213          	li	tp,0
   1609c:	fbb00093          	li	ra,-69
   160a0:	00000013          	nop
   160a4:	00009117          	auipc	sp,0x9
   160a8:	c5410113          	addi	sp,sp,-940 # 1ecf8 <tdat>
   160ac:	00000013          	nop
   160b0:	00110223          	sb	ra,4(sp)
   160b4:	00410183          	lb	gp,4(sp)
   160b8:	fbb00e93          	li	t4,-69
   160bc:	19d19e63          	bne	gp,t4,16258 <fail>
   160c0:	00120213          	addi	tp,tp,1 # 1 <_start+0x1>
   160c4:	00200293          	li	t0,2
   160c8:	fc521ae3          	bne	tp,t0,1609c <test_16+0x8>

000160cc <test_17>:
   160cc:	01100e13          	li	t3,17
   160d0:	00000213          	li	tp,0
   160d4:	fab00093          	li	ra,-85
   160d8:	00000013          	nop
   160dc:	00000013          	nop
   160e0:	00009117          	auipc	sp,0x9
   160e4:	c1810113          	addi	sp,sp,-1000 # 1ecf8 <tdat>
   160e8:	001102a3          	sb	ra,5(sp)
   160ec:	00510183          	lb	gp,5(sp)
   160f0:	fab00e93          	li	t4,-85
   160f4:	17d19263          	bne	gp,t4,16258 <fail>
   160f8:	00120213          	addi	tp,tp,1 # 1 <_start+0x1>
   160fc:	00200293          	li	t0,2
   16100:	fc521ae3          	bne	tp,t0,160d4 <test_17+0x8>

00016104 <test_18>:
   16104:	01200e13          	li	t3,18
   16108:	00000213          	li	tp,0
   1610c:	00009117          	auipc	sp,0x9
   16110:	bec10113          	addi	sp,sp,-1044 # 1ecf8 <tdat>
   16114:	03300093          	li	ra,51
   16118:	00110023          	sb	ra,0(sp)
   1611c:	00010183          	lb	gp,0(sp)
   16120:	03300e93          	li	t4,51
   16124:	13d19a63          	bne	gp,t4,16258 <fail>
   16128:	00120213          	addi	tp,tp,1 # 1 <_start+0x1>
   1612c:	00200293          	li	t0,2
   16130:	fc521ee3          	bne	tp,t0,1610c <test_18+0x8>

00016134 <test_19>:
   16134:	01300e13          	li	t3,19
   16138:	00000213          	li	tp,0
   1613c:	00009117          	auipc	sp,0x9
   16140:	bbc10113          	addi	sp,sp,-1092 # 1ecf8 <tdat>
   16144:	02300093          	li	ra,35
   16148:	00000013          	nop
   1614c:	001100a3          	sb	ra,1(sp)
   16150:	00110183          	lb	gp,1(sp)
   16154:	02300e93          	li	t4,35
   16158:	11d19063          	bne	gp,t4,16258 <fail>
   1615c:	00120213          	addi	tp,tp,1 # 1 <_start+0x1>
   16160:	00200293          	li	t0,2
   16164:	fc521ce3          	bne	tp,t0,1613c <test_19+0x8>

00016168 <test_20>:
   16168:	01400e13          	li	t3,20
   1616c:	00000213          	li	tp,0
   16170:	00009117          	auipc	sp,0x9
   16174:	b8810113          	addi	sp,sp,-1144 # 1ecf8 <tdat>
   16178:	02200093          	li	ra,34
   1617c:	00000013          	nop
   16180:	00000013          	nop
   16184:	00110123          	sb	ra,2(sp)
   16188:	00210183          	lb	gp,2(sp)
   1618c:	02200e93          	li	t4,34
   16190:	0dd19463          	bne	gp,t4,16258 <fail>
   16194:	00120213          	addi	tp,tp,1 # 1 <_start+0x1>
   16198:	00200293          	li	t0,2
   1619c:	fc521ae3          	bne	tp,t0,16170 <test_20+0x8>

000161a0 <test_21>:
   161a0:	01500e13          	li	t3,21
   161a4:	00000213          	li	tp,0
   161a8:	00009117          	auipc	sp,0x9
   161ac:	b5010113          	addi	sp,sp,-1200 # 1ecf8 <tdat>
   161b0:	00000013          	nop
   161b4:	01200093          	li	ra,18
   161b8:	001101a3          	sb	ra,3(sp)
   161bc:	00310183          	lb	gp,3(sp)
   161c0:	01200e93          	li	t4,18
   161c4:	09d19a63          	bne	gp,t4,16258 <fail>
   161c8:	00120213          	addi	tp,tp,1 # 1 <_start+0x1>
   161cc:	00200293          	li	t0,2
   161d0:	fc521ce3          	bne	tp,t0,161a8 <test_21+0x8>

000161d4 <test_22>:
   161d4:	01600e13          	li	t3,22
   161d8:	00000213          	li	tp,0
   161dc:	00009117          	auipc	sp,0x9
   161e0:	b1c10113          	addi	sp,sp,-1252 # 1ecf8 <tdat>
   161e4:	00000013          	nop
   161e8:	01100093          	li	ra,17
   161ec:	00000013          	nop
   161f0:	00110223          	sb	ra,4(sp)
   161f4:	00410183          	lb	gp,4(sp)
   161f8:	01100e93          	li	t4,17
   161fc:	05d19e63          	bne	gp,t4,16258 <fail>
   16200:	00120213          	addi	tp,tp,1 # 1 <_start+0x1>
   16204:	00200293          	li	t0,2
   16208:	fc521ae3          	bne	tp,t0,161dc <test_22+0x8>

0001620c <test_23>:
   1620c:	01700e13          	li	t3,23
   16210:	00000213          	li	tp,0
   16214:	00009117          	auipc	sp,0x9
   16218:	ae410113          	addi	sp,sp,-1308 # 1ecf8 <tdat>
   1621c:	00000013          	nop
   16220:	00000013          	nop
   16224:	00100093          	li	ra,1
   16228:	001102a3          	sb	ra,5(sp)
   1622c:	00510183          	lb	gp,5(sp)
   16230:	00100e93          	li	t4,1
   16234:	03d19263          	bne	gp,t4,16258 <fail>
   16238:	00120213          	addi	tp,tp,1 # 1 <_start+0x1>
   1623c:	00200293          	li	t0,2
   16240:	fc521ae3          	bne	tp,t0,16214 <test_23+0x8>
   16244:	0ef00513          	li	a0,239
   16248:	00009597          	auipc	a1,0x9
   1624c:	ab058593          	addi	a1,a1,-1360 # 1ecf8 <tdat>
   16250:	00a581a3          	sb	a0,3(a1)
   16254:	05c01863          	bne	zero,t3,162a4 <pass>

00016258 <fail>:
   16258:	04500513          	li	a0,69
   1625c:	00004137          	lui	sp,0x4
   16260:	728070ef          	jal	ra,1d988 <printf_c>
   16264:	05200513          	li	a0,82
   16268:	00004137          	lui	sp,0x4
   1626c:	71c070ef          	jal	ra,1d988 <printf_c>
   16270:	00004137          	lui	sp,0x4
   16274:	714070ef          	jal	ra,1d988 <printf_c>
   16278:	04f00513          	li	a0,79
   1627c:	00004137          	lui	sp,0x4
   16280:	708070ef          	jal	ra,1d988 <printf_c>
   16284:	00004137          	lui	sp,0x4
   16288:	05200513          	li	a0,82
   1628c:	00004137          	lui	sp,0x4
   16290:	6f8070ef          	jal	ra,1d988 <printf_c>
   16294:	00a00513          	li	a0,10
   16298:	00004137          	lui	sp,0x4
   1629c:	6ec070ef          	jal	ra,1d988 <printf_c>
   162a0:	0300006f          	j	162d0 <sh>

000162a4 <pass>:
   162a4:	04f00513          	li	a0,79
   162a8:	00004137          	lui	sp,0x4
   162ac:	6dc070ef          	jal	ra,1d988 <printf_c>
   162b0:	04b00513          	li	a0,75
   162b4:	00004137          	lui	sp,0x4
   162b8:	6d0070ef          	jal	ra,1d988 <printf_c>
   162bc:	00a00513          	li	a0,10
   162c0:	00004137          	lui	sp,0x4
   162c4:	6c4070ef          	jal	ra,1d988 <printf_c>
   162c8:	0080006f          	j	162d0 <sh>

000162cc <.test_name>:
   162cc:	00096873          	csrrsi	a6,0x0,18

000162d0 <sh>:
   162d0:	00016537          	lui	a0,0x16
   162d4:	2cc50513          	addi	a0,a0,716 # 162cc <.test_name>

000162d8 <.prname_next>:
   162d8:	00004137          	lui	sp,0x4
   162dc:	6c4070ef          	jal	ra,1d9a0 <printf_s>

000162e0 <test_2>:
   162e0:	00009097          	auipc	ra,0x9
   162e4:	a2408093          	addi	ra,ra,-1500 # 1ed04 <tdat>
   162e8:	0aa00113          	li	sp,170
   162ec:	00209023          	sh	sp,0(ra)
   162f0:	00009183          	lh	gp,0(ra)
   162f4:	0aa00e93          	li	t4,170
   162f8:	00200e13          	li	t3,2
   162fc:	45d19e63          	bne	gp,t4,16758 <fail>

00016300 <test_3>:
   16300:	00009097          	auipc	ra,0x9
   16304:	a0408093          	addi	ra,ra,-1532 # 1ed04 <tdat>
   16308:	ffffb137          	lui	sp,0xffffb
   1630c:	a0010113          	addi	sp,sp,-1536 # ffffaa00 <heap_memory_used+0xfffd8c28>
   16310:	00209123          	sh	sp,2(ra)
   16314:	00209183          	lh	gp,2(ra)
   16318:	ffffbeb7          	lui	t4,0xffffb
   1631c:	a00e8e93          	addi	t4,t4,-1536 # ffffaa00 <heap_memory_used+0xfffd8c28>
   16320:	00300e13          	li	t3,3
   16324:	43d19a63          	bne	gp,t4,16758 <fail>

00016328 <test_4>:
   16328:	00009097          	auipc	ra,0x9
   1632c:	9dc08093          	addi	ra,ra,-1572 # 1ed04 <tdat>
   16330:	beef1137          	lui	sp,0xbeef1
   16334:	aa010113          	addi	sp,sp,-1376 # beef0aa0 <heap_memory_used+0xbeececc8>
   16338:	00209223          	sh	sp,4(ra)
   1633c:	0040a183          	lw	gp,4(ra)
   16340:	beef1eb7          	lui	t4,0xbeef1
   16344:	aa0e8e93          	addi	t4,t4,-1376 # beef0aa0 <heap_memory_used+0xbeececc8>
   16348:	00400e13          	li	t3,4
   1634c:	41d19663          	bne	gp,t4,16758 <fail>

00016350 <test_5>:
   16350:	00009097          	auipc	ra,0x9
   16354:	9b408093          	addi	ra,ra,-1612 # 1ed04 <tdat>
   16358:	ffffa137          	lui	sp,0xffffa
   1635c:	00a10113          	addi	sp,sp,10 # ffffa00a <heap_memory_used+0xfffd8232>
   16360:	00209323          	sh	sp,6(ra)
   16364:	00609183          	lh	gp,6(ra)
   16368:	ffffaeb7          	lui	t4,0xffffa
   1636c:	00ae8e93          	addi	t4,t4,10 # ffffa00a <heap_memory_used+0xfffd8232>
   16370:	00500e13          	li	t3,5
   16374:	3fd19263          	bne	gp,t4,16758 <fail>

00016378 <test_6>:
   16378:	00009097          	auipc	ra,0x9
   1637c:	99a08093          	addi	ra,ra,-1638 # 1ed12 <tdat8>
   16380:	0aa00113          	li	sp,170
   16384:	fe209d23          	sh	sp,-6(ra)
   16388:	ffa09183          	lh	gp,-6(ra)
   1638c:	0aa00e93          	li	t4,170
   16390:	00600e13          	li	t3,6
   16394:	3dd19263          	bne	gp,t4,16758 <fail>

00016398 <test_7>:
   16398:	00009097          	auipc	ra,0x9
   1639c:	97a08093          	addi	ra,ra,-1670 # 1ed12 <tdat8>
   163a0:	ffffb137          	lui	sp,0xffffb
   163a4:	a0010113          	addi	sp,sp,-1536 # ffffaa00 <heap_memory_used+0xfffd8c28>
   163a8:	fe209e23          	sh	sp,-4(ra)
   163ac:	ffc09183          	lh	gp,-4(ra)
   163b0:	ffffbeb7          	lui	t4,0xffffb
   163b4:	a00e8e93          	addi	t4,t4,-1536 # ffffaa00 <heap_memory_used+0xfffd8c28>
   163b8:	00700e13          	li	t3,7
   163bc:	39d19e63          	bne	gp,t4,16758 <fail>

000163c0 <test_8>:
   163c0:	00009097          	auipc	ra,0x9
   163c4:	95208093          	addi	ra,ra,-1710 # 1ed12 <tdat8>
   163c8:	00001137          	lui	sp,0x1
   163cc:	aa010113          	addi	sp,sp,-1376 # aa0 <coremarkBenchmark+0x9f8>
   163d0:	fe209f23          	sh	sp,-2(ra)
   163d4:	ffe09183          	lh	gp,-2(ra)
   163d8:	00001eb7          	lui	t4,0x1
   163dc:	aa0e8e93          	addi	t4,t4,-1376 # aa0 <coremarkBenchmark+0x9f8>
   163e0:	00800e13          	li	t3,8
   163e4:	37d19a63          	bne	gp,t4,16758 <fail>

000163e8 <test_9>:
   163e8:	00009097          	auipc	ra,0x9
   163ec:	92a08093          	addi	ra,ra,-1750 # 1ed12 <tdat8>
   163f0:	ffffa137          	lui	sp,0xffffa
   163f4:	00a10113          	addi	sp,sp,10 # ffffa00a <heap_memory_used+0xfffd8232>
   163f8:	00209023          	sh	sp,0(ra)
   163fc:	00009183          	lh	gp,0(ra)
   16400:	ffffaeb7          	lui	t4,0xffffa
   16404:	00ae8e93          	addi	t4,t4,10 # ffffa00a <heap_memory_used+0xfffd8232>
   16408:	00900e13          	li	t3,9
   1640c:	35d19663          	bne	gp,t4,16758 <fail>

00016410 <test_10>:
   16410:	00009097          	auipc	ra,0x9
   16414:	90408093          	addi	ra,ra,-1788 # 1ed14 <tdat9>
   16418:	12345137          	lui	sp,0x12345
   1641c:	67810113          	addi	sp,sp,1656 # 12345678 <heap_memory_used+0x123238a0>
   16420:	fe008213          	addi	tp,ra,-32
   16424:	02221023          	sh	sp,32(tp) # 20 <initReg+0x18>
   16428:	00009183          	lh	gp,0(ra)
   1642c:	00005eb7          	lui	t4,0x5
   16430:	678e8e93          	addi	t4,t4,1656 # 5678 <coremarkBenchmark+0x55d0>
   16434:	00a00e13          	li	t3,10
   16438:	33d19063          	bne	gp,t4,16758 <fail>

0001643c <test_11>:
   1643c:	00009097          	auipc	ra,0x9
   16440:	8d808093          	addi	ra,ra,-1832 # 1ed14 <tdat9>
   16444:	00003137          	lui	sp,0x3
   16448:	09810113          	addi	sp,sp,152 # 3098 <coremarkBenchmark+0x2ff0>
   1644c:	ffb08093          	addi	ra,ra,-5
   16450:	002093a3          	sh	sp,7(ra)
   16454:	00009217          	auipc	tp,0x9
   16458:	8c220213          	addi	tp,tp,-1854 # 1ed16 <tdat10>
   1645c:	00021183          	lh	gp,0(tp) # 0 <_start>
   16460:	00003eb7          	lui	t4,0x3
   16464:	098e8e93          	addi	t4,t4,152 # 3098 <coremarkBenchmark+0x2ff0>
   16468:	00b00e13          	li	t3,11
   1646c:	2fd19663          	bne	gp,t4,16758 <fail>

00016470 <test_12>:
   16470:	00c00e13          	li	t3,12
   16474:	00000213          	li	tp,0
   16478:	ffffd0b7          	lui	ra,0xffffd
   1647c:	cdd08093          	addi	ra,ra,-803 # ffffccdd <heap_memory_used+0xfffdaf05>
   16480:	00009117          	auipc	sp,0x9
   16484:	88410113          	addi	sp,sp,-1916 # 1ed04 <tdat>
   16488:	00111023          	sh	ra,0(sp)
   1648c:	00011183          	lh	gp,0(sp)
   16490:	ffffdeb7          	lui	t4,0xffffd
   16494:	cdde8e93          	addi	t4,t4,-803 # ffffccdd <heap_memory_used+0xfffdaf05>
   16498:	2dd19063          	bne	gp,t4,16758 <fail>
   1649c:	00120213          	addi	tp,tp,1 # 1 <_start+0x1>
   164a0:	00200293          	li	t0,2
   164a4:	fc521ae3          	bne	tp,t0,16478 <test_12+0x8>

000164a8 <test_13>:
   164a8:	00d00e13          	li	t3,13
   164ac:	00000213          	li	tp,0
   164b0:	ffffc0b7          	lui	ra,0xffffc
   164b4:	ccd08093          	addi	ra,ra,-819 # ffffbccd <heap_memory_used+0xfffd9ef5>
   164b8:	00009117          	auipc	sp,0x9
   164bc:	84c10113          	addi	sp,sp,-1972 # 1ed04 <tdat>
   164c0:	00000013          	nop
   164c4:	00111123          	sh	ra,2(sp)
   164c8:	00211183          	lh	gp,2(sp)
   164cc:	ffffceb7          	lui	t4,0xffffc
   164d0:	ccde8e93          	addi	t4,t4,-819 # ffffbccd <heap_memory_used+0xfffd9ef5>
   164d4:	29d19263          	bne	gp,t4,16758 <fail>
   164d8:	00120213          	addi	tp,tp,1 # 1 <_start+0x1>
   164dc:	00200293          	li	t0,2
   164e0:	fc5218e3          	bne	tp,t0,164b0 <test_13+0x8>

000164e4 <test_14>:
   164e4:	00e00e13          	li	t3,14
   164e8:	00000213          	li	tp,0
   164ec:	ffffc0b7          	lui	ra,0xffffc
   164f0:	bcc08093          	addi	ra,ra,-1076 # ffffbbcc <heap_memory_used+0xfffd9df4>
   164f4:	00009117          	auipc	sp,0x9
   164f8:	81010113          	addi	sp,sp,-2032 # 1ed04 <tdat>
   164fc:	00000013          	nop
   16500:	00000013          	nop
   16504:	00111223          	sh	ra,4(sp)
   16508:	00411183          	lh	gp,4(sp)
   1650c:	ffffceb7          	lui	t4,0xffffc
   16510:	bcce8e93          	addi	t4,t4,-1076 # ffffbbcc <heap_memory_used+0xfffd9df4>
   16514:	25d19263          	bne	gp,t4,16758 <fail>
   16518:	00120213          	addi	tp,tp,1 # 1 <_start+0x1>
   1651c:	00200293          	li	t0,2
   16520:	fc5216e3          	bne	tp,t0,164ec <test_14+0x8>

00016524 <test_15>:
   16524:	00f00e13          	li	t3,15
   16528:	00000213          	li	tp,0
   1652c:	ffffb0b7          	lui	ra,0xffffb
   16530:	bbc08093          	addi	ra,ra,-1092 # ffffabbc <heap_memory_used+0xfffd8de4>
   16534:	00000013          	nop
   16538:	00008117          	auipc	sp,0x8
   1653c:	7cc10113          	addi	sp,sp,1996 # 1ed04 <tdat>
   16540:	00111323          	sh	ra,6(sp)
   16544:	00611183          	lh	gp,6(sp)
   16548:	ffffbeb7          	lui	t4,0xffffb
   1654c:	bbce8e93          	addi	t4,t4,-1092 # ffffabbc <heap_memory_used+0xfffd8de4>
   16550:	21d19463          	bne	gp,t4,16758 <fail>
   16554:	00120213          	addi	tp,tp,1 # 1 <_start+0x1>
   16558:	00200293          	li	t0,2
   1655c:	fc5218e3          	bne	tp,t0,1652c <test_15+0x8>

00016560 <test_16>:
   16560:	01000e13          	li	t3,16
   16564:	00000213          	li	tp,0
   16568:	ffffb0b7          	lui	ra,0xffffb
   1656c:	abb08093          	addi	ra,ra,-1349 # ffffaabb <heap_memory_used+0xfffd8ce3>
   16570:	00000013          	nop
   16574:	00008117          	auipc	sp,0x8
   16578:	79010113          	addi	sp,sp,1936 # 1ed04 <tdat>
   1657c:	00000013          	nop
   16580:	00111423          	sh	ra,8(sp)
   16584:	00811183          	lh	gp,8(sp)
   16588:	ffffbeb7          	lui	t4,0xffffb
   1658c:	abbe8e93          	addi	t4,t4,-1349 # ffffaabb <heap_memory_used+0xfffd8ce3>
   16590:	1dd19463          	bne	gp,t4,16758 <fail>
   16594:	00120213          	addi	tp,tp,1 # 1 <_start+0x1>
   16598:	00200293          	li	t0,2
   1659c:	fc5216e3          	bne	tp,t0,16568 <test_16+0x8>

000165a0 <test_17>:
   165a0:	01100e13          	li	t3,17
   165a4:	00000213          	li	tp,0
   165a8:	ffffe0b7          	lui	ra,0xffffe
   165ac:	aab08093          	addi	ra,ra,-1365 # ffffdaab <heap_memory_used+0xfffdbcd3>
   165b0:	00000013          	nop
   165b4:	00000013          	nop
   165b8:	00008117          	auipc	sp,0x8
   165bc:	74c10113          	addi	sp,sp,1868 # 1ed04 <tdat>
   165c0:	00111523          	sh	ra,10(sp)
   165c4:	00a11183          	lh	gp,10(sp)
   165c8:	ffffeeb7          	lui	t4,0xffffe
   165cc:	aabe8e93          	addi	t4,t4,-1365 # ffffdaab <heap_memory_used+0xfffdbcd3>
   165d0:	19d19463          	bne	gp,t4,16758 <fail>
   165d4:	00120213          	addi	tp,tp,1 # 1 <_start+0x1>
   165d8:	00200293          	li	t0,2
   165dc:	fc5216e3          	bne	tp,t0,165a8 <test_17+0x8>

000165e0 <test_18>:
   165e0:	01200e13          	li	t3,18
   165e4:	00000213          	li	tp,0
   165e8:	00008117          	auipc	sp,0x8
   165ec:	71c10113          	addi	sp,sp,1820 # 1ed04 <tdat>
   165f0:	000020b7          	lui	ra,0x2
   165f4:	23308093          	addi	ra,ra,563 # 2233 <coremarkBenchmark+0x218b>
   165f8:	00111023          	sh	ra,0(sp)
   165fc:	00011183          	lh	gp,0(sp)
   16600:	00002eb7          	lui	t4,0x2
   16604:	233e8e93          	addi	t4,t4,563 # 2233 <coremarkBenchmark+0x218b>
   16608:	15d19863          	bne	gp,t4,16758 <fail>
   1660c:	00120213          	addi	tp,tp,1 # 1 <_start+0x1>
   16610:	00200293          	li	t0,2
   16614:	fc521ae3          	bne	tp,t0,165e8 <test_18+0x8>

00016618 <test_19>:
   16618:	01300e13          	li	t3,19
   1661c:	00000213          	li	tp,0
   16620:	00008117          	auipc	sp,0x8
   16624:	6e410113          	addi	sp,sp,1764 # 1ed04 <tdat>
   16628:	000010b7          	lui	ra,0x1
   1662c:	22308093          	addi	ra,ra,547 # 1223 <coremarkBenchmark+0x117b>
   16630:	00000013          	nop
   16634:	00111123          	sh	ra,2(sp)
   16638:	00211183          	lh	gp,2(sp)
   1663c:	00001eb7          	lui	t4,0x1
   16640:	223e8e93          	addi	t4,t4,547 # 1223 <coremarkBenchmark+0x117b>
   16644:	11d19a63          	bne	gp,t4,16758 <fail>
   16648:	00120213          	addi	tp,tp,1 # 1 <_start+0x1>
   1664c:	00200293          	li	t0,2
   16650:	fc5218e3          	bne	tp,t0,16620 <test_19+0x8>

00016654 <test_20>:
   16654:	01400e13          	li	t3,20
   16658:	00000213          	li	tp,0
   1665c:	00008117          	auipc	sp,0x8
   16660:	6a810113          	addi	sp,sp,1704 # 1ed04 <tdat>
   16664:	000010b7          	lui	ra,0x1
   16668:	12208093          	addi	ra,ra,290 # 1122 <coremarkBenchmark+0x107a>
   1666c:	00000013          	nop
   16670:	00000013          	nop
   16674:	00111223          	sh	ra,4(sp)
   16678:	00411183          	lh	gp,4(sp)
   1667c:	00001eb7          	lui	t4,0x1
   16680:	122e8e93          	addi	t4,t4,290 # 1122 <coremarkBenchmark+0x107a>
   16684:	0dd19a63          	bne	gp,t4,16758 <fail>
   16688:	00120213          	addi	tp,tp,1 # 1 <_start+0x1>
   1668c:	00200293          	li	t0,2
   16690:	fc5216e3          	bne	tp,t0,1665c <test_20+0x8>

00016694 <test_21>:
   16694:	01500e13          	li	t3,21
   16698:	00000213          	li	tp,0
   1669c:	00008117          	auipc	sp,0x8
   166a0:	66810113          	addi	sp,sp,1640 # 1ed04 <tdat>
   166a4:	00000013          	nop
   166a8:	11200093          	li	ra,274
   166ac:	00111323          	sh	ra,6(sp)
   166b0:	00611183          	lh	gp,6(sp)
   166b4:	11200e93          	li	t4,274
   166b8:	0bd19063          	bne	gp,t4,16758 <fail>
   166bc:	00120213          	addi	tp,tp,1 # 1 <_start+0x1>
   166c0:	00200293          	li	t0,2
   166c4:	fc521ce3          	bne	tp,t0,1669c <test_21+0x8>

000166c8 <test_22>:
   166c8:	01600e13          	li	t3,22
   166cc:	00000213          	li	tp,0
   166d0:	00008117          	auipc	sp,0x8
   166d4:	63410113          	addi	sp,sp,1588 # 1ed04 <tdat>
   166d8:	00000013          	nop
   166dc:	01100093          	li	ra,17
   166e0:	00000013          	nop
   166e4:	00111423          	sh	ra,8(sp)
   166e8:	00811183          	lh	gp,8(sp)
   166ec:	01100e93          	li	t4,17
   166f0:	07d19463          	bne	gp,t4,16758 <fail>
   166f4:	00120213          	addi	tp,tp,1 # 1 <_start+0x1>
   166f8:	00200293          	li	t0,2
   166fc:	fc521ae3          	bne	tp,t0,166d0 <test_22+0x8>

00016700 <test_23>:
   16700:	01700e13          	li	t3,23
   16704:	00000213          	li	tp,0
   16708:	00008117          	auipc	sp,0x8
   1670c:	5fc10113          	addi	sp,sp,1532 # 1ed04 <tdat>
   16710:	00000013          	nop
   16714:	00000013          	nop
   16718:	000030b7          	lui	ra,0x3
   1671c:	00108093          	addi	ra,ra,1 # 3001 <coremarkBenchmark+0x2f59>
   16720:	00111523          	sh	ra,10(sp)
   16724:	00a11183          	lh	gp,10(sp)
   16728:	00003eb7          	lui	t4,0x3
   1672c:	001e8e93          	addi	t4,t4,1 # 3001 <coremarkBenchmark+0x2f59>
   16730:	03d19463          	bne	gp,t4,16758 <fail>
   16734:	00120213          	addi	tp,tp,1 # 1 <_start+0x1>
   16738:	00200293          	li	t0,2
   1673c:	fc5216e3          	bne	tp,t0,16708 <test_23+0x8>
   16740:	0000c537          	lui	a0,0xc
   16744:	eef50513          	addi	a0,a0,-273 # beef <coremarkBenchmark+0xbe47>
   16748:	00008597          	auipc	a1,0x8
   1674c:	5bc58593          	addi	a1,a1,1468 # 1ed04 <tdat>
   16750:	00a59323          	sh	a0,6(a1)
   16754:	05c01863          	bne	zero,t3,167a4 <pass>

00016758 <fail>:
   16758:	04500513          	li	a0,69
   1675c:	00004137          	lui	sp,0x4
   16760:	228070ef          	jal	ra,1d988 <printf_c>
   16764:	05200513          	li	a0,82
   16768:	00004137          	lui	sp,0x4
   1676c:	21c070ef          	jal	ra,1d988 <printf_c>
   16770:	00004137          	lui	sp,0x4
   16774:	214070ef          	jal	ra,1d988 <printf_c>
   16778:	04f00513          	li	a0,79
   1677c:	00004137          	lui	sp,0x4
   16780:	208070ef          	jal	ra,1d988 <printf_c>
   16784:	00004137          	lui	sp,0x4
   16788:	05200513          	li	a0,82
   1678c:	00004137          	lui	sp,0x4
   16790:	1f8070ef          	jal	ra,1d988 <printf_c>
   16794:	00a00513          	li	a0,10
   16798:	00004137          	lui	sp,0x4
   1679c:	1ec070ef          	jal	ra,1d988 <printf_c>
   167a0:	0340006f          	j	167d4 <sll>

000167a4 <pass>:
   167a4:	04f00513          	li	a0,79
   167a8:	00004137          	lui	sp,0x4
   167ac:	1dc070ef          	jal	ra,1d988 <printf_c>
   167b0:	04b00513          	li	a0,75
   167b4:	00004137          	lui	sp,0x4
   167b8:	1d0070ef          	jal	ra,1d988 <printf_c>
   167bc:	00a00513          	li	a0,10
   167c0:	00004137          	lui	sp,0x4
   167c4:	1c4070ef          	jal	ra,1d988 <printf_c>
   167c8:	00c0006f          	j	167d4 <sll>

000167cc <.test_name>:
   167cc:	206c6c73          	csrrsi	s8,0x206,24
   167d0:	0009                	c.addi	zero,2
	...

000167d4 <sll>:
   167d4:	00016537          	lui	a0,0x16
   167d8:	7cc50513          	addi	a0,a0,1996 # 167cc <.test_name>

000167dc <.prname_next>:
   167dc:	00004137          	lui	sp,0x4
   167e0:	1c0070ef          	jal	ra,1d9a0 <printf_s>

000167e4 <test_2>:
   167e4:	00100093          	li	ra,1
   167e8:	00000113          	li	sp,0
   167ec:	002091b3          	sll	gp,ra,sp
   167f0:	00100e93          	li	t4,1
   167f4:	00200e13          	li	t3,2
   167f8:	55d19c63          	bne	gp,t4,16d50 <fail>

000167fc <test_3>:
   167fc:	00100093          	li	ra,1
   16800:	00100113          	li	sp,1
   16804:	002091b3          	sll	gp,ra,sp
   16808:	00200e93          	li	t4,2
   1680c:	00300e13          	li	t3,3
   16810:	55d19063          	bne	gp,t4,16d50 <fail>

00016814 <test_4>:
   16814:	00100093          	li	ra,1
   16818:	00700113          	li	sp,7
   1681c:	002091b3          	sll	gp,ra,sp
   16820:	08000e93          	li	t4,128
   16824:	00400e13          	li	t3,4
   16828:	53d19463          	bne	gp,t4,16d50 <fail>

0001682c <test_5>:
   1682c:	00100093          	li	ra,1
   16830:	00e00113          	li	sp,14
   16834:	002091b3          	sll	gp,ra,sp
   16838:	00004eb7          	lui	t4,0x4
   1683c:	00500e13          	li	t3,5
   16840:	51d19863          	bne	gp,t4,16d50 <fail>

00016844 <test_6>:
   16844:	00100093          	li	ra,1
   16848:	01f00113          	li	sp,31
   1684c:	002091b3          	sll	gp,ra,sp
   16850:	80000eb7          	lui	t4,0x80000
   16854:	00600e13          	li	t3,6
   16858:	4fd19c63          	bne	gp,t4,16d50 <fail>

0001685c <test_7>:
   1685c:	fff00093          	li	ra,-1
   16860:	00000113          	li	sp,0
   16864:	002091b3          	sll	gp,ra,sp
   16868:	fff00e93          	li	t4,-1
   1686c:	00700e13          	li	t3,7
   16870:	4fd19063          	bne	gp,t4,16d50 <fail>

00016874 <test_8>:
   16874:	fff00093          	li	ra,-1
   16878:	00100113          	li	sp,1
   1687c:	002091b3          	sll	gp,ra,sp
   16880:	ffe00e93          	li	t4,-2
   16884:	00800e13          	li	t3,8
   16888:	4dd19463          	bne	gp,t4,16d50 <fail>

0001688c <test_9>:
   1688c:	fff00093          	li	ra,-1
   16890:	00700113          	li	sp,7
   16894:	002091b3          	sll	gp,ra,sp
   16898:	f8000e93          	li	t4,-128
   1689c:	00900e13          	li	t3,9
   168a0:	4bd19863          	bne	gp,t4,16d50 <fail>

000168a4 <test_10>:
   168a4:	fff00093          	li	ra,-1
   168a8:	00e00113          	li	sp,14
   168ac:	002091b3          	sll	gp,ra,sp
   168b0:	ffffceb7          	lui	t4,0xffffc
   168b4:	00a00e13          	li	t3,10
   168b8:	49d19c63          	bne	gp,t4,16d50 <fail>

000168bc <test_11>:
   168bc:	fff00093          	li	ra,-1
   168c0:	01f00113          	li	sp,31
   168c4:	002091b3          	sll	gp,ra,sp
   168c8:	80000eb7          	lui	t4,0x80000
   168cc:	00b00e13          	li	t3,11
   168d0:	49d19063          	bne	gp,t4,16d50 <fail>

000168d4 <test_12>:
   168d4:	212120b7          	lui	ra,0x21212
   168d8:	12108093          	addi	ra,ra,289 # 21212121 <heap_memory_used+0x211f0349>
   168dc:	00000113          	li	sp,0
   168e0:	002091b3          	sll	gp,ra,sp
   168e4:	21212eb7          	lui	t4,0x21212
   168e8:	121e8e93          	addi	t4,t4,289 # 21212121 <heap_memory_used+0x211f0349>
   168ec:	00c00e13          	li	t3,12
   168f0:	47d19063          	bne	gp,t4,16d50 <fail>

000168f4 <test_13>:
   168f4:	212120b7          	lui	ra,0x21212
   168f8:	12108093          	addi	ra,ra,289 # 21212121 <heap_memory_used+0x211f0349>
   168fc:	00100113          	li	sp,1
   16900:	002091b3          	sll	gp,ra,sp
   16904:	42424eb7          	lui	t4,0x42424
   16908:	242e8e93          	addi	t4,t4,578 # 42424242 <heap_memory_used+0x4240246a>
   1690c:	00d00e13          	li	t3,13
   16910:	45d19063          	bne	gp,t4,16d50 <fail>

00016914 <test_14>:
   16914:	212120b7          	lui	ra,0x21212
   16918:	12108093          	addi	ra,ra,289 # 21212121 <heap_memory_used+0x211f0349>
   1691c:	00700113          	li	sp,7
   16920:	002091b3          	sll	gp,ra,sp
   16924:	90909eb7          	lui	t4,0x90909
   16928:	080e8e93          	addi	t4,t4,128 # 90909080 <heap_memory_used+0x908e72a8>
   1692c:	00e00e13          	li	t3,14
   16930:	43d19063          	bne	gp,t4,16d50 <fail>

00016934 <test_15>:
   16934:	212120b7          	lui	ra,0x21212
   16938:	12108093          	addi	ra,ra,289 # 21212121 <heap_memory_used+0x211f0349>
   1693c:	00e00113          	li	sp,14
   16940:	002091b3          	sll	gp,ra,sp
   16944:	48484eb7          	lui	t4,0x48484
   16948:	00f00e13          	li	t3,15
   1694c:	41d19263          	bne	gp,t4,16d50 <fail>

00016950 <test_16>:
   16950:	212120b7          	lui	ra,0x21212
   16954:	12108093          	addi	ra,ra,289 # 21212121 <heap_memory_used+0x211f0349>
   16958:	01f00113          	li	sp,31
   1695c:	002091b3          	sll	gp,ra,sp
   16960:	80000eb7          	lui	t4,0x80000
   16964:	01000e13          	li	t3,16
   16968:	3fd19463          	bne	gp,t4,16d50 <fail>

0001696c <test_17>:
   1696c:	212120b7          	lui	ra,0x21212
   16970:	12108093          	addi	ra,ra,289 # 21212121 <heap_memory_used+0x211f0349>
   16974:	fe000113          	li	sp,-32
   16978:	002091b3          	sll	gp,ra,sp
   1697c:	21212eb7          	lui	t4,0x21212
   16980:	121e8e93          	addi	t4,t4,289 # 21212121 <heap_memory_used+0x211f0349>
   16984:	01100e13          	li	t3,17
   16988:	3dd19463          	bne	gp,t4,16d50 <fail>

0001698c <test_18>:
   1698c:	212120b7          	lui	ra,0x21212
   16990:	12108093          	addi	ra,ra,289 # 21212121 <heap_memory_used+0x211f0349>
   16994:	fe100113          	li	sp,-31
   16998:	002091b3          	sll	gp,ra,sp
   1699c:	42424eb7          	lui	t4,0x42424
   169a0:	242e8e93          	addi	t4,t4,578 # 42424242 <heap_memory_used+0x4240246a>
   169a4:	01200e13          	li	t3,18
   169a8:	3bd19463          	bne	gp,t4,16d50 <fail>

000169ac <test_19>:
   169ac:	212120b7          	lui	ra,0x21212
   169b0:	12108093          	addi	ra,ra,289 # 21212121 <heap_memory_used+0x211f0349>
   169b4:	fe700113          	li	sp,-25
   169b8:	002091b3          	sll	gp,ra,sp
   169bc:	90909eb7          	lui	t4,0x90909
   169c0:	080e8e93          	addi	t4,t4,128 # 90909080 <heap_memory_used+0x908e72a8>
   169c4:	01300e13          	li	t3,19
   169c8:	39d19463          	bne	gp,t4,16d50 <fail>

000169cc <test_20>:
   169cc:	212120b7          	lui	ra,0x21212
   169d0:	12108093          	addi	ra,ra,289 # 21212121 <heap_memory_used+0x211f0349>
   169d4:	fee00113          	li	sp,-18
   169d8:	002091b3          	sll	gp,ra,sp
   169dc:	48484eb7          	lui	t4,0x48484
   169e0:	01400e13          	li	t3,20
   169e4:	37d19663          	bne	gp,t4,16d50 <fail>

000169e8 <test_21>:
   169e8:	212120b7          	lui	ra,0x21212
   169ec:	12008093          	addi	ra,ra,288 # 21212120 <heap_memory_used+0x211f0348>
   169f0:	fff00113          	li	sp,-1
   169f4:	002091b3          	sll	gp,ra,sp
   169f8:	00000e93          	li	t4,0
   169fc:	01500e13          	li	t3,21
   16a00:	35d19863          	bne	gp,t4,16d50 <fail>

00016a04 <test_22>:
   16a04:	00100093          	li	ra,1
   16a08:	00700113          	li	sp,7
   16a0c:	002090b3          	sll	ra,ra,sp
   16a10:	08000e93          	li	t4,128
   16a14:	01600e13          	li	t3,22
   16a18:	33d09c63          	bne	ra,t4,16d50 <fail>

00016a1c <test_23>:
   16a1c:	00100093          	li	ra,1
   16a20:	00e00113          	li	sp,14
   16a24:	00209133          	sll	sp,ra,sp
   16a28:	00004eb7          	lui	t4,0x4
   16a2c:	01700e13          	li	t3,23
   16a30:	33d11063          	bne	sp,t4,16d50 <fail>

00016a34 <test_24>:
   16a34:	00300093          	li	ra,3
   16a38:	001090b3          	sll	ra,ra,ra
   16a3c:	01800e93          	li	t4,24
   16a40:	01800e13          	li	t3,24
   16a44:	31d09663          	bne	ra,t4,16d50 <fail>

00016a48 <test_25>:
   16a48:	00000213          	li	tp,0
   16a4c:	00100093          	li	ra,1
   16a50:	00700113          	li	sp,7
   16a54:	002091b3          	sll	gp,ra,sp
   16a58:	00018313          	mv	t1,gp
   16a5c:	00120213          	addi	tp,tp,1 # 1 <_start+0x1>
   16a60:	00200293          	li	t0,2
   16a64:	fe5214e3          	bne	tp,t0,16a4c <test_25+0x4>
   16a68:	08000e93          	li	t4,128
   16a6c:	01900e13          	li	t3,25
   16a70:	2fd31063          	bne	t1,t4,16d50 <fail>

00016a74 <test_26>:
   16a74:	00000213          	li	tp,0
   16a78:	00100093          	li	ra,1
   16a7c:	00e00113          	li	sp,14
   16a80:	002091b3          	sll	gp,ra,sp
   16a84:	00000013          	nop
   16a88:	00018313          	mv	t1,gp
   16a8c:	00120213          	addi	tp,tp,1 # 1 <_start+0x1>
   16a90:	00200293          	li	t0,2
   16a94:	fe5212e3          	bne	tp,t0,16a78 <test_26+0x4>
   16a98:	00004eb7          	lui	t4,0x4
   16a9c:	01a00e13          	li	t3,26
   16aa0:	2bd31863          	bne	t1,t4,16d50 <fail>

00016aa4 <test_27>:
   16aa4:	00000213          	li	tp,0
   16aa8:	00100093          	li	ra,1
   16aac:	01f00113          	li	sp,31
   16ab0:	002091b3          	sll	gp,ra,sp
   16ab4:	00000013          	nop
   16ab8:	00000013          	nop
   16abc:	00018313          	mv	t1,gp
   16ac0:	00120213          	addi	tp,tp,1 # 1 <_start+0x1>
   16ac4:	00200293          	li	t0,2
   16ac8:	fe5210e3          	bne	tp,t0,16aa8 <test_27+0x4>
   16acc:	80000eb7          	lui	t4,0x80000
   16ad0:	01b00e13          	li	t3,27
   16ad4:	27d31e63          	bne	t1,t4,16d50 <fail>

00016ad8 <test_28>:
   16ad8:	00000213          	li	tp,0
   16adc:	00100093          	li	ra,1
   16ae0:	00700113          	li	sp,7
   16ae4:	002091b3          	sll	gp,ra,sp
   16ae8:	00120213          	addi	tp,tp,1 # 1 <_start+0x1>
   16aec:	00200293          	li	t0,2
   16af0:	fe5216e3          	bne	tp,t0,16adc <test_28+0x4>
   16af4:	08000e93          	li	t4,128
   16af8:	01c00e13          	li	t3,28
   16afc:	25d19a63          	bne	gp,t4,16d50 <fail>

00016b00 <test_29>:
   16b00:	00000213          	li	tp,0
   16b04:	00100093          	li	ra,1
   16b08:	00e00113          	li	sp,14
   16b0c:	00000013          	nop
   16b10:	002091b3          	sll	gp,ra,sp
   16b14:	00120213          	addi	tp,tp,1 # 1 <_start+0x1>
   16b18:	00200293          	li	t0,2
   16b1c:	fe5214e3          	bne	tp,t0,16b04 <test_29+0x4>
   16b20:	00004eb7          	lui	t4,0x4
   16b24:	01d00e13          	li	t3,29
   16b28:	23d19463          	bne	gp,t4,16d50 <fail>

00016b2c <test_30>:
   16b2c:	00000213          	li	tp,0
   16b30:	00100093          	li	ra,1
   16b34:	01f00113          	li	sp,31
   16b38:	00000013          	nop
   16b3c:	00000013          	nop
   16b40:	002091b3          	sll	gp,ra,sp
   16b44:	00120213          	addi	tp,tp,1 # 1 <_start+0x1>
   16b48:	00200293          	li	t0,2
   16b4c:	fe5212e3          	bne	tp,t0,16b30 <test_30+0x4>
   16b50:	80000eb7          	lui	t4,0x80000
   16b54:	01e00e13          	li	t3,30
   16b58:	1fd19c63          	bne	gp,t4,16d50 <fail>

00016b5c <test_31>:
   16b5c:	00000213          	li	tp,0
   16b60:	00100093          	li	ra,1
   16b64:	00000013          	nop
   16b68:	00700113          	li	sp,7
   16b6c:	002091b3          	sll	gp,ra,sp
   16b70:	00120213          	addi	tp,tp,1 # 1 <_start+0x1>
   16b74:	00200293          	li	t0,2
   16b78:	fe5214e3          	bne	tp,t0,16b60 <test_31+0x4>
   16b7c:	08000e93          	li	t4,128
   16b80:	01f00e13          	li	t3,31
   16b84:	1dd19663          	bne	gp,t4,16d50 <fail>

00016b88 <test_32>:
   16b88:	00000213          	li	tp,0
   16b8c:	00100093          	li	ra,1
   16b90:	00000013          	nop
   16b94:	00e00113          	li	sp,14
   16b98:	00000013          	nop
   16b9c:	002091b3          	sll	gp,ra,sp
   16ba0:	00120213          	addi	tp,tp,1 # 1 <_start+0x1>
   16ba4:	00200293          	li	t0,2
   16ba8:	fe5212e3          	bne	tp,t0,16b8c <test_32+0x4>
   16bac:	00004eb7          	lui	t4,0x4
   16bb0:	02000e13          	li	t3,32
   16bb4:	19d19e63          	bne	gp,t4,16d50 <fail>

00016bb8 <test_33>:
   16bb8:	00000213          	li	tp,0
   16bbc:	00100093          	li	ra,1
   16bc0:	00000013          	nop
   16bc4:	00000013          	nop
   16bc8:	01f00113          	li	sp,31
   16bcc:	002091b3          	sll	gp,ra,sp
   16bd0:	00120213          	addi	tp,tp,1 # 1 <_start+0x1>
   16bd4:	00200293          	li	t0,2
   16bd8:	fe5212e3          	bne	tp,t0,16bbc <test_33+0x4>
   16bdc:	80000eb7          	lui	t4,0x80000
   16be0:	02100e13          	li	t3,33
   16be4:	17d19663          	bne	gp,t4,16d50 <fail>

00016be8 <test_34>:
   16be8:	00000213          	li	tp,0
   16bec:	00700113          	li	sp,7
   16bf0:	00100093          	li	ra,1
   16bf4:	002091b3          	sll	gp,ra,sp
   16bf8:	00120213          	addi	tp,tp,1 # 1 <_start+0x1>
   16bfc:	00200293          	li	t0,2
   16c00:	fe5216e3          	bne	tp,t0,16bec <test_34+0x4>
   16c04:	08000e93          	li	t4,128
   16c08:	02200e13          	li	t3,34
   16c0c:	15d19263          	bne	gp,t4,16d50 <fail>

00016c10 <test_35>:
   16c10:	00000213          	li	tp,0
   16c14:	00e00113          	li	sp,14
   16c18:	00100093          	li	ra,1
   16c1c:	00000013          	nop
   16c20:	002091b3          	sll	gp,ra,sp
   16c24:	00120213          	addi	tp,tp,1 # 1 <_start+0x1>
   16c28:	00200293          	li	t0,2
   16c2c:	fe5214e3          	bne	tp,t0,16c14 <test_35+0x4>
   16c30:	00004eb7          	lui	t4,0x4
   16c34:	02300e13          	li	t3,35
   16c38:	11d19c63          	bne	gp,t4,16d50 <fail>

00016c3c <test_36>:
   16c3c:	00000213          	li	tp,0
   16c40:	01f00113          	li	sp,31
   16c44:	00100093          	li	ra,1
   16c48:	00000013          	nop
   16c4c:	00000013          	nop
   16c50:	002091b3          	sll	gp,ra,sp
   16c54:	00120213          	addi	tp,tp,1 # 1 <_start+0x1>
   16c58:	00200293          	li	t0,2
   16c5c:	fe5212e3          	bne	tp,t0,16c40 <test_36+0x4>
   16c60:	80000eb7          	lui	t4,0x80000
   16c64:	02400e13          	li	t3,36
   16c68:	0fd19463          	bne	gp,t4,16d50 <fail>

00016c6c <test_37>:
   16c6c:	00000213          	li	tp,0
   16c70:	00700113          	li	sp,7
   16c74:	00000013          	nop
   16c78:	00100093          	li	ra,1
   16c7c:	002091b3          	sll	gp,ra,sp
   16c80:	00120213          	addi	tp,tp,1 # 1 <_start+0x1>
   16c84:	00200293          	li	t0,2
   16c88:	fe5214e3          	bne	tp,t0,16c70 <test_37+0x4>
   16c8c:	08000e93          	li	t4,128
   16c90:	02500e13          	li	t3,37
   16c94:	0bd19e63          	bne	gp,t4,16d50 <fail>

00016c98 <test_38>:
   16c98:	00000213          	li	tp,0
   16c9c:	00e00113          	li	sp,14
   16ca0:	00000013          	nop
   16ca4:	00100093          	li	ra,1
   16ca8:	00000013          	nop
   16cac:	002091b3          	sll	gp,ra,sp
   16cb0:	00120213          	addi	tp,tp,1 # 1 <_start+0x1>
   16cb4:	00200293          	li	t0,2
   16cb8:	fe5212e3          	bne	tp,t0,16c9c <test_38+0x4>
   16cbc:	00004eb7          	lui	t4,0x4
   16cc0:	02600e13          	li	t3,38
   16cc4:	09d19663          	bne	gp,t4,16d50 <fail>

00016cc8 <test_39>:
   16cc8:	00000213          	li	tp,0
   16ccc:	01f00113          	li	sp,31
   16cd0:	00000013          	nop
   16cd4:	00000013          	nop
   16cd8:	00100093          	li	ra,1
   16cdc:	002091b3          	sll	gp,ra,sp
   16ce0:	00120213          	addi	tp,tp,1 # 1 <_start+0x1>
   16ce4:	00200293          	li	t0,2
   16ce8:	fe5212e3          	bne	tp,t0,16ccc <test_39+0x4>
   16cec:	80000eb7          	lui	t4,0x80000
   16cf0:	02700e13          	li	t3,39
   16cf4:	05d19e63          	bne	gp,t4,16d50 <fail>

00016cf8 <test_40>:
   16cf8:	00f00093          	li	ra,15
   16cfc:	00101133          	sll	sp,zero,ra
   16d00:	00000e93          	li	t4,0
   16d04:	02800e13          	li	t3,40
   16d08:	05d11463          	bne	sp,t4,16d50 <fail>

00016d0c <test_41>:
   16d0c:	02000093          	li	ra,32
   16d10:	00009133          	sll	sp,ra,zero
   16d14:	02000e93          	li	t4,32
   16d18:	02900e13          	li	t3,41
   16d1c:	03d11a63          	bne	sp,t4,16d50 <fail>

00016d20 <test_42>:
   16d20:	000010b3          	sll	ra,zero,zero
   16d24:	00000e93          	li	t4,0
   16d28:	02a00e13          	li	t3,42
   16d2c:	03d09263          	bne	ra,t4,16d50 <fail>

00016d30 <test_43>:
   16d30:	40000093          	li	ra,1024
   16d34:	00001137          	lui	sp,0x1
   16d38:	80010113          	addi	sp,sp,-2048 # 800 <coremarkBenchmark+0x758>
   16d3c:	00209033          	sll	zero,ra,sp
   16d40:	00000e93          	li	t4,0
   16d44:	02b00e13          	li	t3,43
   16d48:	01d01463          	bne	zero,t4,16d50 <fail>
   16d4c:	05c01863          	bne	zero,t3,16d9c <pass>

00016d50 <fail>:
   16d50:	04500513          	li	a0,69
   16d54:	00004137          	lui	sp,0x4
   16d58:	431060ef          	jal	ra,1d988 <printf_c>
   16d5c:	05200513          	li	a0,82
   16d60:	00004137          	lui	sp,0x4
   16d64:	425060ef          	jal	ra,1d988 <printf_c>
   16d68:	00004137          	lui	sp,0x4
   16d6c:	41d060ef          	jal	ra,1d988 <printf_c>
   16d70:	04f00513          	li	a0,79
   16d74:	00004137          	lui	sp,0x4
   16d78:	411060ef          	jal	ra,1d988 <printf_c>
   16d7c:	00004137          	lui	sp,0x4
   16d80:	05200513          	li	a0,82
   16d84:	00004137          	lui	sp,0x4
   16d88:	401060ef          	jal	ra,1d988 <printf_c>
   16d8c:	00a00513          	li	a0,10
   16d90:	00004137          	lui	sp,0x4
   16d94:	3f5060ef          	jal	ra,1d988 <printf_c>
   16d98:	0340006f          	j	16dcc <slli>

00016d9c <pass>:
   16d9c:	04f00513          	li	a0,79
   16da0:	00004137          	lui	sp,0x4
   16da4:	3e5060ef          	jal	ra,1d988 <printf_c>
   16da8:	04b00513          	li	a0,75
   16dac:	00004137          	lui	sp,0x4
   16db0:	3d9060ef          	jal	ra,1d988 <printf_c>
   16db4:	00a00513          	li	a0,10
   16db8:	00004137          	lui	sp,0x4
   16dbc:	3cd060ef          	jal	ra,1d988 <printf_c>
   16dc0:	00c0006f          	j	16dcc <slli>

00016dc4 <.test_name>:
   16dc4:	696c6c73          	csrrsi	s8,0x696,24
   16dc8:	0920                	addi	s0,sp,152
	...

00016dcc <slli>:
   16dcc:	00017537          	lui	a0,0x17
   16dd0:	dc450513          	addi	a0,a0,-572 # 16dc4 <.test_name>

00016dd4 <.prname_next>:
   16dd4:	00004137          	lui	sp,0x4
   16dd8:	3c9060ef          	jal	ra,1d9a0 <printf_s>

00016ddc <test_2>:
   16ddc:	00100093          	li	ra,1
   16de0:	00009193          	slli	gp,ra,0x0
   16de4:	00100e93          	li	t4,1
   16de8:	00200e13          	li	t3,2
   16dec:	27d19a63          	bne	gp,t4,17060 <fail>

00016df0 <test_3>:
   16df0:	00100093          	li	ra,1
   16df4:	00109193          	slli	gp,ra,0x1
   16df8:	00200e93          	li	t4,2
   16dfc:	00300e13          	li	t3,3
   16e00:	27d19063          	bne	gp,t4,17060 <fail>

00016e04 <test_4>:
   16e04:	00100093          	li	ra,1
   16e08:	00709193          	slli	gp,ra,0x7
   16e0c:	08000e93          	li	t4,128
   16e10:	00400e13          	li	t3,4
   16e14:	25d19663          	bne	gp,t4,17060 <fail>

00016e18 <test_5>:
   16e18:	00100093          	li	ra,1
   16e1c:	00e09193          	slli	gp,ra,0xe
   16e20:	00004eb7          	lui	t4,0x4
   16e24:	00500e13          	li	t3,5
   16e28:	23d19c63          	bne	gp,t4,17060 <fail>

00016e2c <test_6>:
   16e2c:	00100093          	li	ra,1
   16e30:	01f09193          	slli	gp,ra,0x1f
   16e34:	80000eb7          	lui	t4,0x80000
   16e38:	00600e13          	li	t3,6
   16e3c:	23d19263          	bne	gp,t4,17060 <fail>

00016e40 <test_7>:
   16e40:	fff00093          	li	ra,-1
   16e44:	00009193          	slli	gp,ra,0x0
   16e48:	fff00e93          	li	t4,-1
   16e4c:	00700e13          	li	t3,7
   16e50:	21d19863          	bne	gp,t4,17060 <fail>

00016e54 <test_8>:
   16e54:	fff00093          	li	ra,-1
   16e58:	00109193          	slli	gp,ra,0x1
   16e5c:	ffe00e93          	li	t4,-2
   16e60:	00800e13          	li	t3,8
   16e64:	1fd19e63          	bne	gp,t4,17060 <fail>

00016e68 <test_9>:
   16e68:	fff00093          	li	ra,-1
   16e6c:	00709193          	slli	gp,ra,0x7
   16e70:	f8000e93          	li	t4,-128
   16e74:	00900e13          	li	t3,9
   16e78:	1fd19463          	bne	gp,t4,17060 <fail>

00016e7c <test_10>:
   16e7c:	fff00093          	li	ra,-1
   16e80:	00e09193          	slli	gp,ra,0xe
   16e84:	ffffceb7          	lui	t4,0xffffc
   16e88:	00a00e13          	li	t3,10
   16e8c:	1dd19a63          	bne	gp,t4,17060 <fail>

00016e90 <test_11>:
   16e90:	fff00093          	li	ra,-1
   16e94:	01f09193          	slli	gp,ra,0x1f
   16e98:	80000eb7          	lui	t4,0x80000
   16e9c:	00b00e13          	li	t3,11
   16ea0:	1dd19063          	bne	gp,t4,17060 <fail>

00016ea4 <test_12>:
   16ea4:	212120b7          	lui	ra,0x21212
   16ea8:	12108093          	addi	ra,ra,289 # 21212121 <heap_memory_used+0x211f0349>
   16eac:	00009193          	slli	gp,ra,0x0
   16eb0:	21212eb7          	lui	t4,0x21212
   16eb4:	121e8e93          	addi	t4,t4,289 # 21212121 <heap_memory_used+0x211f0349>
   16eb8:	00c00e13          	li	t3,12
   16ebc:	1bd19263          	bne	gp,t4,17060 <fail>

00016ec0 <test_13>:
   16ec0:	212120b7          	lui	ra,0x21212
   16ec4:	12108093          	addi	ra,ra,289 # 21212121 <heap_memory_used+0x211f0349>
   16ec8:	00109193          	slli	gp,ra,0x1
   16ecc:	42424eb7          	lui	t4,0x42424
   16ed0:	242e8e93          	addi	t4,t4,578 # 42424242 <heap_memory_used+0x4240246a>
   16ed4:	00d00e13          	li	t3,13
   16ed8:	19d19463          	bne	gp,t4,17060 <fail>

00016edc <test_14>:
   16edc:	212120b7          	lui	ra,0x21212
   16ee0:	12108093          	addi	ra,ra,289 # 21212121 <heap_memory_used+0x211f0349>
   16ee4:	00709193          	slli	gp,ra,0x7
   16ee8:	90909eb7          	lui	t4,0x90909
   16eec:	080e8e93          	addi	t4,t4,128 # 90909080 <heap_memory_used+0x908e72a8>
   16ef0:	00e00e13          	li	t3,14
   16ef4:	17d19663          	bne	gp,t4,17060 <fail>

00016ef8 <test_15>:
   16ef8:	212120b7          	lui	ra,0x21212
   16efc:	12108093          	addi	ra,ra,289 # 21212121 <heap_memory_used+0x211f0349>
   16f00:	00e09193          	slli	gp,ra,0xe
   16f04:	48484eb7          	lui	t4,0x48484
   16f08:	00f00e13          	li	t3,15
   16f0c:	15d19a63          	bne	gp,t4,17060 <fail>

00016f10 <test_16>:
   16f10:	212120b7          	lui	ra,0x21212
   16f14:	12108093          	addi	ra,ra,289 # 21212121 <heap_memory_used+0x211f0349>
   16f18:	01f09193          	slli	gp,ra,0x1f
   16f1c:	80000eb7          	lui	t4,0x80000
   16f20:	01000e13          	li	t3,16
   16f24:	13d19e63          	bne	gp,t4,17060 <fail>

00016f28 <test_17>:
   16f28:	00100093          	li	ra,1
   16f2c:	00709093          	slli	ra,ra,0x7
   16f30:	08000e93          	li	t4,128
   16f34:	01100e13          	li	t3,17
   16f38:	13d09463          	bne	ra,t4,17060 <fail>

00016f3c <test_18>:
   16f3c:	00000213          	li	tp,0
   16f40:	00100093          	li	ra,1
   16f44:	00709193          	slli	gp,ra,0x7
   16f48:	00018313          	mv	t1,gp
   16f4c:	00120213          	addi	tp,tp,1 # 1 <_start+0x1>
   16f50:	00200293          	li	t0,2
   16f54:	fe5216e3          	bne	tp,t0,16f40 <test_18+0x4>
   16f58:	08000e93          	li	t4,128
   16f5c:	01200e13          	li	t3,18
   16f60:	11d31063          	bne	t1,t4,17060 <fail>

00016f64 <test_19>:
   16f64:	00000213          	li	tp,0
   16f68:	00100093          	li	ra,1
   16f6c:	00e09193          	slli	gp,ra,0xe
   16f70:	00000013          	nop
   16f74:	00018313          	mv	t1,gp
   16f78:	00120213          	addi	tp,tp,1 # 1 <_start+0x1>
   16f7c:	00200293          	li	t0,2
   16f80:	fe5214e3          	bne	tp,t0,16f68 <test_19+0x4>
   16f84:	00004eb7          	lui	t4,0x4
   16f88:	01300e13          	li	t3,19
   16f8c:	0dd31a63          	bne	t1,t4,17060 <fail>

00016f90 <test_20>:
   16f90:	00000213          	li	tp,0
   16f94:	00100093          	li	ra,1
   16f98:	01f09193          	slli	gp,ra,0x1f
   16f9c:	00000013          	nop
   16fa0:	00000013          	nop
   16fa4:	00018313          	mv	t1,gp
   16fa8:	00120213          	addi	tp,tp,1 # 1 <_start+0x1>
   16fac:	00200293          	li	t0,2
   16fb0:	fe5212e3          	bne	tp,t0,16f94 <test_20+0x4>
   16fb4:	80000eb7          	lui	t4,0x80000
   16fb8:	01400e13          	li	t3,20
   16fbc:	0bd31263          	bne	t1,t4,17060 <fail>

00016fc0 <test_21>:
   16fc0:	00000213          	li	tp,0
   16fc4:	00100093          	li	ra,1
   16fc8:	00709193          	slli	gp,ra,0x7
   16fcc:	00120213          	addi	tp,tp,1 # 1 <_start+0x1>
   16fd0:	00200293          	li	t0,2
   16fd4:	fe5218e3          	bne	tp,t0,16fc4 <test_21+0x4>
   16fd8:	08000e93          	li	t4,128
   16fdc:	01500e13          	li	t3,21
   16fe0:	09d19063          	bne	gp,t4,17060 <fail>

00016fe4 <test_22>:
   16fe4:	00000213          	li	tp,0
   16fe8:	00100093          	li	ra,1
   16fec:	00000013          	nop
   16ff0:	00e09193          	slli	gp,ra,0xe
   16ff4:	00120213          	addi	tp,tp,1 # 1 <_start+0x1>
   16ff8:	00200293          	li	t0,2
   16ffc:	fe5216e3          	bne	tp,t0,16fe8 <test_22+0x4>
   17000:	00004eb7          	lui	t4,0x4
   17004:	01600e13          	li	t3,22
   17008:	05d19c63          	bne	gp,t4,17060 <fail>

0001700c <test_23>:
   1700c:	00000213          	li	tp,0
   17010:	00100093          	li	ra,1
   17014:	00000013          	nop
   17018:	00000013          	nop
   1701c:	01f09193          	slli	gp,ra,0x1f
   17020:	00120213          	addi	tp,tp,1 # 1 <_start+0x1>
   17024:	00200293          	li	t0,2
   17028:	fe5214e3          	bne	tp,t0,17010 <test_23+0x4>
   1702c:	80000eb7          	lui	t4,0x80000
   17030:	01700e13          	li	t3,23
   17034:	03d19663          	bne	gp,t4,17060 <fail>

00017038 <test_24>:
   17038:	01f01093          	slli	ra,zero,0x1f
   1703c:	00000e93          	li	t4,0
   17040:	01800e13          	li	t3,24
   17044:	01d09e63          	bne	ra,t4,17060 <fail>

00017048 <test_25>:
   17048:	02100093          	li	ra,33
   1704c:	01409013          	slli	zero,ra,0x14
   17050:	00000e93          	li	t4,0
   17054:	01900e13          	li	t3,25
   17058:	01d01463          	bne	zero,t4,17060 <fail>
   1705c:	05c01863          	bne	zero,t3,170ac <pass>

00017060 <fail>:
   17060:	04500513          	li	a0,69
   17064:	00004137          	lui	sp,0x4
   17068:	121060ef          	jal	ra,1d988 <printf_c>
   1706c:	05200513          	li	a0,82
   17070:	00004137          	lui	sp,0x4
   17074:	115060ef          	jal	ra,1d988 <printf_c>
   17078:	00004137          	lui	sp,0x4
   1707c:	10d060ef          	jal	ra,1d988 <printf_c>
   17080:	04f00513          	li	a0,79
   17084:	00004137          	lui	sp,0x4
   17088:	101060ef          	jal	ra,1d988 <printf_c>
   1708c:	00004137          	lui	sp,0x4
   17090:	05200513          	li	a0,82
   17094:	00004137          	lui	sp,0x4
   17098:	0f1060ef          	jal	ra,1d988 <printf_c>
   1709c:	00a00513          	li	a0,10
   170a0:	00004137          	lui	sp,0x4
   170a4:	0e5060ef          	jal	ra,1d988 <printf_c>
   170a8:	0340006f          	j	170dc <slt>

000170ac <pass>:
   170ac:	04f00513          	li	a0,79
   170b0:	00004137          	lui	sp,0x4
   170b4:	0d5060ef          	jal	ra,1d988 <printf_c>
   170b8:	04b00513          	li	a0,75
   170bc:	00004137          	lui	sp,0x4
   170c0:	0c9060ef          	jal	ra,1d988 <printf_c>
   170c4:	00a00513          	li	a0,10
   170c8:	00004137          	lui	sp,0x4
   170cc:	0bd060ef          	jal	ra,1d988 <printf_c>
   170d0:	00c0006f          	j	170dc <slt>

000170d4 <.test_name>:
   170d4:	20746c73          	csrrsi	s8,0x207,8
   170d8:	0009                	c.addi	zero,2
	...

000170dc <slt>:
   170dc:	00017537          	lui	a0,0x17
   170e0:	0d450513          	addi	a0,a0,212 # 170d4 <.test_name>

000170e4 <.prname_next>:
   170e4:	00004137          	lui	sp,0x4
   170e8:	0b9060ef          	jal	ra,1d9a0 <printf_s>

000170ec <test_2>:
   170ec:	00000093          	li	ra,0
   170f0:	00000113          	li	sp,0
   170f4:	0020a1b3          	slt	gp,ra,sp
   170f8:	00000e93          	li	t4,0
   170fc:	00200e13          	li	t3,2
   17100:	4bd19a63          	bne	gp,t4,175b4 <fail>

00017104 <test_3>:
   17104:	00100093          	li	ra,1
   17108:	00100113          	li	sp,1
   1710c:	0020a1b3          	slt	gp,ra,sp
   17110:	00000e93          	li	t4,0
   17114:	00300e13          	li	t3,3
   17118:	49d19e63          	bne	gp,t4,175b4 <fail>

0001711c <test_4>:
   1711c:	00300093          	li	ra,3
   17120:	00700113          	li	sp,7
   17124:	0020a1b3          	slt	gp,ra,sp
   17128:	00100e93          	li	t4,1
   1712c:	00400e13          	li	t3,4
   17130:	49d19263          	bne	gp,t4,175b4 <fail>

00017134 <test_5>:
   17134:	00700093          	li	ra,7
   17138:	00300113          	li	sp,3
   1713c:	0020a1b3          	slt	gp,ra,sp
   17140:	00000e93          	li	t4,0
   17144:	00500e13          	li	t3,5
   17148:	47d19663          	bne	gp,t4,175b4 <fail>

0001714c <test_6>:
   1714c:	00000093          	li	ra,0
   17150:	ffff8137          	lui	sp,0xffff8
   17154:	0020a1b3          	slt	gp,ra,sp
   17158:	00000e93          	li	t4,0
   1715c:	00600e13          	li	t3,6
   17160:	45d19a63          	bne	gp,t4,175b4 <fail>

00017164 <test_7>:
   17164:	800000b7          	lui	ra,0x80000
   17168:	00000113          	li	sp,0
   1716c:	0020a1b3          	slt	gp,ra,sp
   17170:	00100e93          	li	t4,1
   17174:	00700e13          	li	t3,7
   17178:	43d19e63          	bne	gp,t4,175b4 <fail>

0001717c <test_8>:
   1717c:	800000b7          	lui	ra,0x80000
   17180:	ffff8137          	lui	sp,0xffff8
   17184:	0020a1b3          	slt	gp,ra,sp
   17188:	00100e93          	li	t4,1
   1718c:	00800e13          	li	t3,8
   17190:	43d19263          	bne	gp,t4,175b4 <fail>

00017194 <test_9>:
   17194:	00000093          	li	ra,0
   17198:	00008137          	lui	sp,0x8
   1719c:	fff10113          	addi	sp,sp,-1 # 7fff <coremarkBenchmark+0x7f57>
   171a0:	0020a1b3          	slt	gp,ra,sp
   171a4:	00100e93          	li	t4,1
   171a8:	00900e13          	li	t3,9
   171ac:	41d19463          	bne	gp,t4,175b4 <fail>

000171b0 <test_10>:
   171b0:	800000b7          	lui	ra,0x80000
   171b4:	fff08093          	addi	ra,ra,-1 # 7fffffff <heap_memory_used+0x7ffde227>
   171b8:	00000113          	li	sp,0
   171bc:	0020a1b3          	slt	gp,ra,sp
   171c0:	00000e93          	li	t4,0
   171c4:	00a00e13          	li	t3,10
   171c8:	3fd19663          	bne	gp,t4,175b4 <fail>

000171cc <test_11>:
   171cc:	800000b7          	lui	ra,0x80000
   171d0:	fff08093          	addi	ra,ra,-1 # 7fffffff <heap_memory_used+0x7ffde227>
   171d4:	00008137          	lui	sp,0x8
   171d8:	fff10113          	addi	sp,sp,-1 # 7fff <coremarkBenchmark+0x7f57>
   171dc:	0020a1b3          	slt	gp,ra,sp
   171e0:	00000e93          	li	t4,0
   171e4:	00b00e13          	li	t3,11
   171e8:	3dd19663          	bne	gp,t4,175b4 <fail>

000171ec <test_12>:
   171ec:	800000b7          	lui	ra,0x80000
   171f0:	00008137          	lui	sp,0x8
   171f4:	fff10113          	addi	sp,sp,-1 # 7fff <coremarkBenchmark+0x7f57>
   171f8:	0020a1b3          	slt	gp,ra,sp
   171fc:	00100e93          	li	t4,1
   17200:	00c00e13          	li	t3,12
   17204:	3bd19863          	bne	gp,t4,175b4 <fail>

00017208 <test_13>:
   17208:	800000b7          	lui	ra,0x80000
   1720c:	fff08093          	addi	ra,ra,-1 # 7fffffff <heap_memory_used+0x7ffde227>
   17210:	ffff8137          	lui	sp,0xffff8
   17214:	0020a1b3          	slt	gp,ra,sp
   17218:	00000e93          	li	t4,0
   1721c:	00d00e13          	li	t3,13
   17220:	39d19a63          	bne	gp,t4,175b4 <fail>

00017224 <test_14>:
   17224:	00000093          	li	ra,0
   17228:	fff00113          	li	sp,-1
   1722c:	0020a1b3          	slt	gp,ra,sp
   17230:	00000e93          	li	t4,0
   17234:	00e00e13          	li	t3,14
   17238:	37d19e63          	bne	gp,t4,175b4 <fail>

0001723c <test_15>:
   1723c:	fff00093          	li	ra,-1
   17240:	00100113          	li	sp,1
   17244:	0020a1b3          	slt	gp,ra,sp
   17248:	00100e93          	li	t4,1
   1724c:	00f00e13          	li	t3,15
   17250:	37d19263          	bne	gp,t4,175b4 <fail>

00017254 <test_16>:
   17254:	fff00093          	li	ra,-1
   17258:	fff00113          	li	sp,-1
   1725c:	0020a1b3          	slt	gp,ra,sp
   17260:	00000e93          	li	t4,0
   17264:	01000e13          	li	t3,16
   17268:	35d19663          	bne	gp,t4,175b4 <fail>

0001726c <test_17>:
   1726c:	00e00093          	li	ra,14
   17270:	00d00113          	li	sp,13
   17274:	0020a0b3          	slt	ra,ra,sp
   17278:	00000e93          	li	t4,0
   1727c:	01100e13          	li	t3,17
   17280:	33d09a63          	bne	ra,t4,175b4 <fail>

00017284 <test_18>:
   17284:	00b00093          	li	ra,11
   17288:	00d00113          	li	sp,13
   1728c:	0020a133          	slt	sp,ra,sp
   17290:	00100e93          	li	t4,1
   17294:	01200e13          	li	t3,18
   17298:	31d11e63          	bne	sp,t4,175b4 <fail>

0001729c <test_19>:
   1729c:	00d00093          	li	ra,13
   172a0:	0010a0b3          	slt	ra,ra,ra
   172a4:	00000e93          	li	t4,0
   172a8:	01300e13          	li	t3,19
   172ac:	31d09463          	bne	ra,t4,175b4 <fail>

000172b0 <test_20>:
   172b0:	00000213          	li	tp,0
   172b4:	00b00093          	li	ra,11
   172b8:	00d00113          	li	sp,13
   172bc:	0020a1b3          	slt	gp,ra,sp
   172c0:	00018313          	mv	t1,gp
   172c4:	00120213          	addi	tp,tp,1 # 1 <_start+0x1>
   172c8:	00200293          	li	t0,2
   172cc:	fe5214e3          	bne	tp,t0,172b4 <test_20+0x4>
   172d0:	00100e93          	li	t4,1
   172d4:	01400e13          	li	t3,20
   172d8:	2dd31e63          	bne	t1,t4,175b4 <fail>

000172dc <test_21>:
   172dc:	00000213          	li	tp,0
   172e0:	00e00093          	li	ra,14
   172e4:	00d00113          	li	sp,13
   172e8:	0020a1b3          	slt	gp,ra,sp
   172ec:	00000013          	nop
   172f0:	00018313          	mv	t1,gp
   172f4:	00120213          	addi	tp,tp,1 # 1 <_start+0x1>
   172f8:	00200293          	li	t0,2
   172fc:	fe5212e3          	bne	tp,t0,172e0 <test_21+0x4>
   17300:	00000e93          	li	t4,0
   17304:	01500e13          	li	t3,21
   17308:	2bd31663          	bne	t1,t4,175b4 <fail>

0001730c <test_22>:
   1730c:	00000213          	li	tp,0
   17310:	00c00093          	li	ra,12
   17314:	00d00113          	li	sp,13
   17318:	0020a1b3          	slt	gp,ra,sp
   1731c:	00000013          	nop
   17320:	00000013          	nop
   17324:	00018313          	mv	t1,gp
   17328:	00120213          	addi	tp,tp,1 # 1 <_start+0x1>
   1732c:	00200293          	li	t0,2
   17330:	fe5210e3          	bne	tp,t0,17310 <test_22+0x4>
   17334:	00100e93          	li	t4,1
   17338:	01600e13          	li	t3,22
   1733c:	27d31c63          	bne	t1,t4,175b4 <fail>

00017340 <test_23>:
   17340:	00000213          	li	tp,0
   17344:	00e00093          	li	ra,14
   17348:	00d00113          	li	sp,13
   1734c:	0020a1b3          	slt	gp,ra,sp
   17350:	00120213          	addi	tp,tp,1 # 1 <_start+0x1>
   17354:	00200293          	li	t0,2
   17358:	fe5216e3          	bne	tp,t0,17344 <test_23+0x4>
   1735c:	00000e93          	li	t4,0
   17360:	01700e13          	li	t3,23
   17364:	25d19863          	bne	gp,t4,175b4 <fail>

00017368 <test_24>:
   17368:	00000213          	li	tp,0
   1736c:	00b00093          	li	ra,11
   17370:	00d00113          	li	sp,13
   17374:	00000013          	nop
   17378:	0020a1b3          	slt	gp,ra,sp
   1737c:	00120213          	addi	tp,tp,1 # 1 <_start+0x1>
   17380:	00200293          	li	t0,2
   17384:	fe5214e3          	bne	tp,t0,1736c <test_24+0x4>
   17388:	00100e93          	li	t4,1
   1738c:	01800e13          	li	t3,24
   17390:	23d19263          	bne	gp,t4,175b4 <fail>

00017394 <test_25>:
   17394:	00000213          	li	tp,0
   17398:	00f00093          	li	ra,15
   1739c:	00d00113          	li	sp,13
   173a0:	00000013          	nop
   173a4:	00000013          	nop
   173a8:	0020a1b3          	slt	gp,ra,sp
   173ac:	00120213          	addi	tp,tp,1 # 1 <_start+0x1>
   173b0:	00200293          	li	t0,2
   173b4:	fe5212e3          	bne	tp,t0,17398 <test_25+0x4>
   173b8:	00000e93          	li	t4,0
   173bc:	01900e13          	li	t3,25
   173c0:	1fd19a63          	bne	gp,t4,175b4 <fail>

000173c4 <test_26>:
   173c4:	00000213          	li	tp,0
   173c8:	00a00093          	li	ra,10
   173cc:	00000013          	nop
   173d0:	00d00113          	li	sp,13
   173d4:	0020a1b3          	slt	gp,ra,sp
   173d8:	00120213          	addi	tp,tp,1 # 1 <_start+0x1>
   173dc:	00200293          	li	t0,2
   173e0:	fe5214e3          	bne	tp,t0,173c8 <test_26+0x4>
   173e4:	00100e93          	li	t4,1
   173e8:	01a00e13          	li	t3,26
   173ec:	1dd19463          	bne	gp,t4,175b4 <fail>

000173f0 <test_27>:
   173f0:	00000213          	li	tp,0
   173f4:	01000093          	li	ra,16
   173f8:	00000013          	nop
   173fc:	00d00113          	li	sp,13
   17400:	00000013          	nop
   17404:	0020a1b3          	slt	gp,ra,sp
   17408:	00120213          	addi	tp,tp,1 # 1 <_start+0x1>
   1740c:	00200293          	li	t0,2
   17410:	fe5212e3          	bne	tp,t0,173f4 <test_27+0x4>
   17414:	00000e93          	li	t4,0
   17418:	01b00e13          	li	t3,27
   1741c:	19d19c63          	bne	gp,t4,175b4 <fail>

00017420 <test_28>:
   17420:	00000213          	li	tp,0
   17424:	00900093          	li	ra,9
   17428:	00000013          	nop
   1742c:	00000013          	nop
   17430:	00d00113          	li	sp,13
   17434:	0020a1b3          	slt	gp,ra,sp
   17438:	00120213          	addi	tp,tp,1 # 1 <_start+0x1>
   1743c:	00200293          	li	t0,2
   17440:	fe5212e3          	bne	tp,t0,17424 <test_28+0x4>
   17444:	00100e93          	li	t4,1
   17448:	01c00e13          	li	t3,28
   1744c:	17d19463          	bne	gp,t4,175b4 <fail>

00017450 <test_29>:
   17450:	00000213          	li	tp,0
   17454:	00d00113          	li	sp,13
   17458:	01100093          	li	ra,17
   1745c:	0020a1b3          	slt	gp,ra,sp
   17460:	00120213          	addi	tp,tp,1 # 1 <_start+0x1>
   17464:	00200293          	li	t0,2
   17468:	fe5216e3          	bne	tp,t0,17454 <test_29+0x4>
   1746c:	00000e93          	li	t4,0
   17470:	01d00e13          	li	t3,29
   17474:	15d19063          	bne	gp,t4,175b4 <fail>

00017478 <test_30>:
   17478:	00000213          	li	tp,0
   1747c:	00d00113          	li	sp,13
   17480:	00800093          	li	ra,8
   17484:	00000013          	nop
   17488:	0020a1b3          	slt	gp,ra,sp
   1748c:	00120213          	addi	tp,tp,1 # 1 <_start+0x1>
   17490:	00200293          	li	t0,2
   17494:	fe5214e3          	bne	tp,t0,1747c <test_30+0x4>
   17498:	00100e93          	li	t4,1
   1749c:	01e00e13          	li	t3,30
   174a0:	11d19a63          	bne	gp,t4,175b4 <fail>

000174a4 <test_31>:
   174a4:	00000213          	li	tp,0
   174a8:	00d00113          	li	sp,13
   174ac:	01200093          	li	ra,18
   174b0:	00000013          	nop
   174b4:	00000013          	nop
   174b8:	0020a1b3          	slt	gp,ra,sp
   174bc:	00120213          	addi	tp,tp,1 # 1 <_start+0x1>
   174c0:	00200293          	li	t0,2
   174c4:	fe5212e3          	bne	tp,t0,174a8 <test_31+0x4>
   174c8:	00000e93          	li	t4,0
   174cc:	01f00e13          	li	t3,31
   174d0:	0fd19263          	bne	gp,t4,175b4 <fail>

000174d4 <test_32>:
   174d4:	00000213          	li	tp,0
   174d8:	00d00113          	li	sp,13
   174dc:	00000013          	nop
   174e0:	00700093          	li	ra,7
   174e4:	0020a1b3          	slt	gp,ra,sp
   174e8:	00120213          	addi	tp,tp,1 # 1 <_start+0x1>
   174ec:	00200293          	li	t0,2
   174f0:	fe5214e3          	bne	tp,t0,174d8 <test_32+0x4>
   174f4:	00100e93          	li	t4,1
   174f8:	02000e13          	li	t3,32
   174fc:	0bd19c63          	bne	gp,t4,175b4 <fail>

00017500 <test_33>:
   17500:	00000213          	li	tp,0
   17504:	00d00113          	li	sp,13
   17508:	00000013          	nop
   1750c:	01300093          	li	ra,19
   17510:	00000013          	nop
   17514:	0020a1b3          	slt	gp,ra,sp
   17518:	00120213          	addi	tp,tp,1 # 1 <_start+0x1>
   1751c:	00200293          	li	t0,2
   17520:	fe5212e3          	bne	tp,t0,17504 <test_33+0x4>
   17524:	00000e93          	li	t4,0
   17528:	02100e13          	li	t3,33
   1752c:	09d19463          	bne	gp,t4,175b4 <fail>

00017530 <test_34>:
   17530:	00000213          	li	tp,0
   17534:	00d00113          	li	sp,13
   17538:	00000013          	nop
   1753c:	00000013          	nop
   17540:	00600093          	li	ra,6
   17544:	0020a1b3          	slt	gp,ra,sp
   17548:	00120213          	addi	tp,tp,1 # 1 <_start+0x1>
   1754c:	00200293          	li	t0,2
   17550:	fe5212e3          	bne	tp,t0,17534 <test_34+0x4>
   17554:	00100e93          	li	t4,1
   17558:	02200e13          	li	t3,34
   1755c:	05d19c63          	bne	gp,t4,175b4 <fail>

00017560 <test_35>:
   17560:	fff00093          	li	ra,-1
   17564:	00102133          	sgtz	sp,ra
   17568:	00000e93          	li	t4,0
   1756c:	02300e13          	li	t3,35
   17570:	05d11263          	bne	sp,t4,175b4 <fail>

00017574 <test_36>:
   17574:	fff00093          	li	ra,-1
   17578:	0000a133          	sltz	sp,ra
   1757c:	00100e93          	li	t4,1
   17580:	02400e13          	li	t3,36
   17584:	03d11863          	bne	sp,t4,175b4 <fail>

00017588 <test_37>:
   17588:	000020b3          	sltz	ra,zero
   1758c:	00000e93          	li	t4,0
   17590:	02500e13          	li	t3,37
   17594:	03d09063          	bne	ra,t4,175b4 <fail>

00017598 <test_38>:
   17598:	01000093          	li	ra,16
   1759c:	01e00113          	li	sp,30
   175a0:	0020a033          	slt	zero,ra,sp
   175a4:	00000e93          	li	t4,0
   175a8:	02600e13          	li	t3,38
   175ac:	01d01463          	bne	zero,t4,175b4 <fail>
   175b0:	05c01863          	bne	zero,t3,17600 <pass>

000175b4 <fail>:
   175b4:	04500513          	li	a0,69
   175b8:	00004137          	lui	sp,0x4
   175bc:	3cc060ef          	jal	ra,1d988 <printf_c>
   175c0:	05200513          	li	a0,82
   175c4:	00004137          	lui	sp,0x4
   175c8:	3c0060ef          	jal	ra,1d988 <printf_c>
   175cc:	00004137          	lui	sp,0x4
   175d0:	3b8060ef          	jal	ra,1d988 <printf_c>
   175d4:	04f00513          	li	a0,79
   175d8:	00004137          	lui	sp,0x4
   175dc:	3ac060ef          	jal	ra,1d988 <printf_c>
   175e0:	00004137          	lui	sp,0x4
   175e4:	05200513          	li	a0,82
   175e8:	00004137          	lui	sp,0x4
   175ec:	39c060ef          	jal	ra,1d988 <printf_c>
   175f0:	00a00513          	li	a0,10
   175f4:	00004137          	lui	sp,0x4
   175f8:	390060ef          	jal	ra,1d988 <printf_c>
   175fc:	0340006f          	j	17630 <slti>

00017600 <pass>:
   17600:	04f00513          	li	a0,79
   17604:	00004137          	lui	sp,0x4
   17608:	380060ef          	jal	ra,1d988 <printf_c>
   1760c:	04b00513          	li	a0,75
   17610:	00004137          	lui	sp,0x4
   17614:	374060ef          	jal	ra,1d988 <printf_c>
   17618:	00a00513          	li	a0,10
   1761c:	00004137          	lui	sp,0x4
   17620:	368060ef          	jal	ra,1d988 <printf_c>
   17624:	00c0006f          	j	17630 <slti>

00017628 <.test_name>:
   17628:	69746c73          	csrrsi	s8,0x697,8
   1762c:	0920                	addi	s0,sp,152
	...

00017630 <slti>:
   17630:	00017537          	lui	a0,0x17
   17634:	62850513          	addi	a0,a0,1576 # 17628 <.test_name>

00017638 <.prname_next>:
   17638:	00004137          	lui	sp,0x4
   1763c:	364060ef          	jal	ra,1d9a0 <printf_s>

00017640 <test_2>:
   17640:	00000093          	li	ra,0
   17644:	0000a193          	slti	gp,ra,0
   17648:	00000e93          	li	t4,0
   1764c:	00200e13          	li	t3,2
   17650:	27d19263          	bne	gp,t4,178b4 <fail>

00017654 <test_3>:
   17654:	00100093          	li	ra,1
   17658:	0010a193          	slti	gp,ra,1
   1765c:	00000e93          	li	t4,0
   17660:	00300e13          	li	t3,3
   17664:	25d19863          	bne	gp,t4,178b4 <fail>

00017668 <test_4>:
   17668:	00300093          	li	ra,3
   1766c:	0070a193          	slti	gp,ra,7
   17670:	00100e93          	li	t4,1
   17674:	00400e13          	li	t3,4
   17678:	23d19e63          	bne	gp,t4,178b4 <fail>

0001767c <test_5>:
   1767c:	00700093          	li	ra,7
   17680:	0030a193          	slti	gp,ra,3
   17684:	00000e93          	li	t4,0
   17688:	00500e13          	li	t3,5
   1768c:	23d19463          	bne	gp,t4,178b4 <fail>

00017690 <test_6>:
   17690:	00000093          	li	ra,0
   17694:	8000a193          	slti	gp,ra,-2048
   17698:	00000e93          	li	t4,0
   1769c:	00600e13          	li	t3,6
   176a0:	21d19a63          	bne	gp,t4,178b4 <fail>

000176a4 <test_7>:
   176a4:	800000b7          	lui	ra,0x80000
   176a8:	0000a193          	slti	gp,ra,0
   176ac:	00100e93          	li	t4,1
   176b0:	00700e13          	li	t3,7
   176b4:	21d19063          	bne	gp,t4,178b4 <fail>

000176b8 <test_8>:
   176b8:	800000b7          	lui	ra,0x80000
   176bc:	8000a193          	slti	gp,ra,-2048
   176c0:	00100e93          	li	t4,1
   176c4:	00800e13          	li	t3,8
   176c8:	1fd19663          	bne	gp,t4,178b4 <fail>

000176cc <test_9>:
   176cc:	00000093          	li	ra,0
   176d0:	7ff0a193          	slti	gp,ra,2047
   176d4:	00100e93          	li	t4,1
   176d8:	00900e13          	li	t3,9
   176dc:	1dd19c63          	bne	gp,t4,178b4 <fail>

000176e0 <test_10>:
   176e0:	800000b7          	lui	ra,0x80000
   176e4:	fff08093          	addi	ra,ra,-1 # 7fffffff <heap_memory_used+0x7ffde227>
   176e8:	0000a193          	slti	gp,ra,0
   176ec:	00000e93          	li	t4,0
   176f0:	00a00e13          	li	t3,10
   176f4:	1dd19063          	bne	gp,t4,178b4 <fail>

000176f8 <test_11>:
   176f8:	800000b7          	lui	ra,0x80000
   176fc:	fff08093          	addi	ra,ra,-1 # 7fffffff <heap_memory_used+0x7ffde227>
   17700:	7ff0a193          	slti	gp,ra,2047
   17704:	00000e93          	li	t4,0
   17708:	00b00e13          	li	t3,11
   1770c:	1bd19463          	bne	gp,t4,178b4 <fail>

00017710 <test_12>:
   17710:	800000b7          	lui	ra,0x80000
   17714:	7ff0a193          	slti	gp,ra,2047
   17718:	00100e93          	li	t4,1
   1771c:	00c00e13          	li	t3,12
   17720:	19d19a63          	bne	gp,t4,178b4 <fail>

00017724 <test_13>:
   17724:	800000b7          	lui	ra,0x80000
   17728:	fff08093          	addi	ra,ra,-1 # 7fffffff <heap_memory_used+0x7ffde227>
   1772c:	8000a193          	slti	gp,ra,-2048
   17730:	00000e93          	li	t4,0
   17734:	00d00e13          	li	t3,13
   17738:	17d19e63          	bne	gp,t4,178b4 <fail>

0001773c <test_14>:
   1773c:	00000093          	li	ra,0
   17740:	fff0a193          	slti	gp,ra,-1
   17744:	00000e93          	li	t4,0
   17748:	00e00e13          	li	t3,14
   1774c:	17d19463          	bne	gp,t4,178b4 <fail>

00017750 <test_15>:
   17750:	fff00093          	li	ra,-1
   17754:	0010a193          	slti	gp,ra,1
   17758:	00100e93          	li	t4,1
   1775c:	00f00e13          	li	t3,15
   17760:	15d19a63          	bne	gp,t4,178b4 <fail>

00017764 <test_16>:
   17764:	fff00093          	li	ra,-1
   17768:	fff0a193          	slti	gp,ra,-1
   1776c:	00000e93          	li	t4,0
   17770:	01000e13          	li	t3,16
   17774:	15d19063          	bne	gp,t4,178b4 <fail>

00017778 <test_17>:
   17778:	00b00093          	li	ra,11
   1777c:	00d0b093          	sltiu	ra,ra,13
   17780:	00100e93          	li	t4,1
   17784:	01100e13          	li	t3,17
   17788:	13d09663          	bne	ra,t4,178b4 <fail>

0001778c <test_18>:
   1778c:	00000213          	li	tp,0
   17790:	00f00093          	li	ra,15
   17794:	00a0a193          	slti	gp,ra,10
   17798:	00018313          	mv	t1,gp
   1779c:	00120213          	addi	tp,tp,1 # 1 <_start+0x1>
   177a0:	00200293          	li	t0,2
   177a4:	fe5216e3          	bne	tp,t0,17790 <test_18+0x4>
   177a8:	00000e93          	li	t4,0
   177ac:	01200e13          	li	t3,18
   177b0:	11d31263          	bne	t1,t4,178b4 <fail>

000177b4 <test_19>:
   177b4:	00000213          	li	tp,0
   177b8:	00a00093          	li	ra,10
   177bc:	0100a193          	slti	gp,ra,16
   177c0:	00000013          	nop
   177c4:	00018313          	mv	t1,gp
   177c8:	00120213          	addi	tp,tp,1 # 1 <_start+0x1>
   177cc:	00200293          	li	t0,2
   177d0:	fe5214e3          	bne	tp,t0,177b8 <test_19+0x4>
   177d4:	00100e93          	li	t4,1
   177d8:	01300e13          	li	t3,19
   177dc:	0dd31c63          	bne	t1,t4,178b4 <fail>

000177e0 <test_20>:
   177e0:	00000213          	li	tp,0
   177e4:	01000093          	li	ra,16
   177e8:	0090a193          	slti	gp,ra,9
   177ec:	00000013          	nop
   177f0:	00000013          	nop
   177f4:	00018313          	mv	t1,gp
   177f8:	00120213          	addi	tp,tp,1 # 1 <_start+0x1>
   177fc:	00200293          	li	t0,2
   17800:	fe5212e3          	bne	tp,t0,177e4 <test_20+0x4>
   17804:	00000e93          	li	t4,0
   17808:	01400e13          	li	t3,20
   1780c:	0bd31463          	bne	t1,t4,178b4 <fail>

00017810 <test_21>:
   17810:	00000213          	li	tp,0
   17814:	00b00093          	li	ra,11
   17818:	00f0a193          	slti	gp,ra,15
   1781c:	00120213          	addi	tp,tp,1 # 1 <_start+0x1>
   17820:	00200293          	li	t0,2
   17824:	fe5218e3          	bne	tp,t0,17814 <test_21+0x4>
   17828:	00100e93          	li	t4,1
   1782c:	01500e13          	li	t3,21
   17830:	09d19263          	bne	gp,t4,178b4 <fail>

00017834 <test_22>:
   17834:	00000213          	li	tp,0
   17838:	01100093          	li	ra,17
   1783c:	00000013          	nop
   17840:	0080a193          	slti	gp,ra,8
   17844:	00120213          	addi	tp,tp,1 # 1 <_start+0x1>
   17848:	00200293          	li	t0,2
   1784c:	fe5216e3          	bne	tp,t0,17838 <test_22+0x4>
   17850:	00000e93          	li	t4,0
   17854:	01600e13          	li	t3,22
   17858:	05d19e63          	bne	gp,t4,178b4 <fail>

0001785c <test_23>:
   1785c:	00000213          	li	tp,0
   17860:	00c00093          	li	ra,12
   17864:	00000013          	nop
   17868:	00000013          	nop
   1786c:	00e0a193          	slti	gp,ra,14
   17870:	00120213          	addi	tp,tp,1 # 1 <_start+0x1>
   17874:	00200293          	li	t0,2
   17878:	fe5214e3          	bne	tp,t0,17860 <test_23+0x4>
   1787c:	00100e93          	li	t4,1
   17880:	01700e13          	li	t3,23
   17884:	03d19863          	bne	gp,t4,178b4 <fail>

00017888 <test_24>:
   17888:	fff02093          	slti	ra,zero,-1
   1788c:	00000e93          	li	t4,0
   17890:	01800e13          	li	t3,24
   17894:	03d09063          	bne	ra,t4,178b4 <fail>

00017898 <test_25>:
   17898:	00ff00b7          	lui	ra,0xff0
   1789c:	0ff08093          	addi	ra,ra,255 # ff00ff <heap_memory_used+0xfce327>
   178a0:	fff0a013          	slti	zero,ra,-1
   178a4:	00000e93          	li	t4,0
   178a8:	01900e13          	li	t3,25
   178ac:	01d01463          	bne	zero,t4,178b4 <fail>
   178b0:	05c01863          	bne	zero,t3,17900 <pass>

000178b4 <fail>:
   178b4:	04500513          	li	a0,69
   178b8:	00004137          	lui	sp,0x4
   178bc:	0cc060ef          	jal	ra,1d988 <printf_c>
   178c0:	05200513          	li	a0,82
   178c4:	00004137          	lui	sp,0x4
   178c8:	0c0060ef          	jal	ra,1d988 <printf_c>
   178cc:	00004137          	lui	sp,0x4
   178d0:	0b8060ef          	jal	ra,1d988 <printf_c>
   178d4:	04f00513          	li	a0,79
   178d8:	00004137          	lui	sp,0x4
   178dc:	0ac060ef          	jal	ra,1d988 <printf_c>
   178e0:	00004137          	lui	sp,0x4
   178e4:	05200513          	li	a0,82
   178e8:	00004137          	lui	sp,0x4
   178ec:	09c060ef          	jal	ra,1d988 <printf_c>
   178f0:	00a00513          	li	a0,10
   178f4:	00004137          	lui	sp,0x4
   178f8:	090060ef          	jal	ra,1d988 <printf_c>
   178fc:	0340006f          	j	17930 <sra>

00017900 <pass>:
   17900:	04f00513          	li	a0,79
   17904:	00004137          	lui	sp,0x4
   17908:	080060ef          	jal	ra,1d988 <printf_c>
   1790c:	04b00513          	li	a0,75
   17910:	00004137          	lui	sp,0x4
   17914:	074060ef          	jal	ra,1d988 <printf_c>
   17918:	00a00513          	li	a0,10
   1791c:	00004137          	lui	sp,0x4
   17920:	068060ef          	jal	ra,1d988 <printf_c>
   17924:	00c0006f          	j	17930 <sra>

00017928 <.test_name>:
   17928:	20617273          	csrrci	tp,0x206,2
   1792c:	0009                	c.addi	zero,2
	...

00017930 <sra>:
   17930:	00018537          	lui	a0,0x18
   17934:	92850513          	addi	a0,a0,-1752 # 17928 <.test_name>

00017938 <.prname_next>:
   17938:	00004137          	lui	sp,0x4
   1793c:	064060ef          	jal	ra,1d9a0 <printf_s>

00017940 <test_2>:
   17940:	800000b7          	lui	ra,0x80000
   17944:	00000113          	li	sp,0
   17948:	4020d1b3          	sra	gp,ra,sp
   1794c:	80000eb7          	lui	t4,0x80000
   17950:	00200e13          	li	t3,2
   17954:	59d19463          	bne	gp,t4,17edc <fail>

00017958 <test_3>:
   17958:	800000b7          	lui	ra,0x80000
   1795c:	00100113          	li	sp,1
   17960:	4020d1b3          	sra	gp,ra,sp
   17964:	c0000eb7          	lui	t4,0xc0000
   17968:	00300e13          	li	t3,3
   1796c:	57d19863          	bne	gp,t4,17edc <fail>

00017970 <test_4>:
   17970:	800000b7          	lui	ra,0x80000
   17974:	00700113          	li	sp,7
   17978:	4020d1b3          	sra	gp,ra,sp
   1797c:	ff000eb7          	lui	t4,0xff000
   17980:	00400e13          	li	t3,4
   17984:	55d19c63          	bne	gp,t4,17edc <fail>

00017988 <test_5>:
   17988:	800000b7          	lui	ra,0x80000
   1798c:	00e00113          	li	sp,14
   17990:	4020d1b3          	sra	gp,ra,sp
   17994:	fffe0eb7          	lui	t4,0xfffe0
   17998:	00500e13          	li	t3,5
   1799c:	55d19063          	bne	gp,t4,17edc <fail>

000179a0 <test_6>:
   179a0:	800000b7          	lui	ra,0x80000
   179a4:	00108093          	addi	ra,ra,1 # 80000001 <heap_memory_used+0x7ffde229>
   179a8:	01f00113          	li	sp,31
   179ac:	4020d1b3          	sra	gp,ra,sp
   179b0:	fff00e93          	li	t4,-1
   179b4:	00600e13          	li	t3,6
   179b8:	53d19263          	bne	gp,t4,17edc <fail>

000179bc <test_7>:
   179bc:	800000b7          	lui	ra,0x80000
   179c0:	fff08093          	addi	ra,ra,-1 # 7fffffff <heap_memory_used+0x7ffde227>
   179c4:	00000113          	li	sp,0
   179c8:	4020d1b3          	sra	gp,ra,sp
   179cc:	80000eb7          	lui	t4,0x80000
   179d0:	fffe8e93          	addi	t4,t4,-1 # 7fffffff <heap_memory_used+0x7ffde227>
   179d4:	00700e13          	li	t3,7
   179d8:	51d19263          	bne	gp,t4,17edc <fail>

000179dc <test_8>:
   179dc:	800000b7          	lui	ra,0x80000
   179e0:	fff08093          	addi	ra,ra,-1 # 7fffffff <heap_memory_used+0x7ffde227>
   179e4:	00100113          	li	sp,1
   179e8:	4020d1b3          	sra	gp,ra,sp
   179ec:	40000eb7          	lui	t4,0x40000
   179f0:	fffe8e93          	addi	t4,t4,-1 # 3fffffff <heap_memory_used+0x3ffde227>
   179f4:	00800e13          	li	t3,8
   179f8:	4fd19263          	bne	gp,t4,17edc <fail>

000179fc <test_9>:
   179fc:	800000b7          	lui	ra,0x80000
   17a00:	fff08093          	addi	ra,ra,-1 # 7fffffff <heap_memory_used+0x7ffde227>
   17a04:	00700113          	li	sp,7
   17a08:	4020d1b3          	sra	gp,ra,sp
   17a0c:	01000eb7          	lui	t4,0x1000
   17a10:	fffe8e93          	addi	t4,t4,-1 # ffffff <heap_memory_used+0xfde227>
   17a14:	00900e13          	li	t3,9
   17a18:	4dd19263          	bne	gp,t4,17edc <fail>

00017a1c <test_10>:
   17a1c:	800000b7          	lui	ra,0x80000
   17a20:	fff08093          	addi	ra,ra,-1 # 7fffffff <heap_memory_used+0x7ffde227>
   17a24:	00e00113          	li	sp,14
   17a28:	4020d1b3          	sra	gp,ra,sp
   17a2c:	00020eb7          	lui	t4,0x20
   17a30:	fffe8e93          	addi	t4,t4,-1 # 1ffff <Arr_2_Glob+0xe3b>
   17a34:	00a00e13          	li	t3,10
   17a38:	4bd19263          	bne	gp,t4,17edc <fail>

00017a3c <test_11>:
   17a3c:	800000b7          	lui	ra,0x80000
   17a40:	fff08093          	addi	ra,ra,-1 # 7fffffff <heap_memory_used+0x7ffde227>
   17a44:	01f00113          	li	sp,31
   17a48:	4020d1b3          	sra	gp,ra,sp
   17a4c:	00000e93          	li	t4,0
   17a50:	00b00e13          	li	t3,11
   17a54:	49d19463          	bne	gp,t4,17edc <fail>

00017a58 <test_12>:
   17a58:	818180b7          	lui	ra,0x81818
   17a5c:	18108093          	addi	ra,ra,385 # 81818181 <heap_memory_used+0x817f63a9>
   17a60:	00000113          	li	sp,0
   17a64:	4020d1b3          	sra	gp,ra,sp
   17a68:	81818eb7          	lui	t4,0x81818
   17a6c:	181e8e93          	addi	t4,t4,385 # 81818181 <heap_memory_used+0x817f63a9>
   17a70:	00c00e13          	li	t3,12
   17a74:	47d19463          	bne	gp,t4,17edc <fail>

00017a78 <test_13>:
   17a78:	818180b7          	lui	ra,0x81818
   17a7c:	18108093          	addi	ra,ra,385 # 81818181 <heap_memory_used+0x817f63a9>
   17a80:	00100113          	li	sp,1
   17a84:	4020d1b3          	sra	gp,ra,sp
   17a88:	c0c0ceb7          	lui	t4,0xc0c0c
   17a8c:	0c0e8e93          	addi	t4,t4,192 # c0c0c0c0 <heap_memory_used+0xc0bea2e8>
   17a90:	00d00e13          	li	t3,13
   17a94:	45d19463          	bne	gp,t4,17edc <fail>

00017a98 <test_14>:
   17a98:	818180b7          	lui	ra,0x81818
   17a9c:	18108093          	addi	ra,ra,385 # 81818181 <heap_memory_used+0x817f63a9>
   17aa0:	00700113          	li	sp,7
   17aa4:	4020d1b3          	sra	gp,ra,sp
   17aa8:	ff030eb7          	lui	t4,0xff030
   17aac:	303e8e93          	addi	t4,t4,771 # ff030303 <heap_memory_used+0xff00e52b>
   17ab0:	00e00e13          	li	t3,14
   17ab4:	43d19463          	bne	gp,t4,17edc <fail>

00017ab8 <test_15>:
   17ab8:	818180b7          	lui	ra,0x81818
   17abc:	18108093          	addi	ra,ra,385 # 81818181 <heap_memory_used+0x817f63a9>
   17ac0:	00e00113          	li	sp,14
   17ac4:	4020d1b3          	sra	gp,ra,sp
   17ac8:	fffe0eb7          	lui	t4,0xfffe0
   17acc:	606e8e93          	addi	t4,t4,1542 # fffe0606 <heap_memory_used+0xfffbe82e>
   17ad0:	00f00e13          	li	t3,15
   17ad4:	41d19463          	bne	gp,t4,17edc <fail>

00017ad8 <test_16>:
   17ad8:	818180b7          	lui	ra,0x81818
   17adc:	18108093          	addi	ra,ra,385 # 81818181 <heap_memory_used+0x817f63a9>
   17ae0:	01f00113          	li	sp,31
   17ae4:	4020d1b3          	sra	gp,ra,sp
   17ae8:	fff00e93          	li	t4,-1
   17aec:	01000e13          	li	t3,16
   17af0:	3fd19663          	bne	gp,t4,17edc <fail>

00017af4 <test_17>:
   17af4:	818180b7          	lui	ra,0x81818
   17af8:	18108093          	addi	ra,ra,385 # 81818181 <heap_memory_used+0x817f63a9>
   17afc:	fc000113          	li	sp,-64
   17b00:	4020d1b3          	sra	gp,ra,sp
   17b04:	81818eb7          	lui	t4,0x81818
   17b08:	181e8e93          	addi	t4,t4,385 # 81818181 <heap_memory_used+0x817f63a9>
   17b0c:	01100e13          	li	t3,17
   17b10:	3dd19663          	bne	gp,t4,17edc <fail>

00017b14 <test_18>:
   17b14:	818180b7          	lui	ra,0x81818
   17b18:	18108093          	addi	ra,ra,385 # 81818181 <heap_memory_used+0x817f63a9>
   17b1c:	fc100113          	li	sp,-63
   17b20:	4020d1b3          	sra	gp,ra,sp
   17b24:	c0c0ceb7          	lui	t4,0xc0c0c
   17b28:	0c0e8e93          	addi	t4,t4,192 # c0c0c0c0 <heap_memory_used+0xc0bea2e8>
   17b2c:	01200e13          	li	t3,18
   17b30:	3bd19663          	bne	gp,t4,17edc <fail>

00017b34 <test_19>:
   17b34:	818180b7          	lui	ra,0x81818
   17b38:	18108093          	addi	ra,ra,385 # 81818181 <heap_memory_used+0x817f63a9>
   17b3c:	fc700113          	li	sp,-57
   17b40:	4020d1b3          	sra	gp,ra,sp
   17b44:	ff030eb7          	lui	t4,0xff030
   17b48:	303e8e93          	addi	t4,t4,771 # ff030303 <heap_memory_used+0xff00e52b>
   17b4c:	01300e13          	li	t3,19
   17b50:	39d19663          	bne	gp,t4,17edc <fail>

00017b54 <test_20>:
   17b54:	818180b7          	lui	ra,0x81818
   17b58:	18108093          	addi	ra,ra,385 # 81818181 <heap_memory_used+0x817f63a9>
   17b5c:	fce00113          	li	sp,-50
   17b60:	4020d1b3          	sra	gp,ra,sp
   17b64:	fffe0eb7          	lui	t4,0xfffe0
   17b68:	606e8e93          	addi	t4,t4,1542 # fffe0606 <heap_memory_used+0xfffbe82e>
   17b6c:	01400e13          	li	t3,20
   17b70:	37d19663          	bne	gp,t4,17edc <fail>

00017b74 <test_21>:
   17b74:	818180b7          	lui	ra,0x81818
   17b78:	18108093          	addi	ra,ra,385 # 81818181 <heap_memory_used+0x817f63a9>
   17b7c:	fff00113          	li	sp,-1
   17b80:	4020d1b3          	sra	gp,ra,sp
   17b84:	fff00e93          	li	t4,-1
   17b88:	01500e13          	li	t3,21
   17b8c:	35d19863          	bne	gp,t4,17edc <fail>

00017b90 <test_22>:
   17b90:	800000b7          	lui	ra,0x80000
   17b94:	00700113          	li	sp,7
   17b98:	4020d0b3          	sra	ra,ra,sp
   17b9c:	ff000eb7          	lui	t4,0xff000
   17ba0:	01600e13          	li	t3,22
   17ba4:	33d09c63          	bne	ra,t4,17edc <fail>

00017ba8 <test_23>:
   17ba8:	800000b7          	lui	ra,0x80000
   17bac:	00e00113          	li	sp,14
   17bb0:	4020d133          	sra	sp,ra,sp
   17bb4:	fffe0eb7          	lui	t4,0xfffe0
   17bb8:	01700e13          	li	t3,23
   17bbc:	33d11063          	bne	sp,t4,17edc <fail>

00017bc0 <test_24>:
   17bc0:	00700093          	li	ra,7
   17bc4:	4010d0b3          	sra	ra,ra,ra
   17bc8:	00000e93          	li	t4,0
   17bcc:	01800e13          	li	t3,24
   17bd0:	31d09663          	bne	ra,t4,17edc <fail>

00017bd4 <test_25>:
   17bd4:	00000213          	li	tp,0
   17bd8:	800000b7          	lui	ra,0x80000
   17bdc:	00700113          	li	sp,7
   17be0:	4020d1b3          	sra	gp,ra,sp
   17be4:	00018313          	mv	t1,gp
   17be8:	00120213          	addi	tp,tp,1 # 1 <_start+0x1>
   17bec:	00200293          	li	t0,2
   17bf0:	fe5214e3          	bne	tp,t0,17bd8 <test_25+0x4>
   17bf4:	ff000eb7          	lui	t4,0xff000
   17bf8:	01900e13          	li	t3,25
   17bfc:	2fd31063          	bne	t1,t4,17edc <fail>

00017c00 <test_26>:
   17c00:	00000213          	li	tp,0
   17c04:	800000b7          	lui	ra,0x80000
   17c08:	00e00113          	li	sp,14
   17c0c:	4020d1b3          	sra	gp,ra,sp
   17c10:	00000013          	nop
   17c14:	00018313          	mv	t1,gp
   17c18:	00120213          	addi	tp,tp,1 # 1 <_start+0x1>
   17c1c:	00200293          	li	t0,2
   17c20:	fe5212e3          	bne	tp,t0,17c04 <test_26+0x4>
   17c24:	fffe0eb7          	lui	t4,0xfffe0
   17c28:	01a00e13          	li	t3,26
   17c2c:	2bd31863          	bne	t1,t4,17edc <fail>

00017c30 <test_27>:
   17c30:	00000213          	li	tp,0
   17c34:	800000b7          	lui	ra,0x80000
   17c38:	01f00113          	li	sp,31
   17c3c:	4020d1b3          	sra	gp,ra,sp
   17c40:	00000013          	nop
   17c44:	00000013          	nop
   17c48:	00018313          	mv	t1,gp
   17c4c:	00120213          	addi	tp,tp,1 # 1 <_start+0x1>
   17c50:	00200293          	li	t0,2
   17c54:	fe5210e3          	bne	tp,t0,17c34 <test_27+0x4>
   17c58:	fff00e93          	li	t4,-1
   17c5c:	01b00e13          	li	t3,27
   17c60:	27d31e63          	bne	t1,t4,17edc <fail>

00017c64 <test_28>:
   17c64:	00000213          	li	tp,0
   17c68:	800000b7          	lui	ra,0x80000
   17c6c:	00700113          	li	sp,7
   17c70:	4020d1b3          	sra	gp,ra,sp
   17c74:	00120213          	addi	tp,tp,1 # 1 <_start+0x1>
   17c78:	00200293          	li	t0,2
   17c7c:	fe5216e3          	bne	tp,t0,17c68 <test_28+0x4>
   17c80:	ff000eb7          	lui	t4,0xff000
   17c84:	01c00e13          	li	t3,28
   17c88:	25d19a63          	bne	gp,t4,17edc <fail>

00017c8c <test_29>:
   17c8c:	00000213          	li	tp,0
   17c90:	800000b7          	lui	ra,0x80000
   17c94:	00e00113          	li	sp,14
   17c98:	00000013          	nop
   17c9c:	4020d1b3          	sra	gp,ra,sp
   17ca0:	00120213          	addi	tp,tp,1 # 1 <_start+0x1>
   17ca4:	00200293          	li	t0,2
   17ca8:	fe5214e3          	bne	tp,t0,17c90 <test_29+0x4>
   17cac:	fffe0eb7          	lui	t4,0xfffe0
   17cb0:	01d00e13          	li	t3,29
   17cb4:	23d19463          	bne	gp,t4,17edc <fail>

00017cb8 <test_30>:
   17cb8:	00000213          	li	tp,0
   17cbc:	800000b7          	lui	ra,0x80000
   17cc0:	01f00113          	li	sp,31
   17cc4:	00000013          	nop
   17cc8:	00000013          	nop
   17ccc:	4020d1b3          	sra	gp,ra,sp
   17cd0:	00120213          	addi	tp,tp,1 # 1 <_start+0x1>
   17cd4:	00200293          	li	t0,2
   17cd8:	fe5212e3          	bne	tp,t0,17cbc <test_30+0x4>
   17cdc:	fff00e93          	li	t4,-1
   17ce0:	01e00e13          	li	t3,30
   17ce4:	1fd19c63          	bne	gp,t4,17edc <fail>

00017ce8 <test_31>:
   17ce8:	00000213          	li	tp,0
   17cec:	800000b7          	lui	ra,0x80000
   17cf0:	00000013          	nop
   17cf4:	00700113          	li	sp,7
   17cf8:	4020d1b3          	sra	gp,ra,sp
   17cfc:	00120213          	addi	tp,tp,1 # 1 <_start+0x1>
   17d00:	00200293          	li	t0,2
   17d04:	fe5214e3          	bne	tp,t0,17cec <test_31+0x4>
   17d08:	ff000eb7          	lui	t4,0xff000
   17d0c:	01f00e13          	li	t3,31
   17d10:	1dd19663          	bne	gp,t4,17edc <fail>

00017d14 <test_32>:
   17d14:	00000213          	li	tp,0
   17d18:	800000b7          	lui	ra,0x80000
   17d1c:	00000013          	nop
   17d20:	00e00113          	li	sp,14
   17d24:	00000013          	nop
   17d28:	4020d1b3          	sra	gp,ra,sp
   17d2c:	00120213          	addi	tp,tp,1 # 1 <_start+0x1>
   17d30:	00200293          	li	t0,2
   17d34:	fe5212e3          	bne	tp,t0,17d18 <test_32+0x4>
   17d38:	fffe0eb7          	lui	t4,0xfffe0
   17d3c:	02000e13          	li	t3,32
   17d40:	19d19e63          	bne	gp,t4,17edc <fail>

00017d44 <test_33>:
   17d44:	00000213          	li	tp,0
   17d48:	800000b7          	lui	ra,0x80000
   17d4c:	00000013          	nop
   17d50:	00000013          	nop
   17d54:	01f00113          	li	sp,31
   17d58:	4020d1b3          	sra	gp,ra,sp
   17d5c:	00120213          	addi	tp,tp,1 # 1 <_start+0x1>
   17d60:	00200293          	li	t0,2
   17d64:	fe5212e3          	bne	tp,t0,17d48 <test_33+0x4>
   17d68:	fff00e93          	li	t4,-1
   17d6c:	02100e13          	li	t3,33
   17d70:	17d19663          	bne	gp,t4,17edc <fail>

00017d74 <test_34>:
   17d74:	00000213          	li	tp,0
   17d78:	00700113          	li	sp,7
   17d7c:	800000b7          	lui	ra,0x80000
   17d80:	4020d1b3          	sra	gp,ra,sp
   17d84:	00120213          	addi	tp,tp,1 # 1 <_start+0x1>
   17d88:	00200293          	li	t0,2
   17d8c:	fe5216e3          	bne	tp,t0,17d78 <test_34+0x4>
   17d90:	ff000eb7          	lui	t4,0xff000
   17d94:	02200e13          	li	t3,34
   17d98:	15d19263          	bne	gp,t4,17edc <fail>

00017d9c <test_35>:
   17d9c:	00000213          	li	tp,0
   17da0:	00e00113          	li	sp,14
   17da4:	800000b7          	lui	ra,0x80000
   17da8:	00000013          	nop
   17dac:	4020d1b3          	sra	gp,ra,sp
   17db0:	00120213          	addi	tp,tp,1 # 1 <_start+0x1>
   17db4:	00200293          	li	t0,2
   17db8:	fe5214e3          	bne	tp,t0,17da0 <test_35+0x4>
   17dbc:	fffe0eb7          	lui	t4,0xfffe0
   17dc0:	02300e13          	li	t3,35
   17dc4:	11d19c63          	bne	gp,t4,17edc <fail>

00017dc8 <test_36>:
   17dc8:	00000213          	li	tp,0
   17dcc:	01f00113          	li	sp,31
   17dd0:	800000b7          	lui	ra,0x80000
   17dd4:	00000013          	nop
   17dd8:	00000013          	nop
   17ddc:	4020d1b3          	sra	gp,ra,sp
   17de0:	00120213          	addi	tp,tp,1 # 1 <_start+0x1>
   17de4:	00200293          	li	t0,2
   17de8:	fe5212e3          	bne	tp,t0,17dcc <test_36+0x4>
   17dec:	fff00e93          	li	t4,-1
   17df0:	02400e13          	li	t3,36
   17df4:	0fd19463          	bne	gp,t4,17edc <fail>

00017df8 <test_37>:
   17df8:	00000213          	li	tp,0
   17dfc:	00700113          	li	sp,7
   17e00:	00000013          	nop
   17e04:	800000b7          	lui	ra,0x80000
   17e08:	4020d1b3          	sra	gp,ra,sp
   17e0c:	00120213          	addi	tp,tp,1 # 1 <_start+0x1>
   17e10:	00200293          	li	t0,2
   17e14:	fe5214e3          	bne	tp,t0,17dfc <test_37+0x4>
   17e18:	ff000eb7          	lui	t4,0xff000
   17e1c:	02500e13          	li	t3,37
   17e20:	0bd19e63          	bne	gp,t4,17edc <fail>

00017e24 <test_38>:
   17e24:	00000213          	li	tp,0
   17e28:	00e00113          	li	sp,14
   17e2c:	00000013          	nop
   17e30:	800000b7          	lui	ra,0x80000
   17e34:	00000013          	nop
   17e38:	4020d1b3          	sra	gp,ra,sp
   17e3c:	00120213          	addi	tp,tp,1 # 1 <_start+0x1>
   17e40:	00200293          	li	t0,2
   17e44:	fe5212e3          	bne	tp,t0,17e28 <test_38+0x4>
   17e48:	fffe0eb7          	lui	t4,0xfffe0
   17e4c:	02600e13          	li	t3,38
   17e50:	09d19663          	bne	gp,t4,17edc <fail>

00017e54 <test_39>:
   17e54:	00000213          	li	tp,0
   17e58:	01f00113          	li	sp,31
   17e5c:	00000013          	nop
   17e60:	00000013          	nop
   17e64:	800000b7          	lui	ra,0x80000
   17e68:	4020d1b3          	sra	gp,ra,sp
   17e6c:	00120213          	addi	tp,tp,1 # 1 <_start+0x1>
   17e70:	00200293          	li	t0,2
   17e74:	fe5212e3          	bne	tp,t0,17e58 <test_39+0x4>
   17e78:	fff00e93          	li	t4,-1
   17e7c:	02700e13          	li	t3,39
   17e80:	05d19e63          	bne	gp,t4,17edc <fail>

00017e84 <test_40>:
   17e84:	00f00093          	li	ra,15
   17e88:	40105133          	sra	sp,zero,ra
   17e8c:	00000e93          	li	t4,0
   17e90:	02800e13          	li	t3,40
   17e94:	05d11463          	bne	sp,t4,17edc <fail>

00017e98 <test_41>:
   17e98:	02000093          	li	ra,32
   17e9c:	4000d133          	sra	sp,ra,zero
   17ea0:	02000e93          	li	t4,32
   17ea4:	02900e13          	li	t3,41
   17ea8:	03d11a63          	bne	sp,t4,17edc <fail>

00017eac <test_42>:
   17eac:	400050b3          	sra	ra,zero,zero
   17eb0:	00000e93          	li	t4,0
   17eb4:	02a00e13          	li	t3,42
   17eb8:	03d09263          	bne	ra,t4,17edc <fail>

00017ebc <test_43>:
   17ebc:	40000093          	li	ra,1024
   17ec0:	00001137          	lui	sp,0x1
   17ec4:	80010113          	addi	sp,sp,-2048 # 800 <coremarkBenchmark+0x758>
   17ec8:	4020d033          	sra	zero,ra,sp
   17ecc:	00000e93          	li	t4,0
   17ed0:	02b00e13          	li	t3,43
   17ed4:	01d01463          	bne	zero,t4,17edc <fail>
   17ed8:	05c01863          	bne	zero,t3,17f28 <pass>

00017edc <fail>:
   17edc:	04500513          	li	a0,69
   17ee0:	00004137          	lui	sp,0x4
   17ee4:	2a5050ef          	jal	ra,1d988 <printf_c>
   17ee8:	05200513          	li	a0,82
   17eec:	00004137          	lui	sp,0x4
   17ef0:	299050ef          	jal	ra,1d988 <printf_c>
   17ef4:	00004137          	lui	sp,0x4
   17ef8:	291050ef          	jal	ra,1d988 <printf_c>
   17efc:	04f00513          	li	a0,79
   17f00:	00004137          	lui	sp,0x4
   17f04:	285050ef          	jal	ra,1d988 <printf_c>
   17f08:	00004137          	lui	sp,0x4
   17f0c:	05200513          	li	a0,82
   17f10:	00004137          	lui	sp,0x4
   17f14:	275050ef          	jal	ra,1d988 <printf_c>
   17f18:	00a00513          	li	a0,10
   17f1c:	00004137          	lui	sp,0x4
   17f20:	269050ef          	jal	ra,1d988 <printf_c>
   17f24:	0340006f          	j	17f58 <srai>

00017f28 <pass>:
   17f28:	04f00513          	li	a0,79
   17f2c:	00004137          	lui	sp,0x4
   17f30:	259050ef          	jal	ra,1d988 <printf_c>
   17f34:	04b00513          	li	a0,75
   17f38:	00004137          	lui	sp,0x4
   17f3c:	24d050ef          	jal	ra,1d988 <printf_c>
   17f40:	00a00513          	li	a0,10
   17f44:	00004137          	lui	sp,0x4
   17f48:	241050ef          	jal	ra,1d988 <printf_c>
   17f4c:	00c0006f          	j	17f58 <srai>

00017f50 <.test_name>:
   17f50:	69617273          	csrrci	tp,0x696,2
   17f54:	0009                	c.addi	zero,2
	...

00017f58 <srai>:
   17f58:	00018537          	lui	a0,0x18
   17f5c:	f5050513          	addi	a0,a0,-176 # 17f50 <.test_name>

00017f60 <.prname_next>:
   17f60:	00004137          	lui	sp,0x4
   17f64:	23d050ef          	jal	ra,1d9a0 <printf_s>

00017f68 <test_2>:
   17f68:	00000093          	li	ra,0
   17f6c:	4000d193          	srai	gp,ra,0x0
   17f70:	00000e93          	li	t4,0
   17f74:	00200e13          	li	t3,2
   17f78:	2bd19463          	bne	gp,t4,18220 <fail>

00017f7c <test_3>:
   17f7c:	800000b7          	lui	ra,0x80000
   17f80:	4010d193          	srai	gp,ra,0x1
   17f84:	c0000eb7          	lui	t4,0xc0000
   17f88:	00300e13          	li	t3,3
   17f8c:	29d19a63          	bne	gp,t4,18220 <fail>

00017f90 <test_4>:
   17f90:	800000b7          	lui	ra,0x80000
   17f94:	4070d193          	srai	gp,ra,0x7
   17f98:	ff000eb7          	lui	t4,0xff000
   17f9c:	00400e13          	li	t3,4
   17fa0:	29d19063          	bne	gp,t4,18220 <fail>

00017fa4 <test_5>:
   17fa4:	800000b7          	lui	ra,0x80000
   17fa8:	40e0d193          	srai	gp,ra,0xe
   17fac:	fffe0eb7          	lui	t4,0xfffe0
   17fb0:	00500e13          	li	t3,5
   17fb4:	27d19663          	bne	gp,t4,18220 <fail>

00017fb8 <test_6>:
   17fb8:	800000b7          	lui	ra,0x80000
   17fbc:	00108093          	addi	ra,ra,1 # 80000001 <heap_memory_used+0x7ffde229>
   17fc0:	41f0d193          	srai	gp,ra,0x1f
   17fc4:	fff00e93          	li	t4,-1
   17fc8:	00600e13          	li	t3,6
   17fcc:	25d19a63          	bne	gp,t4,18220 <fail>

00017fd0 <test_7>:
   17fd0:	800000b7          	lui	ra,0x80000
   17fd4:	fff08093          	addi	ra,ra,-1 # 7fffffff <heap_memory_used+0x7ffde227>
   17fd8:	4000d193          	srai	gp,ra,0x0
   17fdc:	80000eb7          	lui	t4,0x80000
   17fe0:	fffe8e93          	addi	t4,t4,-1 # 7fffffff <heap_memory_used+0x7ffde227>
   17fe4:	00700e13          	li	t3,7
   17fe8:	23d19c63          	bne	gp,t4,18220 <fail>

00017fec <test_8>:
   17fec:	800000b7          	lui	ra,0x80000
   17ff0:	fff08093          	addi	ra,ra,-1 # 7fffffff <heap_memory_used+0x7ffde227>
   17ff4:	4010d193          	srai	gp,ra,0x1
   17ff8:	40000eb7          	lui	t4,0x40000
   17ffc:	fffe8e93          	addi	t4,t4,-1 # 3fffffff <heap_memory_used+0x3ffde227>
   18000:	00800e13          	li	t3,8
   18004:	21d19e63          	bne	gp,t4,18220 <fail>

00018008 <test_9>:
   18008:	800000b7          	lui	ra,0x80000
   1800c:	fff08093          	addi	ra,ra,-1 # 7fffffff <heap_memory_used+0x7ffde227>
   18010:	4070d193          	srai	gp,ra,0x7
   18014:	01000eb7          	lui	t4,0x1000
   18018:	fffe8e93          	addi	t4,t4,-1 # ffffff <heap_memory_used+0xfde227>
   1801c:	00900e13          	li	t3,9
   18020:	21d19063          	bne	gp,t4,18220 <fail>

00018024 <test_10>:
   18024:	800000b7          	lui	ra,0x80000
   18028:	fff08093          	addi	ra,ra,-1 # 7fffffff <heap_memory_used+0x7ffde227>
   1802c:	40e0d193          	srai	gp,ra,0xe
   18030:	00020eb7          	lui	t4,0x20
   18034:	fffe8e93          	addi	t4,t4,-1 # 1ffff <Arr_2_Glob+0xe3b>
   18038:	00a00e13          	li	t3,10
   1803c:	1fd19263          	bne	gp,t4,18220 <fail>

00018040 <test_11>:
   18040:	800000b7          	lui	ra,0x80000
   18044:	fff08093          	addi	ra,ra,-1 # 7fffffff <heap_memory_used+0x7ffde227>
   18048:	41f0d193          	srai	gp,ra,0x1f
   1804c:	00000e93          	li	t4,0
   18050:	00b00e13          	li	t3,11
   18054:	1dd19663          	bne	gp,t4,18220 <fail>

00018058 <test_12>:
   18058:	818180b7          	lui	ra,0x81818
   1805c:	18108093          	addi	ra,ra,385 # 81818181 <heap_memory_used+0x817f63a9>
   18060:	4000d193          	srai	gp,ra,0x0
   18064:	81818eb7          	lui	t4,0x81818
   18068:	181e8e93          	addi	t4,t4,385 # 81818181 <heap_memory_used+0x817f63a9>
   1806c:	00c00e13          	li	t3,12
   18070:	1bd19863          	bne	gp,t4,18220 <fail>

00018074 <test_13>:
   18074:	818180b7          	lui	ra,0x81818
   18078:	18108093          	addi	ra,ra,385 # 81818181 <heap_memory_used+0x817f63a9>
   1807c:	4010d193          	srai	gp,ra,0x1
   18080:	c0c0ceb7          	lui	t4,0xc0c0c
   18084:	0c0e8e93          	addi	t4,t4,192 # c0c0c0c0 <heap_memory_used+0xc0bea2e8>
   18088:	00d00e13          	li	t3,13
   1808c:	19d19a63          	bne	gp,t4,18220 <fail>

00018090 <test_14>:
   18090:	818180b7          	lui	ra,0x81818
   18094:	18108093          	addi	ra,ra,385 # 81818181 <heap_memory_used+0x817f63a9>
   18098:	4070d193          	srai	gp,ra,0x7
   1809c:	ff030eb7          	lui	t4,0xff030
   180a0:	303e8e93          	addi	t4,t4,771 # ff030303 <heap_memory_used+0xff00e52b>
   180a4:	00e00e13          	li	t3,14
   180a8:	17d19c63          	bne	gp,t4,18220 <fail>

000180ac <test_15>:
   180ac:	818180b7          	lui	ra,0x81818
   180b0:	18108093          	addi	ra,ra,385 # 81818181 <heap_memory_used+0x817f63a9>
   180b4:	40e0d193          	srai	gp,ra,0xe
   180b8:	fffe0eb7          	lui	t4,0xfffe0
   180bc:	606e8e93          	addi	t4,t4,1542 # fffe0606 <heap_memory_used+0xfffbe82e>
   180c0:	00f00e13          	li	t3,15
   180c4:	15d19e63          	bne	gp,t4,18220 <fail>

000180c8 <test_16>:
   180c8:	818180b7          	lui	ra,0x81818
   180cc:	18108093          	addi	ra,ra,385 # 81818181 <heap_memory_used+0x817f63a9>
   180d0:	41f0d193          	srai	gp,ra,0x1f
   180d4:	fff00e93          	li	t4,-1
   180d8:	01000e13          	li	t3,16
   180dc:	15d19263          	bne	gp,t4,18220 <fail>

000180e0 <test_17>:
   180e0:	800000b7          	lui	ra,0x80000
   180e4:	4070d093          	srai	ra,ra,0x7
   180e8:	ff000eb7          	lui	t4,0xff000
   180ec:	01100e13          	li	t3,17
   180f0:	13d09863          	bne	ra,t4,18220 <fail>

000180f4 <test_18>:
   180f4:	00000213          	li	tp,0
   180f8:	800000b7          	lui	ra,0x80000
   180fc:	4070d193          	srai	gp,ra,0x7
   18100:	00018313          	mv	t1,gp
   18104:	00120213          	addi	tp,tp,1 # 1 <_start+0x1>
   18108:	00200293          	li	t0,2
   1810c:	fe5216e3          	bne	tp,t0,180f8 <test_18+0x4>
   18110:	ff000eb7          	lui	t4,0xff000
   18114:	01200e13          	li	t3,18
   18118:	11d31463          	bne	t1,t4,18220 <fail>

0001811c <test_19>:
   1811c:	00000213          	li	tp,0
   18120:	800000b7          	lui	ra,0x80000
   18124:	40e0d193          	srai	gp,ra,0xe
   18128:	00000013          	nop
   1812c:	00018313          	mv	t1,gp
   18130:	00120213          	addi	tp,tp,1 # 1 <_start+0x1>
   18134:	00200293          	li	t0,2
   18138:	fe5214e3          	bne	tp,t0,18120 <test_19+0x4>
   1813c:	fffe0eb7          	lui	t4,0xfffe0
   18140:	01300e13          	li	t3,19
   18144:	0dd31e63          	bne	t1,t4,18220 <fail>

00018148 <test_20>:
   18148:	00000213          	li	tp,0
   1814c:	800000b7          	lui	ra,0x80000
   18150:	00108093          	addi	ra,ra,1 # 80000001 <heap_memory_used+0x7ffde229>
   18154:	41f0d193          	srai	gp,ra,0x1f
   18158:	00000013          	nop
   1815c:	00000013          	nop
   18160:	00018313          	mv	t1,gp
   18164:	00120213          	addi	tp,tp,1 # 1 <_start+0x1>
   18168:	00200293          	li	t0,2
   1816c:	fe5210e3          	bne	tp,t0,1814c <test_20+0x4>
   18170:	fff00e93          	li	t4,-1
   18174:	01400e13          	li	t3,20
   18178:	0bd31463          	bne	t1,t4,18220 <fail>

0001817c <test_21>:
   1817c:	00000213          	li	tp,0
   18180:	800000b7          	lui	ra,0x80000
   18184:	4070d193          	srai	gp,ra,0x7
   18188:	00120213          	addi	tp,tp,1 # 1 <_start+0x1>
   1818c:	00200293          	li	t0,2
   18190:	fe5218e3          	bne	tp,t0,18180 <test_21+0x4>
   18194:	ff000eb7          	lui	t4,0xff000
   18198:	01500e13          	li	t3,21
   1819c:	09d19263          	bne	gp,t4,18220 <fail>

000181a0 <test_22>:
   181a0:	00000213          	li	tp,0
   181a4:	800000b7          	lui	ra,0x80000
   181a8:	00000013          	nop
   181ac:	40e0d193          	srai	gp,ra,0xe
   181b0:	00120213          	addi	tp,tp,1 # 1 <_start+0x1>
   181b4:	00200293          	li	t0,2
   181b8:	fe5216e3          	bne	tp,t0,181a4 <test_22+0x4>
   181bc:	fffe0eb7          	lui	t4,0xfffe0
   181c0:	01600e13          	li	t3,22
   181c4:	05d19e63          	bne	gp,t4,18220 <fail>

000181c8 <test_23>:
   181c8:	00000213          	li	tp,0
   181cc:	800000b7          	lui	ra,0x80000
   181d0:	00108093          	addi	ra,ra,1 # 80000001 <heap_memory_used+0x7ffde229>
   181d4:	00000013          	nop
   181d8:	00000013          	nop
   181dc:	41f0d193          	srai	gp,ra,0x1f
   181e0:	00120213          	addi	tp,tp,1 # 1 <_start+0x1>
   181e4:	00200293          	li	t0,2
   181e8:	fe5212e3          	bne	tp,t0,181cc <test_23+0x4>
   181ec:	fff00e93          	li	t4,-1
   181f0:	01700e13          	li	t3,23
   181f4:	03d19663          	bne	gp,t4,18220 <fail>

000181f8 <test_24>:
   181f8:	41f05093          	srai	ra,zero,0x1f
   181fc:	00000e93          	li	t4,0
   18200:	01800e13          	li	t3,24
   18204:	01d09e63          	bne	ra,t4,18220 <fail>

00018208 <test_25>:
   18208:	02100093          	li	ra,33
   1820c:	4140d013          	srai	zero,ra,0x14
   18210:	00000e93          	li	t4,0
   18214:	01900e13          	li	t3,25
   18218:	01d01463          	bne	zero,t4,18220 <fail>
   1821c:	05c01863          	bne	zero,t3,1826c <pass>

00018220 <fail>:
   18220:	04500513          	li	a0,69
   18224:	00004137          	lui	sp,0x4
   18228:	760050ef          	jal	ra,1d988 <printf_c>
   1822c:	05200513          	li	a0,82
   18230:	00004137          	lui	sp,0x4
   18234:	754050ef          	jal	ra,1d988 <printf_c>
   18238:	00004137          	lui	sp,0x4
   1823c:	74c050ef          	jal	ra,1d988 <printf_c>
   18240:	04f00513          	li	a0,79
   18244:	00004137          	lui	sp,0x4
   18248:	740050ef          	jal	ra,1d988 <printf_c>
   1824c:	00004137          	lui	sp,0x4
   18250:	05200513          	li	a0,82
   18254:	00004137          	lui	sp,0x4
   18258:	730050ef          	jal	ra,1d988 <printf_c>
   1825c:	00a00513          	li	a0,10
   18260:	00004137          	lui	sp,0x4
   18264:	724050ef          	jal	ra,1d988 <printf_c>
   18268:	0340006f          	j	1829c <srl>

0001826c <pass>:
   1826c:	04f00513          	li	a0,79
   18270:	00004137          	lui	sp,0x4
   18274:	714050ef          	jal	ra,1d988 <printf_c>
   18278:	04b00513          	li	a0,75
   1827c:	00004137          	lui	sp,0x4
   18280:	708050ef          	jal	ra,1d988 <printf_c>
   18284:	00a00513          	li	a0,10
   18288:	00004137          	lui	sp,0x4
   1828c:	6fc050ef          	jal	ra,1d988 <printf_c>
   18290:	00c0006f          	j	1829c <srl>

00018294 <.test_name>:
   18294:	206c7273          	csrrci	tp,0x206,24
   18298:	0009                	c.addi	zero,2
	...

0001829c <srl>:
   1829c:	00018537          	lui	a0,0x18
   182a0:	29450513          	addi	a0,a0,660 # 18294 <.test_name>

000182a4 <.prname_next>:
   182a4:	00004137          	lui	sp,0x4
   182a8:	6f8050ef          	jal	ra,1d9a0 <printf_s>

000182ac <test_2>:
   182ac:	ffff80b7          	lui	ra,0xffff8
   182b0:	00000113          	li	sp,0
   182b4:	0020d1b3          	srl	gp,ra,sp
   182b8:	ffff8eb7          	lui	t4,0xffff8
   182bc:	00200e13          	li	t3,2
   182c0:	5bd19463          	bne	gp,t4,18868 <fail>

000182c4 <test_3>:
   182c4:	ffff80b7          	lui	ra,0xffff8
   182c8:	00100113          	li	sp,1
   182cc:	0020d1b3          	srl	gp,ra,sp
   182d0:	7fffceb7          	lui	t4,0x7fffc
   182d4:	00300e13          	li	t3,3
   182d8:	59d19863          	bne	gp,t4,18868 <fail>

000182dc <test_4>:
   182dc:	ffff80b7          	lui	ra,0xffff8
   182e0:	00700113          	li	sp,7
   182e4:	0020d1b3          	srl	gp,ra,sp
   182e8:	02000eb7          	lui	t4,0x2000
   182ec:	f00e8e93          	addi	t4,t4,-256 # 1ffff00 <heap_memory_used+0x1fde128>
   182f0:	00400e13          	li	t3,4
   182f4:	57d19a63          	bne	gp,t4,18868 <fail>

000182f8 <test_5>:
   182f8:	ffff80b7          	lui	ra,0xffff8
   182fc:	00e00113          	li	sp,14
   18300:	0020d1b3          	srl	gp,ra,sp
   18304:	00040eb7          	lui	t4,0x40
   18308:	ffee8e93          	addi	t4,t4,-2 # 3fffe <heap_memory_used+0x1e226>
   1830c:	00500e13          	li	t3,5
   18310:	55d19c63          	bne	gp,t4,18868 <fail>

00018314 <test_6>:
   18314:	ffff80b7          	lui	ra,0xffff8
   18318:	00108093          	addi	ra,ra,1 # ffff8001 <heap_memory_used+0xfffd6229>
   1831c:	00f00113          	li	sp,15
   18320:	0020d1b3          	srl	gp,ra,sp
   18324:	00020eb7          	lui	t4,0x20
   18328:	fffe8e93          	addi	t4,t4,-1 # 1ffff <Arr_2_Glob+0xe3b>
   1832c:	00600e13          	li	t3,6
   18330:	53d19c63          	bne	gp,t4,18868 <fail>

00018334 <test_7>:
   18334:	fff00093          	li	ra,-1
   18338:	00000113          	li	sp,0
   1833c:	0020d1b3          	srl	gp,ra,sp
   18340:	fff00e93          	li	t4,-1
   18344:	00700e13          	li	t3,7
   18348:	53d19063          	bne	gp,t4,18868 <fail>

0001834c <test_8>:
   1834c:	fff00093          	li	ra,-1
   18350:	00100113          	li	sp,1
   18354:	0020d1b3          	srl	gp,ra,sp
   18358:	80000eb7          	lui	t4,0x80000
   1835c:	fffe8e93          	addi	t4,t4,-1 # 7fffffff <heap_memory_used+0x7ffde227>
   18360:	00800e13          	li	t3,8
   18364:	51d19263          	bne	gp,t4,18868 <fail>

00018368 <test_9>:
   18368:	fff00093          	li	ra,-1
   1836c:	00700113          	li	sp,7
   18370:	0020d1b3          	srl	gp,ra,sp
   18374:	02000eb7          	lui	t4,0x2000
   18378:	fffe8e93          	addi	t4,t4,-1 # 1ffffff <heap_memory_used+0x1fde227>
   1837c:	00900e13          	li	t3,9
   18380:	4fd19463          	bne	gp,t4,18868 <fail>

00018384 <test_10>:
   18384:	fff00093          	li	ra,-1
   18388:	00e00113          	li	sp,14
   1838c:	0020d1b3          	srl	gp,ra,sp
   18390:	00040eb7          	lui	t4,0x40
   18394:	fffe8e93          	addi	t4,t4,-1 # 3ffff <heap_memory_used+0x1e227>
   18398:	00a00e13          	li	t3,10
   1839c:	4dd19663          	bne	gp,t4,18868 <fail>

000183a0 <test_11>:
   183a0:	fff00093          	li	ra,-1
   183a4:	01f00113          	li	sp,31
   183a8:	0020d1b3          	srl	gp,ra,sp
   183ac:	00100e93          	li	t4,1
   183b0:	00b00e13          	li	t3,11
   183b4:	4bd19a63          	bne	gp,t4,18868 <fail>

000183b8 <test_12>:
   183b8:	212120b7          	lui	ra,0x21212
   183bc:	12108093          	addi	ra,ra,289 # 21212121 <heap_memory_used+0x211f0349>
   183c0:	00000113          	li	sp,0
   183c4:	0020d1b3          	srl	gp,ra,sp
   183c8:	21212eb7          	lui	t4,0x21212
   183cc:	121e8e93          	addi	t4,t4,289 # 21212121 <heap_memory_used+0x211f0349>
   183d0:	00c00e13          	li	t3,12
   183d4:	49d19a63          	bne	gp,t4,18868 <fail>

000183d8 <test_13>:
   183d8:	212120b7          	lui	ra,0x21212
   183dc:	12108093          	addi	ra,ra,289 # 21212121 <heap_memory_used+0x211f0349>
   183e0:	00100113          	li	sp,1
   183e4:	0020d1b3          	srl	gp,ra,sp
   183e8:	10909eb7          	lui	t4,0x10909
   183ec:	090e8e93          	addi	t4,t4,144 # 10909090 <heap_memory_used+0x108e72b8>
   183f0:	00d00e13          	li	t3,13
   183f4:	47d19a63          	bne	gp,t4,18868 <fail>

000183f8 <test_14>:
   183f8:	212120b7          	lui	ra,0x21212
   183fc:	12108093          	addi	ra,ra,289 # 21212121 <heap_memory_used+0x211f0349>
   18400:	00700113          	li	sp,7
   18404:	0020d1b3          	srl	gp,ra,sp
   18408:	00424eb7          	lui	t4,0x424
   1840c:	242e8e93          	addi	t4,t4,578 # 424242 <heap_memory_used+0x40246a>
   18410:	00e00e13          	li	t3,14
   18414:	45d19a63          	bne	gp,t4,18868 <fail>

00018418 <test_15>:
   18418:	212120b7          	lui	ra,0x21212
   1841c:	12108093          	addi	ra,ra,289 # 21212121 <heap_memory_used+0x211f0349>
   18420:	00e00113          	li	sp,14
   18424:	0020d1b3          	srl	gp,ra,sp
   18428:	00008eb7          	lui	t4,0x8
   1842c:	484e8e93          	addi	t4,t4,1156 # 8484 <coremarkBenchmark+0x83dc>
   18430:	00f00e13          	li	t3,15
   18434:	43d19a63          	bne	gp,t4,18868 <fail>

00018438 <test_16>:
   18438:	212120b7          	lui	ra,0x21212
   1843c:	12108093          	addi	ra,ra,289 # 21212121 <heap_memory_used+0x211f0349>
   18440:	01f00113          	li	sp,31
   18444:	0020d1b3          	srl	gp,ra,sp
   18448:	00000e93          	li	t4,0
   1844c:	01000e13          	li	t3,16
   18450:	41d19c63          	bne	gp,t4,18868 <fail>

00018454 <test_17>:
   18454:	212120b7          	lui	ra,0x21212
   18458:	12108093          	addi	ra,ra,289 # 21212121 <heap_memory_used+0x211f0349>
   1845c:	fe000113          	li	sp,-32
   18460:	0020d1b3          	srl	gp,ra,sp
   18464:	21212eb7          	lui	t4,0x21212
   18468:	121e8e93          	addi	t4,t4,289 # 21212121 <heap_memory_used+0x211f0349>
   1846c:	01100e13          	li	t3,17
   18470:	3fd19c63          	bne	gp,t4,18868 <fail>

00018474 <test_18>:
   18474:	212120b7          	lui	ra,0x21212
   18478:	12108093          	addi	ra,ra,289 # 21212121 <heap_memory_used+0x211f0349>
   1847c:	fe100113          	li	sp,-31
   18480:	0020d1b3          	srl	gp,ra,sp
   18484:	10909eb7          	lui	t4,0x10909
   18488:	090e8e93          	addi	t4,t4,144 # 10909090 <heap_memory_used+0x108e72b8>
   1848c:	01200e13          	li	t3,18
   18490:	3dd19c63          	bne	gp,t4,18868 <fail>

00018494 <test_19>:
   18494:	212120b7          	lui	ra,0x21212
   18498:	12108093          	addi	ra,ra,289 # 21212121 <heap_memory_used+0x211f0349>
   1849c:	fe700113          	li	sp,-25
   184a0:	0020d1b3          	srl	gp,ra,sp
   184a4:	00424eb7          	lui	t4,0x424
   184a8:	242e8e93          	addi	t4,t4,578 # 424242 <heap_memory_used+0x40246a>
   184ac:	01300e13          	li	t3,19
   184b0:	3bd19c63          	bne	gp,t4,18868 <fail>

000184b4 <test_20>:
   184b4:	212120b7          	lui	ra,0x21212
   184b8:	12108093          	addi	ra,ra,289 # 21212121 <heap_memory_used+0x211f0349>
   184bc:	fee00113          	li	sp,-18
   184c0:	0020d1b3          	srl	gp,ra,sp
   184c4:	00008eb7          	lui	t4,0x8
   184c8:	484e8e93          	addi	t4,t4,1156 # 8484 <coremarkBenchmark+0x83dc>
   184cc:	01400e13          	li	t3,20
   184d0:	39d19c63          	bne	gp,t4,18868 <fail>

000184d4 <test_21>:
   184d4:	212120b7          	lui	ra,0x21212
   184d8:	12108093          	addi	ra,ra,289 # 21212121 <heap_memory_used+0x211f0349>
   184dc:	fff00113          	li	sp,-1
   184e0:	0020d1b3          	srl	gp,ra,sp
   184e4:	00000e93          	li	t4,0
   184e8:	01500e13          	li	t3,21
   184ec:	37d19e63          	bne	gp,t4,18868 <fail>

000184f0 <test_22>:
   184f0:	ffff80b7          	lui	ra,0xffff8
   184f4:	00100113          	li	sp,1
   184f8:	0020d0b3          	srl	ra,ra,sp
   184fc:	7fffceb7          	lui	t4,0x7fffc
   18500:	01600e13          	li	t3,22
   18504:	37d09263          	bne	ra,t4,18868 <fail>

00018508 <test_23>:
   18508:	ffff80b7          	lui	ra,0xffff8
   1850c:	00e00113          	li	sp,14
   18510:	0020d133          	srl	sp,ra,sp
   18514:	00040eb7          	lui	t4,0x40
   18518:	ffee8e93          	addi	t4,t4,-2 # 3fffe <heap_memory_used+0x1e226>
   1851c:	01700e13          	li	t3,23
   18520:	35d11463          	bne	sp,t4,18868 <fail>

00018524 <test_24>:
   18524:	00700093          	li	ra,7
   18528:	0010d0b3          	srl	ra,ra,ra
   1852c:	00000e93          	li	t4,0
   18530:	01800e13          	li	t3,24
   18534:	33d09a63          	bne	ra,t4,18868 <fail>

00018538 <test_25>:
   18538:	00000213          	li	tp,0
   1853c:	ffff80b7          	lui	ra,0xffff8
   18540:	00100113          	li	sp,1
   18544:	0020d1b3          	srl	gp,ra,sp
   18548:	00018313          	mv	t1,gp
   1854c:	00120213          	addi	tp,tp,1 # 1 <_start+0x1>
   18550:	00200293          	li	t0,2
   18554:	fe5214e3          	bne	tp,t0,1853c <test_25+0x4>
   18558:	7fffceb7          	lui	t4,0x7fffc
   1855c:	01900e13          	li	t3,25
   18560:	31d31463          	bne	t1,t4,18868 <fail>

00018564 <test_26>:
   18564:	00000213          	li	tp,0
   18568:	ffff80b7          	lui	ra,0xffff8
   1856c:	00e00113          	li	sp,14
   18570:	0020d1b3          	srl	gp,ra,sp
   18574:	00000013          	nop
   18578:	00018313          	mv	t1,gp
   1857c:	00120213          	addi	tp,tp,1 # 1 <_start+0x1>
   18580:	00200293          	li	t0,2
   18584:	fe5212e3          	bne	tp,t0,18568 <test_26+0x4>
   18588:	00040eb7          	lui	t4,0x40
   1858c:	ffee8e93          	addi	t4,t4,-2 # 3fffe <heap_memory_used+0x1e226>
   18590:	01a00e13          	li	t3,26
   18594:	2dd31a63          	bne	t1,t4,18868 <fail>

00018598 <test_27>:
   18598:	00000213          	li	tp,0
   1859c:	ffff80b7          	lui	ra,0xffff8
   185a0:	00f00113          	li	sp,15
   185a4:	0020d1b3          	srl	gp,ra,sp
   185a8:	00000013          	nop
   185ac:	00000013          	nop
   185b0:	00018313          	mv	t1,gp
   185b4:	00120213          	addi	tp,tp,1 # 1 <_start+0x1>
   185b8:	00200293          	li	t0,2
   185bc:	fe5210e3          	bne	tp,t0,1859c <test_27+0x4>
   185c0:	00020eb7          	lui	t4,0x20
   185c4:	fffe8e93          	addi	t4,t4,-1 # 1ffff <Arr_2_Glob+0xe3b>
   185c8:	01b00e13          	li	t3,27
   185cc:	29d31e63          	bne	t1,t4,18868 <fail>

000185d0 <test_28>:
   185d0:	00000213          	li	tp,0
   185d4:	ffff80b7          	lui	ra,0xffff8
   185d8:	00100113          	li	sp,1
   185dc:	0020d1b3          	srl	gp,ra,sp
   185e0:	00120213          	addi	tp,tp,1 # 1 <_start+0x1>
   185e4:	00200293          	li	t0,2
   185e8:	fe5216e3          	bne	tp,t0,185d4 <test_28+0x4>
   185ec:	7fffceb7          	lui	t4,0x7fffc
   185f0:	01c00e13          	li	t3,28
   185f4:	27d19a63          	bne	gp,t4,18868 <fail>

000185f8 <test_29>:
   185f8:	00000213          	li	tp,0
   185fc:	ffff80b7          	lui	ra,0xffff8
   18600:	00700113          	li	sp,7
   18604:	00000013          	nop
   18608:	0020d1b3          	srl	gp,ra,sp
   1860c:	00120213          	addi	tp,tp,1 # 1 <_start+0x1>
   18610:	00200293          	li	t0,2
   18614:	fe5214e3          	bne	tp,t0,185fc <test_29+0x4>
   18618:	02000eb7          	lui	t4,0x2000
   1861c:	f00e8e93          	addi	t4,t4,-256 # 1ffff00 <heap_memory_used+0x1fde128>
   18620:	01d00e13          	li	t3,29
   18624:	25d19263          	bne	gp,t4,18868 <fail>

00018628 <test_30>:
   18628:	00000213          	li	tp,0
   1862c:	ffff80b7          	lui	ra,0xffff8
   18630:	00f00113          	li	sp,15
   18634:	00000013          	nop
   18638:	00000013          	nop
   1863c:	0020d1b3          	srl	gp,ra,sp
   18640:	00120213          	addi	tp,tp,1 # 1 <_start+0x1>
   18644:	00200293          	li	t0,2
   18648:	fe5212e3          	bne	tp,t0,1862c <test_30+0x4>
   1864c:	00020eb7          	lui	t4,0x20
   18650:	fffe8e93          	addi	t4,t4,-1 # 1ffff <Arr_2_Glob+0xe3b>
   18654:	01e00e13          	li	t3,30
   18658:	21d19863          	bne	gp,t4,18868 <fail>

0001865c <test_31>:
   1865c:	00000213          	li	tp,0
   18660:	ffff80b7          	lui	ra,0xffff8
   18664:	00000013          	nop
   18668:	00100113          	li	sp,1
   1866c:	0020d1b3          	srl	gp,ra,sp
   18670:	00120213          	addi	tp,tp,1 # 1 <_start+0x1>
   18674:	00200293          	li	t0,2
   18678:	fe5214e3          	bne	tp,t0,18660 <test_31+0x4>
   1867c:	7fffceb7          	lui	t4,0x7fffc
   18680:	01f00e13          	li	t3,31
   18684:	1fd19263          	bne	gp,t4,18868 <fail>

00018688 <test_32>:
   18688:	00000213          	li	tp,0
   1868c:	ffff80b7          	lui	ra,0xffff8
   18690:	00000013          	nop
   18694:	00700113          	li	sp,7
   18698:	00000013          	nop
   1869c:	0020d1b3          	srl	gp,ra,sp
   186a0:	00120213          	addi	tp,tp,1 # 1 <_start+0x1>
   186a4:	00200293          	li	t0,2
   186a8:	fe5212e3          	bne	tp,t0,1868c <test_32+0x4>
   186ac:	02000eb7          	lui	t4,0x2000
   186b0:	f00e8e93          	addi	t4,t4,-256 # 1ffff00 <heap_memory_used+0x1fde128>
   186b4:	02000e13          	li	t3,32
   186b8:	1bd19863          	bne	gp,t4,18868 <fail>

000186bc <test_33>:
   186bc:	00000213          	li	tp,0
   186c0:	ffff80b7          	lui	ra,0xffff8
   186c4:	00000013          	nop
   186c8:	00000013          	nop
   186cc:	00f00113          	li	sp,15
   186d0:	0020d1b3          	srl	gp,ra,sp
   186d4:	00120213          	addi	tp,tp,1 # 1 <_start+0x1>
   186d8:	00200293          	li	t0,2
   186dc:	fe5212e3          	bne	tp,t0,186c0 <test_33+0x4>
   186e0:	00020eb7          	lui	t4,0x20
   186e4:	fffe8e93          	addi	t4,t4,-1 # 1ffff <Arr_2_Glob+0xe3b>
   186e8:	02100e13          	li	t3,33
   186ec:	17d19e63          	bne	gp,t4,18868 <fail>

000186f0 <test_34>:
   186f0:	00000213          	li	tp,0
   186f4:	00100113          	li	sp,1
   186f8:	ffff80b7          	lui	ra,0xffff8
   186fc:	0020d1b3          	srl	gp,ra,sp
   18700:	00120213          	addi	tp,tp,1 # 1 <_start+0x1>
   18704:	00200293          	li	t0,2
   18708:	fe5216e3          	bne	tp,t0,186f4 <test_34+0x4>
   1870c:	7fffceb7          	lui	t4,0x7fffc
   18710:	02200e13          	li	t3,34
   18714:	15d19a63          	bne	gp,t4,18868 <fail>

00018718 <test_35>:
   18718:	00000213          	li	tp,0
   1871c:	00700113          	li	sp,7
   18720:	ffff80b7          	lui	ra,0xffff8
   18724:	00000013          	nop
   18728:	0020d1b3          	srl	gp,ra,sp
   1872c:	00120213          	addi	tp,tp,1 # 1 <_start+0x1>
   18730:	00200293          	li	t0,2
   18734:	fe5214e3          	bne	tp,t0,1871c <test_35+0x4>
   18738:	02000eb7          	lui	t4,0x2000
   1873c:	f00e8e93          	addi	t4,t4,-256 # 1ffff00 <heap_memory_used+0x1fde128>
   18740:	02300e13          	li	t3,35
   18744:	13d19263          	bne	gp,t4,18868 <fail>

00018748 <test_36>:
   18748:	00000213          	li	tp,0
   1874c:	00f00113          	li	sp,15
   18750:	ffff80b7          	lui	ra,0xffff8
   18754:	00000013          	nop
   18758:	00000013          	nop
   1875c:	0020d1b3          	srl	gp,ra,sp
   18760:	00120213          	addi	tp,tp,1 # 1 <_start+0x1>
   18764:	00200293          	li	t0,2
   18768:	fe5212e3          	bne	tp,t0,1874c <test_36+0x4>
   1876c:	00020eb7          	lui	t4,0x20
   18770:	fffe8e93          	addi	t4,t4,-1 # 1ffff <Arr_2_Glob+0xe3b>
   18774:	02400e13          	li	t3,36
   18778:	0fd19863          	bne	gp,t4,18868 <fail>

0001877c <test_37>:
   1877c:	00000213          	li	tp,0
   18780:	00100113          	li	sp,1
   18784:	00000013          	nop
   18788:	ffff80b7          	lui	ra,0xffff8
   1878c:	0020d1b3          	srl	gp,ra,sp
   18790:	00120213          	addi	tp,tp,1 # 1 <_start+0x1>
   18794:	00200293          	li	t0,2
   18798:	fe5214e3          	bne	tp,t0,18780 <test_37+0x4>
   1879c:	7fffceb7          	lui	t4,0x7fffc
   187a0:	02500e13          	li	t3,37
   187a4:	0dd19263          	bne	gp,t4,18868 <fail>

000187a8 <test_38>:
   187a8:	00000213          	li	tp,0
   187ac:	00700113          	li	sp,7
   187b0:	00000013          	nop
   187b4:	ffff80b7          	lui	ra,0xffff8
   187b8:	00000013          	nop
   187bc:	0020d1b3          	srl	gp,ra,sp
   187c0:	00120213          	addi	tp,tp,1 # 1 <_start+0x1>
   187c4:	00200293          	li	t0,2
   187c8:	fe5212e3          	bne	tp,t0,187ac <test_38+0x4>
   187cc:	02000eb7          	lui	t4,0x2000
   187d0:	f00e8e93          	addi	t4,t4,-256 # 1ffff00 <heap_memory_used+0x1fde128>
   187d4:	02600e13          	li	t3,38
   187d8:	09d19863          	bne	gp,t4,18868 <fail>

000187dc <test_39>:
   187dc:	00000213          	li	tp,0
   187e0:	00f00113          	li	sp,15
   187e4:	00000013          	nop
   187e8:	00000013          	nop
   187ec:	ffff80b7          	lui	ra,0xffff8
   187f0:	0020d1b3          	srl	gp,ra,sp
   187f4:	00120213          	addi	tp,tp,1 # 1 <_start+0x1>
   187f8:	00200293          	li	t0,2
   187fc:	fe5212e3          	bne	tp,t0,187e0 <test_39+0x4>
   18800:	00020eb7          	lui	t4,0x20
   18804:	fffe8e93          	addi	t4,t4,-1 # 1ffff <Arr_2_Glob+0xe3b>
   18808:	02700e13          	li	t3,39
   1880c:	05d19e63          	bne	gp,t4,18868 <fail>

00018810 <test_40>:
   18810:	00f00093          	li	ra,15
   18814:	00105133          	srl	sp,zero,ra
   18818:	00000e93          	li	t4,0
   1881c:	02800e13          	li	t3,40
   18820:	05d11463          	bne	sp,t4,18868 <fail>

00018824 <test_41>:
   18824:	02000093          	li	ra,32
   18828:	0000d133          	srl	sp,ra,zero
   1882c:	02000e93          	li	t4,32
   18830:	02900e13          	li	t3,41
   18834:	03d11a63          	bne	sp,t4,18868 <fail>

00018838 <test_42>:
   18838:	000050b3          	srl	ra,zero,zero
   1883c:	00000e93          	li	t4,0
   18840:	02a00e13          	li	t3,42
   18844:	03d09263          	bne	ra,t4,18868 <fail>

00018848 <test_43>:
   18848:	40000093          	li	ra,1024
   1884c:	00001137          	lui	sp,0x1
   18850:	80010113          	addi	sp,sp,-2048 # 800 <coremarkBenchmark+0x758>
   18854:	0020d033          	srl	zero,ra,sp
   18858:	00000e93          	li	t4,0
   1885c:	02b00e13          	li	t3,43
   18860:	01d01463          	bne	zero,t4,18868 <fail>
   18864:	05c01863          	bne	zero,t3,188b4 <pass>

00018868 <fail>:
   18868:	04500513          	li	a0,69
   1886c:	00004137          	lui	sp,0x4
   18870:	118050ef          	jal	ra,1d988 <printf_c>
   18874:	05200513          	li	a0,82
   18878:	00004137          	lui	sp,0x4
   1887c:	10c050ef          	jal	ra,1d988 <printf_c>
   18880:	00004137          	lui	sp,0x4
   18884:	104050ef          	jal	ra,1d988 <printf_c>
   18888:	04f00513          	li	a0,79
   1888c:	00004137          	lui	sp,0x4
   18890:	0f8050ef          	jal	ra,1d988 <printf_c>
   18894:	00004137          	lui	sp,0x4
   18898:	05200513          	li	a0,82
   1889c:	00004137          	lui	sp,0x4
   188a0:	0e8050ef          	jal	ra,1d988 <printf_c>
   188a4:	00a00513          	li	a0,10
   188a8:	00004137          	lui	sp,0x4
   188ac:	0dc050ef          	jal	ra,1d988 <printf_c>
   188b0:	0340006f          	j	188e4 <srli>

000188b4 <pass>:
   188b4:	04f00513          	li	a0,79
   188b8:	00004137          	lui	sp,0x4
   188bc:	0cc050ef          	jal	ra,1d988 <printf_c>
   188c0:	04b00513          	li	a0,75
   188c4:	00004137          	lui	sp,0x4
   188c8:	0c0050ef          	jal	ra,1d988 <printf_c>
   188cc:	00a00513          	li	a0,10
   188d0:	00004137          	lui	sp,0x4
   188d4:	0b4050ef          	jal	ra,1d988 <printf_c>
   188d8:	00c0006f          	j	188e4 <srli>

000188dc <.test_name>:
   188dc:	696c7273          	csrrci	tp,0x696,24
   188e0:	0920                	addi	s0,sp,152
	...

000188e4 <srli>:
   188e4:	00019537          	lui	a0,0x19
   188e8:	8dc50513          	addi	a0,a0,-1828 # 188dc <.test_name>

000188ec <.prname_next>:
   188ec:	00004137          	lui	sp,0x4
   188f0:	0b0050ef          	jal	ra,1d9a0 <printf_s>

000188f4 <test_2>:
   188f4:	ffff80b7          	lui	ra,0xffff8
   188f8:	0000d193          	srli	gp,ra,0x0
   188fc:	ffff8eb7          	lui	t4,0xffff8
   18900:	00200e13          	li	t3,2
   18904:	2bd19263          	bne	gp,t4,18ba8 <fail>

00018908 <test_3>:
   18908:	ffff80b7          	lui	ra,0xffff8
   1890c:	0010d193          	srli	gp,ra,0x1
   18910:	7fffceb7          	lui	t4,0x7fffc
   18914:	00300e13          	li	t3,3
   18918:	29d19863          	bne	gp,t4,18ba8 <fail>

0001891c <test_4>:
   1891c:	ffff80b7          	lui	ra,0xffff8
   18920:	0070d193          	srli	gp,ra,0x7
   18924:	02000eb7          	lui	t4,0x2000
   18928:	f00e8e93          	addi	t4,t4,-256 # 1ffff00 <heap_memory_used+0x1fde128>
   1892c:	00400e13          	li	t3,4
   18930:	27d19c63          	bne	gp,t4,18ba8 <fail>

00018934 <test_5>:
   18934:	ffff80b7          	lui	ra,0xffff8
   18938:	00e0d193          	srli	gp,ra,0xe
   1893c:	00040eb7          	lui	t4,0x40
   18940:	ffee8e93          	addi	t4,t4,-2 # 3fffe <heap_memory_used+0x1e226>
   18944:	00500e13          	li	t3,5
   18948:	27d19063          	bne	gp,t4,18ba8 <fail>

0001894c <test_6>:
   1894c:	ffff80b7          	lui	ra,0xffff8
   18950:	00108093          	addi	ra,ra,1 # ffff8001 <heap_memory_used+0xfffd6229>
   18954:	00f0d193          	srli	gp,ra,0xf
   18958:	00020eb7          	lui	t4,0x20
   1895c:	fffe8e93          	addi	t4,t4,-1 # 1ffff <Arr_2_Glob+0xe3b>
   18960:	00600e13          	li	t3,6
   18964:	25d19263          	bne	gp,t4,18ba8 <fail>

00018968 <test_7>:
   18968:	fff00093          	li	ra,-1
   1896c:	0000d193          	srli	gp,ra,0x0
   18970:	fff00e93          	li	t4,-1
   18974:	00700e13          	li	t3,7
   18978:	23d19863          	bne	gp,t4,18ba8 <fail>

0001897c <test_8>:
   1897c:	fff00093          	li	ra,-1
   18980:	0010d193          	srli	gp,ra,0x1
   18984:	80000eb7          	lui	t4,0x80000
   18988:	fffe8e93          	addi	t4,t4,-1 # 7fffffff <heap_memory_used+0x7ffde227>
   1898c:	00800e13          	li	t3,8
   18990:	21d19c63          	bne	gp,t4,18ba8 <fail>

00018994 <test_9>:
   18994:	fff00093          	li	ra,-1
   18998:	0070d193          	srli	gp,ra,0x7
   1899c:	02000eb7          	lui	t4,0x2000
   189a0:	fffe8e93          	addi	t4,t4,-1 # 1ffffff <heap_memory_used+0x1fde227>
   189a4:	00900e13          	li	t3,9
   189a8:	21d19063          	bne	gp,t4,18ba8 <fail>

000189ac <test_10>:
   189ac:	fff00093          	li	ra,-1
   189b0:	00e0d193          	srli	gp,ra,0xe
   189b4:	00040eb7          	lui	t4,0x40
   189b8:	fffe8e93          	addi	t4,t4,-1 # 3ffff <heap_memory_used+0x1e227>
   189bc:	00a00e13          	li	t3,10
   189c0:	1fd19463          	bne	gp,t4,18ba8 <fail>

000189c4 <test_11>:
   189c4:	fff00093          	li	ra,-1
   189c8:	01f0d193          	srli	gp,ra,0x1f
   189cc:	00100e93          	li	t4,1
   189d0:	00b00e13          	li	t3,11
   189d4:	1dd19a63          	bne	gp,t4,18ba8 <fail>

000189d8 <test_12>:
   189d8:	212120b7          	lui	ra,0x21212
   189dc:	12108093          	addi	ra,ra,289 # 21212121 <heap_memory_used+0x211f0349>
   189e0:	0000d193          	srli	gp,ra,0x0
   189e4:	21212eb7          	lui	t4,0x21212
   189e8:	121e8e93          	addi	t4,t4,289 # 21212121 <heap_memory_used+0x211f0349>
   189ec:	00c00e13          	li	t3,12
   189f0:	1bd19c63          	bne	gp,t4,18ba8 <fail>

000189f4 <test_13>:
   189f4:	212120b7          	lui	ra,0x21212
   189f8:	12108093          	addi	ra,ra,289 # 21212121 <heap_memory_used+0x211f0349>
   189fc:	0010d193          	srli	gp,ra,0x1
   18a00:	10909eb7          	lui	t4,0x10909
   18a04:	090e8e93          	addi	t4,t4,144 # 10909090 <heap_memory_used+0x108e72b8>
   18a08:	00d00e13          	li	t3,13
   18a0c:	19d19e63          	bne	gp,t4,18ba8 <fail>

00018a10 <test_14>:
   18a10:	212120b7          	lui	ra,0x21212
   18a14:	12108093          	addi	ra,ra,289 # 21212121 <heap_memory_used+0x211f0349>
   18a18:	0070d193          	srli	gp,ra,0x7
   18a1c:	00424eb7          	lui	t4,0x424
   18a20:	242e8e93          	addi	t4,t4,578 # 424242 <heap_memory_used+0x40246a>
   18a24:	00e00e13          	li	t3,14
   18a28:	19d19063          	bne	gp,t4,18ba8 <fail>

00018a2c <test_15>:
   18a2c:	212120b7          	lui	ra,0x21212
   18a30:	12108093          	addi	ra,ra,289 # 21212121 <heap_memory_used+0x211f0349>
   18a34:	00e0d193          	srli	gp,ra,0xe
   18a38:	00008eb7          	lui	t4,0x8
   18a3c:	484e8e93          	addi	t4,t4,1156 # 8484 <coremarkBenchmark+0x83dc>
   18a40:	00f00e13          	li	t3,15
   18a44:	17d19263          	bne	gp,t4,18ba8 <fail>

00018a48 <test_16>:
   18a48:	212120b7          	lui	ra,0x21212
   18a4c:	12108093          	addi	ra,ra,289 # 21212121 <heap_memory_used+0x211f0349>
   18a50:	01f0d193          	srli	gp,ra,0x1f
   18a54:	00000e93          	li	t4,0
   18a58:	01000e13          	li	t3,16
   18a5c:	15d19663          	bne	gp,t4,18ba8 <fail>

00018a60 <test_21>:
   18a60:	ffff80b7          	lui	ra,0xffff8
   18a64:	0010d093          	srli	ra,ra,0x1
   18a68:	7fffceb7          	lui	t4,0x7fffc
   18a6c:	01500e13          	li	t3,21
   18a70:	13d09c63          	bne	ra,t4,18ba8 <fail>

00018a74 <test_22>:
   18a74:	00000213          	li	tp,0
   18a78:	ffff80b7          	lui	ra,0xffff8
   18a7c:	0010d193          	srli	gp,ra,0x1
   18a80:	00018313          	mv	t1,gp
   18a84:	00120213          	addi	tp,tp,1 # 1 <_start+0x1>
   18a88:	00200293          	li	t0,2
   18a8c:	fe5216e3          	bne	tp,t0,18a78 <test_22+0x4>
   18a90:	7fffceb7          	lui	t4,0x7fffc
   18a94:	01600e13          	li	t3,22
   18a98:	11d31863          	bne	t1,t4,18ba8 <fail>

00018a9c <test_23>:
   18a9c:	00000213          	li	tp,0
   18aa0:	ffff80b7          	lui	ra,0xffff8
   18aa4:	00e0d193          	srli	gp,ra,0xe
   18aa8:	00000013          	nop
   18aac:	00018313          	mv	t1,gp
   18ab0:	00120213          	addi	tp,tp,1 # 1 <_start+0x1>
   18ab4:	00200293          	li	t0,2
   18ab8:	fe5214e3          	bne	tp,t0,18aa0 <test_23+0x4>
   18abc:	00040eb7          	lui	t4,0x40
   18ac0:	ffee8e93          	addi	t4,t4,-2 # 3fffe <heap_memory_used+0x1e226>
   18ac4:	01700e13          	li	t3,23
   18ac8:	0fd31063          	bne	t1,t4,18ba8 <fail>

00018acc <test_24>:
   18acc:	00000213          	li	tp,0
   18ad0:	ffff80b7          	lui	ra,0xffff8
   18ad4:	00f0d193          	srli	gp,ra,0xf
   18ad8:	00000013          	nop
   18adc:	00000013          	nop
   18ae0:	00018313          	mv	t1,gp
   18ae4:	00120213          	addi	tp,tp,1 # 1 <_start+0x1>
   18ae8:	00200293          	li	t0,2
   18aec:	fe5212e3          	bne	tp,t0,18ad0 <test_24+0x4>
   18af0:	00020eb7          	lui	t4,0x20
   18af4:	fffe8e93          	addi	t4,t4,-1 # 1ffff <Arr_2_Glob+0xe3b>
   18af8:	01800e13          	li	t3,24
   18afc:	0bd31663          	bne	t1,t4,18ba8 <fail>

00018b00 <test_25>:
   18b00:	00000213          	li	tp,0
   18b04:	ffff80b7          	lui	ra,0xffff8
   18b08:	0010d193          	srli	gp,ra,0x1
   18b0c:	00120213          	addi	tp,tp,1 # 1 <_start+0x1>
   18b10:	00200293          	li	t0,2
   18b14:	fe5218e3          	bne	tp,t0,18b04 <test_25+0x4>
   18b18:	7fffceb7          	lui	t4,0x7fffc
   18b1c:	01900e13          	li	t3,25
   18b20:	09d19463          	bne	gp,t4,18ba8 <fail>

00018b24 <test_26>:
   18b24:	00000213          	li	tp,0
   18b28:	ffff80b7          	lui	ra,0xffff8
   18b2c:	00000013          	nop
   18b30:	00e0d193          	srli	gp,ra,0xe
   18b34:	00120213          	addi	tp,tp,1 # 1 <_start+0x1>
   18b38:	00200293          	li	t0,2
   18b3c:	fe5216e3          	bne	tp,t0,18b28 <test_26+0x4>
   18b40:	00040eb7          	lui	t4,0x40
   18b44:	ffee8e93          	addi	t4,t4,-2 # 3fffe <heap_memory_used+0x1e226>
   18b48:	01a00e13          	li	t3,26
   18b4c:	05d19e63          	bne	gp,t4,18ba8 <fail>

00018b50 <test_27>:
   18b50:	00000213          	li	tp,0
   18b54:	ffff80b7          	lui	ra,0xffff8
   18b58:	00000013          	nop
   18b5c:	00000013          	nop
   18b60:	00f0d193          	srli	gp,ra,0xf
   18b64:	00120213          	addi	tp,tp,1 # 1 <_start+0x1>
   18b68:	00200293          	li	t0,2
   18b6c:	fe5214e3          	bne	tp,t0,18b54 <test_27+0x4>
   18b70:	00020eb7          	lui	t4,0x20
   18b74:	fffe8e93          	addi	t4,t4,-1 # 1ffff <Arr_2_Glob+0xe3b>
   18b78:	01b00e13          	li	t3,27
   18b7c:	03d19663          	bne	gp,t4,18ba8 <fail>

00018b80 <test_28>:
   18b80:	01f05093          	srli	ra,zero,0x1f
   18b84:	00000e93          	li	t4,0
   18b88:	01c00e13          	li	t3,28
   18b8c:	01d09e63          	bne	ra,t4,18ba8 <fail>

00018b90 <test_29>:
   18b90:	02100093          	li	ra,33
   18b94:	0140d013          	srli	zero,ra,0x14
   18b98:	00000e93          	li	t4,0
   18b9c:	01d00e13          	li	t3,29
   18ba0:	01d01463          	bne	zero,t4,18ba8 <fail>
   18ba4:	05c01863          	bne	zero,t3,18bf4 <pass>

00018ba8 <fail>:
   18ba8:	04500513          	li	a0,69
   18bac:	00004137          	lui	sp,0x4
   18bb0:	5d9040ef          	jal	ra,1d988 <printf_c>
   18bb4:	05200513          	li	a0,82
   18bb8:	00004137          	lui	sp,0x4
   18bbc:	5cd040ef          	jal	ra,1d988 <printf_c>
   18bc0:	00004137          	lui	sp,0x4
   18bc4:	5c5040ef          	jal	ra,1d988 <printf_c>
   18bc8:	04f00513          	li	a0,79
   18bcc:	00004137          	lui	sp,0x4
   18bd0:	5b9040ef          	jal	ra,1d988 <printf_c>
   18bd4:	00004137          	lui	sp,0x4
   18bd8:	05200513          	li	a0,82
   18bdc:	00004137          	lui	sp,0x4
   18be0:	5a9040ef          	jal	ra,1d988 <printf_c>
   18be4:	00a00513          	li	a0,10
   18be8:	00004137          	lui	sp,0x4
   18bec:	59d040ef          	jal	ra,1d988 <printf_c>
   18bf0:	0340006f          	j	18c24 <sub>

00018bf4 <pass>:
   18bf4:	04f00513          	li	a0,79
   18bf8:	00004137          	lui	sp,0x4
   18bfc:	58d040ef          	jal	ra,1d988 <printf_c>
   18c00:	04b00513          	li	a0,75
   18c04:	00004137          	lui	sp,0x4
   18c08:	581040ef          	jal	ra,1d988 <printf_c>
   18c0c:	00a00513          	li	a0,10
   18c10:	00004137          	lui	sp,0x4
   18c14:	575040ef          	jal	ra,1d988 <printf_c>
   18c18:	00c0006f          	j	18c24 <sub>

00018c1c <.test_name>:
   18c1c:	20627573          	csrrci	a0,0x206,4
   18c20:	0009                	c.addi	zero,2
	...

00018c24 <sub>:
   18c24:	00019537          	lui	a0,0x19
   18c28:	c1c50513          	addi	a0,a0,-996 # 18c1c <.test_name>

00018c2c <.prname_next>:
   18c2c:	00004137          	lui	sp,0x4
   18c30:	571040ef          	jal	ra,1d9a0 <printf_s>

00018c34 <test_2>:
   18c34:	00000093          	li	ra,0
   18c38:	00000113          	li	sp,0
   18c3c:	402081b3          	sub	gp,ra,sp
   18c40:	00000e93          	li	t4,0
   18c44:	00200e13          	li	t3,2
   18c48:	4bd19663          	bne	gp,t4,190f4 <fail>

00018c4c <test_3>:
   18c4c:	00100093          	li	ra,1
   18c50:	00100113          	li	sp,1
   18c54:	402081b3          	sub	gp,ra,sp
   18c58:	00000e93          	li	t4,0
   18c5c:	00300e13          	li	t3,3
   18c60:	49d19a63          	bne	gp,t4,190f4 <fail>

00018c64 <test_4>:
   18c64:	00300093          	li	ra,3
   18c68:	00700113          	li	sp,7
   18c6c:	402081b3          	sub	gp,ra,sp
   18c70:	ffc00e93          	li	t4,-4
   18c74:	00400e13          	li	t3,4
   18c78:	47d19e63          	bne	gp,t4,190f4 <fail>

00018c7c <test_5>:
   18c7c:	00000093          	li	ra,0
   18c80:	ffff8137          	lui	sp,0xffff8
   18c84:	402081b3          	sub	gp,ra,sp
   18c88:	00008eb7          	lui	t4,0x8
   18c8c:	00500e13          	li	t3,5
   18c90:	47d19263          	bne	gp,t4,190f4 <fail>

00018c94 <test_6>:
   18c94:	800000b7          	lui	ra,0x80000
   18c98:	00000113          	li	sp,0
   18c9c:	402081b3          	sub	gp,ra,sp
   18ca0:	80000eb7          	lui	t4,0x80000
   18ca4:	00600e13          	li	t3,6
   18ca8:	45d19663          	bne	gp,t4,190f4 <fail>

00018cac <test_7>:
   18cac:	800000b7          	lui	ra,0x80000
   18cb0:	ffff8137          	lui	sp,0xffff8
   18cb4:	402081b3          	sub	gp,ra,sp
   18cb8:	80008eb7          	lui	t4,0x80008
   18cbc:	00700e13          	li	t3,7
   18cc0:	43d19a63          	bne	gp,t4,190f4 <fail>

00018cc4 <test_8>:
   18cc4:	00000093          	li	ra,0
   18cc8:	00008137          	lui	sp,0x8
   18ccc:	fff10113          	addi	sp,sp,-1 # 7fff <coremarkBenchmark+0x7f57>
   18cd0:	402081b3          	sub	gp,ra,sp
   18cd4:	ffff8eb7          	lui	t4,0xffff8
   18cd8:	001e8e93          	addi	t4,t4,1 # ffff8001 <heap_memory_used+0xfffd6229>
   18cdc:	00800e13          	li	t3,8
   18ce0:	41d19a63          	bne	gp,t4,190f4 <fail>

00018ce4 <test_9>:
   18ce4:	800000b7          	lui	ra,0x80000
   18ce8:	fff08093          	addi	ra,ra,-1 # 7fffffff <heap_memory_used+0x7ffde227>
   18cec:	00000113          	li	sp,0
   18cf0:	402081b3          	sub	gp,ra,sp
   18cf4:	80000eb7          	lui	t4,0x80000
   18cf8:	fffe8e93          	addi	t4,t4,-1 # 7fffffff <heap_memory_used+0x7ffde227>
   18cfc:	00900e13          	li	t3,9
   18d00:	3fd19a63          	bne	gp,t4,190f4 <fail>

00018d04 <test_10>:
   18d04:	800000b7          	lui	ra,0x80000
   18d08:	fff08093          	addi	ra,ra,-1 # 7fffffff <heap_memory_used+0x7ffde227>
   18d0c:	00008137          	lui	sp,0x8
   18d10:	fff10113          	addi	sp,sp,-1 # 7fff <coremarkBenchmark+0x7f57>
   18d14:	402081b3          	sub	gp,ra,sp
   18d18:	7fff8eb7          	lui	t4,0x7fff8
   18d1c:	00a00e13          	li	t3,10
   18d20:	3dd19a63          	bne	gp,t4,190f4 <fail>

00018d24 <test_11>:
   18d24:	800000b7          	lui	ra,0x80000
   18d28:	00008137          	lui	sp,0x8
   18d2c:	fff10113          	addi	sp,sp,-1 # 7fff <coremarkBenchmark+0x7f57>
   18d30:	402081b3          	sub	gp,ra,sp
   18d34:	7fff8eb7          	lui	t4,0x7fff8
   18d38:	001e8e93          	addi	t4,t4,1 # 7fff8001 <heap_memory_used+0x7ffd6229>
   18d3c:	00b00e13          	li	t3,11
   18d40:	3bd19a63          	bne	gp,t4,190f4 <fail>

00018d44 <test_12>:
   18d44:	800000b7          	lui	ra,0x80000
   18d48:	fff08093          	addi	ra,ra,-1 # 7fffffff <heap_memory_used+0x7ffde227>
   18d4c:	ffff8137          	lui	sp,0xffff8
   18d50:	402081b3          	sub	gp,ra,sp
   18d54:	80008eb7          	lui	t4,0x80008
   18d58:	fffe8e93          	addi	t4,t4,-1 # 80007fff <heap_memory_used+0x7ffe6227>
   18d5c:	00c00e13          	li	t3,12
   18d60:	39d19a63          	bne	gp,t4,190f4 <fail>

00018d64 <test_13>:
   18d64:	00000093          	li	ra,0
   18d68:	fff00113          	li	sp,-1
   18d6c:	402081b3          	sub	gp,ra,sp
   18d70:	00100e93          	li	t4,1
   18d74:	00d00e13          	li	t3,13
   18d78:	37d19e63          	bne	gp,t4,190f4 <fail>

00018d7c <test_14>:
   18d7c:	fff00093          	li	ra,-1
   18d80:	00100113          	li	sp,1
   18d84:	402081b3          	sub	gp,ra,sp
   18d88:	ffe00e93          	li	t4,-2
   18d8c:	00e00e13          	li	t3,14
   18d90:	37d19263          	bne	gp,t4,190f4 <fail>

00018d94 <test_15>:
   18d94:	fff00093          	li	ra,-1
   18d98:	fff00113          	li	sp,-1
   18d9c:	402081b3          	sub	gp,ra,sp
   18da0:	00000e93          	li	t4,0
   18da4:	00f00e13          	li	t3,15
   18da8:	35d19663          	bne	gp,t4,190f4 <fail>

00018dac <test_16>:
   18dac:	00d00093          	li	ra,13
   18db0:	00b00113          	li	sp,11
   18db4:	402080b3          	sub	ra,ra,sp
   18db8:	00200e93          	li	t4,2
   18dbc:	01000e13          	li	t3,16
   18dc0:	33d09a63          	bne	ra,t4,190f4 <fail>

00018dc4 <test_17>:
   18dc4:	00e00093          	li	ra,14
   18dc8:	00b00113          	li	sp,11
   18dcc:	40208133          	sub	sp,ra,sp
   18dd0:	00300e93          	li	t4,3
   18dd4:	01100e13          	li	t3,17
   18dd8:	31d11e63          	bne	sp,t4,190f4 <fail>

00018ddc <test_18>:
   18ddc:	00d00093          	li	ra,13
   18de0:	401080b3          	sub	ra,ra,ra
   18de4:	00000e93          	li	t4,0
   18de8:	01200e13          	li	t3,18
   18dec:	31d09463          	bne	ra,t4,190f4 <fail>

00018df0 <test_19>:
   18df0:	00000213          	li	tp,0
   18df4:	00d00093          	li	ra,13
   18df8:	00b00113          	li	sp,11
   18dfc:	402081b3          	sub	gp,ra,sp
   18e00:	00018313          	mv	t1,gp
   18e04:	00120213          	addi	tp,tp,1 # 1 <_start+0x1>
   18e08:	00200293          	li	t0,2
   18e0c:	fe5214e3          	bne	tp,t0,18df4 <test_19+0x4>
   18e10:	00200e93          	li	t4,2
   18e14:	01300e13          	li	t3,19
   18e18:	2dd31e63          	bne	t1,t4,190f4 <fail>

00018e1c <test_20>:
   18e1c:	00000213          	li	tp,0
   18e20:	00e00093          	li	ra,14
   18e24:	00b00113          	li	sp,11
   18e28:	402081b3          	sub	gp,ra,sp
   18e2c:	00000013          	nop
   18e30:	00018313          	mv	t1,gp
   18e34:	00120213          	addi	tp,tp,1 # 1 <_start+0x1>
   18e38:	00200293          	li	t0,2
   18e3c:	fe5212e3          	bne	tp,t0,18e20 <test_20+0x4>
   18e40:	00300e93          	li	t4,3
   18e44:	01400e13          	li	t3,20
   18e48:	2bd31663          	bne	t1,t4,190f4 <fail>

00018e4c <test_21>:
   18e4c:	00000213          	li	tp,0
   18e50:	00f00093          	li	ra,15
   18e54:	00b00113          	li	sp,11
   18e58:	402081b3          	sub	gp,ra,sp
   18e5c:	00000013          	nop
   18e60:	00000013          	nop
   18e64:	00018313          	mv	t1,gp
   18e68:	00120213          	addi	tp,tp,1 # 1 <_start+0x1>
   18e6c:	00200293          	li	t0,2
   18e70:	fe5210e3          	bne	tp,t0,18e50 <test_21+0x4>
   18e74:	00400e93          	li	t4,4
   18e78:	01500e13          	li	t3,21
   18e7c:	27d31c63          	bne	t1,t4,190f4 <fail>

00018e80 <test_22>:
   18e80:	00000213          	li	tp,0
   18e84:	00d00093          	li	ra,13
   18e88:	00b00113          	li	sp,11
   18e8c:	402081b3          	sub	gp,ra,sp
   18e90:	00120213          	addi	tp,tp,1 # 1 <_start+0x1>
   18e94:	00200293          	li	t0,2
   18e98:	fe5216e3          	bne	tp,t0,18e84 <test_22+0x4>
   18e9c:	00200e93          	li	t4,2
   18ea0:	01600e13          	li	t3,22
   18ea4:	25d19863          	bne	gp,t4,190f4 <fail>

00018ea8 <test_23>:
   18ea8:	00000213          	li	tp,0
   18eac:	00e00093          	li	ra,14
   18eb0:	00b00113          	li	sp,11
   18eb4:	00000013          	nop
   18eb8:	402081b3          	sub	gp,ra,sp
   18ebc:	00120213          	addi	tp,tp,1 # 1 <_start+0x1>
   18ec0:	00200293          	li	t0,2
   18ec4:	fe5214e3          	bne	tp,t0,18eac <test_23+0x4>
   18ec8:	00300e93          	li	t4,3
   18ecc:	01700e13          	li	t3,23
   18ed0:	23d19263          	bne	gp,t4,190f4 <fail>

00018ed4 <test_24>:
   18ed4:	00000213          	li	tp,0
   18ed8:	00f00093          	li	ra,15
   18edc:	00b00113          	li	sp,11
   18ee0:	00000013          	nop
   18ee4:	00000013          	nop
   18ee8:	402081b3          	sub	gp,ra,sp
   18eec:	00120213          	addi	tp,tp,1 # 1 <_start+0x1>
   18ef0:	00200293          	li	t0,2
   18ef4:	fe5212e3          	bne	tp,t0,18ed8 <test_24+0x4>
   18ef8:	00400e93          	li	t4,4
   18efc:	01800e13          	li	t3,24
   18f00:	1fd19a63          	bne	gp,t4,190f4 <fail>

00018f04 <test_25>:
   18f04:	00000213          	li	tp,0
   18f08:	00d00093          	li	ra,13
   18f0c:	00000013          	nop
   18f10:	00b00113          	li	sp,11
   18f14:	402081b3          	sub	gp,ra,sp
   18f18:	00120213          	addi	tp,tp,1 # 1 <_start+0x1>
   18f1c:	00200293          	li	t0,2
   18f20:	fe5214e3          	bne	tp,t0,18f08 <test_25+0x4>
   18f24:	00200e93          	li	t4,2
   18f28:	01900e13          	li	t3,25
   18f2c:	1dd19463          	bne	gp,t4,190f4 <fail>

00018f30 <test_26>:
   18f30:	00000213          	li	tp,0
   18f34:	00e00093          	li	ra,14
   18f38:	00000013          	nop
   18f3c:	00b00113          	li	sp,11
   18f40:	00000013          	nop
   18f44:	402081b3          	sub	gp,ra,sp
   18f48:	00120213          	addi	tp,tp,1 # 1 <_start+0x1>
   18f4c:	00200293          	li	t0,2
   18f50:	fe5212e3          	bne	tp,t0,18f34 <test_26+0x4>
   18f54:	00300e93          	li	t4,3
   18f58:	01a00e13          	li	t3,26
   18f5c:	19d19c63          	bne	gp,t4,190f4 <fail>

00018f60 <test_27>:
   18f60:	00000213          	li	tp,0
   18f64:	00f00093          	li	ra,15
   18f68:	00000013          	nop
   18f6c:	00000013          	nop
   18f70:	00b00113          	li	sp,11
   18f74:	402081b3          	sub	gp,ra,sp
   18f78:	00120213          	addi	tp,tp,1 # 1 <_start+0x1>
   18f7c:	00200293          	li	t0,2
   18f80:	fe5212e3          	bne	tp,t0,18f64 <test_27+0x4>
   18f84:	00400e93          	li	t4,4
   18f88:	01b00e13          	li	t3,27
   18f8c:	17d19463          	bne	gp,t4,190f4 <fail>

00018f90 <test_28>:
   18f90:	00000213          	li	tp,0
   18f94:	00b00113          	li	sp,11
   18f98:	00d00093          	li	ra,13
   18f9c:	402081b3          	sub	gp,ra,sp
   18fa0:	00120213          	addi	tp,tp,1 # 1 <_start+0x1>
   18fa4:	00200293          	li	t0,2
   18fa8:	fe5216e3          	bne	tp,t0,18f94 <test_28+0x4>
   18fac:	00200e93          	li	t4,2
   18fb0:	01c00e13          	li	t3,28
   18fb4:	15d19063          	bne	gp,t4,190f4 <fail>

00018fb8 <test_29>:
   18fb8:	00000213          	li	tp,0
   18fbc:	00b00113          	li	sp,11
   18fc0:	00e00093          	li	ra,14
   18fc4:	00000013          	nop
   18fc8:	402081b3          	sub	gp,ra,sp
   18fcc:	00120213          	addi	tp,tp,1 # 1 <_start+0x1>
   18fd0:	00200293          	li	t0,2
   18fd4:	fe5214e3          	bne	tp,t0,18fbc <test_29+0x4>
   18fd8:	00300e93          	li	t4,3
   18fdc:	01d00e13          	li	t3,29
   18fe0:	11d19a63          	bne	gp,t4,190f4 <fail>

00018fe4 <test_30>:
   18fe4:	00000213          	li	tp,0
   18fe8:	00b00113          	li	sp,11
   18fec:	00f00093          	li	ra,15
   18ff0:	00000013          	nop
   18ff4:	00000013          	nop
   18ff8:	402081b3          	sub	gp,ra,sp
   18ffc:	00120213          	addi	tp,tp,1 # 1 <_start+0x1>
   19000:	00200293          	li	t0,2
   19004:	fe5212e3          	bne	tp,t0,18fe8 <test_30+0x4>
   19008:	00400e93          	li	t4,4
   1900c:	01e00e13          	li	t3,30
   19010:	0fd19263          	bne	gp,t4,190f4 <fail>

00019014 <test_31>:
   19014:	00000213          	li	tp,0
   19018:	00b00113          	li	sp,11
   1901c:	00000013          	nop
   19020:	00d00093          	li	ra,13
   19024:	402081b3          	sub	gp,ra,sp
   19028:	00120213          	addi	tp,tp,1 # 1 <_start+0x1>
   1902c:	00200293          	li	t0,2
   19030:	fe5214e3          	bne	tp,t0,19018 <test_31+0x4>
   19034:	00200e93          	li	t4,2
   19038:	01f00e13          	li	t3,31
   1903c:	0bd19c63          	bne	gp,t4,190f4 <fail>

00019040 <test_32>:
   19040:	00000213          	li	tp,0
   19044:	00b00113          	li	sp,11
   19048:	00000013          	nop
   1904c:	00e00093          	li	ra,14
   19050:	00000013          	nop
   19054:	402081b3          	sub	gp,ra,sp
   19058:	00120213          	addi	tp,tp,1 # 1 <_start+0x1>
   1905c:	00200293          	li	t0,2
   19060:	fe5212e3          	bne	tp,t0,19044 <test_32+0x4>
   19064:	00300e93          	li	t4,3
   19068:	02000e13          	li	t3,32
   1906c:	09d19463          	bne	gp,t4,190f4 <fail>

00019070 <test_33>:
   19070:	00000213          	li	tp,0
   19074:	00b00113          	li	sp,11
   19078:	00000013          	nop
   1907c:	00000013          	nop
   19080:	00f00093          	li	ra,15
   19084:	402081b3          	sub	gp,ra,sp
   19088:	00120213          	addi	tp,tp,1 # 1 <_start+0x1>
   1908c:	00200293          	li	t0,2
   19090:	fe5212e3          	bne	tp,t0,19074 <test_33+0x4>
   19094:	00400e93          	li	t4,4
   19098:	02100e13          	li	t3,33
   1909c:	05d19c63          	bne	gp,t4,190f4 <fail>

000190a0 <test_34>:
   190a0:	ff100093          	li	ra,-15
   190a4:	40100133          	neg	sp,ra
   190a8:	00f00e93          	li	t4,15
   190ac:	02200e13          	li	t3,34
   190b0:	05d11263          	bne	sp,t4,190f4 <fail>

000190b4 <test_35>:
   190b4:	02000093          	li	ra,32
   190b8:	40008133          	sub	sp,ra,zero
   190bc:	02000e93          	li	t4,32
   190c0:	02300e13          	li	t3,35
   190c4:	03d11863          	bne	sp,t4,190f4 <fail>

000190c8 <test_36>:
   190c8:	400000b3          	neg	ra,zero
   190cc:	00000e93          	li	t4,0
   190d0:	02400e13          	li	t3,36
   190d4:	03d09063          	bne	ra,t4,190f4 <fail>

000190d8 <test_37>:
   190d8:	01000093          	li	ra,16
   190dc:	01e00113          	li	sp,30
   190e0:	40208033          	sub	zero,ra,sp
   190e4:	00000e93          	li	t4,0
   190e8:	02500e13          	li	t3,37
   190ec:	01d01463          	bne	zero,t4,190f4 <fail>
   190f0:	05c01863          	bne	zero,t3,19140 <pass>

000190f4 <fail>:
   190f4:	04500513          	li	a0,69
   190f8:	00004137          	lui	sp,0x4
   190fc:	08d040ef          	jal	ra,1d988 <printf_c>
   19100:	05200513          	li	a0,82
   19104:	00004137          	lui	sp,0x4
   19108:	081040ef          	jal	ra,1d988 <printf_c>
   1910c:	00004137          	lui	sp,0x4
   19110:	079040ef          	jal	ra,1d988 <printf_c>
   19114:	04f00513          	li	a0,79
   19118:	00004137          	lui	sp,0x4
   1911c:	06d040ef          	jal	ra,1d988 <printf_c>
   19120:	00004137          	lui	sp,0x4
   19124:	05200513          	li	a0,82
   19128:	00004137          	lui	sp,0x4
   1912c:	05d040ef          	jal	ra,1d988 <printf_c>
   19130:	00a00513          	li	a0,10
   19134:	00004137          	lui	sp,0x4
   19138:	051040ef          	jal	ra,1d988 <printf_c>
   1913c:	0300006f          	j	1916c <sw>

00019140 <pass>:
   19140:	04f00513          	li	a0,79
   19144:	00004137          	lui	sp,0x4
   19148:	041040ef          	jal	ra,1d988 <printf_c>
   1914c:	04b00513          	li	a0,75
   19150:	00004137          	lui	sp,0x4
   19154:	035040ef          	jal	ra,1d988 <printf_c>
   19158:	00a00513          	li	a0,10
   1915c:	00004137          	lui	sp,0x4
   19160:	029040ef          	jal	ra,1d988 <printf_c>
   19164:	0080006f          	j	1916c <sw>

00019168 <.test_name>:
   19168:	00097773          	csrrci	a4,0x0,18

0001916c <sw>:
   1916c:	00019537          	lui	a0,0x19
   19170:	16850513          	addi	a0,a0,360 # 19168 <.test_name>

00019174 <.prname_next>:
   19174:	00004137          	lui	sp,0x4
   19178:	029040ef          	jal	ra,1d9a0 <printf_s>

0001917c <test_2>:
   1917c:	00006097          	auipc	ra,0x6
   19180:	b9c08093          	addi	ra,ra,-1124 # 1ed18 <tdat>
   19184:	00aa0137          	lui	sp,0xaa0
   19188:	0aa10113          	addi	sp,sp,170 # aa00aa <heap_memory_used+0xa7e2d2>
   1918c:	0020a023          	sw	sp,0(ra)
   19190:	0000a183          	lw	gp,0(ra)
   19194:	00aa0eb7          	lui	t4,0xaa0
   19198:	0aae8e93          	addi	t4,t4,170 # aa00aa <heap_memory_used+0xa7e2d2>
   1919c:	00200e13          	li	t3,2
   191a0:	47d19063          	bne	gp,t4,19600 <fail>

000191a4 <test_3>:
   191a4:	00006097          	auipc	ra,0x6
   191a8:	b7408093          	addi	ra,ra,-1164 # 1ed18 <tdat>
   191ac:	aa00b137          	lui	sp,0xaa00b
   191b0:	a0010113          	addi	sp,sp,-1536 # aa00aa00 <heap_memory_used+0xa9fe8c28>
   191b4:	0020a223          	sw	sp,4(ra)
   191b8:	0040a183          	lw	gp,4(ra)
   191bc:	aa00beb7          	lui	t4,0xaa00b
   191c0:	a00e8e93          	addi	t4,t4,-1536 # aa00aa00 <heap_memory_used+0xa9fe8c28>
   191c4:	00300e13          	li	t3,3
   191c8:	43d19c63          	bne	gp,t4,19600 <fail>

000191cc <test_4>:
   191cc:	00006097          	auipc	ra,0x6
   191d0:	b4c08093          	addi	ra,ra,-1204 # 1ed18 <tdat>
   191d4:	0aa01137          	lui	sp,0xaa01
   191d8:	aa010113          	addi	sp,sp,-1376 # aa00aa0 <heap_memory_used+0xa9decc8>
   191dc:	0020a423          	sw	sp,8(ra)
   191e0:	0080a183          	lw	gp,8(ra)
   191e4:	0aa01eb7          	lui	t4,0xaa01
   191e8:	aa0e8e93          	addi	t4,t4,-1376 # aa00aa0 <heap_memory_used+0xa9decc8>
   191ec:	00400e13          	li	t3,4
   191f0:	41d19863          	bne	gp,t4,19600 <fail>

000191f4 <test_5>:
   191f4:	00006097          	auipc	ra,0x6
   191f8:	b2408093          	addi	ra,ra,-1244 # 1ed18 <tdat>
   191fc:	a00aa137          	lui	sp,0xa00aa
   19200:	00a10113          	addi	sp,sp,10 # a00aa00a <heap_memory_used+0xa0088232>
   19204:	0020a623          	sw	sp,12(ra)
   19208:	00c0a183          	lw	gp,12(ra)
   1920c:	a00aaeb7          	lui	t4,0xa00aa
   19210:	00ae8e93          	addi	t4,t4,10 # a00aa00a <heap_memory_used+0xa0088232>
   19214:	00500e13          	li	t3,5
   19218:	3fd19463          	bne	gp,t4,19600 <fail>

0001921c <test_6>:
   1921c:	00006097          	auipc	ra,0x6
   19220:	b1808093          	addi	ra,ra,-1256 # 1ed34 <tdat8>
   19224:	00aa0137          	lui	sp,0xaa0
   19228:	0aa10113          	addi	sp,sp,170 # aa00aa <heap_memory_used+0xa7e2d2>
   1922c:	fe20aa23          	sw	sp,-12(ra)
   19230:	ff40a183          	lw	gp,-12(ra)
   19234:	00aa0eb7          	lui	t4,0xaa0
   19238:	0aae8e93          	addi	t4,t4,170 # aa00aa <heap_memory_used+0xa7e2d2>
   1923c:	00600e13          	li	t3,6
   19240:	3dd19063          	bne	gp,t4,19600 <fail>

00019244 <test_7>:
   19244:	00006097          	auipc	ra,0x6
   19248:	af008093          	addi	ra,ra,-1296 # 1ed34 <tdat8>
   1924c:	aa00b137          	lui	sp,0xaa00b
   19250:	a0010113          	addi	sp,sp,-1536 # aa00aa00 <heap_memory_used+0xa9fe8c28>
   19254:	fe20ac23          	sw	sp,-8(ra)
   19258:	ff80a183          	lw	gp,-8(ra)
   1925c:	aa00beb7          	lui	t4,0xaa00b
   19260:	a00e8e93          	addi	t4,t4,-1536 # aa00aa00 <heap_memory_used+0xa9fe8c28>
   19264:	00700e13          	li	t3,7
   19268:	39d19c63          	bne	gp,t4,19600 <fail>

0001926c <test_8>:
   1926c:	00006097          	auipc	ra,0x6
   19270:	ac808093          	addi	ra,ra,-1336 # 1ed34 <tdat8>
   19274:	0aa01137          	lui	sp,0xaa01
   19278:	aa010113          	addi	sp,sp,-1376 # aa00aa0 <heap_memory_used+0xa9decc8>
   1927c:	fe20ae23          	sw	sp,-4(ra)
   19280:	ffc0a183          	lw	gp,-4(ra)
   19284:	0aa01eb7          	lui	t4,0xaa01
   19288:	aa0e8e93          	addi	t4,t4,-1376 # aa00aa0 <heap_memory_used+0xa9decc8>
   1928c:	00800e13          	li	t3,8
   19290:	37d19863          	bne	gp,t4,19600 <fail>

00019294 <test_9>:
   19294:	00006097          	auipc	ra,0x6
   19298:	aa008093          	addi	ra,ra,-1376 # 1ed34 <tdat8>
   1929c:	a00aa137          	lui	sp,0xa00aa
   192a0:	00a10113          	addi	sp,sp,10 # a00aa00a <heap_memory_used+0xa0088232>
   192a4:	0020a023          	sw	sp,0(ra)
   192a8:	0000a183          	lw	gp,0(ra)
   192ac:	a00aaeb7          	lui	t4,0xa00aa
   192b0:	00ae8e93          	addi	t4,t4,10 # a00aa00a <heap_memory_used+0xa0088232>
   192b4:	00900e13          	li	t3,9
   192b8:	35d19463          	bne	gp,t4,19600 <fail>

000192bc <test_10>:
   192bc:	00006097          	auipc	ra,0x6
   192c0:	a7c08093          	addi	ra,ra,-1412 # 1ed38 <tdat9>
   192c4:	12345137          	lui	sp,0x12345
   192c8:	67810113          	addi	sp,sp,1656 # 12345678 <heap_memory_used+0x123238a0>
   192cc:	fe008213          	addi	tp,ra,-32
   192d0:	02222023          	sw	sp,32(tp) # 20 <initReg+0x18>
   192d4:	0000a183          	lw	gp,0(ra)
   192d8:	12345eb7          	lui	t4,0x12345
   192dc:	678e8e93          	addi	t4,t4,1656 # 12345678 <heap_memory_used+0x123238a0>
   192e0:	00a00e13          	li	t3,10
   192e4:	31d19e63          	bne	gp,t4,19600 <fail>

000192e8 <test_11>:
   192e8:	00006097          	auipc	ra,0x6
   192ec:	a5008093          	addi	ra,ra,-1456 # 1ed38 <tdat9>
   192f0:	58213137          	lui	sp,0x58213
   192f4:	09810113          	addi	sp,sp,152 # 58213098 <heap_memory_used+0x581f12c0>
   192f8:	ffd08093          	addi	ra,ra,-3
   192fc:	0020a3a3          	sw	sp,7(ra)
   19300:	00006217          	auipc	tp,0x6
   19304:	a3c20213          	addi	tp,tp,-1476 # 1ed3c <tdat10>
   19308:	00022183          	lw	gp,0(tp) # 0 <_start>
   1930c:	58213eb7          	lui	t4,0x58213
   19310:	098e8e93          	addi	t4,t4,152 # 58213098 <heap_memory_used+0x581f12c0>
   19314:	00b00e13          	li	t3,11
   19318:	2fd19463          	bne	gp,t4,19600 <fail>

0001931c <test_12>:
   1931c:	00c00e13          	li	t3,12
   19320:	00000213          	li	tp,0
   19324:	aabbd0b7          	lui	ra,0xaabbd
   19328:	cdd08093          	addi	ra,ra,-803 # aabbccdd <heap_memory_used+0xaab9af05>
   1932c:	00006117          	auipc	sp,0x6
   19330:	9ec10113          	addi	sp,sp,-1556 # 1ed18 <tdat>
   19334:	00112023          	sw	ra,0(sp)
   19338:	00012183          	lw	gp,0(sp)
   1933c:	aabbdeb7          	lui	t4,0xaabbd
   19340:	cdde8e93          	addi	t4,t4,-803 # aabbccdd <heap_memory_used+0xaab9af05>
   19344:	2bd19e63          	bne	gp,t4,19600 <fail>
   19348:	00120213          	addi	tp,tp,1 # 1 <_start+0x1>
   1934c:	00200293          	li	t0,2
   19350:	fc521ae3          	bne	tp,t0,19324 <test_12+0x8>

00019354 <test_13>:
   19354:	00d00e13          	li	t3,13
   19358:	00000213          	li	tp,0
   1935c:	daabc0b7          	lui	ra,0xdaabc
   19360:	ccd08093          	addi	ra,ra,-819 # daabbccd <heap_memory_used+0xdaa99ef5>
   19364:	00006117          	auipc	sp,0x6
   19368:	9b410113          	addi	sp,sp,-1612 # 1ed18 <tdat>
   1936c:	00000013          	nop
   19370:	00112223          	sw	ra,4(sp)
   19374:	00412183          	lw	gp,4(sp)
   19378:	daabceb7          	lui	t4,0xdaabc
   1937c:	ccde8e93          	addi	t4,t4,-819 # daabbccd <heap_memory_used+0xdaa99ef5>
   19380:	29d19063          	bne	gp,t4,19600 <fail>
   19384:	00120213          	addi	tp,tp,1 # 1 <_start+0x1>
   19388:	00200293          	li	t0,2
   1938c:	fc5218e3          	bne	tp,t0,1935c <test_13+0x8>

00019390 <test_14>:
   19390:	00e00e13          	li	t3,14
   19394:	00000213          	li	tp,0
   19398:	ddaac0b7          	lui	ra,0xddaac
   1939c:	bcc08093          	addi	ra,ra,-1076 # ddaabbcc <heap_memory_used+0xdda89df4>
   193a0:	00006117          	auipc	sp,0x6
   193a4:	97810113          	addi	sp,sp,-1672 # 1ed18 <tdat>
   193a8:	00000013          	nop
   193ac:	00000013          	nop
   193b0:	00112423          	sw	ra,8(sp)
   193b4:	00812183          	lw	gp,8(sp)
   193b8:	ddaaceb7          	lui	t4,0xddaac
   193bc:	bcce8e93          	addi	t4,t4,-1076 # ddaabbcc <heap_memory_used+0xdda89df4>
   193c0:	25d19063          	bne	gp,t4,19600 <fail>
   193c4:	00120213          	addi	tp,tp,1 # 1 <_start+0x1>
   193c8:	00200293          	li	t0,2
   193cc:	fc5216e3          	bne	tp,t0,19398 <test_14+0x8>

000193d0 <test_15>:
   193d0:	00f00e13          	li	t3,15
   193d4:	00000213          	li	tp,0
   193d8:	cddab0b7          	lui	ra,0xcddab
   193dc:	bbc08093          	addi	ra,ra,-1092 # cddaabbc <heap_memory_used+0xcdd88de4>
   193e0:	00000013          	nop
   193e4:	00006117          	auipc	sp,0x6
   193e8:	93410113          	addi	sp,sp,-1740 # 1ed18 <tdat>
   193ec:	00112623          	sw	ra,12(sp)
   193f0:	00c12183          	lw	gp,12(sp)
   193f4:	cddabeb7          	lui	t4,0xcddab
   193f8:	bbce8e93          	addi	t4,t4,-1092 # cddaabbc <heap_memory_used+0xcdd88de4>
   193fc:	21d19263          	bne	gp,t4,19600 <fail>
   19400:	00120213          	addi	tp,tp,1 # 1 <_start+0x1>
   19404:	00200293          	li	t0,2
   19408:	fc5218e3          	bne	tp,t0,193d8 <test_15+0x8>

0001940c <test_16>:
   1940c:	01000e13          	li	t3,16
   19410:	00000213          	li	tp,0
   19414:	ccddb0b7          	lui	ra,0xccddb
   19418:	abb08093          	addi	ra,ra,-1349 # ccddaabb <heap_memory_used+0xccdb8ce3>
   1941c:	00000013          	nop
   19420:	00006117          	auipc	sp,0x6
   19424:	8f810113          	addi	sp,sp,-1800 # 1ed18 <tdat>
   19428:	00000013          	nop
   1942c:	00112823          	sw	ra,16(sp)
   19430:	01012183          	lw	gp,16(sp)
   19434:	ccddbeb7          	lui	t4,0xccddb
   19438:	abbe8e93          	addi	t4,t4,-1349 # ccddaabb <heap_memory_used+0xccdb8ce3>
   1943c:	1dd19263          	bne	gp,t4,19600 <fail>
   19440:	00120213          	addi	tp,tp,1 # 1 <_start+0x1>
   19444:	00200293          	li	t0,2
   19448:	fc5216e3          	bne	tp,t0,19414 <test_16+0x8>

0001944c <test_17>:
   1944c:	01100e13          	li	t3,17
   19450:	00000213          	li	tp,0
   19454:	bccde0b7          	lui	ra,0xbccde
   19458:	aab08093          	addi	ra,ra,-1365 # bccddaab <heap_memory_used+0xbccbbcd3>
   1945c:	00000013          	nop
   19460:	00000013          	nop
   19464:	00006117          	auipc	sp,0x6
   19468:	8b410113          	addi	sp,sp,-1868 # 1ed18 <tdat>
   1946c:	00112a23          	sw	ra,20(sp)
   19470:	01412183          	lw	gp,20(sp)
   19474:	bccdeeb7          	lui	t4,0xbccde
   19478:	aabe8e93          	addi	t4,t4,-1365 # bccddaab <heap_memory_used+0xbccbbcd3>
   1947c:	19d19263          	bne	gp,t4,19600 <fail>
   19480:	00120213          	addi	tp,tp,1 # 1 <_start+0x1>
   19484:	00200293          	li	t0,2
   19488:	fc5216e3          	bne	tp,t0,19454 <test_17+0x8>

0001948c <test_18>:
   1948c:	01200e13          	li	t3,18
   19490:	00000213          	li	tp,0
   19494:	00006117          	auipc	sp,0x6
   19498:	88410113          	addi	sp,sp,-1916 # 1ed18 <tdat>
   1949c:	001120b7          	lui	ra,0x112
   194a0:	23308093          	addi	ra,ra,563 # 112233 <heap_memory_used+0xf045b>
   194a4:	00112023          	sw	ra,0(sp)
   194a8:	00012183          	lw	gp,0(sp)
   194ac:	00112eb7          	lui	t4,0x112
   194b0:	233e8e93          	addi	t4,t4,563 # 112233 <heap_memory_used+0xf045b>
   194b4:	15d19663          	bne	gp,t4,19600 <fail>
   194b8:	00120213          	addi	tp,tp,1 # 1 <_start+0x1>
   194bc:	00200293          	li	t0,2
   194c0:	fc521ae3          	bne	tp,t0,19494 <test_18+0x8>

000194c4 <test_19>:
   194c4:	01300e13          	li	t3,19
   194c8:	00000213          	li	tp,0
   194cc:	00006117          	auipc	sp,0x6
   194d0:	84c10113          	addi	sp,sp,-1972 # 1ed18 <tdat>
   194d4:	300110b7          	lui	ra,0x30011
   194d8:	22308093          	addi	ra,ra,547 # 30011223 <heap_memory_used+0x2ffef44b>
   194dc:	00000013          	nop
   194e0:	00112223          	sw	ra,4(sp)
   194e4:	00412183          	lw	gp,4(sp)
   194e8:	30011eb7          	lui	t4,0x30011
   194ec:	223e8e93          	addi	t4,t4,547 # 30011223 <heap_memory_used+0x2ffef44b>
   194f0:	11d19863          	bne	gp,t4,19600 <fail>
   194f4:	00120213          	addi	tp,tp,1 # 1 <_start+0x1>
   194f8:	00200293          	li	t0,2
   194fc:	fc5218e3          	bne	tp,t0,194cc <test_19+0x8>

00019500 <test_20>:
   19500:	01400e13          	li	t3,20
   19504:	00000213          	li	tp,0
   19508:	00006117          	auipc	sp,0x6
   1950c:	81010113          	addi	sp,sp,-2032 # 1ed18 <tdat>
   19510:	330010b7          	lui	ra,0x33001
   19514:	12208093          	addi	ra,ra,290 # 33001122 <heap_memory_used+0x32fdf34a>
   19518:	00000013          	nop
   1951c:	00000013          	nop
   19520:	00112423          	sw	ra,8(sp)
   19524:	00812183          	lw	gp,8(sp)
   19528:	33001eb7          	lui	t4,0x33001
   1952c:	122e8e93          	addi	t4,t4,290 # 33001122 <heap_memory_used+0x32fdf34a>
   19530:	0dd19863          	bne	gp,t4,19600 <fail>
   19534:	00120213          	addi	tp,tp,1 # 1 <_start+0x1>
   19538:	00200293          	li	t0,2
   1953c:	fc5216e3          	bne	tp,t0,19508 <test_20+0x8>

00019540 <test_21>:
   19540:	01500e13          	li	t3,21
   19544:	00000213          	li	tp,0
   19548:	00005117          	auipc	sp,0x5
   1954c:	7d010113          	addi	sp,sp,2000 # 1ed18 <tdat>
   19550:	00000013          	nop
   19554:	233000b7          	lui	ra,0x23300
   19558:	11208093          	addi	ra,ra,274 # 23300112 <heap_memory_used+0x232de33a>
   1955c:	00112623          	sw	ra,12(sp)
   19560:	00c12183          	lw	gp,12(sp)
   19564:	23300eb7          	lui	t4,0x23300
   19568:	112e8e93          	addi	t4,t4,274 # 23300112 <heap_memory_used+0x232de33a>
   1956c:	09d19a63          	bne	gp,t4,19600 <fail>
   19570:	00120213          	addi	tp,tp,1 # 1 <_start+0x1>
   19574:	00200293          	li	t0,2
   19578:	fc5218e3          	bne	tp,t0,19548 <test_21+0x8>

0001957c <test_22>:
   1957c:	01600e13          	li	t3,22
   19580:	00000213          	li	tp,0
   19584:	00005117          	auipc	sp,0x5
   19588:	79410113          	addi	sp,sp,1940 # 1ed18 <tdat>
   1958c:	00000013          	nop
   19590:	223300b7          	lui	ra,0x22330
   19594:	01108093          	addi	ra,ra,17 # 22330011 <heap_memory_used+0x2230e239>
   19598:	00000013          	nop
   1959c:	00112823          	sw	ra,16(sp)
   195a0:	01012183          	lw	gp,16(sp)
   195a4:	22330eb7          	lui	t4,0x22330
   195a8:	011e8e93          	addi	t4,t4,17 # 22330011 <heap_memory_used+0x2230e239>
   195ac:	05d19a63          	bne	gp,t4,19600 <fail>
   195b0:	00120213          	addi	tp,tp,1 # 1 <_start+0x1>
   195b4:	00200293          	li	t0,2
   195b8:	fc5216e3          	bne	tp,t0,19584 <test_22+0x8>

000195bc <test_23>:
   195bc:	01700e13          	li	t3,23
   195c0:	00000213          	li	tp,0
   195c4:	00005117          	auipc	sp,0x5
   195c8:	75410113          	addi	sp,sp,1876 # 1ed18 <tdat>
   195cc:	00000013          	nop
   195d0:	00000013          	nop
   195d4:	122330b7          	lui	ra,0x12233
   195d8:	00108093          	addi	ra,ra,1 # 12233001 <heap_memory_used+0x12211229>
   195dc:	00112a23          	sw	ra,20(sp)
   195e0:	01412183          	lw	gp,20(sp)
   195e4:	12233eb7          	lui	t4,0x12233
   195e8:	001e8e93          	addi	t4,t4,1 # 12233001 <heap_memory_used+0x12211229>
   195ec:	01d19a63          	bne	gp,t4,19600 <fail>
   195f0:	00120213          	addi	tp,tp,1 # 1 <_start+0x1>
   195f4:	00200293          	li	t0,2
   195f8:	fc5216e3          	bne	tp,t0,195c4 <test_23+0x8>
   195fc:	05c01863          	bne	zero,t3,1964c <pass>

00019600 <fail>:
   19600:	04500513          	li	a0,69
   19604:	00004137          	lui	sp,0x4
   19608:	380040ef          	jal	ra,1d988 <printf_c>
   1960c:	05200513          	li	a0,82
   19610:	00004137          	lui	sp,0x4
   19614:	374040ef          	jal	ra,1d988 <printf_c>
   19618:	00004137          	lui	sp,0x4
   1961c:	36c040ef          	jal	ra,1d988 <printf_c>
   19620:	04f00513          	li	a0,79
   19624:	00004137          	lui	sp,0x4
   19628:	360040ef          	jal	ra,1d988 <printf_c>
   1962c:	00004137          	lui	sp,0x4
   19630:	05200513          	li	a0,82
   19634:	00004137          	lui	sp,0x4
   19638:	350040ef          	jal	ra,1d988 <printf_c>
   1963c:	00a00513          	li	a0,10
   19640:	00004137          	lui	sp,0x4
   19644:	344040ef          	jal	ra,1d988 <printf_c>
   19648:	0340006f          	j	1967c <xor>

0001964c <pass>:
   1964c:	04f00513          	li	a0,79
   19650:	00004137          	lui	sp,0x4
   19654:	334040ef          	jal	ra,1d988 <printf_c>
   19658:	04b00513          	li	a0,75
   1965c:	00004137          	lui	sp,0x4
   19660:	328040ef          	jal	ra,1d988 <printf_c>
   19664:	00a00513          	li	a0,10
   19668:	00004137          	lui	sp,0x4
   1966c:	31c040ef          	jal	ra,1d988 <printf_c>
   19670:	00c0006f          	j	1967c <xor>

00019674 <.test_name>:
   19674:	6f78                	flw	fa4,92(a4)
   19676:	2072                	fld	ft0,280(sp)
   19678:	0009                	c.addi	zero,2
	...

0001967c <xor>:
   1967c:	00019537          	lui	a0,0x19
   19680:	67450513          	addi	a0,a0,1652 # 19674 <.test_name>

00019684 <.prname_next>:
   19684:	00004137          	lui	sp,0x4
   19688:	318040ef          	jal	ra,1d9a0 <printf_s>

0001968c <test_2>:
   1968c:	ff0100b7          	lui	ra,0xff010
   19690:	f0008093          	addi	ra,ra,-256 # ff00ff00 <heap_memory_used+0xfefee128>
   19694:	0f0f1137          	lui	sp,0xf0f1
   19698:	f0f10113          	addi	sp,sp,-241 # f0f0f0f <heap_memory_used+0xf0cf137>
   1969c:	0020c1b3          	xor	gp,ra,sp
   196a0:	f00ffeb7          	lui	t4,0xf00ff
   196a4:	00fe8e93          	addi	t4,t4,15 # f00ff00f <heap_memory_used+0xf00dd237>
   196a8:	00200e13          	li	t3,2
   196ac:	4bd19063          	bne	gp,t4,19b4c <fail>

000196b0 <test_3>:
   196b0:	0ff010b7          	lui	ra,0xff01
   196b4:	ff008093          	addi	ra,ra,-16 # ff00ff0 <heap_memory_used+0xfedf218>
   196b8:	f0f0f137          	lui	sp,0xf0f0f
   196bc:	0f010113          	addi	sp,sp,240 # f0f0f0f0 <heap_memory_used+0xf0eed318>
   196c0:	0020c1b3          	xor	gp,ra,sp
   196c4:	ff010eb7          	lui	t4,0xff010
   196c8:	f00e8e93          	addi	t4,t4,-256 # ff00ff00 <heap_memory_used+0xfefee128>
   196cc:	00300e13          	li	t3,3
   196d0:	47d19e63          	bne	gp,t4,19b4c <fail>

000196d4 <test_4>:
   196d4:	00ff00b7          	lui	ra,0xff0
   196d8:	0ff08093          	addi	ra,ra,255 # ff00ff <heap_memory_used+0xfce327>
   196dc:	0f0f1137          	lui	sp,0xf0f1
   196e0:	f0f10113          	addi	sp,sp,-241 # f0f0f0f <heap_memory_used+0xf0cf137>
   196e4:	0020c1b3          	xor	gp,ra,sp
   196e8:	0ff01eb7          	lui	t4,0xff01
   196ec:	ff0e8e93          	addi	t4,t4,-16 # ff00ff0 <heap_memory_used+0xfedf218>
   196f0:	00400e13          	li	t3,4
   196f4:	45d19c63          	bne	gp,t4,19b4c <fail>

000196f8 <test_5>:
   196f8:	f00ff0b7          	lui	ra,0xf00ff
   196fc:	00f08093          	addi	ra,ra,15 # f00ff00f <heap_memory_used+0xf00dd237>
   19700:	f0f0f137          	lui	sp,0xf0f0f
   19704:	0f010113          	addi	sp,sp,240 # f0f0f0f0 <heap_memory_used+0xf0eed318>
   19708:	0020c1b3          	xor	gp,ra,sp
   1970c:	00ff0eb7          	lui	t4,0xff0
   19710:	0ffe8e93          	addi	t4,t4,255 # ff00ff <heap_memory_used+0xfce327>
   19714:	00500e13          	li	t3,5
   19718:	43d19a63          	bne	gp,t4,19b4c <fail>

0001971c <test_6>:
   1971c:	ff0100b7          	lui	ra,0xff010
   19720:	f0008093          	addi	ra,ra,-256 # ff00ff00 <heap_memory_used+0xfefee128>
   19724:	0f0f1137          	lui	sp,0xf0f1
   19728:	f0f10113          	addi	sp,sp,-241 # f0f0f0f <heap_memory_used+0xf0cf137>
   1972c:	0020c0b3          	xor	ra,ra,sp
   19730:	f00ffeb7          	lui	t4,0xf00ff
   19734:	00fe8e93          	addi	t4,t4,15 # f00ff00f <heap_memory_used+0xf00dd237>
   19738:	00600e13          	li	t3,6
   1973c:	41d09863          	bne	ra,t4,19b4c <fail>

00019740 <test_7>:
   19740:	ff0100b7          	lui	ra,0xff010
   19744:	f0008093          	addi	ra,ra,-256 # ff00ff00 <heap_memory_used+0xfefee128>
   19748:	0f0f1137          	lui	sp,0xf0f1
   1974c:	f0f10113          	addi	sp,sp,-241 # f0f0f0f <heap_memory_used+0xf0cf137>
   19750:	0020c133          	xor	sp,ra,sp
   19754:	f00ffeb7          	lui	t4,0xf00ff
   19758:	00fe8e93          	addi	t4,t4,15 # f00ff00f <heap_memory_used+0xf00dd237>
   1975c:	00700e13          	li	t3,7
   19760:	3fd11663          	bne	sp,t4,19b4c <fail>

00019764 <test_8>:
   19764:	ff0100b7          	lui	ra,0xff010
   19768:	f0008093          	addi	ra,ra,-256 # ff00ff00 <heap_memory_used+0xfefee128>
   1976c:	0010c0b3          	xor	ra,ra,ra
   19770:	00000e93          	li	t4,0
   19774:	00800e13          	li	t3,8
   19778:	3dd09a63          	bne	ra,t4,19b4c <fail>

0001977c <test_9>:
   1977c:	00000213          	li	tp,0
   19780:	ff0100b7          	lui	ra,0xff010
   19784:	f0008093          	addi	ra,ra,-256 # ff00ff00 <heap_memory_used+0xfefee128>
   19788:	0f0f1137          	lui	sp,0xf0f1
   1978c:	f0f10113          	addi	sp,sp,-241 # f0f0f0f <heap_memory_used+0xf0cf137>
   19790:	0020c1b3          	xor	gp,ra,sp
   19794:	00018313          	mv	t1,gp
   19798:	00120213          	addi	tp,tp,1 # 1 <_start+0x1>
   1979c:	00200293          	li	t0,2
   197a0:	fe5210e3          	bne	tp,t0,19780 <test_9+0x4>
   197a4:	f00ffeb7          	lui	t4,0xf00ff
   197a8:	00fe8e93          	addi	t4,t4,15 # f00ff00f <heap_memory_used+0xf00dd237>
   197ac:	00900e13          	li	t3,9
   197b0:	39d31e63          	bne	t1,t4,19b4c <fail>

000197b4 <test_10>:
   197b4:	00000213          	li	tp,0
   197b8:	0ff010b7          	lui	ra,0xff01
   197bc:	ff008093          	addi	ra,ra,-16 # ff00ff0 <heap_memory_used+0xfedf218>
   197c0:	f0f0f137          	lui	sp,0xf0f0f
   197c4:	0f010113          	addi	sp,sp,240 # f0f0f0f0 <heap_memory_used+0xf0eed318>
   197c8:	0020c1b3          	xor	gp,ra,sp
   197cc:	00000013          	nop
   197d0:	00018313          	mv	t1,gp
   197d4:	00120213          	addi	tp,tp,1 # 1 <_start+0x1>
   197d8:	00200293          	li	t0,2
   197dc:	fc521ee3          	bne	tp,t0,197b8 <test_10+0x4>
   197e0:	ff010eb7          	lui	t4,0xff010
   197e4:	f00e8e93          	addi	t4,t4,-256 # ff00ff00 <heap_memory_used+0xfefee128>
   197e8:	00a00e13          	li	t3,10
   197ec:	37d31063          	bne	t1,t4,19b4c <fail>

000197f0 <test_11>:
   197f0:	00000213          	li	tp,0
   197f4:	00ff00b7          	lui	ra,0xff0
   197f8:	0ff08093          	addi	ra,ra,255 # ff00ff <heap_memory_used+0xfce327>
   197fc:	0f0f1137          	lui	sp,0xf0f1
   19800:	f0f10113          	addi	sp,sp,-241 # f0f0f0f <heap_memory_used+0xf0cf137>
   19804:	0020c1b3          	xor	gp,ra,sp
   19808:	00000013          	nop
   1980c:	00000013          	nop
   19810:	00018313          	mv	t1,gp
   19814:	00120213          	addi	tp,tp,1 # 1 <_start+0x1>
   19818:	00200293          	li	t0,2
   1981c:	fc521ce3          	bne	tp,t0,197f4 <test_11+0x4>
   19820:	0ff01eb7          	lui	t4,0xff01
   19824:	ff0e8e93          	addi	t4,t4,-16 # ff00ff0 <heap_memory_used+0xfedf218>
   19828:	00b00e13          	li	t3,11
   1982c:	33d31063          	bne	t1,t4,19b4c <fail>

00019830 <test_12>:
   19830:	00000213          	li	tp,0
   19834:	ff0100b7          	lui	ra,0xff010
   19838:	f0008093          	addi	ra,ra,-256 # ff00ff00 <heap_memory_used+0xfefee128>
   1983c:	0f0f1137          	lui	sp,0xf0f1
   19840:	f0f10113          	addi	sp,sp,-241 # f0f0f0f <heap_memory_used+0xf0cf137>
   19844:	0020c1b3          	xor	gp,ra,sp
   19848:	00120213          	addi	tp,tp,1 # 1 <_start+0x1>
   1984c:	00200293          	li	t0,2
   19850:	fe5212e3          	bne	tp,t0,19834 <test_12+0x4>
   19854:	f00ffeb7          	lui	t4,0xf00ff
   19858:	00fe8e93          	addi	t4,t4,15 # f00ff00f <heap_memory_used+0xf00dd237>
   1985c:	00c00e13          	li	t3,12
   19860:	2fd19663          	bne	gp,t4,19b4c <fail>

00019864 <test_13>:
   19864:	00000213          	li	tp,0
   19868:	0ff010b7          	lui	ra,0xff01
   1986c:	ff008093          	addi	ra,ra,-16 # ff00ff0 <heap_memory_used+0xfedf218>
   19870:	f0f0f137          	lui	sp,0xf0f0f
   19874:	0f010113          	addi	sp,sp,240 # f0f0f0f0 <heap_memory_used+0xf0eed318>
   19878:	00000013          	nop
   1987c:	0020c1b3          	xor	gp,ra,sp
   19880:	00120213          	addi	tp,tp,1 # 1 <_start+0x1>
   19884:	00200293          	li	t0,2
   19888:	fe5210e3          	bne	tp,t0,19868 <test_13+0x4>
   1988c:	ff010eb7          	lui	t4,0xff010
   19890:	f00e8e93          	addi	t4,t4,-256 # ff00ff00 <heap_memory_used+0xfefee128>
   19894:	00d00e13          	li	t3,13
   19898:	2bd19a63          	bne	gp,t4,19b4c <fail>

0001989c <test_14>:
   1989c:	00000213          	li	tp,0
   198a0:	00ff00b7          	lui	ra,0xff0
   198a4:	0ff08093          	addi	ra,ra,255 # ff00ff <heap_memory_used+0xfce327>
   198a8:	0f0f1137          	lui	sp,0xf0f1
   198ac:	f0f10113          	addi	sp,sp,-241 # f0f0f0f <heap_memory_used+0xf0cf137>
   198b0:	00000013          	nop
   198b4:	00000013          	nop
   198b8:	0020c1b3          	xor	gp,ra,sp
   198bc:	00120213          	addi	tp,tp,1 # 1 <_start+0x1>
   198c0:	00200293          	li	t0,2
   198c4:	fc521ee3          	bne	tp,t0,198a0 <test_14+0x4>
   198c8:	0ff01eb7          	lui	t4,0xff01
   198cc:	ff0e8e93          	addi	t4,t4,-16 # ff00ff0 <heap_memory_used+0xfedf218>
   198d0:	00e00e13          	li	t3,14
   198d4:	27d19c63          	bne	gp,t4,19b4c <fail>

000198d8 <test_15>:
   198d8:	00000213          	li	tp,0
   198dc:	ff0100b7          	lui	ra,0xff010
   198e0:	f0008093          	addi	ra,ra,-256 # ff00ff00 <heap_memory_used+0xfefee128>
   198e4:	00000013          	nop
   198e8:	0f0f1137          	lui	sp,0xf0f1
   198ec:	f0f10113          	addi	sp,sp,-241 # f0f0f0f <heap_memory_used+0xf0cf137>
   198f0:	0020c1b3          	xor	gp,ra,sp
   198f4:	00120213          	addi	tp,tp,1 # 1 <_start+0x1>
   198f8:	00200293          	li	t0,2
   198fc:	fe5210e3          	bne	tp,t0,198dc <test_15+0x4>
   19900:	f00ffeb7          	lui	t4,0xf00ff
   19904:	00fe8e93          	addi	t4,t4,15 # f00ff00f <heap_memory_used+0xf00dd237>
   19908:	00f00e13          	li	t3,15
   1990c:	25d19063          	bne	gp,t4,19b4c <fail>

00019910 <test_16>:
   19910:	00000213          	li	tp,0
   19914:	0ff010b7          	lui	ra,0xff01
   19918:	ff008093          	addi	ra,ra,-16 # ff00ff0 <heap_memory_used+0xfedf218>
   1991c:	00000013          	nop
   19920:	f0f0f137          	lui	sp,0xf0f0f
   19924:	0f010113          	addi	sp,sp,240 # f0f0f0f0 <heap_memory_used+0xf0eed318>
   19928:	00000013          	nop
   1992c:	0020c1b3          	xor	gp,ra,sp
   19930:	00120213          	addi	tp,tp,1 # 1 <_start+0x1>
   19934:	00200293          	li	t0,2
   19938:	fc521ee3          	bne	tp,t0,19914 <test_16+0x4>
   1993c:	ff010eb7          	lui	t4,0xff010
   19940:	f00e8e93          	addi	t4,t4,-256 # ff00ff00 <heap_memory_used+0xfefee128>
   19944:	01000e13          	li	t3,16
   19948:	21d19263          	bne	gp,t4,19b4c <fail>

0001994c <test_17>:
   1994c:	00000213          	li	tp,0
   19950:	00ff00b7          	lui	ra,0xff0
   19954:	0ff08093          	addi	ra,ra,255 # ff00ff <heap_memory_used+0xfce327>
   19958:	00000013          	nop
   1995c:	00000013          	nop
   19960:	0f0f1137          	lui	sp,0xf0f1
   19964:	f0f10113          	addi	sp,sp,-241 # f0f0f0f <heap_memory_used+0xf0cf137>
   19968:	0020c1b3          	xor	gp,ra,sp
   1996c:	00120213          	addi	tp,tp,1 # 1 <_start+0x1>
   19970:	00200293          	li	t0,2
   19974:	fc521ee3          	bne	tp,t0,19950 <test_17+0x4>
   19978:	0ff01eb7          	lui	t4,0xff01
   1997c:	ff0e8e93          	addi	t4,t4,-16 # ff00ff0 <heap_memory_used+0xfedf218>
   19980:	01100e13          	li	t3,17
   19984:	1dd19463          	bne	gp,t4,19b4c <fail>

00019988 <test_18>:
   19988:	00000213          	li	tp,0
   1998c:	0f0f1137          	lui	sp,0xf0f1
   19990:	f0f10113          	addi	sp,sp,-241 # f0f0f0f <heap_memory_used+0xf0cf137>
   19994:	ff0100b7          	lui	ra,0xff010
   19998:	f0008093          	addi	ra,ra,-256 # ff00ff00 <heap_memory_used+0xfefee128>
   1999c:	0020c1b3          	xor	gp,ra,sp
   199a0:	00120213          	addi	tp,tp,1 # 1 <_start+0x1>
   199a4:	00200293          	li	t0,2
   199a8:	fe5212e3          	bne	tp,t0,1998c <test_18+0x4>
   199ac:	f00ffeb7          	lui	t4,0xf00ff
   199b0:	00fe8e93          	addi	t4,t4,15 # f00ff00f <heap_memory_used+0xf00dd237>
   199b4:	01200e13          	li	t3,18
   199b8:	19d19a63          	bne	gp,t4,19b4c <fail>

000199bc <test_19>:
   199bc:	00000213          	li	tp,0
   199c0:	f0f0f137          	lui	sp,0xf0f0f
   199c4:	0f010113          	addi	sp,sp,240 # f0f0f0f0 <heap_memory_used+0xf0eed318>
   199c8:	0ff010b7          	lui	ra,0xff01
   199cc:	ff008093          	addi	ra,ra,-16 # ff00ff0 <heap_memory_used+0xfedf218>
   199d0:	00000013          	nop
   199d4:	0020c1b3          	xor	gp,ra,sp
   199d8:	00120213          	addi	tp,tp,1 # 1 <_start+0x1>
   199dc:	00200293          	li	t0,2
   199e0:	fe5210e3          	bne	tp,t0,199c0 <test_19+0x4>
   199e4:	ff010eb7          	lui	t4,0xff010
   199e8:	f00e8e93          	addi	t4,t4,-256 # ff00ff00 <heap_memory_used+0xfefee128>
   199ec:	01300e13          	li	t3,19
   199f0:	15d19e63          	bne	gp,t4,19b4c <fail>

000199f4 <test_20>:
   199f4:	00000213          	li	tp,0
   199f8:	0f0f1137          	lui	sp,0xf0f1
   199fc:	f0f10113          	addi	sp,sp,-241 # f0f0f0f <heap_memory_used+0xf0cf137>
   19a00:	00ff00b7          	lui	ra,0xff0
   19a04:	0ff08093          	addi	ra,ra,255 # ff00ff <heap_memory_used+0xfce327>
   19a08:	00000013          	nop
   19a0c:	00000013          	nop
   19a10:	0020c1b3          	xor	gp,ra,sp
   19a14:	00120213          	addi	tp,tp,1 # 1 <_start+0x1>
   19a18:	00200293          	li	t0,2
   19a1c:	fc521ee3          	bne	tp,t0,199f8 <test_20+0x4>
   19a20:	0ff01eb7          	lui	t4,0xff01
   19a24:	ff0e8e93          	addi	t4,t4,-16 # ff00ff0 <heap_memory_used+0xfedf218>
   19a28:	01400e13          	li	t3,20
   19a2c:	13d19063          	bne	gp,t4,19b4c <fail>

00019a30 <test_21>:
   19a30:	00000213          	li	tp,0
   19a34:	0f0f1137          	lui	sp,0xf0f1
   19a38:	f0f10113          	addi	sp,sp,-241 # f0f0f0f <heap_memory_used+0xf0cf137>
   19a3c:	00000013          	nop
   19a40:	ff0100b7          	lui	ra,0xff010
   19a44:	f0008093          	addi	ra,ra,-256 # ff00ff00 <heap_memory_used+0xfefee128>
   19a48:	0020c1b3          	xor	gp,ra,sp
   19a4c:	00120213          	addi	tp,tp,1 # 1 <_start+0x1>
   19a50:	00200293          	li	t0,2
   19a54:	fe5210e3          	bne	tp,t0,19a34 <test_21+0x4>
   19a58:	f00ffeb7          	lui	t4,0xf00ff
   19a5c:	00fe8e93          	addi	t4,t4,15 # f00ff00f <heap_memory_used+0xf00dd237>
   19a60:	01500e13          	li	t3,21
   19a64:	0fd19463          	bne	gp,t4,19b4c <fail>

00019a68 <test_22>:
   19a68:	00000213          	li	tp,0
   19a6c:	f0f0f137          	lui	sp,0xf0f0f
   19a70:	0f010113          	addi	sp,sp,240 # f0f0f0f0 <heap_memory_used+0xf0eed318>
   19a74:	00000013          	nop
   19a78:	0ff010b7          	lui	ra,0xff01
   19a7c:	ff008093          	addi	ra,ra,-16 # ff00ff0 <heap_memory_used+0xfedf218>
   19a80:	00000013          	nop
   19a84:	0020c1b3          	xor	gp,ra,sp
   19a88:	00120213          	addi	tp,tp,1 # 1 <_start+0x1>
   19a8c:	00200293          	li	t0,2
   19a90:	fc521ee3          	bne	tp,t0,19a6c <test_22+0x4>
   19a94:	ff010eb7          	lui	t4,0xff010
   19a98:	f00e8e93          	addi	t4,t4,-256 # ff00ff00 <heap_memory_used+0xfefee128>
   19a9c:	01600e13          	li	t3,22
   19aa0:	0bd19663          	bne	gp,t4,19b4c <fail>

00019aa4 <test_23>:
   19aa4:	00000213          	li	tp,0
   19aa8:	0f0f1137          	lui	sp,0xf0f1
   19aac:	f0f10113          	addi	sp,sp,-241 # f0f0f0f <heap_memory_used+0xf0cf137>
   19ab0:	00000013          	nop
   19ab4:	00000013          	nop
   19ab8:	00ff00b7          	lui	ra,0xff0
   19abc:	0ff08093          	addi	ra,ra,255 # ff00ff <heap_memory_used+0xfce327>
   19ac0:	0020c1b3          	xor	gp,ra,sp
   19ac4:	00120213          	addi	tp,tp,1 # 1 <_start+0x1>
   19ac8:	00200293          	li	t0,2
   19acc:	fc521ee3          	bne	tp,t0,19aa8 <test_23+0x4>
   19ad0:	0ff01eb7          	lui	t4,0xff01
   19ad4:	ff0e8e93          	addi	t4,t4,-16 # ff00ff0 <heap_memory_used+0xfedf218>
   19ad8:	01700e13          	li	t3,23
   19adc:	07d19863          	bne	gp,t4,19b4c <fail>

00019ae0 <test_24>:
   19ae0:	ff0100b7          	lui	ra,0xff010
   19ae4:	f0008093          	addi	ra,ra,-256 # ff00ff00 <heap_memory_used+0xfefee128>
   19ae8:	00104133          	xor	sp,zero,ra
   19aec:	ff010eb7          	lui	t4,0xff010
   19af0:	f00e8e93          	addi	t4,t4,-256 # ff00ff00 <heap_memory_used+0xfefee128>
   19af4:	01800e13          	li	t3,24
   19af8:	05d11a63          	bne	sp,t4,19b4c <fail>

00019afc <test_25>:
   19afc:	00ff00b7          	lui	ra,0xff0
   19b00:	0ff08093          	addi	ra,ra,255 # ff00ff <heap_memory_used+0xfce327>
   19b04:	0000c133          	xor	sp,ra,zero
   19b08:	00ff0eb7          	lui	t4,0xff0
   19b0c:	0ffe8e93          	addi	t4,t4,255 # ff00ff <heap_memory_used+0xfce327>
   19b10:	01900e13          	li	t3,25
   19b14:	03d11c63          	bne	sp,t4,19b4c <fail>

00019b18 <test_26>:
   19b18:	000040b3          	xor	ra,zero,zero
   19b1c:	00000e93          	li	t4,0
   19b20:	01a00e13          	li	t3,26
   19b24:	03d09463          	bne	ra,t4,19b4c <fail>

00019b28 <test_27>:
   19b28:	111110b7          	lui	ra,0x11111
   19b2c:	11108093          	addi	ra,ra,273 # 11111111 <heap_memory_used+0x110ef339>
   19b30:	22222137          	lui	sp,0x22222
   19b34:	22210113          	addi	sp,sp,546 # 22222222 <heap_memory_used+0x2220044a>
   19b38:	0020c033          	xor	zero,ra,sp
   19b3c:	00000e93          	li	t4,0
   19b40:	01b00e13          	li	t3,27
   19b44:	01d01463          	bne	zero,t4,19b4c <fail>
   19b48:	05c01863          	bne	zero,t3,19b98 <pass>

00019b4c <fail>:
   19b4c:	04500513          	li	a0,69
   19b50:	00004137          	lui	sp,0x4
   19b54:	635030ef          	jal	ra,1d988 <printf_c>
   19b58:	05200513          	li	a0,82
   19b5c:	00004137          	lui	sp,0x4
   19b60:	629030ef          	jal	ra,1d988 <printf_c>
   19b64:	00004137          	lui	sp,0x4
   19b68:	621030ef          	jal	ra,1d988 <printf_c>
   19b6c:	04f00513          	li	a0,79
   19b70:	00004137          	lui	sp,0x4
   19b74:	615030ef          	jal	ra,1d988 <printf_c>
   19b78:	00004137          	lui	sp,0x4
   19b7c:	05200513          	li	a0,82
   19b80:	00004137          	lui	sp,0x4
   19b84:	605030ef          	jal	ra,1d988 <printf_c>
   19b88:	00a00513          	li	a0,10
   19b8c:	00004137          	lui	sp,0x4
   19b90:	5f9030ef          	jal	ra,1d988 <printf_c>
   19b94:	0340006f          	j	19bc8 <xori>

00019b98 <pass>:
   19b98:	04f00513          	li	a0,79
   19b9c:	00004137          	lui	sp,0x4
   19ba0:	5e9030ef          	jal	ra,1d988 <printf_c>
   19ba4:	04b00513          	li	a0,75
   19ba8:	00004137          	lui	sp,0x4
   19bac:	5dd030ef          	jal	ra,1d988 <printf_c>
   19bb0:	00a00513          	li	a0,10
   19bb4:	00004137          	lui	sp,0x4
   19bb8:	5d1030ef          	jal	ra,1d988 <printf_c>
   19bbc:	00c0006f          	j	19bc8 <xori>

00019bc0 <.test_name>:
   19bc0:	6f78                	flw	fa4,92(a4)
   19bc2:	6972                	flw	fs2,28(sp)
   19bc4:	0009                	c.addi	zero,2
	...

00019bc8 <xori>:
   19bc8:	0001a537          	lui	a0,0x1a
   19bcc:	bc050513          	addi	a0,a0,-1088 # 19bc0 <.test_name>

00019bd0 <.prname_next>:
   19bd0:	00004137          	lui	sp,0x4
   19bd4:	5cd030ef          	jal	ra,1d9a0 <printf_s>

00019bd8 <test_2>:
   19bd8:	00ff10b7          	lui	ra,0xff1
   19bdc:	f0008093          	addi	ra,ra,-256 # ff0f00 <heap_memory_used+0xfcf128>
   19be0:	f0f0c193          	xori	gp,ra,-241
   19be4:	ff00feb7          	lui	t4,0xff00f
   19be8:	00fe8e93          	addi	t4,t4,15 # ff00f00f <heap_memory_used+0xfefed237>
   19bec:	00200e13          	li	t3,2
   19bf0:	1dd19663          	bne	gp,t4,19dbc <fail>

00019bf4 <test_3>:
   19bf4:	0ff010b7          	lui	ra,0xff01
   19bf8:	ff008093          	addi	ra,ra,-16 # ff00ff0 <heap_memory_used+0xfedf218>
   19bfc:	0f00c193          	xori	gp,ra,240
   19c00:	0ff01eb7          	lui	t4,0xff01
   19c04:	f00e8e93          	addi	t4,t4,-256 # ff00f00 <heap_memory_used+0xfedf128>
   19c08:	00300e13          	li	t3,3
   19c0c:	1bd19863          	bne	gp,t4,19dbc <fail>

00019c10 <test_4>:
   19c10:	00ff10b7          	lui	ra,0xff1
   19c14:	8ff08093          	addi	ra,ra,-1793 # ff08ff <heap_memory_used+0xfceb27>
   19c18:	70f0c193          	xori	gp,ra,1807
   19c1c:	00ff1eb7          	lui	t4,0xff1
   19c20:	ff0e8e93          	addi	t4,t4,-16 # ff0ff0 <heap_memory_used+0xfcf218>
   19c24:	00400e13          	li	t3,4
   19c28:	19d19a63          	bne	gp,t4,19dbc <fail>

00019c2c <test_5>:
   19c2c:	f00ff0b7          	lui	ra,0xf00ff
   19c30:	00f08093          	addi	ra,ra,15 # f00ff00f <heap_memory_used+0xf00dd237>
   19c34:	0f00c193          	xori	gp,ra,240
   19c38:	f00ffeb7          	lui	t4,0xf00ff
   19c3c:	0ffe8e93          	addi	t4,t4,255 # f00ff0ff <heap_memory_used+0xf00dd327>
   19c40:	00500e13          	li	t3,5
   19c44:	17d19c63          	bne	gp,t4,19dbc <fail>

00019c48 <test_6>:
   19c48:	ff00f0b7          	lui	ra,0xff00f
   19c4c:	70008093          	addi	ra,ra,1792 # ff00f700 <heap_memory_used+0xfefed928>
   19c50:	70f0c093          	xori	ra,ra,1807
   19c54:	ff00feb7          	lui	t4,0xff00f
   19c58:	00fe8e93          	addi	t4,t4,15 # ff00f00f <heap_memory_used+0xfefed237>
   19c5c:	00600e13          	li	t3,6
   19c60:	15d09e63          	bne	ra,t4,19dbc <fail>

00019c64 <test_7>:
   19c64:	00000213          	li	tp,0
   19c68:	0ff010b7          	lui	ra,0xff01
   19c6c:	ff008093          	addi	ra,ra,-16 # ff00ff0 <heap_memory_used+0xfedf218>
   19c70:	0f00c193          	xori	gp,ra,240
   19c74:	00018313          	mv	t1,gp
   19c78:	00120213          	addi	tp,tp,1 # 1 <_start+0x1>
   19c7c:	00200293          	li	t0,2
   19c80:	fe5214e3          	bne	tp,t0,19c68 <test_7+0x4>
   19c84:	0ff01eb7          	lui	t4,0xff01
   19c88:	f00e8e93          	addi	t4,t4,-256 # ff00f00 <heap_memory_used+0xfedf128>
   19c8c:	00700e13          	li	t3,7
   19c90:	13d31663          	bne	t1,t4,19dbc <fail>

00019c94 <test_8>:
   19c94:	00000213          	li	tp,0
   19c98:	00ff10b7          	lui	ra,0xff1
   19c9c:	8ff08093          	addi	ra,ra,-1793 # ff08ff <heap_memory_used+0xfceb27>
   19ca0:	70f0c193          	xori	gp,ra,1807
   19ca4:	00000013          	nop
   19ca8:	00018313          	mv	t1,gp
   19cac:	00120213          	addi	tp,tp,1 # 1 <_start+0x1>
   19cb0:	00200293          	li	t0,2
   19cb4:	fe5212e3          	bne	tp,t0,19c98 <test_8+0x4>
   19cb8:	00ff1eb7          	lui	t4,0xff1
   19cbc:	ff0e8e93          	addi	t4,t4,-16 # ff0ff0 <heap_memory_used+0xfcf218>
   19cc0:	00800e13          	li	t3,8
   19cc4:	0fd31c63          	bne	t1,t4,19dbc <fail>

00019cc8 <test_9>:
   19cc8:	00000213          	li	tp,0
   19ccc:	f00ff0b7          	lui	ra,0xf00ff
   19cd0:	00f08093          	addi	ra,ra,15 # f00ff00f <heap_memory_used+0xf00dd237>
   19cd4:	0f00c193          	xori	gp,ra,240
   19cd8:	00000013          	nop
   19cdc:	00000013          	nop
   19ce0:	00018313          	mv	t1,gp
   19ce4:	00120213          	addi	tp,tp,1 # 1 <_start+0x1>
   19ce8:	00200293          	li	t0,2
   19cec:	fe5210e3          	bne	tp,t0,19ccc <test_9+0x4>
   19cf0:	f00ffeb7          	lui	t4,0xf00ff
   19cf4:	0ffe8e93          	addi	t4,t4,255 # f00ff0ff <heap_memory_used+0xf00dd327>
   19cf8:	00900e13          	li	t3,9
   19cfc:	0dd31063          	bne	t1,t4,19dbc <fail>

00019d00 <test_10>:
   19d00:	00000213          	li	tp,0
   19d04:	0ff010b7          	lui	ra,0xff01
   19d08:	ff008093          	addi	ra,ra,-16 # ff00ff0 <heap_memory_used+0xfedf218>
   19d0c:	0f00c193          	xori	gp,ra,240
   19d10:	00120213          	addi	tp,tp,1 # 1 <_start+0x1>
   19d14:	00200293          	li	t0,2
   19d18:	fe5216e3          	bne	tp,t0,19d04 <test_10+0x4>
   19d1c:	0ff01eb7          	lui	t4,0xff01
   19d20:	f00e8e93          	addi	t4,t4,-256 # ff00f00 <heap_memory_used+0xfedf128>
   19d24:	00a00e13          	li	t3,10
   19d28:	09d19a63          	bne	gp,t4,19dbc <fail>

00019d2c <test_11>:
   19d2c:	00000213          	li	tp,0
   19d30:	00ff10b7          	lui	ra,0xff1
   19d34:	fff08093          	addi	ra,ra,-1 # ff0fff <heap_memory_used+0xfcf227>
   19d38:	00000013          	nop
   19d3c:	00f0c193          	xori	gp,ra,15
   19d40:	00120213          	addi	tp,tp,1 # 1 <_start+0x1>
   19d44:	00200293          	li	t0,2
   19d48:	fe5214e3          	bne	tp,t0,19d30 <test_11+0x4>
   19d4c:	00ff1eb7          	lui	t4,0xff1
   19d50:	ff0e8e93          	addi	t4,t4,-16 # ff0ff0 <heap_memory_used+0xfcf218>
   19d54:	00b00e13          	li	t3,11
   19d58:	07d19263          	bne	gp,t4,19dbc <fail>

00019d5c <test_12>:
   19d5c:	00000213          	li	tp,0
   19d60:	f00ff0b7          	lui	ra,0xf00ff
   19d64:	00f08093          	addi	ra,ra,15 # f00ff00f <heap_memory_used+0xf00dd237>
   19d68:	00000013          	nop
   19d6c:	00000013          	nop
   19d70:	0f00c193          	xori	gp,ra,240
   19d74:	00120213          	addi	tp,tp,1 # 1 <_start+0x1>
   19d78:	00200293          	li	t0,2
   19d7c:	fe5212e3          	bne	tp,t0,19d60 <test_12+0x4>
   19d80:	f00ffeb7          	lui	t4,0xf00ff
   19d84:	0ffe8e93          	addi	t4,t4,255 # f00ff0ff <heap_memory_used+0xf00dd327>
   19d88:	00c00e13          	li	t3,12
   19d8c:	03d19863          	bne	gp,t4,19dbc <fail>

00019d90 <test_13>:
   19d90:	0f004093          	xori	ra,zero,240
   19d94:	0f000e93          	li	t4,240
   19d98:	00d00e13          	li	t3,13
   19d9c:	03d09063          	bne	ra,t4,19dbc <fail>

00019da0 <test_14>:
   19da0:	00ff00b7          	lui	ra,0xff0
   19da4:	0ff08093          	addi	ra,ra,255 # ff00ff <heap_memory_used+0xfce327>
   19da8:	70f0c013          	xori	zero,ra,1807
   19dac:	00000e93          	li	t4,0
   19db0:	00e00e13          	li	t3,14
   19db4:	01d01463          	bne	zero,t4,19dbc <fail>
   19db8:	05c01863          	bne	zero,t3,19e08 <pass>

00019dbc <fail>:
   19dbc:	04500513          	li	a0,69
   19dc0:	00004137          	lui	sp,0x4
   19dc4:	3c5030ef          	jal	ra,1d988 <printf_c>
   19dc8:	05200513          	li	a0,82
   19dcc:	00004137          	lui	sp,0x4
   19dd0:	3b9030ef          	jal	ra,1d988 <printf_c>
   19dd4:	00004137          	lui	sp,0x4
   19dd8:	3b1030ef          	jal	ra,1d988 <printf_c>
   19ddc:	04f00513          	li	a0,79
   19de0:	00004137          	lui	sp,0x4
   19de4:	3a5030ef          	jal	ra,1d988 <printf_c>
   19de8:	00004137          	lui	sp,0x4
   19dec:	05200513          	li	a0,82
   19df0:	00004137          	lui	sp,0x4
   19df4:	395030ef          	jal	ra,1d988 <printf_c>
   19df8:	00a00513          	li	a0,10
   19dfc:	00004137          	lui	sp,0x4
   19e00:	389030ef          	jal	ra,1d988 <printf_c>
   19e04:	880fa06f          	j	13e84 <mul>

00019e08 <pass>:
   19e08:	04f00513          	li	a0,79
   19e0c:	00004137          	lui	sp,0x4
   19e10:	379030ef          	jal	ra,1d988 <printf_c>
   19e14:	04b00513          	li	a0,75
   19e18:	00004137          	lui	sp,0x4
   19e1c:	36d030ef          	jal	ra,1d988 <printf_c>
   19e20:	00a00513          	li	a0,10
   19e24:	00004137          	lui	sp,0x4
   19e28:	361030ef          	jal	ra,1d988 <printf_c>
   19e2c:	858fa06f          	j	13e84 <mul>

00019e30 <.test_name>:
   19e30:	6d61                	lui	s10,0x18
   19e32:	6464616f          	jal	sp,60478 <heap_memory_used+0x3e6a0>
   19e36:	00092077          	0x92077
	...

00019e3c <amoaddw>:
   19e3c:	0001a537          	lui	a0,0x1a
   19e40:	e3050513          	addi	a0,a0,-464 # 19e30 <.test_name>

00019e44 <.prname_next>:
   19e44:	00004137          	lui	sp,0x4
   19e48:	359030ef          	jal	ra,1d9a0 <printf_s>

00019e4c <test_2>:
   19e4c:	80000537          	lui	a0,0x80000
   19e50:	80000593          	li	a1,-2048
   19e54:	00005697          	auipc	a3,0x5
   19e58:	31468693          	addi	a3,a3,788 # 1f168 <amo_operand>
   19e5c:	00a6a023          	sw	a0,0(a3)
   19e60:	00b6a72f          	amoadd.w	a4,a1,(a3)
   19e64:	80000eb7          	lui	t4,0x80000
   19e68:	00200e13          	li	t3,2
   19e6c:	05d71263          	bne	a4,t4,19eb0 <fail>

00019e70 <test_3>:
   19e70:	0006a783          	lw	a5,0(a3)
   19e74:	80000eb7          	lui	t4,0x80000
   19e78:	800e8e93          	addi	t4,t4,-2048 # 7ffff800 <heap_memory_used+0x7ffdda28>
   19e7c:	00300e13          	li	t3,3
   19e80:	03d79863          	bne	a5,t4,19eb0 <fail>

00019e84 <test_4>:
   19e84:	800005b7          	lui	a1,0x80000
   19e88:	00b6a72f          	amoadd.w	a4,a1,(a3)
   19e8c:	80000eb7          	lui	t4,0x80000
   19e90:	800e8e93          	addi	t4,t4,-2048 # 7ffff800 <heap_memory_used+0x7ffdda28>
   19e94:	00400e13          	li	t3,4
   19e98:	01d71c63          	bne	a4,t4,19eb0 <fail>

00019e9c <test_5>:
   19e9c:	0006a783          	lw	a5,0(a3)
   19ea0:	80000e93          	li	t4,-2048
   19ea4:	00500e13          	li	t3,5
   19ea8:	01d79463          	bne	a5,t4,19eb0 <fail>
   19eac:	05c01863          	bne	zero,t3,19efc <pass>

00019eb0 <fail>:
   19eb0:	04500513          	li	a0,69
   19eb4:	00004137          	lui	sp,0x4
   19eb8:	2d1030ef          	jal	ra,1d988 <printf_c>
   19ebc:	05200513          	li	a0,82
   19ec0:	00004137          	lui	sp,0x4
   19ec4:	2c5030ef          	jal	ra,1d988 <printf_c>
   19ec8:	00004137          	lui	sp,0x4
   19ecc:	2bd030ef          	jal	ra,1d988 <printf_c>
   19ed0:	04f00513          	li	a0,79
   19ed4:	00004137          	lui	sp,0x4
   19ed8:	2b1030ef          	jal	ra,1d988 <printf_c>
   19edc:	00004137          	lui	sp,0x4
   19ee0:	05200513          	li	a0,82
   19ee4:	00004137          	lui	sp,0x4
   19ee8:	2a1030ef          	jal	ra,1d988 <printf_c>
   19eec:	00a00513          	li	a0,10
   19ef0:	00004137          	lui	sp,0x4
   19ef4:	295030ef          	jal	ra,1d988 <printf_c>
   19ef8:	0380006f          	j	19f30 <amoand_w>

00019efc <pass>:
   19efc:	04f00513          	li	a0,79
   19f00:	00004137          	lui	sp,0x4
   19f04:	285030ef          	jal	ra,1d988 <printf_c>
   19f08:	04b00513          	li	a0,75
   19f0c:	00004137          	lui	sp,0x4
   19f10:	279030ef          	jal	ra,1d988 <printf_c>
   19f14:	00a00513          	li	a0,10
   19f18:	00004137          	lui	sp,0x4
   19f1c:	26d030ef          	jal	ra,1d988 <printf_c>
   19f20:	0100006f          	j	19f30 <amoand_w>

00019f24 <.test_name>:
   19f24:	6d61                	lui	s10,0x18
   19f26:	646e616f          	jal	sp,10056c <heap_memory_used+0xde794>
   19f2a:	775f 0920 0000      	0x920775f

00019f30 <amoand_w>:
   19f30:	0001a537          	lui	a0,0x1a
   19f34:	f2450513          	addi	a0,a0,-220 # 19f24 <.test_name>

00019f38 <.prname_next>:
   19f38:	00004137          	lui	sp,0x4
   19f3c:	265030ef          	jal	ra,1d9a0 <printf_s>

00019f40 <test_2>:
   19f40:	80000537          	lui	a0,0x80000
   19f44:	80000593          	li	a1,-2048
   19f48:	00005697          	auipc	a3,0x5
   19f4c:	22868693          	addi	a3,a3,552 # 1f170 <amo_operand>
   19f50:	00a6a023          	sw	a0,0(a3)
   19f54:	60b6a72f          	amoand.w	a4,a1,(a3)
   19f58:	80000eb7          	lui	t4,0x80000
   19f5c:	00200e13          	li	t3,2
   19f60:	03d71e63          	bne	a4,t4,19f9c <fail>

00019f64 <test_3>:
   19f64:	0006a783          	lw	a5,0(a3)
   19f68:	80000eb7          	lui	t4,0x80000
   19f6c:	00300e13          	li	t3,3
   19f70:	03d79663          	bne	a5,t4,19f9c <fail>

00019f74 <test_4>:
   19f74:	800005b7          	lui	a1,0x80000
   19f78:	60b6a72f          	amoand.w	a4,a1,(a3)
   19f7c:	80000eb7          	lui	t4,0x80000
   19f80:	00400e13          	li	t3,4
   19f84:	01d71c63          	bne	a4,t4,19f9c <fail>

00019f88 <test_5>:
   19f88:	0006a783          	lw	a5,0(a3)
   19f8c:	80000eb7          	lui	t4,0x80000
   19f90:	00500e13          	li	t3,5
   19f94:	01d79463          	bne	a5,t4,19f9c <fail>
   19f98:	05c01863          	bne	zero,t3,19fe8 <pass>

00019f9c <fail>:
   19f9c:	04500513          	li	a0,69
   19fa0:	00004137          	lui	sp,0x4
   19fa4:	1e5030ef          	jal	ra,1d988 <printf_c>
   19fa8:	05200513          	li	a0,82
   19fac:	00004137          	lui	sp,0x4
   19fb0:	1d9030ef          	jal	ra,1d988 <printf_c>
   19fb4:	00004137          	lui	sp,0x4
   19fb8:	1d1030ef          	jal	ra,1d988 <printf_c>
   19fbc:	04f00513          	li	a0,79
   19fc0:	00004137          	lui	sp,0x4
   19fc4:	1c5030ef          	jal	ra,1d988 <printf_c>
   19fc8:	00004137          	lui	sp,0x4
   19fcc:	05200513          	li	a0,82
   19fd0:	00004137          	lui	sp,0x4
   19fd4:	1b5030ef          	jal	ra,1d988 <printf_c>
   19fd8:	00a00513          	li	a0,10
   19fdc:	00004137          	lui	sp,0x4
   19fe0:	1a9030ef          	jal	ra,1d988 <printf_c>
   19fe4:	0380006f          	j	1a01c <amomaxu_w>

00019fe8 <pass>:
   19fe8:	04f00513          	li	a0,79
   19fec:	00004137          	lui	sp,0x4
   19ff0:	199030ef          	jal	ra,1d988 <printf_c>
   19ff4:	04b00513          	li	a0,75
   19ff8:	00004137          	lui	sp,0x4
   19ffc:	18d030ef          	jal	ra,1d988 <printf_c>
   1a000:	00a00513          	li	a0,10
   1a004:	00004137          	lui	sp,0x4
   1a008:	181030ef          	jal	ra,1d988 <printf_c>
   1a00c:	0100006f          	j	1a01c <amomaxu_w>

0001a010 <.test_name>:
   1a010:	6d61                	lui	s10,0x18
   1a012:	78616d6f          	jal	s10,30798 <heap_memory_used+0xe9c0>
   1a016:	5f75                	li	t5,-3
   1a018:	00092077          	0x92077

0001a01c <amomaxu_w>:
   1a01c:	0001a537          	lui	a0,0x1a
   1a020:	01050513          	addi	a0,a0,16 # 1a010 <.test_name>

0001a024 <.prname_next>:
   1a024:	00004137          	lui	sp,0x4
   1a028:	179030ef          	jal	ra,1d9a0 <printf_s>

0001a02c <test_2>:
   1a02c:	80000537          	lui	a0,0x80000
   1a030:	80000593          	li	a1,-2048
   1a034:	00005697          	auipc	a3,0x5
   1a038:	14468693          	addi	a3,a3,324 # 1f178 <amo_operand>
   1a03c:	00a6a023          	sw	a0,0(a3)
   1a040:	e0b6a72f          	amomaxu.w	a4,a1,(a3)
   1a044:	80000eb7          	lui	t4,0x80000
   1a048:	00200e13          	li	t3,2
   1a04c:	05d71063          	bne	a4,t4,1a08c <fail>

0001a050 <test_3>:
   1a050:	0006a783          	lw	a5,0(a3)
   1a054:	80000e93          	li	t4,-2048
   1a058:	00300e13          	li	t3,3
   1a05c:	03d79863          	bne	a5,t4,1a08c <fail>

0001a060 <test_4>:
   1a060:	fff00593          	li	a1,-1
   1a064:	0006a023          	sw	zero,0(a3)
   1a068:	e0b6a72f          	amomaxu.w	a4,a1,(a3)
   1a06c:	00000e93          	li	t4,0
   1a070:	00400e13          	li	t3,4
   1a074:	01d71c63          	bne	a4,t4,1a08c <fail>

0001a078 <test_5>:
   1a078:	0006a783          	lw	a5,0(a3)
   1a07c:	fff00e93          	li	t4,-1
   1a080:	00500e13          	li	t3,5
   1a084:	01d79463          	bne	a5,t4,1a08c <fail>
   1a088:	05c01863          	bne	zero,t3,1a0d8 <pass>

0001a08c <fail>:
   1a08c:	04500513          	li	a0,69
   1a090:	00004137          	lui	sp,0x4
   1a094:	0f5030ef          	jal	ra,1d988 <printf_c>
   1a098:	05200513          	li	a0,82
   1a09c:	00004137          	lui	sp,0x4
   1a0a0:	0e9030ef          	jal	ra,1d988 <printf_c>
   1a0a4:	00004137          	lui	sp,0x4
   1a0a8:	0e1030ef          	jal	ra,1d988 <printf_c>
   1a0ac:	04f00513          	li	a0,79
   1a0b0:	00004137          	lui	sp,0x4
   1a0b4:	0d5030ef          	jal	ra,1d988 <printf_c>
   1a0b8:	00004137          	lui	sp,0x4
   1a0bc:	05200513          	li	a0,82
   1a0c0:	00004137          	lui	sp,0x4
   1a0c4:	0c5030ef          	jal	ra,1d988 <printf_c>
   1a0c8:	00a00513          	li	a0,10
   1a0cc:	00004137          	lui	sp,0x4
   1a0d0:	0b9030ef          	jal	ra,1d988 <printf_c>
   1a0d4:	0380006f          	j	1a10c <amomax_w>

0001a0d8 <pass>:
   1a0d8:	04f00513          	li	a0,79
   1a0dc:	00004137          	lui	sp,0x4
   1a0e0:	0a9030ef          	jal	ra,1d988 <printf_c>
   1a0e4:	04b00513          	li	a0,75
   1a0e8:	00004137          	lui	sp,0x4
   1a0ec:	09d030ef          	jal	ra,1d988 <printf_c>
   1a0f0:	00a00513          	li	a0,10
   1a0f4:	00004137          	lui	sp,0x4
   1a0f8:	091030ef          	jal	ra,1d988 <printf_c>
   1a0fc:	0100006f          	j	1a10c <amomax_w>

0001a100 <.test_name>:
   1a100:	6d61                	lui	s10,0x18
   1a102:	78616d6f          	jal	s10,30888 <heap_memory_used+0xeab0>
   1a106:	775f 0920 0000      	0x920775f

0001a10c <amomax_w>:
   1a10c:	0001a537          	lui	a0,0x1a
   1a110:	10050513          	addi	a0,a0,256 # 1a100 <.test_name>

0001a114 <.prname_next>:
   1a114:	00004137          	lui	sp,0x4
   1a118:	089030ef          	jal	ra,1d9a0 <printf_s>

0001a11c <test_2>:
   1a11c:	80000537          	lui	a0,0x80000
   1a120:	80000593          	li	a1,-2048
   1a124:	00005697          	auipc	a3,0x5
   1a128:	05c68693          	addi	a3,a3,92 # 1f180 <amo_operand>
   1a12c:	00a6a023          	sw	a0,0(a3)
   1a130:	a0b6a72f          	amomax.w	a4,a1,(a3)
   1a134:	80000eb7          	lui	t4,0x80000
   1a138:	00200e13          	li	t3,2
   1a13c:	05d71063          	bne	a4,t4,1a17c <fail>

0001a140 <test_3>:
   1a140:	0006a783          	lw	a5,0(a3)
   1a144:	80000e93          	li	t4,-2048
   1a148:	00300e13          	li	t3,3
   1a14c:	03d79863          	bne	a5,t4,1a17c <fail>

0001a150 <test_4>:
   1a150:	00100593          	li	a1,1
   1a154:	0006a023          	sw	zero,0(a3)
   1a158:	a0b6a72f          	amomax.w	a4,a1,(a3)
   1a15c:	00000e93          	li	t4,0
   1a160:	00400e13          	li	t3,4
   1a164:	01d71c63          	bne	a4,t4,1a17c <fail>

0001a168 <test_5>:
   1a168:	0006a783          	lw	a5,0(a3)
   1a16c:	00100e93          	li	t4,1
   1a170:	00500e13          	li	t3,5
   1a174:	01d79463          	bne	a5,t4,1a17c <fail>
   1a178:	05c01863          	bne	zero,t3,1a1c8 <pass>

0001a17c <fail>:
   1a17c:	04500513          	li	a0,69
   1a180:	00004137          	lui	sp,0x4
   1a184:	005030ef          	jal	ra,1d988 <printf_c>
   1a188:	05200513          	li	a0,82
   1a18c:	00004137          	lui	sp,0x4
   1a190:	7f8030ef          	jal	ra,1d988 <printf_c>
   1a194:	00004137          	lui	sp,0x4
   1a198:	7f0030ef          	jal	ra,1d988 <printf_c>
   1a19c:	04f00513          	li	a0,79
   1a1a0:	00004137          	lui	sp,0x4
   1a1a4:	7e4030ef          	jal	ra,1d988 <printf_c>
   1a1a8:	00004137          	lui	sp,0x4
   1a1ac:	05200513          	li	a0,82
   1a1b0:	00004137          	lui	sp,0x4
   1a1b4:	7d4030ef          	jal	ra,1d988 <printf_c>
   1a1b8:	00a00513          	li	a0,10
   1a1bc:	00004137          	lui	sp,0x4
   1a1c0:	7c8030ef          	jal	ra,1d988 <printf_c>
   1a1c4:	0380006f          	j	1a1fc <amominu_w>

0001a1c8 <pass>:
   1a1c8:	04f00513          	li	a0,79
   1a1cc:	00004137          	lui	sp,0x4
   1a1d0:	7b8030ef          	jal	ra,1d988 <printf_c>
   1a1d4:	04b00513          	li	a0,75
   1a1d8:	00004137          	lui	sp,0x4
   1a1dc:	7ac030ef          	jal	ra,1d988 <printf_c>
   1a1e0:	00a00513          	li	a0,10
   1a1e4:	00004137          	lui	sp,0x4
   1a1e8:	7a0030ef          	jal	ra,1d988 <printf_c>
   1a1ec:	0100006f          	j	1a1fc <amominu_w>

0001a1f0 <.test_name>:
   1a1f0:	6d61                	lui	s10,0x18
   1a1f2:	6e696d6f          	jal	s10,b08d8 <heap_memory_used+0x8eb00>
   1a1f6:	5f75                	li	t5,-3
   1a1f8:	00092077          	0x92077

0001a1fc <amominu_w>:
   1a1fc:	0001a537          	lui	a0,0x1a
   1a200:	1f050513          	addi	a0,a0,496 # 1a1f0 <.test_name>

0001a204 <.prname_next>:
   1a204:	00004137          	lui	sp,0x4
   1a208:	798030ef          	jal	ra,1d9a0 <printf_s>

0001a20c <test_2>:
   1a20c:	80000537          	lui	a0,0x80000
   1a210:	80000593          	li	a1,-2048
   1a214:	00005697          	auipc	a3,0x5
   1a218:	f7468693          	addi	a3,a3,-140 # 1f188 <amo_operand>
   1a21c:	00a6a023          	sw	a0,0(a3)
   1a220:	c0b6a72f          	amominu.w	a4,a1,(a3)
   1a224:	80000eb7          	lui	t4,0x80000
   1a228:	00200e13          	li	t3,2
   1a22c:	05d71063          	bne	a4,t4,1a26c <fail>

0001a230 <test_3>:
   1a230:	0006a783          	lw	a5,0(a3)
   1a234:	80000eb7          	lui	t4,0x80000
   1a238:	00300e13          	li	t3,3
   1a23c:	03d79863          	bne	a5,t4,1a26c <fail>

0001a240 <test_4>:
   1a240:	fff00593          	li	a1,-1
   1a244:	0006a023          	sw	zero,0(a3)
   1a248:	c0b6a72f          	amominu.w	a4,a1,(a3)
   1a24c:	00000e93          	li	t4,0
   1a250:	00400e13          	li	t3,4
   1a254:	01d71c63          	bne	a4,t4,1a26c <fail>

0001a258 <test_5>:
   1a258:	0006a783          	lw	a5,0(a3)
   1a25c:	00000e93          	li	t4,0
   1a260:	00500e13          	li	t3,5
   1a264:	01d79463          	bne	a5,t4,1a26c <fail>
   1a268:	05c01863          	bne	zero,t3,1a2b8 <pass>

0001a26c <fail>:
   1a26c:	04500513          	li	a0,69
   1a270:	00004137          	lui	sp,0x4
   1a274:	714030ef          	jal	ra,1d988 <printf_c>
   1a278:	05200513          	li	a0,82
   1a27c:	00004137          	lui	sp,0x4
   1a280:	708030ef          	jal	ra,1d988 <printf_c>
   1a284:	00004137          	lui	sp,0x4
   1a288:	700030ef          	jal	ra,1d988 <printf_c>
   1a28c:	04f00513          	li	a0,79
   1a290:	00004137          	lui	sp,0x4
   1a294:	6f4030ef          	jal	ra,1d988 <printf_c>
   1a298:	00004137          	lui	sp,0x4
   1a29c:	05200513          	li	a0,82
   1a2a0:	00004137          	lui	sp,0x4
   1a2a4:	6e4030ef          	jal	ra,1d988 <printf_c>
   1a2a8:	00a00513          	li	a0,10
   1a2ac:	00004137          	lui	sp,0x4
   1a2b0:	6d8030ef          	jal	ra,1d988 <printf_c>
   1a2b4:	0380006f          	j	1a2ec <amomin_w>

0001a2b8 <pass>:
   1a2b8:	04f00513          	li	a0,79
   1a2bc:	00004137          	lui	sp,0x4
   1a2c0:	6c8030ef          	jal	ra,1d988 <printf_c>
   1a2c4:	04b00513          	li	a0,75
   1a2c8:	00004137          	lui	sp,0x4
   1a2cc:	6bc030ef          	jal	ra,1d988 <printf_c>
   1a2d0:	00a00513          	li	a0,10
   1a2d4:	00004137          	lui	sp,0x4
   1a2d8:	6b0030ef          	jal	ra,1d988 <printf_c>
   1a2dc:	0100006f          	j	1a2ec <amomin_w>

0001a2e0 <.test_name>:
   1a2e0:	6d61                	lui	s10,0x18
   1a2e2:	6e696d6f          	jal	s10,b09c8 <heap_memory_used+0x8ebf0>
   1a2e6:	775f 0920 0000      	0x920775f

0001a2ec <amomin_w>:
   1a2ec:	0001a537          	lui	a0,0x1a
   1a2f0:	2e050513          	addi	a0,a0,736 # 1a2e0 <.test_name>

0001a2f4 <.prname_next>:
   1a2f4:	00004137          	lui	sp,0x4
   1a2f8:	6a8030ef          	jal	ra,1d9a0 <printf_s>

0001a2fc <test_2>:
   1a2fc:	80000537          	lui	a0,0x80000
   1a300:	80000593          	li	a1,-2048
   1a304:	00005697          	auipc	a3,0x5
   1a308:	e8c68693          	addi	a3,a3,-372 # 1f190 <amo_operand>
   1a30c:	00a6a023          	sw	a0,0(a3)
   1a310:	80b6a72f          	amomin.w	a4,a1,(a3)
   1a314:	80000eb7          	lui	t4,0x80000
   1a318:	00200e13          	li	t3,2
   1a31c:	05d71063          	bne	a4,t4,1a35c <fail>

0001a320 <test_3>:
   1a320:	0006a783          	lw	a5,0(a3)
   1a324:	80000eb7          	lui	t4,0x80000
   1a328:	00300e13          	li	t3,3
   1a32c:	03d79863          	bne	a5,t4,1a35c <fail>

0001a330 <test_4>:
   1a330:	fff00593          	li	a1,-1
   1a334:	0006a023          	sw	zero,0(a3)
   1a338:	80b6a72f          	amomin.w	a4,a1,(a3)
   1a33c:	00000e93          	li	t4,0
   1a340:	00400e13          	li	t3,4
   1a344:	01d71c63          	bne	a4,t4,1a35c <fail>

0001a348 <test_5>:
   1a348:	0006a783          	lw	a5,0(a3)
   1a34c:	fff00e93          	li	t4,-1
   1a350:	00500e13          	li	t3,5
   1a354:	01d79463          	bne	a5,t4,1a35c <fail>
   1a358:	05c01863          	bne	zero,t3,1a3a8 <pass>

0001a35c <fail>:
   1a35c:	04500513          	li	a0,69
   1a360:	00004137          	lui	sp,0x4
   1a364:	624030ef          	jal	ra,1d988 <printf_c>
   1a368:	05200513          	li	a0,82
   1a36c:	00004137          	lui	sp,0x4
   1a370:	618030ef          	jal	ra,1d988 <printf_c>
   1a374:	00004137          	lui	sp,0x4
   1a378:	610030ef          	jal	ra,1d988 <printf_c>
   1a37c:	04f00513          	li	a0,79
   1a380:	00004137          	lui	sp,0x4
   1a384:	604030ef          	jal	ra,1d988 <printf_c>
   1a388:	00004137          	lui	sp,0x4
   1a38c:	05200513          	li	a0,82
   1a390:	00004137          	lui	sp,0x4
   1a394:	5f4030ef          	jal	ra,1d988 <printf_c>
   1a398:	00a00513          	li	a0,10
   1a39c:	00004137          	lui	sp,0x4
   1a3a0:	5e8030ef          	jal	ra,1d988 <printf_c>
   1a3a4:	0380006f          	j	1a3dc <amoor_w>

0001a3a8 <pass>:
   1a3a8:	04f00513          	li	a0,79
   1a3ac:	00004137          	lui	sp,0x4
   1a3b0:	5d8030ef          	jal	ra,1d988 <printf_c>
   1a3b4:	04b00513          	li	a0,75
   1a3b8:	00004137          	lui	sp,0x4
   1a3bc:	5cc030ef          	jal	ra,1d988 <printf_c>
   1a3c0:	00a00513          	li	a0,10
   1a3c4:	00004137          	lui	sp,0x4
   1a3c8:	5c0030ef          	jal	ra,1d988 <printf_c>
   1a3cc:	0100006f          	j	1a3dc <amoor_w>

0001a3d0 <.test_name>:
   1a3d0:	6d61                	lui	s10,0x18
   1a3d2:	5f726f6f          	jal	t5,411c8 <heap_memory_used+0x1f3f0>
   1a3d6:	00092077          	0x92077
	...

0001a3dc <amoor_w>:
   1a3dc:	0001a537          	lui	a0,0x1a
   1a3e0:	3d050513          	addi	a0,a0,976 # 1a3d0 <.test_name>

0001a3e4 <.prname_next>:
   1a3e4:	00004137          	lui	sp,0x4
   1a3e8:	5b8030ef          	jal	ra,1d9a0 <printf_s>

0001a3ec <test_2>:
   1a3ec:	80000537          	lui	a0,0x80000
   1a3f0:	80000593          	li	a1,-2048
   1a3f4:	00005697          	auipc	a3,0x5
   1a3f8:	da468693          	addi	a3,a3,-604 # 1f198 <amo_operand>
   1a3fc:	00a6a023          	sw	a0,0(a3)
   1a400:	40b6a72f          	amoor.w	a4,a1,(a3)
   1a404:	80000eb7          	lui	t4,0x80000
   1a408:	00200e13          	li	t3,2
   1a40c:	03d71e63          	bne	a4,t4,1a448 <fail>

0001a410 <test_3>:
   1a410:	0006a783          	lw	a5,0(a3)
   1a414:	80000e93          	li	t4,-2048
   1a418:	00300e13          	li	t3,3
   1a41c:	03d79663          	bne	a5,t4,1a448 <fail>

0001a420 <test_4>:
   1a420:	00100593          	li	a1,1
   1a424:	40b6a72f          	amoor.w	a4,a1,(a3)
   1a428:	80000e93          	li	t4,-2048
   1a42c:	00400e13          	li	t3,4
   1a430:	01d71c63          	bne	a4,t4,1a448 <fail>

0001a434 <test_5>:
   1a434:	0006a783          	lw	a5,0(a3)
   1a438:	80100e93          	li	t4,-2047
   1a43c:	00500e13          	li	t3,5
   1a440:	01d79463          	bne	a5,t4,1a448 <fail>
   1a444:	05c01863          	bne	zero,t3,1a494 <pass>

0001a448 <fail>:
   1a448:	04500513          	li	a0,69
   1a44c:	00004137          	lui	sp,0x4
   1a450:	538030ef          	jal	ra,1d988 <printf_c>
   1a454:	05200513          	li	a0,82
   1a458:	00004137          	lui	sp,0x4
   1a45c:	52c030ef          	jal	ra,1d988 <printf_c>
   1a460:	00004137          	lui	sp,0x4
   1a464:	524030ef          	jal	ra,1d988 <printf_c>
   1a468:	04f00513          	li	a0,79
   1a46c:	00004137          	lui	sp,0x4
   1a470:	518030ef          	jal	ra,1d988 <printf_c>
   1a474:	00004137          	lui	sp,0x4
   1a478:	05200513          	li	a0,82
   1a47c:	00004137          	lui	sp,0x4
   1a480:	508030ef          	jal	ra,1d988 <printf_c>
   1a484:	00a00513          	li	a0,10
   1a488:	00004137          	lui	sp,0x4
   1a48c:	4fc030ef          	jal	ra,1d988 <printf_c>
   1a490:	0380006f          	j	1a4c8 <amoswap_w>

0001a494 <pass>:
   1a494:	04f00513          	li	a0,79
   1a498:	00004137          	lui	sp,0x4
   1a49c:	4ec030ef          	jal	ra,1d988 <printf_c>
   1a4a0:	04b00513          	li	a0,75
   1a4a4:	00004137          	lui	sp,0x4
   1a4a8:	4e0030ef          	jal	ra,1d988 <printf_c>
   1a4ac:	00a00513          	li	a0,10
   1a4b0:	00004137          	lui	sp,0x4
   1a4b4:	4d4030ef          	jal	ra,1d988 <printf_c>
   1a4b8:	0100006f          	j	1a4c8 <amoswap_w>

0001a4bc <.test_name>:
   1a4bc:	6d61                	lui	s10,0x18
   1a4be:	6177736f          	jal	t1,922d4 <heap_memory_used+0x704fc>
   1a4c2:	5f70                	lw	a2,124(a4)
   1a4c4:	00092077          	0x92077

0001a4c8 <amoswap_w>:
   1a4c8:	0001a537          	lui	a0,0x1a
   1a4cc:	4bc50513          	addi	a0,a0,1212 # 1a4bc <.test_name>

0001a4d0 <.prname_next>:
   1a4d0:	00004137          	lui	sp,0x4
   1a4d4:	4cc030ef          	jal	ra,1d9a0 <printf_s>

0001a4d8 <test_2>:
   1a4d8:	80000537          	lui	a0,0x80000
   1a4dc:	80000593          	li	a1,-2048
   1a4e0:	00005697          	auipc	a3,0x5
   1a4e4:	cc068693          	addi	a3,a3,-832 # 1f1a0 <amo_operand>
   1a4e8:	00a6a023          	sw	a0,0(a3)
   1a4ec:	08b6a72f          	amoswap.w	a4,a1,(a3)
   1a4f0:	80000eb7          	lui	t4,0x80000
   1a4f4:	00200e13          	li	t3,2
   1a4f8:	03d71e63          	bne	a4,t4,1a534 <fail>

0001a4fc <test_3>:
   1a4fc:	0006a783          	lw	a5,0(a3)
   1a500:	80000e93          	li	t4,-2048
   1a504:	00300e13          	li	t3,3
   1a508:	03d79663          	bne	a5,t4,1a534 <fail>

0001a50c <test_4>:
   1a50c:	800005b7          	lui	a1,0x80000
   1a510:	08b6a72f          	amoswap.w	a4,a1,(a3)
   1a514:	80000e93          	li	t4,-2048
   1a518:	00400e13          	li	t3,4
   1a51c:	01d71c63          	bne	a4,t4,1a534 <fail>

0001a520 <test_5>:
   1a520:	0006a783          	lw	a5,0(a3)
   1a524:	80000eb7          	lui	t4,0x80000
   1a528:	00500e13          	li	t3,5
   1a52c:	01d79463          	bne	a5,t4,1a534 <fail>
   1a530:	05c01863          	bne	zero,t3,1a580 <pass>

0001a534 <fail>:
   1a534:	04500513          	li	a0,69
   1a538:	00004137          	lui	sp,0x4
   1a53c:	44c030ef          	jal	ra,1d988 <printf_c>
   1a540:	05200513          	li	a0,82
   1a544:	00004137          	lui	sp,0x4
   1a548:	440030ef          	jal	ra,1d988 <printf_c>
   1a54c:	00004137          	lui	sp,0x4
   1a550:	438030ef          	jal	ra,1d988 <printf_c>
   1a554:	04f00513          	li	a0,79
   1a558:	00004137          	lui	sp,0x4
   1a55c:	42c030ef          	jal	ra,1d988 <printf_c>
   1a560:	00004137          	lui	sp,0x4
   1a564:	05200513          	li	a0,82
   1a568:	00004137          	lui	sp,0x4
   1a56c:	41c030ef          	jal	ra,1d988 <printf_c>
   1a570:	00a00513          	li	a0,10
   1a574:	00004137          	lui	sp,0x4
   1a578:	410030ef          	jal	ra,1d988 <printf_c>
   1a57c:	0380006f          	j	1a5b4 <amoxor_w>

0001a580 <pass>:
   1a580:	04f00513          	li	a0,79
   1a584:	00004137          	lui	sp,0x4
   1a588:	400030ef          	jal	ra,1d988 <printf_c>
   1a58c:	04b00513          	li	a0,75
   1a590:	00004137          	lui	sp,0x4
   1a594:	3f4030ef          	jal	ra,1d988 <printf_c>
   1a598:	00a00513          	li	a0,10
   1a59c:	00004137          	lui	sp,0x4
   1a5a0:	3e8030ef          	jal	ra,1d988 <printf_c>
   1a5a4:	0100006f          	j	1a5b4 <amoxor_w>

0001a5a8 <.test_name>:
   1a5a8:	6d61                	lui	s10,0x18
   1a5aa:	726f786f          	jal	a6,111cd0 <heap_memory_used+0xefef8>
   1a5ae:	775f 0920 0000      	0x920775f

0001a5b4 <amoxor_w>:
   1a5b4:	0001a537          	lui	a0,0x1a
   1a5b8:	5a850513          	addi	a0,a0,1448 # 1a5a8 <.test_name>

0001a5bc <.prname_next>:
   1a5bc:	00004137          	lui	sp,0x4
   1a5c0:	3e0030ef          	jal	ra,1d9a0 <printf_s>

0001a5c4 <test_2>:
   1a5c4:	80000537          	lui	a0,0x80000
   1a5c8:	80000593          	li	a1,-2048
   1a5cc:	00005697          	auipc	a3,0x5
   1a5d0:	bdc68693          	addi	a3,a3,-1060 # 1f1a8 <amo_operand>
   1a5d4:	00a6a023          	sw	a0,0(a3)
   1a5d8:	20b6a72f          	amoxor.w	a4,a1,(a3)
   1a5dc:	80000eb7          	lui	t4,0x80000
   1a5e0:	00200e13          	li	t3,2
   1a5e4:	05d71663          	bne	a4,t4,1a630 <fail>

0001a5e8 <test_3>:
   1a5e8:	0006a783          	lw	a5,0(a3)
   1a5ec:	80000eb7          	lui	t4,0x80000
   1a5f0:	800e8e93          	addi	t4,t4,-2048 # 7ffff800 <heap_memory_used+0x7ffdda28>
   1a5f4:	00300e13          	li	t3,3
   1a5f8:	03d79c63          	bne	a5,t4,1a630 <fail>

0001a5fc <test_4>:
   1a5fc:	c00005b7          	lui	a1,0xc0000
   1a600:	00158593          	addi	a1,a1,1 # c0000001 <heap_memory_used+0xbffde229>
   1a604:	20b6a72f          	amoxor.w	a4,a1,(a3)
   1a608:	80000eb7          	lui	t4,0x80000
   1a60c:	800e8e93          	addi	t4,t4,-2048 # 7ffff800 <heap_memory_used+0x7ffdda28>
   1a610:	00400e13          	li	t3,4
   1a614:	01d71e63          	bne	a4,t4,1a630 <fail>

0001a618 <test_5>:
   1a618:	0006a783          	lw	a5,0(a3)
   1a61c:	c0000eb7          	lui	t4,0xc0000
   1a620:	801e8e93          	addi	t4,t4,-2047 # bffff801 <heap_memory_used+0xbffdda29>
   1a624:	00500e13          	li	t3,5
   1a628:	01d79463          	bne	a5,t4,1a630 <fail>
   1a62c:	05c01863          	bne	zero,t3,1a67c <pass>

0001a630 <fail>:
   1a630:	04500513          	li	a0,69
   1a634:	00004137          	lui	sp,0x4
   1a638:	350030ef          	jal	ra,1d988 <printf_c>
   1a63c:	05200513          	li	a0,82
   1a640:	00004137          	lui	sp,0x4
   1a644:	344030ef          	jal	ra,1d988 <printf_c>
   1a648:	00004137          	lui	sp,0x4
   1a64c:	33c030ef          	jal	ra,1d988 <printf_c>
   1a650:	04f00513          	li	a0,79
   1a654:	00004137          	lui	sp,0x4
   1a658:	330030ef          	jal	ra,1d988 <printf_c>
   1a65c:	00004137          	lui	sp,0x4
   1a660:	05200513          	li	a0,82
   1a664:	00004137          	lui	sp,0x4
   1a668:	320030ef          	jal	ra,1d988 <printf_c>
   1a66c:	00a00513          	li	a0,10
   1a670:	00004137          	lui	sp,0x4
   1a674:	314030ef          	jal	ra,1d988 <printf_c>
   1a678:	0340006f          	j	1a6ac <lrsc_w>

0001a67c <pass>:
   1a67c:	04f00513          	li	a0,79
   1a680:	00004137          	lui	sp,0x4
   1a684:	304030ef          	jal	ra,1d988 <printf_c>
   1a688:	04b00513          	li	a0,75
   1a68c:	00004137          	lui	sp,0x4
   1a690:	2f8030ef          	jal	ra,1d988 <printf_c>
   1a694:	00a00513          	li	a0,10
   1a698:	00004137          	lui	sp,0x4
   1a69c:	2ec030ef          	jal	ra,1d988 <printf_c>
   1a6a0:	00c0006f          	j	1a6ac <lrsc_w>

0001a6a4 <.test_name>:
   1a6a4:	726c                	flw	fa1,100(a2)
   1a6a6:	09206373          	csrrsi	t1,0x92,0
	...

0001a6ac <lrsc_w>:
   1a6ac:	0001a537          	lui	a0,0x1a
   1a6b0:	6a450513          	addi	a0,a0,1700 # 1a6a4 <.test_name>

0001a6b4 <.prname_next>:
   1a6b4:	00004137          	lui	sp,0x4
   1a6b8:	2e8030ef          	jal	ra,1d9a0 <printf_s>
   1a6bc:	00004517          	auipc	a0,0x4
   1a6c0:	68450513          	addi	a0,a0,1668 # 1ed40 <coreid>
   1a6c4:	00100593          	li	a1,1
   1a6c8:	00052023          	sw	zero,0(a0)
   1a6cc:	00b5262f          	amoadd.w	a2,a1,(a0)
   1a6d0:	00100693          	li	a3,1
   1a6d4:	fed67ee3          	bleu	a3,a2,1a6d0 <.prname_next+0x1c>
   1a6d8:	00052583          	lw	a1,0(a0)
   1a6dc:	fed5eee3          	bltu	a1,a3,1a6d8 <.prname_next+0x24>

0001a6e0 <test_2>:
   1a6e0:	00004517          	auipc	a0,0x4
   1a6e4:	66850513          	addi	a0,a0,1640 # 1ed48 <foo>
   1a6e8:	1805272f          	sc.w	a4,zero,(a0)
   1a6ec:	00100e93          	li	t4,1
   1a6f0:	00200e13          	li	t3,2
   1a6f4:	0bd71c63          	bne	a4,t4,1a7ac <fail>

0001a6f8 <test_3>:
   1a6f8:	00004517          	auipc	a0,0x4
   1a6fc:	65050513          	addi	a0,a0,1616 # 1ed48 <foo>
   1a700:	00005597          	auipc	a1,0x5
   1a704:	a4c58593          	addi	a1,a1,-1460 # 1f14c <fooTest3>
   1a708:	1005a5af          	lr.w	a1,(a1)
   1a70c:	18b5272f          	sc.w	a4,a1,(a0)
   1a710:	00100e93          	li	t4,1
   1a714:	00300e13          	li	t3,3
   1a718:	09d71a63          	bne	a4,t4,1a7ac <fail>
   1a71c:	00004517          	auipc	a0,0x4
   1a720:	62c50513          	addi	a0,a0,1580 # 1ed48 <foo>
   1a724:	40000593          	li	a1,1024
   1a728:	00160613          	addi	a2,a2,1
   1a72c:	1005272f          	lr.w	a4,(a0)
   1a730:	00c70733          	add	a4,a4,a2
   1a734:	18e5272f          	sc.w	a4,a4,(a0)
   1a738:	fe071ae3          	bnez	a4,1a72c <test_3+0x34>
   1a73c:	fff58593          	addi	a1,a1,-1
   1a740:	fe0596e3          	bnez	a1,1a72c <test_3+0x34>
   1a744:	00004517          	auipc	a0,0x4
   1a748:	60050513          	addi	a0,a0,1536 # 1ed44 <barrier>
   1a74c:	00100593          	li	a1,1
   1a750:	00b5202f          	amoadd.w	zero,a1,(a0)
   1a754:	00052583          	lw	a1,0(a0)
   1a758:	fed5cee3          	blt	a1,a3,1a754 <test_3+0x5c>
   1a75c:	0ff0000f          	fence

0001a760 <test_4>:
   1a760:	00004517          	auipc	a0,0x4
   1a764:	5e852503          	lw	a0,1512(a0) # 1ed48 <foo>
   1a768:	00969593          	slli	a1,a3,0x9
   1a76c:	40b50533          	sub	a0,a0,a1
   1a770:	fff68693          	addi	a3,a3,-1
   1a774:	fe06dce3          	bgez	a3,1a76c <test_4+0xc>
   1a778:	00000e93          	li	t4,0
   1a77c:	00400e13          	li	t3,4
   1a780:	03d51663          	bne	a0,t4,1a7ac <fail>

0001a784 <test_5>:
   1a784:	00004517          	auipc	a0,0x4
   1a788:	5c450513          	addi	a0,a0,1476 # 1ed48 <foo>
   1a78c:	100525af          	lr.w	a1,(a0)
   1a790:	180525af          	sc.w	a1,zero,(a0)
   1a794:	fe059ce3          	bnez	a1,1a78c <test_5+0x8>
   1a798:	180525af          	sc.w	a1,zero,(a0)
   1a79c:	00100e93          	li	t4,1
   1a7a0:	00500e13          	li	t3,5
   1a7a4:	01d59463          	bne	a1,t4,1a7ac <fail>
   1a7a8:	05c01863          	bne	zero,t3,1a7f8 <pass>

0001a7ac <fail>:
   1a7ac:	04500513          	li	a0,69
   1a7b0:	00004137          	lui	sp,0x4
   1a7b4:	1d4030ef          	jal	ra,1d988 <printf_c>
   1a7b8:	05200513          	li	a0,82
   1a7bc:	00004137          	lui	sp,0x4
   1a7c0:	1c8030ef          	jal	ra,1d988 <printf_c>
   1a7c4:	00004137          	lui	sp,0x4
   1a7c8:	1c0030ef          	jal	ra,1d988 <printf_c>
   1a7cc:	04f00513          	li	a0,79
   1a7d0:	00004137          	lui	sp,0x4
   1a7d4:	1b4030ef          	jal	ra,1d988 <printf_c>
   1a7d8:	00004137          	lui	sp,0x4
   1a7dc:	05200513          	li	a0,82
   1a7e0:	00004137          	lui	sp,0x4
   1a7e4:	1a4030ef          	jal	ra,1d988 <printf_c>
   1a7e8:	00a00513          	li	a0,10
   1a7ec:	00004137          	lui	sp,0x4
   1a7f0:	198030ef          	jal	ra,1d988 <printf_c>
   1a7f4:	89de506f          	j	90 <isaTestEnd>

0001a7f8 <pass>:
   1a7f8:	04f00513          	li	a0,79
   1a7fc:	00004137          	lui	sp,0x4
   1a800:	188030ef          	jal	ra,1d988 <printf_c>
   1a804:	04b00513          	li	a0,75
   1a808:	00004137          	lui	sp,0x4
   1a80c:	17c030ef          	jal	ra,1d988 <printf_c>
   1a810:	00a00513          	li	a0,10
   1a814:	00004137          	lui	sp,0x4
   1a818:	170030ef          	jal	ra,1d988 <printf_c>
   1a81c:	875e506f          	j	90 <isaTestEnd>

0001a820 <Proc_2>:
   1a820:	000227b7          	lui	a5,0x22
   1a824:	8e07c703          	lbu	a4,-1824(a5) # 218e0 <Ch_1_Glob>
   1a828:	04100793          	li	a5,65
   1a82c:	00f70463          	beq	a4,a5,1a834 <Proc_2+0x14>
   1a830:	00008067          	ret
   1a834:	00052783          	lw	a5,0(a0)
   1a838:	00022737          	lui	a4,0x22
   1a83c:	8dc72703          	lw	a4,-1828(a4) # 218dc <Int_Glob>
   1a840:	00978793          	addi	a5,a5,9
   1a844:	40e787b3          	sub	a5,a5,a4
   1a848:	00f52023          	sw	a5,0(a0)
   1a84c:	00008067          	ret

0001a850 <Proc_3>:
   1a850:	000227b7          	lui	a5,0x22
   1a854:	8e47a603          	lw	a2,-1820(a5) # 218e4 <Ptr_Glob>
   1a858:	00060863          	beqz	a2,1a868 <Proc_3+0x18>
   1a85c:	00062703          	lw	a4,0(a2)
   1a860:	00e52023          	sw	a4,0(a0)
   1a864:	8e47a603          	lw	a2,-1820(a5)
   1a868:	000227b7          	lui	a5,0x22
   1a86c:	8dc7a583          	lw	a1,-1828(a5) # 218dc <Int_Glob>
   1a870:	00c60613          	addi	a2,a2,12
   1a874:	00a00513          	li	a0,10
   1a878:	0550006f          	j	1b0cc <Proc_7>

0001a87c <Proc_1>:
   1a87c:	ff010113          	addi	sp,sp,-16 # 3ff0 <coremarkBenchmark+0x3f48>
   1a880:	00812423          	sw	s0,8(sp)
   1a884:	01212023          	sw	s2,0(sp)
   1a888:	00052403          	lw	s0,0(a0)
   1a88c:	00022937          	lui	s2,0x22
   1a890:	8e492583          	lw	a1,-1820(s2) # 218e4 <Ptr_Glob>
   1a894:	00912223          	sw	s1,4(sp)
   1a898:	03000613          	li	a2,48
   1a89c:	00050493          	mv	s1,a0
   1a8a0:	00040513          	mv	a0,s0
   1a8a4:	00112623          	sw	ra,12(sp)
   1a8a8:	4a0030ef          	jal	ra,1dd48 <memcpy>
   1a8ac:	0004a703          	lw	a4,0(s1)
   1a8b0:	00500793          	li	a5,5
   1a8b4:	00f4a623          	sw	a5,12(s1)
   1a8b8:	00f42623          	sw	a5,12(s0) # 1800c <test_9+0x4>
   1a8bc:	00e42023          	sw	a4,0(s0)
   1a8c0:	00040513          	mv	a0,s0
   1a8c4:	f8dff0ef          	jal	ra,1a850 <Proc_3>
   1a8c8:	00442783          	lw	a5,4(s0)
   1a8cc:	02078663          	beqz	a5,1a8f8 <Proc_1+0x7c>
   1a8d0:	0004a583          	lw	a1,0(s1)
   1a8d4:	00048513          	mv	a0,s1
   1a8d8:	03000613          	li	a2,48
   1a8dc:	46c030ef          	jal	ra,1dd48 <memcpy>
   1a8e0:	00c12083          	lw	ra,12(sp)
   1a8e4:	00812403          	lw	s0,8(sp)
   1a8e8:	00412483          	lw	s1,4(sp)
   1a8ec:	00012903          	lw	s2,0(sp)
   1a8f0:	01010113          	addi	sp,sp,16
   1a8f4:	00008067          	ret
   1a8f8:	0084a503          	lw	a0,8(s1)
   1a8fc:	00600793          	li	a5,6
   1a900:	00840593          	addi	a1,s0,8
   1a904:	00f42623          	sw	a5,12(s0)
   1a908:	774000ef          	jal	ra,1b07c <Proc_6>
   1a90c:	8e492783          	lw	a5,-1820(s2)
   1a910:	00c42503          	lw	a0,12(s0)
   1a914:	00c40613          	addi	a2,s0,12
   1a918:	0007a783          	lw	a5,0(a5)
   1a91c:	00c12083          	lw	ra,12(sp)
   1a920:	00412483          	lw	s1,4(sp)
   1a924:	00f42023          	sw	a5,0(s0)
   1a928:	00812403          	lw	s0,8(sp)
   1a92c:	00012903          	lw	s2,0(sp)
   1a930:	00a00593          	li	a1,10
   1a934:	01010113          	addi	sp,sp,16
   1a938:	7940006f          	j	1b0cc <Proc_7>

0001a93c <DHRYSTONE>:
   1a93c:	f5010113          	addi	sp,sp,-176
   1a940:	03000513          	li	a0,48
   1a944:	0a112623          	sw	ra,172(sp)
   1a948:	0a812423          	sw	s0,168(sp)
   1a94c:	09812423          	sw	s8,136(sp)
   1a950:	00022437          	lui	s0,0x22
   1a954:	09a12023          	sw	s10,128(sp)
   1a958:	0a912223          	sw	s1,164(sp)
   1a95c:	0b212023          	sw	s2,160(sp)
   1a960:	09312e23          	sw	s3,156(sp)
   1a964:	09412c23          	sw	s4,152(sp)
   1a968:	09512a23          	sw	s5,148(sp)
   1a96c:	09612823          	sw	s6,144(sp)
   1a970:	09712623          	sw	s7,140(sp)
   1a974:	09912223          	sw	s9,132(sp)
   1a978:	07b12e23          	sw	s11,124(sp)
   1a97c:	7e1020ef          	jal	ra,1d95c <malloc>
   1a980:	8ca42c23          	sw	a0,-1832(s0) # 218d8 <Next_Ptr_Glob>
   1a984:	03000513          	li	a0,48
   1a988:	7d5020ef          	jal	ra,1d95c <malloc>
   1a98c:	8d842783          	lw	a5,-1832(s0)
   1a990:	00022c37          	lui	s8,0x22
   1a994:	8eac2223          	sw	a0,-1820(s8) # 218e4 <Ptr_Glob>
   1a998:	00f52023          	sw	a5,0(a0)
   1a99c:	00200793          	li	a5,2
   1a9a0:	00f52423          	sw	a5,8(a0)
   1a9a4:	0001e5b7          	lui	a1,0x1e
   1a9a8:	02800793          	li	a5,40
   1a9ac:	00f52623          	sw	a5,12(a0)
   1a9b0:	fb058593          	addi	a1,a1,-80 # 1dfb0 <errpat+0x28>
   1a9b4:	00052223          	sw	zero,4(a0)
   1a9b8:	01050513          	addi	a0,a0,16
   1a9bc:	3b0030ef          	jal	ra,1dd6c <strcpy>
   1a9c0:	0001e5b7          	lui	a1,0x1e
   1a9c4:	fd058593          	addi	a1,a1,-48 # 1dfd0 <errpat+0x48>
   1a9c8:	03010513          	addi	a0,sp,48
   1a9cc:	3a0030ef          	jal	ra,1dd6c <strcpy>
   1a9d0:	0001f437          	lui	s0,0x1f
   1a9d4:	0001fd37          	lui	s10,0x1f
   1a9d8:	00a00793          	li	a5,10
   1a9dc:	1c4d0713          	addi	a4,s10,452 # 1f1c4 <Arr_2_Glob>
   1a9e0:	81840513          	addi	a0,s0,-2024 # 1e818 <errpat+0x890>
   1a9e4:	64f72e23          	sw	a5,1628(a4)
   1a9e8:	0a4030ef          	jal	ra,1da8c <printf>
   1a9ec:	0001e537          	lui	a0,0x1e
   1a9f0:	ff050513          	addi	a0,a0,-16 # 1dff0 <errpat+0x68>
   1a9f4:	098030ef          	jal	ra,1da8c <printf>
   1a9f8:	81840513          	addi	a0,s0,-2024
   1a9fc:	090030ef          	jal	ra,1da8c <printf>
   1aa00:	000227b7          	lui	a5,0x22
   1aa04:	dbc7a783          	lw	a5,-580(a5) # 21dbc <Reg>
   1aa08:	60078863          	beqz	a5,1b018 <DHRYSTONE+0x6dc>
   1aa0c:	0001e537          	lui	a0,0x1e
   1aa10:	02050513          	addi	a0,a0,32 # 1e020 <errpat+0x98>
   1aa14:	078030ef          	jal	ra,1da8c <printf>
   1aa18:	81840513          	addi	a0,s0,-2024
   1aa1c:	070030ef          	jal	ra,1da8c <printf>
   1aa20:	0001e537          	lui	a0,0x1e
   1aa24:	07c50513          	addi	a0,a0,124 # 1e07c <errpat+0xf4>
   1aa28:	064030ef          	jal	ra,1da8c <printf>
   1aa2c:	0001f7b7          	lui	a5,0x1f
   1aa30:	81878513          	addi	a0,a5,-2024 # 1e818 <errpat+0x890>
   1aa34:	058030ef          	jal	ra,1da8c <printf>
   1aa38:	0001e537          	lui	a0,0x1e
   1aa3c:	06400593          	li	a1,100
   1aa40:	0b450513          	addi	a0,a0,180 # 1e0b4 <errpat+0x12c>
   1aa44:	048030ef          	jal	ra,1da8c <printf>
   1aa48:	00000513          	li	a0,0
   1aa4c:	68d020ef          	jal	ra,1d8d8 <time>
   1aa50:	0001f7b7          	lui	a5,0x1f
   1aa54:	1ca7a023          	sw	a0,448(a5) # 1f1c0 <Begin_Time>
   1aa58:	00000513          	li	a0,0
   1aa5c:	685020ef          	jal	ra,1d8e0 <insn>
   1aa60:	000227b7          	lui	a5,0x22
   1aa64:	8ea7a423          	sw	a0,-1816(a5) # 218e8 <Begin_Insn>
   1aa68:	00100493          	li	s1,1
   1aa6c:	000229b7          	lui	s3,0x22
   1aa70:	00022a37          	lui	s4,0x22
   1aa74:	00022437          	lui	s0,0x22
   1aa78:	00022cb7          	lui	s9,0x22
   1aa7c:	00022b37          	lui	s6,0x22
   1aa80:	00100a93          	li	s5,1
   1aa84:	0001ebb7          	lui	s7,0x1e
   1aa88:	0001e7b7          	lui	a5,0x1e
   1aa8c:	0e478593          	addi	a1,a5,228 # 1e0e4 <errpat+0x15c>
   1aa90:	04100793          	li	a5,65
   1aa94:	8ef98023          	sb	a5,-1824(s3) # 218e0 <Ch_1_Glob>
   1aa98:	05010513          	addi	a0,sp,80
   1aa9c:	04200793          	li	a5,66
   1aaa0:	8ef400a3          	sb	a5,-1823(s0) # 218e1 <Ch_2_Glob>
   1aaa4:	9b5a2a23          	sw	s5,-1612(s4) # 219b4 <Bool_Glob>
   1aaa8:	2c4030ef          	jal	ra,1dd6c <strcpy>
   1aaac:	05010593          	addi	a1,sp,80
   1aab0:	03010513          	addi	a0,sp,48
   1aab4:	03512623          	sw	s5,44(sp)
   1aab8:	6b0000ef          	jal	ra,1b168 <Func_2>
   1aabc:	00153793          	seqz	a5,a0
   1aac0:	02810613          	addi	a2,sp,40
   1aac4:	00300593          	li	a1,3
   1aac8:	9afa2a23          	sw	a5,-1612(s4)
   1aacc:	00200513          	li	a0,2
   1aad0:	00700793          	li	a5,7
   1aad4:	02f12423          	sw	a5,40(sp)
   1aad8:	5f4000ef          	jal	ra,1b0cc <Proc_7>
   1aadc:	02812683          	lw	a3,40(sp)
   1aae0:	00300613          	li	a2,3
   1aae4:	1c4d0593          	addi	a1,s10,452
   1aae8:	8ecc8513          	addi	a0,s9,-1812 # 218ec <Arr_1_Glob>
   1aaec:	5f0000ef          	jal	ra,1b0dc <Proc_8>
   1aaf0:	8e4c2503          	lw	a0,-1820(s8)
   1aaf4:	d89ff0ef          	jal	ra,1a87c <Proc_1>
   1aaf8:	8e144703          	lbu	a4,-1823(s0)
   1aafc:	04000793          	li	a5,64
   1ab00:	50e7f863          	bleu	a4,a5,1b010 <DHRYSTONE+0x6d4>
   1ab04:	04100d93          	li	s11,65
   1ab08:	00300913          	li	s2,3
   1ab0c:	0140006f          	j	1ab20 <DHRYSTONE+0x1e4>
   1ab10:	8e144703          	lbu	a4,-1823(s0)
   1ab14:	001d8793          	addi	a5,s11,1
   1ab18:	0ff7fd93          	andi	s11,a5,255
   1ab1c:	05b76463          	bltu	a4,s11,1ab64 <DHRYSTONE+0x228>
   1ab20:	04300593          	li	a1,67
   1ab24:	000d8513          	mv	a0,s11
   1ab28:	61c000ef          	jal	ra,1b144 <Func_1>
   1ab2c:	02c12703          	lw	a4,44(sp)
   1ab30:	fee510e3          	bne	a0,a4,1ab10 <DHRYSTONE+0x1d4>
   1ab34:	02c10593          	addi	a1,sp,44
   1ab38:	00000513          	li	a0,0
   1ab3c:	540000ef          	jal	ra,1b07c <Proc_6>
   1ab40:	104b8593          	addi	a1,s7,260 # 1e104 <errpat+0x17c>
   1ab44:	05010513          	addi	a0,sp,80
   1ab48:	224030ef          	jal	ra,1dd6c <strcpy>
   1ab4c:	8e144703          	lbu	a4,-1823(s0)
   1ab50:	001d8793          	addi	a5,s11,1
   1ab54:	8c9b2e23          	sw	s1,-1828(s6) # 218dc <Int_Glob>
   1ab58:	0ff7fd93          	andi	s11,a5,255
   1ab5c:	00048913          	mv	s2,s1
   1ab60:	fdb770e3          	bleu	s11,a4,1ab20 <DHRYSTONE+0x1e4>
   1ab64:	00191793          	slli	a5,s2,0x1
   1ab68:	01278933          	add	s2,a5,s2
   1ab6c:	02812603          	lw	a2,40(sp)
   1ab70:	8e09c703          	lbu	a4,-1824(s3)
   1ab74:	04100593          	li	a1,65
   1ab78:	02c946b3          	div	a3,s2,a2
   1ab7c:	00068793          	mv	a5,a3
   1ab80:	00b71863          	bne	a4,a1,1ab90 <DHRYSTONE+0x254>
   1ab84:	8dcb2783          	lw	a5,-1828(s6)
   1ab88:	00968713          	addi	a4,a3,9
   1ab8c:	40f707b3          	sub	a5,a4,a5
   1ab90:	00148493          	addi	s1,s1,1
   1ab94:	06500713          	li	a4,101
   1ab98:	eee498e3          	bne	s1,a4,1aa88 <DHRYSTONE+0x14c>
   1ab9c:	00000513          	li	a0,0
   1aba0:	00d12c23          	sw	a3,24(sp)
   1aba4:	00c12a23          	sw	a2,20(sp)
   1aba8:	00f12e23          	sw	a5,28(sp)
   1abac:	52d020ef          	jal	ra,1d8d8 <time>
   1abb0:	00022737          	lui	a4,0x22
   1abb4:	8ca72a23          	sw	a0,-1836(a4) # 218d4 <End_Time>
   1abb8:	00000513          	li	a0,0
   1abbc:	00e12823          	sw	a4,16(sp)
   1abc0:	521020ef          	jal	ra,1d8e0 <insn>
   1abc4:	00022837          	lui	a6,0x22
   1abc8:	9aa82c23          	sw	a0,-1608(a6) # 219b8 <End_Insn>
   1abcc:	0001e537          	lui	a0,0x1e
   1abd0:	12450513          	addi	a0,a0,292 # 1e124 <errpat+0x19c>
   1abd4:	01012623          	sw	a6,12(sp)
   1abd8:	0001f4b7          	lui	s1,0x1f
   1abdc:	6b1020ef          	jal	ra,1da8c <printf>
   1abe0:	81848513          	addi	a0,s1,-2024 # 1e818 <errpat+0x890>
   1abe4:	6a9020ef          	jal	ra,1da8c <printf>
   1abe8:	0001e537          	lui	a0,0x1e
   1abec:	13450513          	addi	a0,a0,308 # 1e134 <errpat+0x1ac>
   1abf0:	69d020ef          	jal	ra,1da8c <printf>
   1abf4:	81848513          	addi	a0,s1,-2024
   1abf8:	695020ef          	jal	ra,1da8c <printf>
   1abfc:	8dcb2583          	lw	a1,-1828(s6)
   1ac00:	0001e537          	lui	a0,0x1e
   1ac04:	16c50513          	addi	a0,a0,364 # 1e16c <errpat+0x1e4>
   1ac08:	0001e4b7          	lui	s1,0x1e
   1ac0c:	681020ef          	jal	ra,1da8c <printf>
   1ac10:	18848513          	addi	a0,s1,392 # 1e188 <errpat+0x200>
   1ac14:	00500593          	li	a1,5
   1ac18:	675020ef          	jal	ra,1da8c <printf>
   1ac1c:	9b4a2583          	lw	a1,-1612(s4)
   1ac20:	0001e537          	lui	a0,0x1e
   1ac24:	1a450513          	addi	a0,a0,420 # 1e1a4 <errpat+0x21c>
   1ac28:	665020ef          	jal	ra,1da8c <printf>
   1ac2c:	18848513          	addi	a0,s1,392
   1ac30:	00100593          	li	a1,1
   1ac34:	659020ef          	jal	ra,1da8c <printf>
   1ac38:	8e09c583          	lbu	a1,-1824(s3)
   1ac3c:	0001e537          	lui	a0,0x1e
   1ac40:	1c050513          	addi	a0,a0,448 # 1e1c0 <errpat+0x238>
   1ac44:	649020ef          	jal	ra,1da8c <printf>
   1ac48:	0001e9b7          	lui	s3,0x1e
   1ac4c:	1dc98513          	addi	a0,s3,476 # 1e1dc <errpat+0x254>
   1ac50:	04100593          	li	a1,65
   1ac54:	639020ef          	jal	ra,1da8c <printf>
   1ac58:	8e144583          	lbu	a1,-1823(s0)
   1ac5c:	0001e537          	lui	a0,0x1e
   1ac60:	1f850513          	addi	a0,a0,504 # 1e1f8 <errpat+0x270>
   1ac64:	629020ef          	jal	ra,1da8c <printf>
   1ac68:	1dc98513          	addi	a0,s3,476
   1ac6c:	04200593          	li	a1,66
   1ac70:	61d020ef          	jal	ra,1da8c <printf>
   1ac74:	8ecc8c93          	addi	s9,s9,-1812
   1ac78:	020ca583          	lw	a1,32(s9)
   1ac7c:	0001e537          	lui	a0,0x1e
   1ac80:	21450513          	addi	a0,a0,532 # 1e214 <errpat+0x28c>
   1ac84:	609020ef          	jal	ra,1da8c <printf>
   1ac88:	18848513          	addi	a0,s1,392
   1ac8c:	00700593          	li	a1,7
   1ac90:	5fd020ef          	jal	ra,1da8c <printf>
   1ac94:	0001f7b7          	lui	a5,0x1f
   1ac98:	1c478793          	addi	a5,a5,452 # 1f1c4 <Arr_2_Glob>
   1ac9c:	65c7a583          	lw	a1,1628(a5)
   1aca0:	0001e537          	lui	a0,0x1e
   1aca4:	23050513          	addi	a0,a0,560 # 1e230 <errpat+0x2a8>
   1aca8:	5e5020ef          	jal	ra,1da8c <printf>
   1acac:	0001e537          	lui	a0,0x1e
   1acb0:	24c50513          	addi	a0,a0,588 # 1e24c <errpat+0x2c4>
   1acb4:	5d9020ef          	jal	ra,1da8c <printf>
   1acb8:	0001e537          	lui	a0,0x1e
   1acbc:	27850513          	addi	a0,a0,632 # 1e278 <errpat+0x2f0>
   1acc0:	5cd020ef          	jal	ra,1da8c <printf>
   1acc4:	8e4c2583          	lw	a1,-1820(s8)
   1acc8:	0001e8b7          	lui	a7,0x1e
   1accc:	28488513          	addi	a0,a7,644 # 1e284 <errpat+0x2fc>
   1acd0:	0005a583          	lw	a1,0(a1)
   1acd4:	01112423          	sw	a7,8(sp)
   1acd8:	0001ecb7          	lui	s9,0x1e
   1acdc:	5b1020ef          	jal	ra,1da8c <printf>
   1ace0:	0001e537          	lui	a0,0x1e
   1ace4:	2a050513          	addi	a0,a0,672 # 1e2a0 <errpat+0x318>
   1ace8:	5a5020ef          	jal	ra,1da8c <printf>
   1acec:	8e4c2583          	lw	a1,-1820(s8)
   1acf0:	2d4c8513          	addi	a0,s9,724 # 1e2d4 <errpat+0x34c>
   1acf4:	0001ebb7          	lui	s7,0x1e
   1acf8:	0045a583          	lw	a1,4(a1)
   1acfc:	0001eb37          	lui	s6,0x1e
   1ad00:	0001eab7          	lui	s5,0x1e
   1ad04:	589020ef          	jal	ra,1da8c <printf>
   1ad08:	18848513          	addi	a0,s1,392
   1ad0c:	00000593          	li	a1,0
   1ad10:	57d020ef          	jal	ra,1da8c <printf>
   1ad14:	8e4c2583          	lw	a1,-1820(s8)
   1ad18:	2f0b8513          	addi	a0,s7,752 # 1e2f0 <errpat+0x368>
   1ad1c:	0001ea37          	lui	s4,0x1e
   1ad20:	0085a583          	lw	a1,8(a1)
   1ad24:	0001f437          	lui	s0,0x1f
   1ad28:	0001f9b7          	lui	s3,0x1f
   1ad2c:	561020ef          	jal	ra,1da8c <printf>
   1ad30:	18848513          	addi	a0,s1,392
   1ad34:	00200593          	li	a1,2
   1ad38:	555020ef          	jal	ra,1da8c <printf>
   1ad3c:	8e4c2583          	lw	a1,-1820(s8)
   1ad40:	30cb0513          	addi	a0,s6,780 # 1e30c <errpat+0x384>
   1ad44:	3e800d93          	li	s11,1000
   1ad48:	00c5a583          	lw	a1,12(a1)
   1ad4c:	00a00d13          	li	s10,10
   1ad50:	53d020ef          	jal	ra,1da8c <printf>
   1ad54:	18848513          	addi	a0,s1,392
   1ad58:	01100593          	li	a1,17
   1ad5c:	531020ef          	jal	ra,1da8c <printf>
   1ad60:	8e4c2583          	lw	a1,-1820(s8)
   1ad64:	328a8513          	addi	a0,s5,808 # 1e328 <errpat+0x3a0>
   1ad68:	00022c37          	lui	s8,0x22
   1ad6c:	01058593          	addi	a1,a1,16
   1ad70:	51d020ef          	jal	ra,1da8c <printf>
   1ad74:	344a0513          	addi	a0,s4,836 # 1e344 <errpat+0x3bc>
   1ad78:	515020ef          	jal	ra,1da8c <printf>
   1ad7c:	0001e537          	lui	a0,0x1e
   1ad80:	37c50513          	addi	a0,a0,892 # 1e37c <errpat+0x3f4>
   1ad84:	509020ef          	jal	ra,1da8c <printf>
   1ad88:	8d8c2583          	lw	a1,-1832(s8) # 218d8 <Next_Ptr_Glob>
   1ad8c:	00812883          	lw	a7,8(sp)
   1ad90:	0005a583          	lw	a1,0(a1)
   1ad94:	28488513          	addi	a0,a7,644
   1ad98:	4f5020ef          	jal	ra,1da8c <printf>
   1ad9c:	0001e537          	lui	a0,0x1e
   1ada0:	39050513          	addi	a0,a0,912 # 1e390 <errpat+0x408>
   1ada4:	4e9020ef          	jal	ra,1da8c <printf>
   1ada8:	8d8c2583          	lw	a1,-1832(s8)
   1adac:	2d4c8513          	addi	a0,s9,724
   1adb0:	0045a583          	lw	a1,4(a1)
   1adb4:	4d9020ef          	jal	ra,1da8c <printf>
   1adb8:	18848513          	addi	a0,s1,392
   1adbc:	00000593          	li	a1,0
   1adc0:	4cd020ef          	jal	ra,1da8c <printf>
   1adc4:	8d8c2583          	lw	a1,-1832(s8)
   1adc8:	2f0b8513          	addi	a0,s7,752
   1adcc:	0085a583          	lw	a1,8(a1)
   1add0:	4bd020ef          	jal	ra,1da8c <printf>
   1add4:	18848513          	addi	a0,s1,392
   1add8:	00100593          	li	a1,1
   1addc:	4b1020ef          	jal	ra,1da8c <printf>
   1ade0:	8d8c2583          	lw	a1,-1832(s8)
   1ade4:	30cb0513          	addi	a0,s6,780
   1ade8:	00c5a583          	lw	a1,12(a1)
   1adec:	4a1020ef          	jal	ra,1da8c <printf>
   1adf0:	18848513          	addi	a0,s1,392
   1adf4:	01200593          	li	a1,18
   1adf8:	495020ef          	jal	ra,1da8c <printf>
   1adfc:	8d8c2583          	lw	a1,-1832(s8)
   1ae00:	328a8513          	addi	a0,s5,808
   1ae04:	01058593          	addi	a1,a1,16
   1ae08:	485020ef          	jal	ra,1da8c <printf>
   1ae0c:	344a0513          	addi	a0,s4,836
   1ae10:	47d020ef          	jal	ra,1da8c <printf>
   1ae14:	01c12783          	lw	a5,28(sp)
   1ae18:	0001e537          	lui	a0,0x1e
   1ae1c:	3d050513          	addi	a0,a0,976 # 1e3d0 <errpat+0x448>
   1ae20:	00078593          	mv	a1,a5
   1ae24:	469020ef          	jal	ra,1da8c <printf>
   1ae28:	18848513          	addi	a0,s1,392
   1ae2c:	00500593          	li	a1,5
   1ae30:	45d020ef          	jal	ra,1da8c <printf>
   1ae34:	01412603          	lw	a2,20(sp)
   1ae38:	01812683          	lw	a3,24(sp)
   1ae3c:	0001e537          	lui	a0,0x1e
   1ae40:	40c90933          	sub	s2,s2,a2
   1ae44:	00391793          	slli	a5,s2,0x3
   1ae48:	41278933          	sub	s2,a5,s2
   1ae4c:	40d905b3          	sub	a1,s2,a3
   1ae50:	3ec50513          	addi	a0,a0,1004 # 1e3ec <errpat+0x464>
   1ae54:	439020ef          	jal	ra,1da8c <printf>
   1ae58:	18848513          	addi	a0,s1,392
   1ae5c:	00d00593          	li	a1,13
   1ae60:	42d020ef          	jal	ra,1da8c <printf>
   1ae64:	02812583          	lw	a1,40(sp)
   1ae68:	0001e537          	lui	a0,0x1e
   1ae6c:	40850513          	addi	a0,a0,1032 # 1e408 <errpat+0x480>
   1ae70:	41d020ef          	jal	ra,1da8c <printf>
   1ae74:	18848513          	addi	a0,s1,392
   1ae78:	00700593          	li	a1,7
   1ae7c:	411020ef          	jal	ra,1da8c <printf>
   1ae80:	02c12583          	lw	a1,44(sp)
   1ae84:	0001e537          	lui	a0,0x1e
   1ae88:	42450513          	addi	a0,a0,1060 # 1e424 <errpat+0x49c>
   1ae8c:	401020ef          	jal	ra,1da8c <printf>
   1ae90:	18848513          	addi	a0,s1,392
   1ae94:	00100593          	li	a1,1
   1ae98:	3f5020ef          	jal	ra,1da8c <printf>
   1ae9c:	0001e537          	lui	a0,0x1e
   1aea0:	03010593          	addi	a1,sp,48
   1aea4:	44050513          	addi	a0,a0,1088 # 1e440 <errpat+0x4b8>
   1aea8:	3e5020ef          	jal	ra,1da8c <printf>
   1aeac:	0001e537          	lui	a0,0x1e
   1aeb0:	45c50513          	addi	a0,a0,1116 # 1e45c <errpat+0x4d4>
   1aeb4:	3d9020ef          	jal	ra,1da8c <printf>
   1aeb8:	0001e537          	lui	a0,0x1e
   1aebc:	05010593          	addi	a1,sp,80
   1aec0:	49450513          	addi	a0,a0,1172 # 1e494 <errpat+0x50c>
   1aec4:	3c9020ef          	jal	ra,1da8c <printf>
   1aec8:	0001e537          	lui	a0,0x1e
   1aecc:	4b050513          	addi	a0,a0,1200 # 1e4b0 <errpat+0x528>
   1aed0:	3bd020ef          	jal	ra,1da8c <printf>
   1aed4:	0001f4b7          	lui	s1,0x1f
   1aed8:	81848513          	addi	a0,s1,-2024 # 1e818 <errpat+0x890>
   1aedc:	3b1020ef          	jal	ra,1da8c <printf>
   1aee0:	00c12803          	lw	a6,12(sp)
   1aee4:	01012703          	lw	a4,16(sp)
   1aee8:	0001f7b7          	lui	a5,0x1f
   1aeec:	000226b7          	lui	a3,0x22
   1aef0:	1c07a603          	lw	a2,448(a5) # 1f1c0 <Begin_Time>
   1aef4:	8e86a683          	lw	a3,-1816(a3) # 218e8 <Begin_Insn>
   1aef8:	9b882783          	lw	a5,-1608(a6)
   1aefc:	8d472703          	lw	a4,-1836(a4)
   1af00:	0001e537          	lui	a0,0x1e
   1af04:	40d787b3          	sub	a5,a5,a3
   1af08:	40c70733          	sub	a4,a4,a2
   1af0c:	06400593          	li	a1,100
   1af10:	4e850513          	addi	a0,a0,1256 # 1e4e8 <errpat+0x560>
   1af14:	1ae42e23          	sw	a4,444(s0) # 1f1bc <User_Time>
   1af18:	1af9ac23          	sw	a5,440(s3) # 1f1b8 <User_Insn>
   1af1c:	371020ef          	jal	ra,1da8c <printf>
   1af20:	1b89a603          	lw	a2,440(s3)
   1af24:	1bc42583          	lw	a1,444(s0)
   1af28:	0001e537          	lui	a0,0x1e
   1af2c:	4fc50513          	addi	a0,a0,1276 # 1e4fc <errpat+0x574>
   1af30:	35d020ef          	jal	ra,1da8c <printf>
   1af34:	1bc42583          	lw	a1,444(s0)
   1af38:	1b89a783          	lw	a5,440(s3)
   1af3c:	06400613          	li	a2,100
   1af40:	02bd85b3          	mul	a1,s11,a1
   1af44:	0001e537          	lui	a0,0x1e
   1af48:	52450513          	addi	a0,a0,1316 # 1e524 <errpat+0x59c>
   1af4c:	02f5c5b3          	div	a1,a1,a5
   1af50:	03a5c6b3          	div	a3,a1,s10
   1af54:	02c5c633          	div	a2,a1,a2
   1af58:	03a5e733          	rem	a4,a1,s10
   1af5c:	03a6e6b3          	rem	a3,a3,s10
   1af60:	03a66633          	rem	a2,a2,s10
   1af64:	03b5c5b3          	div	a1,a1,s11
   1af68:	325020ef          	jal	ra,1da8c <printf>
   1af6c:	1bc42403          	lw	s0,444(s0)
   1af70:	05f5e7b7          	lui	a5,0x5f5e
   1af74:	10078793          	addi	a5,a5,256 # 5f5e100 <heap_memory_used+0x5f3c328>
   1af78:	0287c433          	div	s0,a5,s0
   1af7c:	0001e537          	lui	a0,0x1e
   1af80:	54850513          	addi	a0,a0,1352 # 1e548 <errpat+0x5c0>
   1af84:	00040593          	mv	a1,s0
   1af88:	03b40433          	mul	s0,s0,s11
   1af8c:	301020ef          	jal	ra,1da8c <printf>
   1af90:	000046b7          	lui	a3,0x4
   1af94:	0002b637          	lui	a2,0x2b
   1af98:	6dd00713          	li	a4,1757
   1af9c:	4a268693          	addi	a3,a3,1186 # 44a2 <coremarkBenchmark+0x43fa>
   1afa0:	e5460613          	addi	a2,a2,-428 # 2ae54 <heap_memory_used+0x907c>
   1afa4:	001ad5b7          	lui	a1,0x1ad
   1afa8:	f4858593          	addi	a1,a1,-184 # 1acf48 <heap_memory_used+0x18b170>
   1afac:	0001e537          	lui	a0,0x1e
   1afb0:	02e44733          	div	a4,s0,a4
   1afb4:	56c50513          	addi	a0,a0,1388 # 1e56c <errpat+0x5e4>
   1afb8:	02d446b3          	div	a3,s0,a3
   1afbc:	02c44633          	div	a2,s0,a2
   1afc0:	03a76733          	rem	a4,a4,s10
   1afc4:	03a6e6b3          	rem	a3,a3,s10
   1afc8:	03a66633          	rem	a2,a2,s10
   1afcc:	02b445b3          	div	a1,s0,a1
   1afd0:	2bd020ef          	jal	ra,1da8c <printf>
   1afd4:	0ac12083          	lw	ra,172(sp)
   1afd8:	0a812403          	lw	s0,168(sp)
   1afdc:	0a412483          	lw	s1,164(sp)
   1afe0:	0a012903          	lw	s2,160(sp)
   1afe4:	09c12983          	lw	s3,156(sp)
   1afe8:	09812a03          	lw	s4,152(sp)
   1afec:	09412a83          	lw	s5,148(sp)
   1aff0:	09012b03          	lw	s6,144(sp)
   1aff4:	08c12b83          	lw	s7,140(sp)
   1aff8:	08812c03          	lw	s8,136(sp)
   1affc:	08412c83          	lw	s9,132(sp)
   1b000:	08012d03          	lw	s10,128(sp)
   1b004:	07c12d83          	lw	s11,124(sp)
   1b008:	0b010113          	addi	sp,sp,176
   1b00c:	00008067          	ret
   1b010:	00900913          	li	s2,9
   1b014:	b59ff06f          	j	1ab6c <DHRYSTONE+0x230>
   1b018:	0001e537          	lui	a0,0x1e
   1b01c:	04c50513          	addi	a0,a0,76 # 1e04c <errpat+0xc4>
   1b020:	26d020ef          	jal	ra,1da8c <printf>
   1b024:	0001f7b7          	lui	a5,0x1f
   1b028:	81878513          	addi	a0,a5,-2024 # 1e818 <errpat+0x890>
   1b02c:	261020ef          	jal	ra,1da8c <printf>
   1b030:	9f1ff06f          	j	1aa20 <DHRYSTONE+0xe4>

0001b034 <Proc_4>:
   1b034:	000227b7          	lui	a5,0x22
   1b038:	8e07c783          	lbu	a5,-1824(a5) # 218e0 <Ch_1_Glob>
   1b03c:	00022737          	lui	a4,0x22
   1b040:	9b472683          	lw	a3,-1612(a4) # 219b4 <Bool_Glob>
   1b044:	fbf78793          	addi	a5,a5,-65
   1b048:	0017b793          	seqz	a5,a5
   1b04c:	00d7e7b3          	or	a5,a5,a3
   1b050:	9af72a23          	sw	a5,-1612(a4)
   1b054:	000227b7          	lui	a5,0x22
   1b058:	04200713          	li	a4,66
   1b05c:	8ee780a3          	sb	a4,-1823(a5) # 218e1 <Ch_2_Glob>
   1b060:	00008067          	ret

0001b064 <Proc_5>:
   1b064:	000227b7          	lui	a5,0x22
   1b068:	04100713          	li	a4,65
   1b06c:	8ee78023          	sb	a4,-1824(a5) # 218e0 <Ch_1_Glob>
   1b070:	000227b7          	lui	a5,0x22
   1b074:	9a07aa23          	sw	zero,-1612(a5) # 219b4 <Bool_Glob>
   1b078:	00008067          	ret

0001b07c <Proc_6>:
   1b07c:	00200793          	li	a5,2
   1b080:	04f50063          	beq	a0,a5,1b0c0 <Proc_6+0x44>
   1b084:	00300713          	li	a4,3
   1b088:	00e5a023          	sw	a4,0(a1)
   1b08c:	00100713          	li	a4,1
   1b090:	00e50c63          	beq	a0,a4,1b0a8 <Proc_6+0x2c>
   1b094:	02050263          	beqz	a0,1b0b8 <Proc_6+0x3c>
   1b098:	00400713          	li	a4,4
   1b09c:	00e51463          	bne	a0,a4,1b0a4 <Proc_6+0x28>
   1b0a0:	00f5a023          	sw	a5,0(a1)
   1b0a4:	00008067          	ret
   1b0a8:	000227b7          	lui	a5,0x22
   1b0ac:	8dc7a703          	lw	a4,-1828(a5) # 218dc <Int_Glob>
   1b0b0:	06400793          	li	a5,100
   1b0b4:	fee7d8e3          	ble	a4,a5,1b0a4 <Proc_6+0x28>
   1b0b8:	0005a023          	sw	zero,0(a1)
   1b0bc:	00008067          	ret
   1b0c0:	00100793          	li	a5,1
   1b0c4:	00f5a023          	sw	a5,0(a1)
   1b0c8:	00008067          	ret

0001b0cc <Proc_7>:
   1b0cc:	00250513          	addi	a0,a0,2
   1b0d0:	00b505b3          	add	a1,a0,a1
   1b0d4:	00b62023          	sw	a1,0(a2)
   1b0d8:	00008067          	ret

0001b0dc <Proc_8>:
   1b0dc:	00560713          	addi	a4,a2,5
   1b0e0:	0c800813          	li	a6,200
   1b0e4:	03070833          	mul	a6,a4,a6
   1b0e8:	00261613          	slli	a2,a2,0x2
   1b0ec:	00271793          	slli	a5,a4,0x2
   1b0f0:	00f50533          	add	a0,a0,a5
   1b0f4:	00d52023          	sw	a3,0(a0)
   1b0f8:	06e52c23          	sw	a4,120(a0)
   1b0fc:	00d52223          	sw	a3,4(a0)
   1b100:	00c807b3          	add	a5,a6,a2
   1b104:	00f587b3          	add	a5,a1,a5
   1b108:	0107a683          	lw	a3,16(a5)
   1b10c:	00e7aa23          	sw	a4,20(a5)
   1b110:	00e7ac23          	sw	a4,24(a5)
   1b114:	00168713          	addi	a4,a3,1
   1b118:	00e7a823          	sw	a4,16(a5)
   1b11c:	00052783          	lw	a5,0(a0)
   1b120:	010585b3          	add	a1,a1,a6
   1b124:	00c585b3          	add	a1,a1,a2
   1b128:	00001637          	lui	a2,0x1
   1b12c:	00b605b3          	add	a1,a2,a1
   1b130:	faf5aa23          	sw	a5,-76(a1)
   1b134:	00500713          	li	a4,5
   1b138:	000227b7          	lui	a5,0x22
   1b13c:	8ce7ae23          	sw	a4,-1828(a5) # 218dc <Int_Glob>
   1b140:	00008067          	ret

0001b144 <Func_1>:
   1b144:	0ff57513          	andi	a0,a0,255
   1b148:	0ff5f593          	andi	a1,a1,255
   1b14c:	00b50663          	beq	a0,a1,1b158 <Func_1+0x14>
   1b150:	00000513          	li	a0,0
   1b154:	00008067          	ret
   1b158:	000227b7          	lui	a5,0x22
   1b15c:	8ea78023          	sb	a0,-1824(a5) # 218e0 <Ch_1_Glob>
   1b160:	00100513          	li	a0,1
   1b164:	00008067          	ret

0001b168 <Func_2>:
   1b168:	ff010113          	addi	sp,sp,-16
   1b16c:	00112623          	sw	ra,12(sp)
   1b170:	00022837          	lui	a6,0x22
   1b174:	00254783          	lbu	a5,2(a0)
   1b178:	0035c683          	lbu	a3,3(a1)
   1b17c:	8e084603          	lbu	a2,-1824(a6) # 218e0 <Ch_1_Glob>
   1b180:	00000713          	li	a4,0
   1b184:	02d78a63          	beq	a5,a3,1b1b8 <Func_2+0x50>
   1b188:	02071e63          	bnez	a4,1b1c4 <Func_2+0x5c>
   1b18c:	491020ef          	jal	ra,1de1c <strcmp>
   1b190:	00000793          	li	a5,0
   1b194:	00a05a63          	blez	a0,1b1a8 <Func_2+0x40>
   1b198:	000227b7          	lui	a5,0x22
   1b19c:	00a00713          	li	a4,10
   1b1a0:	8ce7ae23          	sw	a4,-1828(a5) # 218dc <Int_Glob>
   1b1a4:	00100793          	li	a5,1
   1b1a8:	00c12083          	lw	ra,12(sp)
   1b1ac:	00078513          	mv	a0,a5
   1b1b0:	01010113          	addi	sp,sp,16
   1b1b4:	00008067          	ret
   1b1b8:	00100713          	li	a4,1
   1b1bc:	00078613          	mv	a2,a5
   1b1c0:	fc5ff06f          	j	1b184 <Func_2+0x1c>
   1b1c4:	8ec80023          	sb	a2,-1824(a6)
   1b1c8:	fc5ff06f          	j	1b18c <Func_2+0x24>

0001b1cc <Func_3>:
   1b1cc:	ffe50513          	addi	a0,a0,-2
   1b1d0:	00153513          	seqz	a0,a0
   1b1d4:	00008067          	ret

0001b1d8 <cmp_idx>:
   1b1d8:	02061e63          	bnez	a2,1b214 <cmp_idx+0x3c>
   1b1dc:	00051783          	lh	a5,0(a0)
   1b1e0:	01079713          	slli	a4,a5,0x10
   1b1e4:	01075713          	srli	a4,a4,0x10
   1b1e8:	00875713          	srli	a4,a4,0x8
   1b1ec:	f007f793          	andi	a5,a5,-256
   1b1f0:	00e7e7b3          	or	a5,a5,a4
   1b1f4:	00f51023          	sh	a5,0(a0)
   1b1f8:	00059783          	lh	a5,0(a1)
   1b1fc:	01079713          	slli	a4,a5,0x10
   1b200:	01075713          	srli	a4,a4,0x10
   1b204:	f007f793          	andi	a5,a5,-256
   1b208:	00875713          	srli	a4,a4,0x8
   1b20c:	00e7e7b3          	or	a5,a5,a4
   1b210:	00f59023          	sh	a5,0(a1)
   1b214:	00251503          	lh	a0,2(a0)
   1b218:	00259783          	lh	a5,2(a1)
   1b21c:	40f50533          	sub	a0,a0,a5
   1b220:	00008067          	ret

0001b224 <calc_func>:
   1b224:	fe010113          	addi	sp,sp,-32
   1b228:	00812c23          	sw	s0,24(sp)
   1b22c:	00051403          	lh	s0,0(a0)
   1b230:	01212823          	sw	s2,16(sp)
   1b234:	00112e23          	sw	ra,28(sp)
   1b238:	40745793          	srai	a5,s0,0x7
   1b23c:	00912a23          	sw	s1,20(sp)
   1b240:	01312623          	sw	s3,12(sp)
   1b244:	0017f793          	andi	a5,a5,1
   1b248:	07f47913          	andi	s2,s0,127
   1b24c:	08079263          	bnez	a5,1b2d0 <calc_func+0xac>
   1b250:	00058493          	mv	s1,a1
   1b254:	40345593          	srai	a1,s0,0x3
   1b258:	00f5f593          	andi	a1,a1,15
   1b25c:	00459793          	slli	a5,a1,0x4
   1b260:	00747713          	andi	a4,s0,7
   1b264:	00b7e5b3          	or	a1,a5,a1
   1b268:	00050993          	mv	s3,a0
   1b26c:	0384d783          	lhu	a5,56(s1)
   1b270:	08070063          	beqz	a4,1b2f0 <calc_func+0xcc>
   1b274:	00100693          	li	a3,1
   1b278:	02d71663          	bne	a4,a3,1b2a4 <calc_func+0x80>
   1b27c:	00078613          	mv	a2,a5
   1b280:	02848513          	addi	a0,s1,40
   1b284:	519010ef          	jal	ra,1cf9c <core_bench_matrix>
   1b288:	03c4d783          	lhu	a5,60(s1)
   1b28c:	01051913          	slli	s2,a0,0x10
   1b290:	41095913          	srai	s2,s2,0x10
   1b294:	00079463          	bnez	a5,1b29c <calc_func+0x78>
   1b298:	02a49e23          	sh	a0,60(s1)
   1b29c:	0384d783          	lhu	a5,56(s1)
   1b2a0:	0080006f          	j	1b2a8 <calc_func+0x84>
   1b2a4:	00040913          	mv	s2,s0
   1b2a8:	01091513          	slli	a0,s2,0x10
   1b2ac:	00078593          	mv	a1,a5
   1b2b0:	01055513          	srli	a0,a0,0x10
   1b2b4:	f0047413          	andi	s0,s0,-256
   1b2b8:	530020ef          	jal	ra,1d7e8 <crcu16>
   1b2bc:	07f97913          	andi	s2,s2,127
   1b2c0:	08046413          	ori	s0,s0,128
   1b2c4:	02a49c23          	sh	a0,56(s1)
   1b2c8:	00896433          	or	s0,s2,s0
   1b2cc:	00899023          	sh	s0,0(s3)
   1b2d0:	01c12083          	lw	ra,28(sp)
   1b2d4:	01812403          	lw	s0,24(sp)
   1b2d8:	00090513          	mv	a0,s2
   1b2dc:	01412483          	lw	s1,20(sp)
   1b2e0:	01012903          	lw	s2,16(sp)
   1b2e4:	00c12983          	lw	s3,12(sp)
   1b2e8:	02010113          	addi	sp,sp,32
   1b2ec:	00008067          	ret
   1b2f0:	02200693          	li	a3,34
   1b2f4:	00058713          	mv	a4,a1
   1b2f8:	00d5d463          	ble	a3,a1,1b300 <calc_func+0xdc>
   1b2fc:	02200713          	li	a4,34
   1b300:	00249683          	lh	a3,2(s1)
   1b304:	00049603          	lh	a2,0(s1)
   1b308:	0144a583          	lw	a1,20(s1)
   1b30c:	0184a503          	lw	a0,24(s1)
   1b310:	0ff77713          	andi	a4,a4,255
   1b314:	1fc020ef          	jal	ra,1d510 <core_bench_state>
   1b318:	03e4d783          	lhu	a5,62(s1)
   1b31c:	01051913          	slli	s2,a0,0x10
   1b320:	41095913          	srai	s2,s2,0x10
   1b324:	f6079ce3          	bnez	a5,1b29c <calc_func+0x78>
   1b328:	02a49f23          	sh	a0,62(s1)
   1b32c:	0384d783          	lhu	a5,56(s1)
   1b330:	f79ff06f          	j	1b2a8 <calc_func+0x84>

0001b334 <cmp_complex>:
   1b334:	ff010113          	addi	sp,sp,-16
   1b338:	01212023          	sw	s2,0(sp)
   1b33c:	00058913          	mv	s2,a1
   1b340:	00060593          	mv	a1,a2
   1b344:	00112623          	sw	ra,12(sp)
   1b348:	00812423          	sw	s0,8(sp)
   1b34c:	00912223          	sw	s1,4(sp)
   1b350:	00060413          	mv	s0,a2
   1b354:	ed1ff0ef          	jal	ra,1b224 <calc_func>
   1b358:	00050493          	mv	s1,a0
   1b35c:	00040593          	mv	a1,s0
   1b360:	00090513          	mv	a0,s2
   1b364:	ec1ff0ef          	jal	ra,1b224 <calc_func>
   1b368:	00c12083          	lw	ra,12(sp)
   1b36c:	00812403          	lw	s0,8(sp)
   1b370:	40a48533          	sub	a0,s1,a0
   1b374:	00012903          	lw	s2,0(sp)
   1b378:	00412483          	lw	s1,4(sp)
   1b37c:	01010113          	addi	sp,sp,16
   1b380:	00008067          	ret

0001b384 <copy_info>:
   1b384:	00059703          	lh	a4,0(a1)
   1b388:	00259783          	lh	a5,2(a1)
   1b38c:	00e51023          	sh	a4,0(a0)
   1b390:	00f51123          	sh	a5,2(a0)
   1b394:	00008067          	ret

0001b398 <core_list_insert_new>:
   1b398:	00062803          	lw	a6,0(a2) # 1000 <coremarkBenchmark+0xf58>
   1b39c:	00880893          	addi	a7,a6,8
   1b3a0:	04e8f663          	bleu	a4,a7,1b3ec <core_list_insert_new+0x54>
   1b3a4:	0006a703          	lw	a4,0(a3)
   1b3a8:	00470313          	addi	t1,a4,4
   1b3ac:	04f37063          	bleu	a5,t1,1b3ec <core_list_insert_new+0x54>
   1b3b0:	01162023          	sw	a7,0(a2)
   1b3b4:	00052783          	lw	a5,0(a0)
   1b3b8:	00059883          	lh	a7,0(a1)
   1b3bc:	00259603          	lh	a2,2(a1)
   1b3c0:	00f82023          	sw	a5,0(a6)
   1b3c4:	01052023          	sw	a6,0(a0)
   1b3c8:	00e82223          	sw	a4,4(a6)
   1b3cc:	0006a783          	lw	a5,0(a3)
   1b3d0:	00080513          	mv	a0,a6
   1b3d4:	00478793          	addi	a5,a5,4
   1b3d8:	00f6a023          	sw	a5,0(a3)
   1b3dc:	00482783          	lw	a5,4(a6)
   1b3e0:	01179023          	sh	a7,0(a5)
   1b3e4:	00c79123          	sh	a2,2(a5)
   1b3e8:	00008067          	ret
   1b3ec:	00000813          	li	a6,0
   1b3f0:	00080513          	mv	a0,a6
   1b3f4:	00008067          	ret

0001b3f8 <core_list_remove>:
   1b3f8:	00052783          	lw	a5,0(a0)
   1b3fc:	00452603          	lw	a2,4(a0)
   1b400:	00050713          	mv	a4,a0
   1b404:	0047a583          	lw	a1,4(a5)
   1b408:	0007a683          	lw	a3,0(a5)
   1b40c:	00078513          	mv	a0,a5
   1b410:	00b72223          	sw	a1,4(a4)
   1b414:	00c7a223          	sw	a2,4(a5)
   1b418:	00d72023          	sw	a3,0(a4)
   1b41c:	0007a023          	sw	zero,0(a5)
   1b420:	00008067          	ret

0001b424 <core_list_undo_remove>:
   1b424:	0045a603          	lw	a2,4(a1)
   1b428:	00452683          	lw	a3,4(a0)
   1b42c:	0005a703          	lw	a4,0(a1)
   1b430:	00c52223          	sw	a2,4(a0)
   1b434:	00d5a223          	sw	a3,4(a1)
   1b438:	00e52023          	sw	a4,0(a0)
   1b43c:	00a5a023          	sw	a0,0(a1)
   1b440:	00008067          	ret

0001b444 <core_list_find>:
   1b444:	00259703          	lh	a4,2(a1)
   1b448:	02074863          	bltz	a4,1b478 <core_list_find+0x34>
   1b44c:	02050463          	beqz	a0,1b474 <core_list_find+0x30>
   1b450:	00452783          	lw	a5,4(a0)
   1b454:	00279783          	lh	a5,2(a5)
   1b458:	00e79a63          	bne	a5,a4,1b46c <core_list_find+0x28>
   1b45c:	0500006f          	j	1b4ac <core_list_find+0x68>
   1b460:	00452783          	lw	a5,4(a0)
   1b464:	00279783          	lh	a5,2(a5)
   1b468:	00e78663          	beq	a5,a4,1b474 <core_list_find+0x30>
   1b46c:	00052503          	lw	a0,0(a0)
   1b470:	fe0518e3          	bnez	a0,1b460 <core_list_find+0x1c>
   1b474:	00008067          	ret
   1b478:	fe050ee3          	beqz	a0,1b474 <core_list_find+0x30>
   1b47c:	00452783          	lw	a5,4(a0)
   1b480:	00059703          	lh	a4,0(a1)
   1b484:	0007c783          	lbu	a5,0(a5)
   1b488:	00e79a63          	bne	a5,a4,1b49c <core_list_find+0x58>
   1b48c:	0240006f          	j	1b4b0 <core_list_find+0x6c>
   1b490:	00452783          	lw	a5,4(a0)
   1b494:	0007c783          	lbu	a5,0(a5)
   1b498:	00e78863          	beq	a5,a4,1b4a8 <core_list_find+0x64>
   1b49c:	00052503          	lw	a0,0(a0)
   1b4a0:	fe0518e3          	bnez	a0,1b490 <core_list_find+0x4c>
   1b4a4:	fd1ff06f          	j	1b474 <core_list_find+0x30>
   1b4a8:	00008067          	ret
   1b4ac:	00008067          	ret
   1b4b0:	00008067          	ret

0001b4b4 <core_list_reverse>:
   1b4b4:	02050063          	beqz	a0,1b4d4 <core_list_reverse+0x20>
   1b4b8:	00000713          	li	a4,0
   1b4bc:	0080006f          	j	1b4c4 <core_list_reverse+0x10>
   1b4c0:	00078513          	mv	a0,a5
   1b4c4:	00052783          	lw	a5,0(a0)
   1b4c8:	00e52023          	sw	a4,0(a0)
   1b4cc:	00050713          	mv	a4,a0
   1b4d0:	fe0798e3          	bnez	a5,1b4c0 <core_list_reverse+0xc>
   1b4d4:	00008067          	ret

0001b4d8 <core_list_mergesort>:
   1b4d8:	fd010113          	addi	sp,sp,-48
   1b4dc:	01412c23          	sw	s4,24(sp)
   1b4e0:	01512a23          	sw	s5,20(sp)
   1b4e4:	01712623          	sw	s7,12(sp)
   1b4e8:	01812423          	sw	s8,8(sp)
   1b4ec:	01a12023          	sw	s10,0(sp)
   1b4f0:	02112623          	sw	ra,44(sp)
   1b4f4:	02812423          	sw	s0,40(sp)
   1b4f8:	02912223          	sw	s1,36(sp)
   1b4fc:	03212023          	sw	s2,32(sp)
   1b500:	01312e23          	sw	s3,28(sp)
   1b504:	01612823          	sw	s6,16(sp)
   1b508:	01912223          	sw	s9,4(sp)
   1b50c:	00050a13          	mv	s4,a0
   1b510:	00058c13          	mv	s8,a1
   1b514:	00060b93          	mv	s7,a2
   1b518:	00100a93          	li	s5,1
   1b51c:	00100d13          	li	s10,1
   1b520:	0a0a0e63          	beqz	s4,1b5dc <core_list_mergesort+0x104>
   1b524:	00000c93          	li	s9,0
   1b528:	00000913          	li	s2,0
   1b52c:	00000b13          	li	s6,0
   1b530:	001c8c93          	addi	s9,s9,1
   1b534:	000a0413          	mv	s0,s4
   1b538:	00000493          	li	s1,0
   1b53c:	00042403          	lw	s0,0(s0)
   1b540:	00148493          	addi	s1,s1,1
   1b544:	00040463          	beqz	s0,1b54c <core_list_mergesort+0x74>
   1b548:	fe9a9ae3          	bne	s5,s1,1b53c <core_list_mergesort+0x64>
   1b54c:	000a8993          	mv	s3,s5
   1b550:	02048e63          	beqz	s1,1b58c <core_list_mergesort+0xb4>
   1b554:	04098e63          	beqz	s3,1b5b0 <core_list_mergesort+0xd8>
   1b558:	04040c63          	beqz	s0,1b5b0 <core_list_mergesort+0xd8>
   1b55c:	00442583          	lw	a1,4(s0)
   1b560:	004a2503          	lw	a0,4(s4)
   1b564:	000b8613          	mv	a2,s7
   1b568:	000c00e7          	jalr	s8
   1b56c:	04a05263          	blez	a0,1b5b0 <core_list_mergesort+0xd8>
   1b570:	00040793          	mv	a5,s0
   1b574:	00042403          	lw	s0,0(s0)
   1b578:	fff98993          	addi	s3,s3,-1
   1b57c:	02090463          	beqz	s2,1b5a4 <core_list_mergesort+0xcc>
   1b580:	00f92023          	sw	a5,0(s2)
   1b584:	00078913          	mv	s2,a5
   1b588:	fc0496e3          	bnez	s1,1b554 <core_list_mergesort+0x7c>
   1b58c:	02098a63          	beqz	s3,1b5c0 <core_list_mergesort+0xe8>
   1b590:	02040c63          	beqz	s0,1b5c8 <core_list_mergesort+0xf0>
   1b594:	00040793          	mv	a5,s0
   1b598:	fff98993          	addi	s3,s3,-1
   1b59c:	00042403          	lw	s0,0(s0)
   1b5a0:	fe0910e3          	bnez	s2,1b580 <core_list_mergesort+0xa8>
   1b5a4:	00078b13          	mv	s6,a5
   1b5a8:	00078913          	mv	s2,a5
   1b5ac:	fddff06f          	j	1b588 <core_list_mergesort+0xb0>
   1b5b0:	000a0793          	mv	a5,s4
   1b5b4:	fff48493          	addi	s1,s1,-1
   1b5b8:	000a2a03          	lw	s4,0(s4)
   1b5bc:	fc1ff06f          	j	1b57c <core_list_mergesort+0xa4>
   1b5c0:	00040a13          	mv	s4,s0
   1b5c4:	f60416e3          	bnez	s0,1b530 <core_list_mergesort+0x58>
   1b5c8:	00092023          	sw	zero,0(s2)
   1b5cc:	01ac8c63          	beq	s9,s10,1b5e4 <core_list_mergesort+0x10c>
   1b5d0:	001a9a93          	slli	s5,s5,0x1
   1b5d4:	000b0a13          	mv	s4,s6
   1b5d8:	f49ff06f          	j	1b520 <core_list_mergesort+0x48>
   1b5dc:	00002023          	sw	zero,0(zero) # 80000000 <heap_memory_used+0x7ffde228>
   1b5e0:	00100073          	ebreak
   1b5e4:	02c12083          	lw	ra,44(sp)
   1b5e8:	02812403          	lw	s0,40(sp)
   1b5ec:	000b0513          	mv	a0,s6
   1b5f0:	02412483          	lw	s1,36(sp)
   1b5f4:	02012903          	lw	s2,32(sp)
   1b5f8:	01c12983          	lw	s3,28(sp)
   1b5fc:	01812a03          	lw	s4,24(sp)
   1b600:	01412a83          	lw	s5,20(sp)
   1b604:	01012b03          	lw	s6,16(sp)
   1b608:	00c12b83          	lw	s7,12(sp)
   1b60c:	00812c03          	lw	s8,8(sp)
   1b610:	00412c83          	lw	s9,4(sp)
   1b614:	00012d03          	lw	s10,0(sp)
   1b618:	03010113          	addi	sp,sp,48
   1b61c:	00008067          	ret

0001b620 <core_bench_list>:
   1b620:	fc010113          	addi	sp,sp,-64
   1b624:	01812c23          	sw	s8,24(sp)
   1b628:	00451c03          	lh	s8,4(a0)
   1b62c:	02812c23          	sw	s0,56(sp)
   1b630:	03612023          	sw	s6,32(sp)
   1b634:	01712e23          	sw	s7,28(sp)
   1b638:	02112e23          	sw	ra,60(sp)
   1b63c:	02912a23          	sw	s1,52(sp)
   1b640:	03212823          	sw	s2,48(sp)
   1b644:	03312623          	sw	s3,44(sp)
   1b648:	03412423          	sw	s4,40(sp)
   1b64c:	03512223          	sw	s5,36(sp)
   1b650:	01912a23          	sw	s9,20(sp)
   1b654:	01a12823          	sw	s10,16(sp)
   1b658:	00b11723          	sh	a1,14(sp)
   1b65c:	00050b93          	mv	s7,a0
   1b660:	00058b13          	mv	s6,a1
   1b664:	02452403          	lw	s0,36(a0)
   1b668:	25805a63          	blez	s8,1b8bc <core_bench_list+0x29c>
   1b66c:	00058d13          	mv	s10,a1
   1b670:	00000913          	li	s2,0
   1b674:	00000a13          	li	s4,0
   1b678:	00000993          	li	s3,0
   1b67c:	00000493          	li	s1,0
   1b680:	00c10a93          	addi	s5,sp,12
   1b684:	0001ecb7          	lui	s9,0x1e
   1b688:	0ff97793          	andi	a5,s2,255
   1b68c:	000a8593          	mv	a1,s5
   1b690:	00040513          	mv	a0,s0
   1b694:	00f11623          	sh	a5,12(sp)
   1b698:	dadff0ef          	jal	ra,1b444 <core_list_find>
   1b69c:	02040063          	beqz	s0,1b6bc <core_bench_list+0x9c>
   1b6a0:	00000713          	li	a4,0
   1b6a4:	0080006f          	j	1b6ac <core_bench_list+0x8c>
   1b6a8:	00078413          	mv	s0,a5
   1b6ac:	00042783          	lw	a5,0(s0)
   1b6b0:	00e42023          	sw	a4,0(s0)
   1b6b4:	00040713          	mv	a4,s0
   1b6b8:	fe0798e3          	bnez	a5,1b6a8 <core_bench_list+0x88>
   1b6bc:	08050663          	beqz	a0,1b748 <core_bench_list+0x128>
   1b6c0:	00452783          	lw	a5,4(a0)
   1b6c4:	00198993          	addi	s3,s3,1
   1b6c8:	01099993          	slli	s3,s3,0x10
   1b6cc:	00079783          	lh	a5,0(a5)
   1b6d0:	0109d993          	srli	s3,s3,0x10
   1b6d4:	0017f713          	andi	a4,a5,1
   1b6d8:	00070c63          	beqz	a4,1b6f0 <core_bench_list+0xd0>
   1b6dc:	4097d793          	srai	a5,a5,0x9
   1b6e0:	0017f793          	andi	a5,a5,1
   1b6e4:	00f484b3          	add	s1,s1,a5
   1b6e8:	01049493          	slli	s1,s1,0x10
   1b6ec:	0104d493          	srli	s1,s1,0x10
   1b6f0:	00052783          	lw	a5,0(a0)
   1b6f4:	00078c63          	beqz	a5,1b70c <core_bench_list+0xec>
   1b6f8:	0007a703          	lw	a4,0(a5)
   1b6fc:	00e52023          	sw	a4,0(a0)
   1b700:	00042703          	lw	a4,0(s0)
   1b704:	00e7a023          	sw	a4,0(a5)
   1b708:	00f42023          	sw	a5,0(s0)
   1b70c:	000d4663          	bltz	s10,1b718 <core_bench_list+0xf8>
   1b710:	001d0d13          	addi	s10,s10,1
   1b714:	01a11723          	sh	s10,14(sp)
   1b718:	00090593          	mv	a1,s2
   1b71c:	00098713          	mv	a4,s3
   1b720:	000a0693          	mv	a3,s4
   1b724:	00048613          	mv	a2,s1
   1b728:	588c8513          	addi	a0,s9,1416 # 1e588 <errpat+0x600>
   1b72c:	00190913          	addi	s2,s2,1
   1b730:	35c020ef          	jal	ra,1da8c <printf>
   1b734:	01091793          	slli	a5,s2,0x10
   1b738:	4107d793          	srai	a5,a5,0x10
   1b73c:	0387dc63          	ble	s8,a5,1b774 <core_bench_list+0x154>
   1b740:	00e11d03          	lh	s10,14(sp)
   1b744:	f45ff06f          	j	1b688 <core_bench_list+0x68>
   1b748:	00042783          	lw	a5,0(s0)
   1b74c:	001a0a13          	addi	s4,s4,1
   1b750:	010a1a13          	slli	s4,s4,0x10
   1b754:	0047a783          	lw	a5,4(a5)
   1b758:	010a5a13          	srli	s4,s4,0x10
   1b75c:	00178783          	lb	a5,1(a5)
   1b760:	0017f793          	andi	a5,a5,1
   1b764:	00f484b3          	add	s1,s1,a5
   1b768:	01049493          	slli	s1,s1,0x10
   1b76c:	0104d493          	srli	s1,s1,0x10
   1b770:	f9dff06f          	j	1b70c <core_bench_list+0xec>
   1b774:	00299993          	slli	s3,s3,0x2
   1b778:	41498a33          	sub	s4,s3,s4
   1b77c:	014484b3          	add	s1,s1,s4
   1b780:	01049493          	slli	s1,s1,0x10
   1b784:	0104d493          	srli	s1,s1,0x10
   1b788:	01605e63          	blez	s6,1b7a4 <core_bench_list+0x184>
   1b78c:	0001b5b7          	lui	a1,0x1b
   1b790:	00040513          	mv	a0,s0
   1b794:	000b8613          	mv	a2,s7
   1b798:	33458593          	addi	a1,a1,820 # 1b334 <cmp_complex>
   1b79c:	d3dff0ef          	jal	ra,1b4d8 <core_list_mergesort>
   1b7a0:	00050413          	mv	s0,a0
   1b7a4:	00042783          	lw	a5,0(s0)
   1b7a8:	000a8593          	mv	a1,s5
   1b7ac:	00040513          	mv	a0,s0
   1b7b0:	0007a983          	lw	s3,0(a5)
   1b7b4:	0047a683          	lw	a3,4(a5)
   1b7b8:	0049a603          	lw	a2,4(s3)
   1b7bc:	0009a703          	lw	a4,0(s3)
   1b7c0:	00c7a223          	sw	a2,4(a5)
   1b7c4:	00d9a223          	sw	a3,4(s3)
   1b7c8:	00e7a023          	sw	a4,0(a5)
   1b7cc:	0009a023          	sw	zero,0(s3)
   1b7d0:	c75ff0ef          	jal	ra,1b444 <core_list_find>
   1b7d4:	00050913          	mv	s2,a0
   1b7d8:	0c050c63          	beqz	a0,1b8b0 <core_bench_list+0x290>
   1b7dc:	00442783          	lw	a5,4(s0)
   1b7e0:	00048593          	mv	a1,s1
   1b7e4:	00079503          	lh	a0,0(a5)
   1b7e8:	0b4020ef          	jal	ra,1d89c <crc16>
   1b7ec:	00092903          	lw	s2,0(s2)
   1b7f0:	00050493          	mv	s1,a0
   1b7f4:	fe0914e3          	bnez	s2,1b7dc <core_bench_list+0x1bc>
   1b7f8:	0001e537          	lui	a0,0x1e
   1b7fc:	00048593          	mv	a1,s1
   1b800:	5a450513          	addi	a0,a0,1444 # 1e5a4 <errpat+0x61c>
   1b804:	288020ef          	jal	ra,1da8c <printf>
   1b808:	00042783          	lw	a5,0(s0)
   1b80c:	0049a683          	lw	a3,4(s3)
   1b810:	00040513          	mv	a0,s0
   1b814:	0047a583          	lw	a1,4(a5)
   1b818:	0007a703          	lw	a4,0(a5)
   1b81c:	00000613          	li	a2,0
   1b820:	00b9a223          	sw	a1,4(s3)
   1b824:	00d7a223          	sw	a3,4(a5)
   1b828:	00e9a023          	sw	a4,0(s3)
   1b82c:	0001b5b7          	lui	a1,0x1b
   1b830:	0137a023          	sw	s3,0(a5)
   1b834:	1d858593          	addi	a1,a1,472 # 1b1d8 <cmp_idx>
   1b838:	ca1ff0ef          	jal	ra,1b4d8 <core_list_mergesort>
   1b83c:	00052403          	lw	s0,0(a0)
   1b840:	00050913          	mv	s2,a0
   1b844:	02040063          	beqz	s0,1b864 <core_bench_list+0x244>
   1b848:	00492783          	lw	a5,4(s2)
   1b84c:	00048593          	mv	a1,s1
   1b850:	00079503          	lh	a0,0(a5)
   1b854:	048020ef          	jal	ra,1d89c <crc16>
   1b858:	00042403          	lw	s0,0(s0)
   1b85c:	00050493          	mv	s1,a0
   1b860:	fe0414e3          	bnez	s0,1b848 <core_bench_list+0x228>
   1b864:	0001e537          	lui	a0,0x1e
   1b868:	00048593          	mv	a1,s1
   1b86c:	5b850513          	addi	a0,a0,1464 # 1e5b8 <errpat+0x630>
   1b870:	21c020ef          	jal	ra,1da8c <printf>
   1b874:	03c12083          	lw	ra,60(sp)
   1b878:	03812403          	lw	s0,56(sp)
   1b87c:	00048513          	mv	a0,s1
   1b880:	03012903          	lw	s2,48(sp)
   1b884:	03412483          	lw	s1,52(sp)
   1b888:	02c12983          	lw	s3,44(sp)
   1b88c:	02812a03          	lw	s4,40(sp)
   1b890:	02412a83          	lw	s5,36(sp)
   1b894:	02012b03          	lw	s6,32(sp)
   1b898:	01c12b83          	lw	s7,28(sp)
   1b89c:	01812c03          	lw	s8,24(sp)
   1b8a0:	01412c83          	lw	s9,20(sp)
   1b8a4:	01012d03          	lw	s10,16(sp)
   1b8a8:	04010113          	addi	sp,sp,64
   1b8ac:	00008067          	ret
   1b8b0:	00042903          	lw	s2,0(s0)
   1b8b4:	f40902e3          	beqz	s2,1b7f8 <core_bench_list+0x1d8>
   1b8b8:	f25ff06f          	j	1b7dc <core_bench_list+0x1bc>
   1b8bc:	00000493          	li	s1,0
   1b8c0:	00c10a93          	addi	s5,sp,12
   1b8c4:	ec5ff06f          	j	1b788 <core_bench_list+0x168>

0001b8c8 <core_list_init>:
   1b8c8:	01400713          	li	a4,20
   1b8cc:	02e55733          	divu	a4,a0,a4
   1b8d0:	ff010113          	addi	sp,sp,-16
   1b8d4:	00112623          	sw	ra,12(sp)
   1b8d8:	00812423          	sw	s0,8(sp)
   1b8dc:	00912223          	sw	s1,4(sp)
   1b8e0:	01212023          	sw	s2,0(sp)
   1b8e4:	00058513          	mv	a0,a1
   1b8e8:	0005a023          	sw	zero,0(a1)
   1b8ec:	ffff87b7          	lui	a5,0xffff8
   1b8f0:	08078793          	addi	a5,a5,128 # ffff8080 <heap_memory_used+0xfffd62a8>
   1b8f4:	01058693          	addi	a3,a1,16
   1b8f8:	00858393          	addi	t2,a1,8
   1b8fc:	00000593          	li	a1,0
   1b900:	ffe70713          	addi	a4,a4,-2
   1b904:	00371813          	slli	a6,a4,0x3
   1b908:	01050833          	add	a6,a0,a6
   1b90c:	01052223          	sw	a6,4(a0)
   1b910:	00271f13          	slli	t5,a4,0x2
   1b914:	00f81023          	sh	a5,0(a6)
   1b918:	00081123          	sh	zero,2(a6)
   1b91c:	01e80f33          	add	t5,a6,t5
   1b920:	00480313          	addi	t1,a6,4
   1b924:	0106f663          	bleu	a6,a3,1b930 <core_list_init+0x68>
   1b928:	00880793          	addi	a5,a6,8
   1b92c:	15e7e263          	bltu	a5,t5,1ba70 <core_list_init+0x1a8>
   1b930:	06070a63          	beqz	a4,1b9a4 <core_list_init+0xdc>
   1b934:	01061293          	slli	t0,a2,0x10
   1b938:	ffff8fb7          	lui	t6,0xffff8
   1b93c:	0102d293          	srli	t0,t0,0x10
   1b940:	00000693          	li	a3,0
   1b944:	ffffcf93          	not	t6,t6
   1b948:	00838e13          	addi	t3,t2,8
   1b94c:	00430e93          	addi	t4,t1,4
   1b950:	050e7663          	bleu	a6,t3,1b99c <core_list_init+0xd4>
   1b954:	01069893          	slli	a7,a3,0x10
   1b958:	0108d893          	srli	a7,a7,0x10
   1b95c:	0058c7b3          	xor	a5,a7,t0
   1b960:	00379793          	slli	a5,a5,0x3
   1b964:	0078f893          	andi	a7,a7,7
   1b968:	0787f793          	andi	a5,a5,120
   1b96c:	0117e7b3          	or	a5,a5,a7
   1b970:	00879893          	slli	a7,a5,0x8
   1b974:	00f8e7b3          	or	a5,a7,a5
   1b978:	03eef263          	bleu	t5,t4,1b99c <core_list_init+0xd4>
   1b97c:	00b3a023          	sw	a1,0(t2)
   1b980:	00752023          	sw	t2,0(a0)
   1b984:	0063a223          	sw	t1,4(t2)
   1b988:	00f31023          	sh	a5,0(t1)
   1b98c:	01f31123          	sh	t6,2(t1)
   1b990:	00038593          	mv	a1,t2
   1b994:	000e8313          	mv	t1,t4
   1b998:	000e0393          	mv	t2,t3
   1b99c:	00168693          	addi	a3,a3,1
   1b9a0:	fad714e3          	bne	a4,a3,1b948 <core_list_init+0x80>
   1b9a4:	00500893          	li	a7,5
   1b9a8:	00004e37          	lui	t3,0x4
   1b9ac:	031758b3          	divu	a7,a4,a7
   1b9b0:	00100693          	li	a3,1
   1b9b4:	20000713          	li	a4,512
   1b9b8:	fffe0e13          	addi	t3,t3,-1 # 3fff <coremarkBenchmark+0x3f57>
   1b9bc:	01c0006f          	j	1b9d8 <core_list_init+0x110>
   1b9c0:	00d59123          	sh	a3,2(a1)
   1b9c4:	10070713          	addi	a4,a4,256
   1b9c8:	01071713          	slli	a4,a4,0x10
   1b9cc:	00168693          	addi	a3,a3,1
   1b9d0:	01075713          	srli	a4,a4,0x10
   1b9d4:	00080593          	mv	a1,a6
   1b9d8:	0005a803          	lw	a6,0(a1)
   1b9dc:	70077793          	andi	a5,a4,1792
   1b9e0:	00c6c333          	xor	t1,a3,a2
   1b9e4:	0067e7b3          	or	a5,a5,t1
   1b9e8:	01c7f7b3          	and	a5,a5,t3
   1b9ec:	00080a63          	beqz	a6,1ba00 <core_list_init+0x138>
   1b9f0:	0045a583          	lw	a1,4(a1)
   1b9f4:	fd16e6e3          	bltu	a3,a7,1b9c0 <core_list_init+0xf8>
   1b9f8:	00f59123          	sh	a5,2(a1)
   1b9fc:	fc9ff06f          	j	1b9c4 <core_list_init+0xfc>
   1ba00:	0001b5b7          	lui	a1,0x1b
   1ba04:	00000613          	li	a2,0
   1ba08:	1d858593          	addi	a1,a1,472 # 1b1d8 <cmp_idx>
   1ba0c:	acdff0ef          	jal	ra,1b4d8 <core_list_mergesort>
   1ba10:	00050913          	mv	s2,a0
   1ba14:	0001e537          	lui	a0,0x1e
   1ba18:	5cc50513          	addi	a0,a0,1484 # 1e5cc <errpat+0x644>
   1ba1c:	070020ef          	jal	ra,1da8c <printf>
   1ba20:	02090463          	beqz	s2,1ba48 <core_list_init+0x180>
   1ba24:	00090413          	mv	s0,s2
   1ba28:	0001e4b7          	lui	s1,0x1e
   1ba2c:	00442783          	lw	a5,4(s0)
   1ba30:	5e048513          	addi	a0,s1,1504 # 1e5e0 <errpat+0x658>
   1ba34:	0007d603          	lhu	a2,0(a5)
   1ba38:	00279583          	lh	a1,2(a5)
   1ba3c:	050020ef          	jal	ra,1da8c <printf>
   1ba40:	00042403          	lw	s0,0(s0)
   1ba44:	fe0414e3          	bnez	s0,1ba2c <core_list_init+0x164>
   1ba48:	0001f537          	lui	a0,0x1f
   1ba4c:	81850513          	addi	a0,a0,-2024 # 1e818 <errpat+0x890>
   1ba50:	03c020ef          	jal	ra,1da8c <printf>
   1ba54:	00c12083          	lw	ra,12(sp)
   1ba58:	00812403          	lw	s0,8(sp)
   1ba5c:	00090513          	mv	a0,s2
   1ba60:	00412483          	lw	s1,4(sp)
   1ba64:	00012903          	lw	s2,0(sp)
   1ba68:	01010113          	addi	sp,sp,16
   1ba6c:	00008067          	ret
   1ba70:	00752023          	sw	t2,0(a0)
   1ba74:	00652623          	sw	t1,12(a0)
   1ba78:	00052423          	sw	zero,8(a0)
   1ba7c:	fff00893          	li	a7,-1
   1ba80:	01181223          	sh	a7,4(a6)
   1ba84:	000088b7          	lui	a7,0x8
   1ba88:	fff88893          	addi	a7,a7,-1 # 7fff <coremarkBenchmark+0x7f57>
   1ba8c:	00038593          	mv	a1,t2
   1ba90:	01181323          	sh	a7,6(a6)
   1ba94:	00078313          	mv	t1,a5
   1ba98:	00068393          	mv	t2,a3
   1ba9c:	e95ff06f          	j	1b930 <core_list_init+0x68>

0001baa0 <iterate>:
   1baa0:	ff010113          	addi	sp,sp,-16
   1baa4:	01212023          	sw	s2,0(sp)
   1baa8:	01c52903          	lw	s2,28(a0)
   1baac:	00112623          	sw	ra,12(sp)
   1bab0:	00812423          	sw	s0,8(sp)
   1bab4:	00912223          	sw	s1,4(sp)
   1bab8:	02052c23          	sw	zero,56(a0)
   1babc:	02052e23          	sw	zero,60(a0)
   1bac0:	04090463          	beqz	s2,1bb08 <iterate+0x68>
   1bac4:	00050413          	mv	s0,a0
   1bac8:	00000493          	li	s1,0
   1bacc:	00100593          	li	a1,1
   1bad0:	00040513          	mv	a0,s0
   1bad4:	b4dff0ef          	jal	ra,1b620 <core_bench_list>
   1bad8:	03845583          	lhu	a1,56(s0)
   1badc:	50d010ef          	jal	ra,1d7e8 <crcu16>
   1bae0:	02a41c23          	sh	a0,56(s0)
   1bae4:	fff00593          	li	a1,-1
   1bae8:	00040513          	mv	a0,s0
   1baec:	b35ff0ef          	jal	ra,1b620 <core_bench_list>
   1baf0:	03845583          	lhu	a1,56(s0)
   1baf4:	4f5010ef          	jal	ra,1d7e8 <crcu16>
   1baf8:	02a41c23          	sh	a0,56(s0)
   1bafc:	02048463          	beqz	s1,1bb24 <iterate+0x84>
   1bb00:	00148493          	addi	s1,s1,1
   1bb04:	fc9914e3          	bne	s2,s1,1bacc <iterate+0x2c>
   1bb08:	00c12083          	lw	ra,12(sp)
   1bb0c:	00812403          	lw	s0,8(sp)
   1bb10:	00412483          	lw	s1,4(sp)
   1bb14:	00012903          	lw	s2,0(sp)
   1bb18:	00000513          	li	a0,0
   1bb1c:	01010113          	addi	sp,sp,16
   1bb20:	00008067          	ret
   1bb24:	02a41d23          	sh	a0,58(s0)
   1bb28:	fd9ff06f          	j	1bb00 <iterate+0x60>

0001bb2c <COREMARK>:
   1bb2c:	81010113          	addi	sp,sp,-2032
   1bb30:	00001737          	lui	a4,0x1
   1bb34:	7e112623          	sw	ra,2028(sp)
   1bb38:	7e812423          	sw	s0,2024(sp)
   1bb3c:	7e912223          	sw	s1,2020(sp)
   1bb40:	7f212023          	sw	s2,2016(sp)
   1bb44:	7d312e23          	sw	s3,2012(sp)
   1bb48:	7d412c23          	sw	s4,2008(sp)
   1bb4c:	7d512a23          	sw	s5,2004(sp)
   1bb50:	7d612823          	sw	s6,2000(sp)
   1bb54:	7d712623          	sw	s7,1996(sp)
   1bb58:	7d812423          	sw	s8,1992(sp)
   1bb5c:	7d912223          	sw	s9,1988(sp)
   1bb60:	7da12023          	sw	s10,1984(sp)
   1bb64:	7bb12e23          	sw	s11,1980(sp)
   1bb68:	fffff7b7          	lui	a5,0xfffff
   1bb6c:	f8010113          	addi	sp,sp,-128
   1bb70:	83070713          	addi	a4,a4,-2000 # 830 <coremarkBenchmark+0x788>
   1bb74:	7dc78793          	addi	a5,a5,2012 # fffff7dc <heap_memory_used+0xfffdda04>
   1bb78:	00270733          	add	a4,a4,sp
   1bb7c:	00058613          	mv	a2,a1
   1bb80:	00a12623          	sw	a0,12(sp)
   1bb84:	00f705b3          	add	a1,a4,a5
   1bb88:	05e10513          	addi	a0,sp,94
   1bb8c:	4b4010ef          	jal	ra,1d040 <portable_init>
   1bb90:	00100513          	li	a0,1
   1bb94:	3b1010ef          	jal	ra,1d744 <get_seed_32>
   1bb98:	00a11e23          	sh	a0,28(sp)
   1bb9c:	00200513          	li	a0,2
   1bba0:	3a5010ef          	jal	ra,1d744 <get_seed_32>
   1bba4:	00a11f23          	sh	a0,30(sp)
   1bba8:	00300513          	li	a0,3
   1bbac:	399010ef          	jal	ra,1d744 <get_seed_32>
   1bbb0:	02a11023          	sh	a0,32(sp)
   1bbb4:	00400513          	li	a0,4
   1bbb8:	38d010ef          	jal	ra,1d744 <get_seed_32>
   1bbbc:	00100793          	li	a5,1
   1bbc0:	00500513          	li	a0,5
   1bbc4:	02f12c23          	sw	a5,56(sp)
   1bbc8:	37d010ef          	jal	ra,1d744 <get_seed_32>
   1bbcc:	2e050a63          	beqz	a0,1bec0 <COREMARK+0x394>
   1bbd0:	00157693          	andi	a3,a0,1
   1bbd4:	02a12e23          	sw	a0,60(sp)
   1bbd8:	00050793          	mv	a5,a0
   1bbdc:	00257713          	andi	a4,a0,2
   1bbe0:	00457813          	andi	a6,a0,4
   1bbe4:	00001537          	lui	a0,0x1
   1bbe8:	83050513          	addi	a0,a0,-2000 # 830 <coremarkBenchmark+0x788>
   1bbec:	fffff637          	lui	a2,0xfffff
   1bbf0:	00250533          	add	a0,a0,sp
   1bbf4:	00c50633          	add	a2,a0,a2
   1bbf8:	00c12423          	sw	a2,8(sp)
   1bbfc:	7ec62603          	lw	a2,2028(a2) # fffff7ec <heap_memory_used+0xfffdda14>
   1bc00:	01069593          	slli	a1,a3,0x10
   1bc04:	0105d593          	srli	a1,a1,0x10
   1bc08:	2e061863          	bnez	a2,1bef8 <COREMARK+0x3cc>
   1bc0c:	00812603          	lw	a2,8(sp)
   1bc10:	7f061603          	lh	a2,2032(a2)
   1bc14:	48060663          	beqz	a2,1c0a0 <COREMARK+0x574>
   1bc18:	00001537          	lui	a0,0x1
   1bc1c:	83050513          	addi	a0,a0,-2000 # 830 <coremarkBenchmark+0x788>
   1bc20:	00250533          	add	a0,a0,sp
   1bc24:	fffff637          	lui	a2,0xfffff
   1bc28:	00c50633          	add	a2,a0,a2
   1bc2c:	00c12423          	sw	a2,8(sp)
   1bc30:	00812503          	lw	a0,8(sp)
   1bc34:	06010613          	addi	a2,sp,96
   1bc38:	04011e23          	sh	zero,92(sp)
   1bc3c:	7ec52a23          	sw	a2,2036(a0)
   1bc40:	00070863          	beqz	a4,1bc50 <COREMARK+0x124>
   1bc44:	00158513          	addi	a0,a1,1
   1bc48:	01051593          	slli	a1,a0,0x10
   1bc4c:	0105d593          	srli	a1,a1,0x10
   1bc50:	00080863          	beqz	a6,1bc60 <COREMARK+0x134>
   1bc54:	00158513          	addi	a0,a1,1
   1bc58:	01051593          	slli	a1,a0,0x10
   1bc5c:	0105d593          	srli	a1,a1,0x10
   1bc60:	7d000513          	li	a0,2000
   1bc64:	02b55533          	divu	a0,a0,a1
   1bc68:	00001f37          	lui	t5,0x1
   1bc6c:	fffff5b7          	lui	a1,0xfffff
   1bc70:	830f0893          	addi	a7,t5,-2000 # 830 <coremarkBenchmark+0x788>
   1bc74:	002888b3          	add	a7,a7,sp
   1bc78:	7ec58813          	addi	a6,a1,2028 # fffff7ec <heap_memory_used+0xfffdda14>
   1bc7c:	01088e33          	add	t3,a7,a6
   1bc80:	00000613          	li	a2,0
   1bc84:	00b88833          	add	a6,a7,a1
   1bc88:	00000e93          	li	t4,0
   1bc8c:	00100313          	li	t1,1
   1bc90:	00300893          	li	a7,3
   1bc94:	02a12a23          	sw	a0,52(sp)
   1bc98:	00c315b3          	sll	a1,t1,a2
   1bc9c:	00f5f5b3          	and	a1,a1,a5
   1bca0:	1e059c63          	bnez	a1,1be98 <COREMARK+0x36c>
   1bca4:	00160613          	addi	a2,a2,1 # fffff001 <heap_memory_used+0xfffdd229>
   1bca8:	ff1618e3          	bne	a2,a7,1bc98 <COREMARK+0x16c>
   1bcac:	16069a63          	bnez	a3,1be20 <COREMARK+0x2f4>
   1bcb0:	1a071263          	bnez	a4,1be54 <COREMARK+0x328>
   1bcb4:	0047f793          	andi	a5,a5,4
   1bcb8:	02078663          	beqz	a5,1bce4 <COREMARK+0x1b8>
   1bcbc:	00001737          	lui	a4,0x1
   1bcc0:	83070713          	addi	a4,a4,-2000 # 830 <coremarkBenchmark+0x788>
   1bcc4:	fffff7b7          	lui	a5,0xfffff
   1bcc8:	00270733          	add	a4,a4,sp
   1bccc:	00f707b3          	add	a5,a4,a5
   1bcd0:	03012603          	lw	a2,48(sp)
   1bcd4:	7ec79583          	lh	a1,2028(a5) # fffff7ec <heap_memory_used+0xfffdda14>
   1bcd8:	03412503          	lw	a0,52(sp)
   1bcdc:	00f12423          	sw	a5,8(sp)
   1bce0:	374010ef          	jal	ra,1d054 <core_init_state>
   1bce4:	03812783          	lw	a5,56(sp)
   1bce8:	06079663          	bnez	a5,1bd54 <COREMARK+0x228>
   1bcec:	000017b7          	lui	a5,0x1
   1bcf0:	fffff437          	lui	s0,0xfffff
   1bcf4:	83078793          	addi	a5,a5,-2000 # 830 <coremarkBenchmark+0x788>
   1bcf8:	7ec40413          	addi	s0,s0,2028 # fffff7ec <heap_memory_used+0xfffdda14>
   1bcfc:	002787b3          	add	a5,a5,sp
   1bd00:	00100713          	li	a4,1
   1bd04:	00878433          	add	s0,a5,s0
   1bd08:	0080006f          	j	1bd10 <COREMARK+0x1e4>
   1bd0c:	03812703          	lw	a4,56(sp)
   1bd10:	00271793          	slli	a5,a4,0x2
   1bd14:	00e787b3          	add	a5,a5,a4
   1bd18:	00179793          	slli	a5,a5,0x1
   1bd1c:	02f12c23          	sw	a5,56(sp)
   1bd20:	2b8010ef          	jal	ra,1cfd8 <start_time>
   1bd24:	00040513          	mv	a0,s0
   1bd28:	d79ff0ef          	jal	ra,1baa0 <iterate>
   1bd2c:	2cc010ef          	jal	ra,1cff8 <stop_time>
   1bd30:	2e8010ef          	jal	ra,1d018 <get_time>
   1bd34:	2fc010ef          	jal	ra,1d030 <time_in_secs>
   1bd38:	fc050ae3          	beqz	a0,1bd0c <COREMARK+0x1e0>
   1bd3c:	00a00793          	li	a5,10
   1bd40:	02a7d7b3          	divu	a5,a5,a0
   1bd44:	03812703          	lw	a4,56(sp)
   1bd48:	00178793          	addi	a5,a5,1
   1bd4c:	02e787b3          	mul	a5,a5,a4
   1bd50:	02f12c23          	sw	a5,56(sp)
   1bd54:	284010ef          	jal	ra,1cfd8 <start_time>
   1bd58:	000014b7          	lui	s1,0x1
   1bd5c:	fffff437          	lui	s0,0xfffff
   1bd60:	83048793          	addi	a5,s1,-2000 # 830 <coremarkBenchmark+0x788>
   1bd64:	002787b3          	add	a5,a5,sp
   1bd68:	7ec40513          	addi	a0,s0,2028 # fffff7ec <heap_memory_used+0xfffdda14>
   1bd6c:	00a78533          	add	a0,a5,a0
   1bd70:	d31ff0ef          	jal	ra,1baa0 <iterate>
   1bd74:	284010ef          	jal	ra,1cff8 <stop_time>
   1bd78:	2a0010ef          	jal	ra,1d018 <get_time>
   1bd7c:	83048793          	addi	a5,s1,-2000
   1bd80:	002787b3          	add	a5,a5,sp
   1bd84:	008787b3          	add	a5,a5,s0
   1bd88:	00050a13          	mv	s4,a0
   1bd8c:	7ec79503          	lh	a0,2028(a5)
   1bd90:	00000593          	li	a1,0
   1bd94:	00f12423          	sw	a5,8(sp)
   1bd98:	305010ef          	jal	ra,1d89c <crc16>
   1bd9c:	00812783          	lw	a5,8(sp)
   1bda0:	00050593          	mv	a1,a0
   1bda4:	7ee79503          	lh	a0,2030(a5)
   1bda8:	2f5010ef          	jal	ra,1d89c <crc16>
   1bdac:	00812783          	lw	a5,8(sp)
   1bdb0:	00050593          	mv	a1,a0
   1bdb4:	7f079503          	lh	a0,2032(a5)
   1bdb8:	2e5010ef          	jal	ra,1d89c <crc16>
   1bdbc:	00050593          	mv	a1,a0
   1bdc0:	03411503          	lh	a0,52(sp)
   1bdc4:	2d9010ef          	jal	ra,1d89c <crc16>
   1bdc8:	000087b7          	lui	a5,0x8
   1bdcc:	b0578793          	addi	a5,a5,-1275 # 7b05 <coremarkBenchmark+0x7a5d>
   1bdd0:	00050913          	mv	s2,a0
   1bdd4:	72f50e63          	beq	a0,a5,1c510 <COREMARK+0x9e4>
   1bdd8:	14a7e863          	bltu	a5,a0,1bf28 <COREMARK+0x3fc>
   1bddc:	000027b7          	lui	a5,0x2
   1bde0:	8f278793          	addi	a5,a5,-1806 # 18f2 <coremarkBenchmark+0x184a>
   1bde4:	70f50c63          	beq	a0,a5,1c4fc <COREMARK+0x9d0>
   1bde8:	000057b7          	lui	a5,0x5
   1bdec:	eaf78793          	addi	a5,a5,-337 # 4eaf <coremarkBenchmark+0x4e07>
   1bdf0:	2cf51063          	bne	a0,a5,1c0b0 <COREMARK+0x584>
   1bdf4:	0001e537          	lui	a0,0x1e
   1bdf8:	64850513          	addi	a0,a0,1608 # 1e648 <errpat+0x6c0>
   1bdfc:	491010ef          	jal	ra,1da8c <printf>
   1be00:	0001f4b7          	lui	s1,0x1f
   1be04:	15c4a783          	lw	a5,348(s1) # 1f15c <default_num_contexts>
   1be08:	00200c13          	li	s8,2
   1be0c:	00000d13          	li	s10,0
   1be10:	00000b93          	li	s7,0
   1be14:	14079863          	bnez	a5,1bf64 <COREMARK+0x438>
   1be18:	00000413          	li	s0,0
   1be1c:	2a40006f          	j	1c0c0 <COREMARK+0x594>
   1be20:	00001737          	lui	a4,0x1
   1be24:	83070713          	addi	a4,a4,-2000 # 830 <coremarkBenchmark+0x788>
   1be28:	00270733          	add	a4,a4,sp
   1be2c:	fffff7b7          	lui	a5,0xfffff
   1be30:	00f707b3          	add	a5,a4,a5
   1be34:	7ec79603          	lh	a2,2028(a5) # fffff7ec <heap_memory_used+0xfffdda14>
   1be38:	7f87a583          	lw	a1,2040(a5)
   1be3c:	00f12423          	sw	a5,8(sp)
   1be40:	a89ff0ef          	jal	ra,1b8c8 <core_list_init>
   1be44:	03c12783          	lw	a5,60(sp)
   1be48:	04a12023          	sw	a0,64(sp)
   1be4c:	0027f713          	andi	a4,a5,2
   1be50:	e60702e3          	beqz	a4,1bcb4 <COREMARK+0x188>
   1be54:	00001737          	lui	a4,0x1
   1be58:	83070713          	addi	a4,a4,-2000 # 830 <coremarkBenchmark+0x788>
   1be5c:	00270733          	add	a4,a4,sp
   1be60:	fffff7b7          	lui	a5,0xfffff
   1be64:	00f707b3          	add	a5,a4,a5
   1be68:	00f12423          	sw	a5,8(sp)
   1be6c:	00812703          	lw	a4,8(sp)
   1be70:	7ee79783          	lh	a5,2030(a5) # fffff7ee <heap_memory_used+0xfffdda16>
   1be74:	03412503          	lw	a0,52(sp)
   1be78:	7ec71603          	lh	a2,2028(a4)
   1be7c:	7fc72583          	lw	a1,2044(a4)
   1be80:	01079793          	slli	a5,a5,0x10
   1be84:	00c7e633          	or	a2,a5,a2
   1be88:	04410693          	addi	a3,sp,68
   1be8c:	041000ef          	jal	ra,1c6cc <core_init_matrix>
   1be90:	03c12783          	lw	a5,60(sp)
   1be94:	e21ff06f          	j	1bcb4 <COREMARK+0x188>
   1be98:	02ae8fb3          	mul	t6,t4,a0
   1be9c:	7f482f03          	lw	t5,2036(a6)
   1bea0:	00261593          	slli	a1,a2,0x2
   1bea4:	001e8e93          	addi	t4,t4,1
   1bea8:	00be05b3          	add	a1,t3,a1
   1beac:	010e9e93          	slli	t4,t4,0x10
   1beb0:	010ede93          	srli	t4,t4,0x10
   1beb4:	01ff0f33          	add	t5,t5,t6
   1beb8:	01e5a623          	sw	t5,12(a1)
   1bebc:	de9ff06f          	j	1bca4 <COREMARK+0x178>
   1bec0:	00001537          	lui	a0,0x1
   1bec4:	83050513          	addi	a0,a0,-2000 # 830 <coremarkBenchmark+0x788>
   1bec8:	00700793          	li	a5,7
   1becc:	fffff637          	lui	a2,0xfffff
   1bed0:	00250533          	add	a0,a0,sp
   1bed4:	00c50633          	add	a2,a0,a2
   1bed8:	02f12e23          	sw	a5,60(sp)
   1bedc:	00c12423          	sw	a2,8(sp)
   1bee0:	7ec62603          	lw	a2,2028(a2) # fffff7ec <heap_memory_used+0xfffdda14>
   1bee4:	00400813          	li	a6,4
   1bee8:	00200713          	li	a4,2
   1beec:	00100693          	li	a3,1
   1bef0:	00100593          	li	a1,1
   1bef4:	d0060ce3          	beqz	a2,1bc0c <COREMARK+0xe0>
   1bef8:	00100513          	li	a0,1
   1befc:	d0a61ee3          	bne	a2,a0,1bc18 <COREMARK+0xec>
   1bf00:	00812603          	lw	a2,8(sp)
   1bf04:	7f061603          	lh	a2,2032(a2)
   1bf08:	d00618e3          	bnez	a2,1bc18 <COREMARK+0xec>
   1bf0c:	00812503          	lw	a0,8(sp)
   1bf10:	34153637          	lui	a2,0x34153
   1bf14:	41560613          	addi	a2,a2,1045 # 34153415 <heap_memory_used+0x3413163d>
   1bf18:	7ec52623          	sw	a2,2028(a0)
   1bf1c:	06600613          	li	a2,102
   1bf20:	7ec51823          	sh	a2,2032(a0)
   1bf24:	cf5ff06f          	j	1bc18 <COREMARK+0xec>
   1bf28:	000097b7          	lui	a5,0x9
   1bf2c:	a0278793          	addi	a5,a5,-1534 # 8a02 <coremarkBenchmark+0x895a>
   1bf30:	5af50c63          	beq	a0,a5,1c4e8 <COREMARK+0x9bc>
   1bf34:	0000f7b7          	lui	a5,0xf
   1bf38:	9f578793          	addi	a5,a5,-1547 # e9f5 <coremarkBenchmark+0xe94d>
   1bf3c:	16f51a63          	bne	a0,a5,1c0b0 <COREMARK+0x584>
   1bf40:	0001e537          	lui	a0,0x1e
   1bf44:	67c50513          	addi	a0,a0,1660 # 1e67c <errpat+0x6f4>
   1bf48:	345010ef          	jal	ra,1da8c <printf>
   1bf4c:	00300c13          	li	s8,3
   1bf50:	0001f4b7          	lui	s1,0x1f
   1bf54:	15c4a783          	lw	a5,348(s1) # 1f15c <default_num_contexts>
   1bf58:	00000d13          	li	s10,0
   1bf5c:	00000b93          	li	s7,0
   1bf60:	ea078ce3          	beqz	a5,1be18 <COREMARK+0x2ec>
   1bf64:	000016b7          	lui	a3,0x1
   1bf68:	83068693          	addi	a3,a3,-2000 # 830 <coremarkBenchmark+0x788>
   1bf6c:	0001e7b7          	lui	a5,0x1e
   1bf70:	fffff737          	lui	a4,0xfffff
   1bf74:	002686b3          	add	a3,a3,sp
   1bf78:	001c1c93          	slli	s9,s8,0x1
   1bf7c:	00e68733          	add	a4,a3,a4
   1bf80:	f2078793          	addi	a5,a5,-224 # 1df20 <list_known_crc>
   1bf84:	00e12423          	sw	a4,8(sp)
   1bf88:	01978cb3          	add	s9,a5,s9
   1bf8c:	0001eb37          	lui	s6,0x1e
   1bf90:	0001eab7          	lui	s5,0x1e
   1bf94:	0001e9b7          	lui	s3,0x1e
   1bf98:	0380006f          	j	1bfd0 <COREMARK+0x4a4>
   1bf9c:	00001737          	lui	a4,0x1
   1bfa0:	00f707b3          	add	a5,a4,a5
   1bfa4:	82c79403          	lh	s0,-2004(a5)
   1bfa8:	01a40433          	add	s0,s0,s10
   1bfac:	001b8b93          	addi	s7,s7,1
   1bfb0:	01041413          	slli	s0,s0,0x10
   1bfb4:	15c4a783          	lw	a5,348(s1)
   1bfb8:	01045413          	srli	s0,s0,0x10
   1bfbc:	010b9b93          	slli	s7,s7,0x10
   1bfc0:	01041d13          	slli	s10,s0,0x10
   1bfc4:	010bdb93          	srli	s7,s7,0x10
   1bfc8:	410d5d13          	srai	s10,s10,0x10
   1bfcc:	0efbfa63          	bleu	a5,s7,1c0c0 <COREMARK+0x594>
   1bfd0:	00812783          	lw	a5,8(sp)
   1bfd4:	004b9d93          	slli	s11,s7,0x4
   1bfd8:	017d8733          	add	a4,s11,s7
   1bfdc:	00271713          	slli	a4,a4,0x2
   1bfe0:	00e78733          	add	a4,a5,a4
   1bfe4:	00001437          	lui	s0,0x1
   1bfe8:	00e40433          	add	s0,s0,a4
   1bfec:	80c42783          	lw	a5,-2036(s0) # 80c <coremarkBenchmark+0x764>
   1bff0:	82041623          	sh	zero,-2004(s0)
   1bff4:	0017f793          	andi	a5,a5,1
   1bff8:	02078463          	beqz	a5,1c020 <COREMARK+0x4f4>
   1bffc:	82645603          	lhu	a2,-2010(s0)
   1c000:	000cd683          	lhu	a3,0(s9)
   1c004:	00d60e63          	beq	a2,a3,1c020 <COREMARK+0x4f4>
   1c008:	000b8593          	mv	a1,s7
   1c00c:	6d8b0513          	addi	a0,s6,1752 # 1e6d8 <errpat+0x750>
   1c010:	27d010ef          	jal	ra,1da8c <printf>
   1c014:	82c45783          	lhu	a5,-2004(s0)
   1c018:	00178793          	addi	a5,a5,1
   1c01c:	82f41623          	sh	a5,-2004(s0)
   1c020:	00812783          	lw	a5,8(sp)
   1c024:	017d8733          	add	a4,s11,s7
   1c028:	00271713          	slli	a4,a4,0x2
   1c02c:	00e78733          	add	a4,a5,a4
   1c030:	00001437          	lui	s0,0x1
   1c034:	00e40433          	add	s0,s0,a4
   1c038:	80c42583          	lw	a1,-2036(s0) # 80c <coremarkBenchmark+0x764>
   1c03c:	0025f793          	andi	a5,a1,2
   1c040:	02078663          	beqz	a5,1c06c <COREMARK+0x540>
   1c044:	82845603          	lhu	a2,-2008(s0)
   1c048:	00ccd683          	lhu	a3,12(s9)
   1c04c:	02d60063          	beq	a2,a3,1c06c <COREMARK+0x540>
   1c050:	000b8593          	mv	a1,s7
   1c054:	708a8513          	addi	a0,s5,1800 # 1e708 <errpat+0x780>
   1c058:	235010ef          	jal	ra,1da8c <printf>
   1c05c:	82c45783          	lhu	a5,-2004(s0)
   1c060:	80c42583          	lw	a1,-2036(s0)
   1c064:	00178793          	addi	a5,a5,1
   1c068:	82f41623          	sh	a5,-2004(s0)
   1c06c:	00812703          	lw	a4,8(sp)
   1c070:	017d87b3          	add	a5,s11,s7
   1c074:	00279793          	slli	a5,a5,0x2
   1c078:	0045f593          	andi	a1,a1,4
   1c07c:	00f707b3          	add	a5,a4,a5
   1c080:	f0058ee3          	beqz	a1,1bf9c <COREMARK+0x470>
   1c084:	00001db7          	lui	s11,0x1
   1c088:	00fd8db3          	add	s11,s11,a5
   1c08c:	82add603          	lhu	a2,-2006(s11) # 82a <coremarkBenchmark+0x782>
   1c090:	018cd683          	lhu	a3,24(s9)
   1c094:	32d61c63          	bne	a2,a3,1c3cc <COREMARK+0x8a0>
   1c098:	82cd9403          	lh	s0,-2004(s11)
   1c09c:	f0dff06f          	j	1bfa8 <COREMARK+0x47c>
   1c0a0:	00812503          	lw	a0,8(sp)
   1c0a4:	06600613          	li	a2,102
   1c0a8:	7ec51823          	sh	a2,2032(a0)
   1c0ac:	b6dff06f          	j	1bc18 <COREMARK+0xec>
   1c0b0:	00010437          	lui	s0,0x10
   1c0b4:	fff40413          	addi	s0,s0,-1 # ffff <coremarkBenchmark+0xff57>
   1c0b8:	fff00c13          	li	s8,-1
   1c0bc:	0001f4b7          	lui	s1,0x1f
   1c0c0:	7e8010ef          	jal	ra,1d8a8 <check_data_types>
   1c0c4:	03412583          	lw	a1,52(sp)
   1c0c8:	00a40433          	add	s0,s0,a0
   1c0cc:	0001e537          	lui	a0,0x1e
   1c0d0:	76c50513          	addi	a0,a0,1900 # 1e76c <errpat+0x7e4>
   1c0d4:	1b9010ef          	jal	ra,1da8c <printf>
   1c0d8:	0001e537          	lui	a0,0x1e
   1c0dc:	000a0593          	mv	a1,s4
   1c0e0:	78450513          	addi	a0,a0,1924 # 1e784 <errpat+0x7fc>
   1c0e4:	1a9010ef          	jal	ra,1da8c <printf>
   1c0e8:	000a0513          	mv	a0,s4
   1c0ec:	745000ef          	jal	ra,1d030 <time_in_secs>
   1c0f0:	3e800a93          	li	s5,1000
   1c0f4:	035505b3          	mul	a1,a0,s5
   1c0f8:	00a00993          	li	s3,10
   1c0fc:	06400b93          	li	s7,100
   1c100:	0001e537          	lui	a0,0x1e
   1c104:	79c50513          	addi	a0,a0,1948 # 1e79c <errpat+0x814>
   1c108:	01041413          	slli	s0,s0,0x10
   1c10c:	01045413          	srli	s0,s0,0x10
   1c110:	0335c6b3          	div	a3,a1,s3
   1c114:	0375c633          	div	a2,a1,s7
   1c118:	0335e733          	rem	a4,a1,s3
   1c11c:	0336e6b3          	rem	a3,a3,s3
   1c120:	03366633          	rem	a2,a2,s3
   1c124:	0355c5b3          	div	a1,a1,s5
   1c128:	165010ef          	jal	ra,1da8c <printf>
   1c12c:	000a0513          	mv	a0,s4
   1c130:	701000ef          	jal	ra,1d030 <time_in_secs>
   1c134:	2c051c63          	bnez	a0,1c40c <COREMARK+0x8e0>
   1c138:	000a0513          	mv	a0,s4
   1c13c:	6f5000ef          	jal	ra,1d030 <time_in_secs>
   1c140:	00900793          	li	a5,9
   1c144:	2aa7fa63          	bleu	a0,a5,1c3f8 <COREMARK+0x8cc>
   1c148:	15c4a783          	lw	a5,348(s1) # 1f15c <default_num_contexts>
   1c14c:	03812583          	lw	a1,56(sp)
   1c150:	0001f537          	lui	a0,0x1f
   1c154:	81c50513          	addi	a0,a0,-2020 # 1e81c <errpat+0x894>
   1c158:	02f585b3          	mul	a1,a1,a5
   1c15c:	0001fb37          	lui	s6,0x1f
   1c160:	0001fbb7          	lui	s7,0x1f
   1c164:	0001fab7          	lui	s5,0x1f
   1c168:	01041413          	slli	s0,s0,0x10
   1c16c:	41045413          	srai	s0,s0,0x10
   1c170:	11d010ef          	jal	ra,1da8c <printf>
   1c174:	0001f537          	lui	a0,0x1f
   1c178:	834b0593          	addi	a1,s6,-1996 # 1e834 <errpat+0x8ac>
   1c17c:	85c50513          	addi	a0,a0,-1956 # 1e85c <errpat+0x8d4>
   1c180:	10d010ef          	jal	ra,1da8c <printf>
   1c184:	0001f537          	lui	a0,0x1f
   1c188:	874b8593          	addi	a1,s7,-1932 # 1e874 <errpat+0x8ec>
   1c18c:	87850513          	addi	a0,a0,-1928 # 1e878 <errpat+0x8f0>
   1c190:	0fd010ef          	jal	ra,1da8c <printf>
   1c194:	0001f537          	lui	a0,0x1f
   1c198:	89850513          	addi	a0,a0,-1896 # 1e898 <errpat+0x910>
   1c19c:	890a8593          	addi	a1,s5,-1904 # 1e890 <errpat+0x908>
   1c1a0:	0ed010ef          	jal	ra,1da8c <printf>
   1c1a4:	0001f537          	lui	a0,0x1f
   1c1a8:	00090593          	mv	a1,s2
   1c1ac:	8b050513          	addi	a0,a0,-1872 # 1e8b0 <errpat+0x928>
   1c1b0:	0dd010ef          	jal	ra,1da8c <printf>
   1c1b4:	03c12703          	lw	a4,60(sp)
   1c1b8:	00177793          	andi	a5,a4,1
   1c1bc:	22078a63          	beqz	a5,1c3f0 <COREMARK+0x8c4>
   1c1c0:	15c4a783          	lw	a5,348(s1)
   1c1c4:	1a078463          	beqz	a5,1c36c <COREMARK+0x840>
   1c1c8:	00001737          	lui	a4,0x1
   1c1cc:	83070713          	addi	a4,a4,-2000 # 830 <coremarkBenchmark+0x788>
   1c1d0:	fffff7b7          	lui	a5,0xfffff
   1c1d4:	00270733          	add	a4,a4,sp
   1c1d8:	00f707b3          	add	a5,a4,a5
   1c1dc:	00000c93          	li	s9,0
   1c1e0:	0001f9b7          	lui	s3,0x1f
   1c1e4:	00f12423          	sw	a5,8(sp)
   1c1e8:	00001937          	lui	s2,0x1
   1c1ec:	004c9793          	slli	a5,s9,0x4
   1c1f0:	00812703          	lw	a4,8(sp)
   1c1f4:	019787b3          	add	a5,a5,s9
   1c1f8:	00279793          	slli	a5,a5,0x2
   1c1fc:	00f707b3          	add	a5,a4,a5
   1c200:	00f907b3          	add	a5,s2,a5
   1c204:	8267d603          	lhu	a2,-2010(a5) # ffffe826 <heap_memory_used+0xfffdca4e>
   1c208:	000c8593          	mv	a1,s9
   1c20c:	8cc98513          	addi	a0,s3,-1844 # 1e8cc <errpat+0x944>
   1c210:	07d010ef          	jal	ra,1da8c <printf>
   1c214:	001c8c93          	addi	s9,s9,1
   1c218:	15c4a783          	lw	a5,348(s1)
   1c21c:	010c9c93          	slli	s9,s9,0x10
   1c220:	010cdc93          	srli	s9,s9,0x10
   1c224:	fcfce4e3          	bltu	s9,a5,1c1ec <COREMARK+0x6c0>
   1c228:	03c12703          	lw	a4,60(sp)
   1c22c:	00277693          	andi	a3,a4,2
   1c230:	06068663          	beqz	a3,1c29c <COREMARK+0x770>
   1c234:	12078c63          	beqz	a5,1c36c <COREMARK+0x840>
   1c238:	00001737          	lui	a4,0x1
   1c23c:	83070713          	addi	a4,a4,-2000 # 830 <coremarkBenchmark+0x788>
   1c240:	fffff7b7          	lui	a5,0xfffff
   1c244:	00270733          	add	a4,a4,sp
   1c248:	00f707b3          	add	a5,a4,a5
   1c24c:	00000c93          	li	s9,0
   1c250:	0001f9b7          	lui	s3,0x1f
   1c254:	00f12423          	sw	a5,8(sp)
   1c258:	00001937          	lui	s2,0x1
   1c25c:	004c9793          	slli	a5,s9,0x4
   1c260:	00812703          	lw	a4,8(sp)
   1c264:	019787b3          	add	a5,a5,s9
   1c268:	00279793          	slli	a5,a5,0x2
   1c26c:	00f707b3          	add	a5,a4,a5
   1c270:	00f907b3          	add	a5,s2,a5
   1c274:	8287d603          	lhu	a2,-2008(a5) # ffffe828 <heap_memory_used+0xfffdca50>
   1c278:	000c8593          	mv	a1,s9
   1c27c:	8e898513          	addi	a0,s3,-1816 # 1e8e8 <errpat+0x960>
   1c280:	00d010ef          	jal	ra,1da8c <printf>
   1c284:	001c8c93          	addi	s9,s9,1
   1c288:	15c4a783          	lw	a5,348(s1)
   1c28c:	010c9c93          	slli	s9,s9,0x10
   1c290:	010cdc93          	srli	s9,s9,0x10
   1c294:	fcfce4e3          	bltu	s9,a5,1c25c <COREMARK+0x730>
   1c298:	03c12703          	lw	a4,60(sp)
   1c29c:	00477713          	andi	a4,a4,4
   1c2a0:	06070463          	beqz	a4,1c308 <COREMARK+0x7dc>
   1c2a4:	0c078463          	beqz	a5,1c36c <COREMARK+0x840>
   1c2a8:	00001737          	lui	a4,0x1
   1c2ac:	83070713          	addi	a4,a4,-2000 # 830 <coremarkBenchmark+0x788>
   1c2b0:	fffff7b7          	lui	a5,0xfffff
   1c2b4:	00270733          	add	a4,a4,sp
   1c2b8:	00f707b3          	add	a5,a4,a5
   1c2bc:	00000c93          	li	s9,0
   1c2c0:	0001f9b7          	lui	s3,0x1f
   1c2c4:	00f12423          	sw	a5,8(sp)
   1c2c8:	00001937          	lui	s2,0x1
   1c2cc:	004c9793          	slli	a5,s9,0x4
   1c2d0:	00812703          	lw	a4,8(sp)
   1c2d4:	019787b3          	add	a5,a5,s9
   1c2d8:	00279793          	slli	a5,a5,0x2
   1c2dc:	00f707b3          	add	a5,a4,a5
   1c2e0:	00f907b3          	add	a5,s2,a5
   1c2e4:	82a7d603          	lhu	a2,-2006(a5) # ffffe82a <heap_memory_used+0xfffdca52>
   1c2e8:	000c8593          	mv	a1,s9
   1c2ec:	90498513          	addi	a0,s3,-1788 # 1e904 <errpat+0x97c>
   1c2f0:	79c010ef          	jal	ra,1da8c <printf>
   1c2f4:	001c8c93          	addi	s9,s9,1
   1c2f8:	15c4a783          	lw	a5,348(s1)
   1c2fc:	010c9c93          	slli	s9,s9,0x10
   1c300:	010cdc93          	srli	s9,s9,0x10
   1c304:	fcfce4e3          	bltu	s9,a5,1c2cc <COREMARK+0x7a0>
   1c308:	06078263          	beqz	a5,1c36c <COREMARK+0x840>
   1c30c:	00001737          	lui	a4,0x1
   1c310:	83070713          	addi	a4,a4,-2000 # 830 <coremarkBenchmark+0x788>
   1c314:	fffff7b7          	lui	a5,0xfffff
   1c318:	00270733          	add	a4,a4,sp
   1c31c:	00f707b3          	add	a5,a4,a5
   1c320:	00000c93          	li	s9,0
   1c324:	0001f9b7          	lui	s3,0x1f
   1c328:	00f12423          	sw	a5,8(sp)
   1c32c:	00001937          	lui	s2,0x1
   1c330:	004c9793          	slli	a5,s9,0x4
   1c334:	00812703          	lw	a4,8(sp)
   1c338:	019787b3          	add	a5,a5,s9
   1c33c:	00279793          	slli	a5,a5,0x2
   1c340:	00f707b3          	add	a5,a4,a5
   1c344:	00f907b3          	add	a5,s2,a5
   1c348:	8247d603          	lhu	a2,-2012(a5) # ffffe824 <heap_memory_used+0xfffdca4c>
   1c34c:	000c8593          	mv	a1,s9
   1c350:	92098513          	addi	a0,s3,-1760 # 1e920 <errpat+0x998>
   1c354:	738010ef          	jal	ra,1da8c <printf>
   1c358:	001c8c93          	addi	s9,s9,1
   1c35c:	15c4a783          	lw	a5,348(s1)
   1c360:	010c9c93          	slli	s9,s9,0x10
   1c364:	010cdc93          	srli	s9,s9,0x10
   1c368:	fcfce4e3          	bltu	s9,a5,1c330 <COREMARK+0x804>
   1c36c:	0e040263          	beqz	s0,1c450 <COREMARK+0x924>
   1c370:	16805463          	blez	s0,1c4d8 <COREMARK+0x9ac>
   1c374:	0001f537          	lui	a0,0x1f
   1c378:	9b450513          	addi	a0,a0,-1612 # 1e9b4 <errpat+0xa2c>
   1c37c:	710010ef          	jal	ra,1da8c <printf>
   1c380:	05e10513          	addi	a0,sp,94
   1c384:	4c9000ef          	jal	ra,1d04c <portable_fini>
   1c388:	08010113          	addi	sp,sp,128
   1c38c:	7ec12083          	lw	ra,2028(sp)
   1c390:	00000513          	li	a0,0
   1c394:	7e812403          	lw	s0,2024(sp)
   1c398:	7e412483          	lw	s1,2020(sp)
   1c39c:	7e012903          	lw	s2,2016(sp)
   1c3a0:	7dc12983          	lw	s3,2012(sp)
   1c3a4:	7d812a03          	lw	s4,2008(sp)
   1c3a8:	7d412a83          	lw	s5,2004(sp)
   1c3ac:	7d012b03          	lw	s6,2000(sp)
   1c3b0:	7cc12b83          	lw	s7,1996(sp)
   1c3b4:	7c812c03          	lw	s8,1992(sp)
   1c3b8:	7c412c83          	lw	s9,1988(sp)
   1c3bc:	7c012d03          	lw	s10,1984(sp)
   1c3c0:	7bc12d83          	lw	s11,1980(sp)
   1c3c4:	7f010113          	addi	sp,sp,2032
   1c3c8:	00008067          	ret
   1c3cc:	000b8593          	mv	a1,s7
   1c3d0:	73c98513          	addi	a0,s3,1852
   1c3d4:	6b8010ef          	jal	ra,1da8c <printf>
   1c3d8:	82cdd783          	lhu	a5,-2004(s11)
   1c3dc:	00178793          	addi	a5,a5,1
   1c3e0:	01079413          	slli	s0,a5,0x10
   1c3e4:	41045413          	srai	s0,s0,0x10
   1c3e8:	828d9623          	sh	s0,-2004(s11)
   1c3ec:	bbdff06f          	j	1bfa8 <COREMARK+0x47c>
   1c3f0:	15c4a783          	lw	a5,348(s1)
   1c3f4:	e39ff06f          	j	1c22c <COREMARK+0x700>
   1c3f8:	0001e537          	lui	a0,0x1e
   1c3fc:	7dc50513          	addi	a0,a0,2012 # 1e7dc <errpat+0x854>
   1c400:	68c010ef          	jal	ra,1da8c <printf>
   1c404:	00140413          	addi	s0,s0,1
   1c408:	d41ff06f          	j	1c148 <COREMARK+0x61c>
   1c40c:	15c4ab03          	lw	s6,348(s1)
   1c410:	03812583          	lw	a1,56(sp)
   1c414:	000a0513          	mv	a0,s4
   1c418:	036585b3          	mul	a1,a1,s6
   1c41c:	03558b33          	mul	s6,a1,s5
   1c420:	411000ef          	jal	ra,1d030 <time_in_secs>
   1c424:	02ab55b3          	divu	a1,s6,a0
   1c428:	0001e537          	lui	a0,0x1e
   1c42c:	7bc50513          	addi	a0,a0,1980 # 1e7bc <errpat+0x834>
   1c430:	0335c6b3          	div	a3,a1,s3
   1c434:	0375c633          	div	a2,a1,s7
   1c438:	0335e733          	rem	a4,a1,s3
   1c43c:	0336e6b3          	rem	a3,a3,s3
   1c440:	03366633          	rem	a2,a2,s3
   1c444:	0355c5b3          	div	a1,a1,s5
   1c448:	644010ef          	jal	ra,1da8c <printf>
   1c44c:	cedff06f          	j	1c138 <COREMARK+0x60c>
   1c450:	0001f537          	lui	a0,0x1f
   1c454:	93c50513          	addi	a0,a0,-1732 # 1e93c <errpat+0x9b4>
   1c458:	634010ef          	jal	ra,1da8c <printf>
   1c45c:	00300793          	li	a5,3
   1c460:	f2fc10e3          	bne	s8,a5,1c380 <COREMARK+0x854>
   1c464:	15c4a783          	lw	a5,348(s1)
   1c468:	03812403          	lw	s0,56(sp)
   1c46c:	3e800493          	li	s1,1000
   1c470:	000a0513          	mv	a0,s4
   1c474:	02f40433          	mul	s0,s0,a5
   1c478:	3b9000ef          	jal	ra,1d030 <time_in_secs>
   1c47c:	00a00613          	li	a2,10
   1c480:	06400893          	li	a7,100
   1c484:	874b8813          	addi	a6,s7,-1932
   1c488:	834b0793          	addi	a5,s6,-1996
   1c48c:	02940433          	mul	s0,s0,s1
   1c490:	02a455b3          	divu	a1,s0,a0
   1c494:	0001f537          	lui	a0,0x1f
   1c498:	98850513          	addi	a0,a0,-1656 # 1e988 <errpat+0xa00>
   1c49c:	0315c8b3          	div	a7,a1,a7
   1c4a0:	02c5c6b3          	div	a3,a1,a2
   1c4a4:	02c5e733          	rem	a4,a1,a2
   1c4a8:	02c6e6b3          	rem	a3,a3,a2
   1c4ac:	0295c5b3          	div	a1,a1,s1
   1c4b0:	02c8e633          	rem	a2,a7,a2
   1c4b4:	5d8010ef          	jal	ra,1da8c <printf>
   1c4b8:	0001f537          	lui	a0,0x1f
   1c4bc:	9ac50513          	addi	a0,a0,-1620 # 1e9ac <errpat+0xa24>
   1c4c0:	890a8593          	addi	a1,s5,-1904
   1c4c4:	5c8010ef          	jal	ra,1da8c <printf>
   1c4c8:	0001f537          	lui	a0,0x1f
   1c4cc:	81850513          	addi	a0,a0,-2024 # 1e818 <errpat+0x890>
   1c4d0:	5bc010ef          	jal	ra,1da8c <printf>
   1c4d4:	eadff06f          	j	1c380 <COREMARK+0x854>
   1c4d8:	0001f537          	lui	a0,0x1f
   1c4dc:	9c850513          	addi	a0,a0,-1592 # 1e9c8 <errpat+0xa40>
   1c4e0:	5ac010ef          	jal	ra,1da8c <printf>
   1c4e4:	e9dff06f          	j	1c380 <COREMARK+0x854>
   1c4e8:	0001e537          	lui	a0,0x1e
   1c4ec:	5ec50513          	addi	a0,a0,1516 # 1e5ec <errpat+0x664>
   1c4f0:	59c010ef          	jal	ra,1da8c <printf>
   1c4f4:	00000c13          	li	s8,0
   1c4f8:	a59ff06f          	j	1bf50 <COREMARK+0x424>
   1c4fc:	0001e537          	lui	a0,0x1e
   1c500:	6ac50513          	addi	a0,a0,1708 # 1e6ac <errpat+0x724>
   1c504:	588010ef          	jal	ra,1da8c <printf>
   1c508:	00400c13          	li	s8,4
   1c50c:	a45ff06f          	j	1bf50 <COREMARK+0x424>
   1c510:	0001e537          	lui	a0,0x1e
   1c514:	61c50513          	addi	a0,a0,1564 # 1e61c <errpat+0x694>
   1c518:	574010ef          	jal	ra,1da8c <printf>
   1c51c:	00100c13          	li	s8,1
   1c520:	a31ff06f          	j	1bf50 <COREMARK+0x424>

0001c524 <printmat>:
   1c524:	fd010113          	addi	sp,sp,-48
   1c528:	03212023          	sw	s2,32(sp)
   1c52c:	01512a23          	sw	s5,20(sp)
   1c530:	00058913          	mv	s2,a1
   1c534:	00050a93          	mv	s5,a0
   1c538:	0001f537          	lui	a0,0x1f
   1c53c:	00060593          	mv	a1,a2
   1c540:	00090693          	mv	a3,s2
   1c544:	00090613          	mv	a2,s2
   1c548:	a4450513          	addi	a0,a0,-1468 # 1ea44 <errpat+0xabc>
   1c54c:	02112623          	sw	ra,44(sp)
   1c550:	02812423          	sw	s0,40(sp)
   1c554:	02912223          	sw	s1,36(sp)
   1c558:	01312e23          	sw	s3,28(sp)
   1c55c:	01412c23          	sw	s4,24(sp)
   1c560:	01612823          	sw	s6,16(sp)
   1c564:	01712623          	sw	s7,12(sp)
   1c568:	01812423          	sw	s8,8(sp)
   1c56c:	520010ef          	jal	ra,1da8c <printf>
   1c570:	04090c63          	beqz	s2,1c5c8 <printmat+0xa4>
   1c574:	00191c13          	slli	s8,s2,0x1
   1c578:	00000b13          	li	s6,0
   1c57c:	0001fa37          	lui	s4,0x1f
   1c580:	0001fbb7          	lui	s7,0x1f
   1c584:	0001f9b7          	lui	s3,0x1f
   1c588:	000a8493          	mv	s1,s5
   1c58c:	00000413          	li	s0,0
   1c590:	00c0006f          	j	1c59c <printmat+0x78>
   1c594:	4f8010ef          	jal	ra,1da8c <printf>
   1c598:	00248493          	addi	s1,s1,2
   1c59c:	00049583          	lh	a1,0(s1)
   1c5a0:	a5ca0513          	addi	a0,s4,-1444 # 1ea5c <errpat+0xad4>
   1c5a4:	00140413          	addi	s0,s0,1
   1c5a8:	4e4010ef          	jal	ra,1da8c <printf>
   1c5ac:	a5898513          	addi	a0,s3,-1448 # 1ea58 <errpat+0xad0>
   1c5b0:	fe8912e3          	bne	s2,s0,1c594 <printmat+0x70>
   1c5b4:	818b8513          	addi	a0,s7,-2024 # 1e818 <errpat+0x890>
   1c5b8:	001b0b13          	addi	s6,s6,1
   1c5bc:	4d0010ef          	jal	ra,1da8c <printf>
   1c5c0:	018a8ab3          	add	s5,s5,s8
   1c5c4:	fd2b12e3          	bne	s6,s2,1c588 <printmat+0x64>
   1c5c8:	02c12083          	lw	ra,44(sp)
   1c5cc:	02812403          	lw	s0,40(sp)
   1c5d0:	02412483          	lw	s1,36(sp)
   1c5d4:	02012903          	lw	s2,32(sp)
   1c5d8:	01c12983          	lw	s3,28(sp)
   1c5dc:	01812a03          	lw	s4,24(sp)
   1c5e0:	01412a83          	lw	s5,20(sp)
   1c5e4:	01012b03          	lw	s6,16(sp)
   1c5e8:	00c12b83          	lw	s7,12(sp)
   1c5ec:	00812c03          	lw	s8,8(sp)
   1c5f0:	03010113          	addi	sp,sp,48
   1c5f4:	00008067          	ret

0001c5f8 <printmatC>:
   1c5f8:	fd010113          	addi	sp,sp,-48
   1c5fc:	03212023          	sw	s2,32(sp)
   1c600:	01512a23          	sw	s5,20(sp)
   1c604:	00058913          	mv	s2,a1
   1c608:	00050a93          	mv	s5,a0
   1c60c:	0001f537          	lui	a0,0x1f
   1c610:	00060593          	mv	a1,a2
   1c614:	00090693          	mv	a3,s2
   1c618:	00090613          	mv	a2,s2
   1c61c:	a4450513          	addi	a0,a0,-1468 # 1ea44 <errpat+0xabc>
   1c620:	02112623          	sw	ra,44(sp)
   1c624:	02812423          	sw	s0,40(sp)
   1c628:	02912223          	sw	s1,36(sp)
   1c62c:	01312e23          	sw	s3,28(sp)
   1c630:	01412c23          	sw	s4,24(sp)
   1c634:	01612823          	sw	s6,16(sp)
   1c638:	01712623          	sw	s7,12(sp)
   1c63c:	01812423          	sw	s8,8(sp)
   1c640:	44c010ef          	jal	ra,1da8c <printf>
   1c644:	04090c63          	beqz	s2,1c69c <printmatC+0xa4>
   1c648:	00291c13          	slli	s8,s2,0x2
   1c64c:	00000b13          	li	s6,0
   1c650:	0001fa37          	lui	s4,0x1f
   1c654:	0001fbb7          	lui	s7,0x1f
   1c658:	0001f9b7          	lui	s3,0x1f
   1c65c:	000a8493          	mv	s1,s5
   1c660:	00000413          	li	s0,0
   1c664:	00c0006f          	j	1c670 <printmatC+0x78>
   1c668:	424010ef          	jal	ra,1da8c <printf>
   1c66c:	00448493          	addi	s1,s1,4
   1c670:	0004a583          	lw	a1,0(s1)
   1c674:	a5ca0513          	addi	a0,s4,-1444 # 1ea5c <errpat+0xad4>
   1c678:	00140413          	addi	s0,s0,1
   1c67c:	410010ef          	jal	ra,1da8c <printf>
   1c680:	a5898513          	addi	a0,s3,-1448 # 1ea58 <errpat+0xad0>
   1c684:	fe8912e3          	bne	s2,s0,1c668 <printmatC+0x70>
   1c688:	818b8513          	addi	a0,s7,-2024 # 1e818 <errpat+0x890>
   1c68c:	001b0b13          	addi	s6,s6,1
   1c690:	3fc010ef          	jal	ra,1da8c <printf>
   1c694:	018a8ab3          	add	s5,s5,s8
   1c698:	fd2b12e3          	bne	s6,s2,1c65c <printmatC+0x64>
   1c69c:	02c12083          	lw	ra,44(sp)
   1c6a0:	02812403          	lw	s0,40(sp)
   1c6a4:	02412483          	lw	s1,36(sp)
   1c6a8:	02012903          	lw	s2,32(sp)
   1c6ac:	01c12983          	lw	s3,28(sp)
   1c6b0:	01812a03          	lw	s4,24(sp)
   1c6b4:	01412a83          	lw	s5,20(sp)
   1c6b8:	01012b03          	lw	s6,16(sp)
   1c6bc:	00c12b83          	lw	s7,12(sp)
   1c6c0:	00812c03          	lw	s8,8(sp)
   1c6c4:	03010113          	addi	sp,sp,48
   1c6c8:	00008067          	ret

0001c6cc <core_init_matrix>:
   1c6cc:	ff010113          	addi	sp,sp,-16
   1c6d0:	00112623          	sw	ra,12(sp)
   1c6d4:	00812423          	sw	s0,8(sp)
   1c6d8:	00912223          	sw	s1,4(sp)
   1c6dc:	00061463          	bnez	a2,1c6e4 <core_init_matrix+0x18>
   1c6e0:	00100613          	li	a2,1
   1c6e4:	fff58493          	addi	s1,a1,-1
   1c6e8:	ffc4f493          	andi	s1,s1,-4
   1c6ec:	00448f13          	addi	t5,s1,4
   1c6f0:	10050c63          	beqz	a0,1c808 <core_init_matrix+0x13c>
   1c6f4:	00000413          	li	s0,0
   1c6f8:	0080006f          	j	1c700 <core_init_matrix+0x34>
   1c6fc:	00070413          	mv	s0,a4
   1c700:	00140713          	addi	a4,s0,1
   1c704:	02e707b3          	mul	a5,a4,a4
   1c708:	00379793          	slli	a5,a5,0x3
   1c70c:	fea7e8e3          	bltu	a5,a0,1c6fc <core_init_matrix+0x30>
   1c710:	028403b3          	mul	t2,s0,s0
   1c714:	00040f93          	mv	t6,s0
   1c718:	00139393          	slli	t2,t2,0x1
   1c71c:	007f04b3          	add	s1,t5,t2
   1c720:	08040463          	beqz	s0,1c7a8 <core_init_matrix+0xdc>
   1c724:	00010e37          	lui	t3,0x10
   1c728:	00000293          	li	t0,0
   1c72c:	00100313          	li	t1,1
   1c730:	409f0eb3          	sub	t4,t5,s1
   1c734:	00141093          	slli	ra,s0,0x1
   1c738:	fffe0e13          	addi	t3,t3,-1 # ffff <coremarkBenchmark+0xff57>
   1c73c:	02508533          	mul	a0,ra,t0
   1c740:	00030713          	mv	a4,t1
   1c744:	00a48533          	add	a0,s1,a0
   1c748:	02e60633          	mul	a2,a2,a4
   1c74c:	01071793          	slli	a5,a4,0x10
   1c750:	0107d793          	srli	a5,a5,0x10
   1c754:	00ae88b3          	add	a7,t4,a0
   1c758:	00250513          	addi	a0,a0,2
   1c75c:	00170713          	addi	a4,a4,1
   1c760:	40670833          	sub	a6,a4,t1
   1c764:	41f65593          	srai	a1,a2,0x1f
   1c768:	0105d593          	srli	a1,a1,0x10
   1c76c:	00b60633          	add	a2,a2,a1
   1c770:	01c67633          	and	a2,a2,t3
   1c774:	40b60633          	sub	a2,a2,a1
   1c778:	00c785b3          	add	a1,a5,a2
   1c77c:	01059593          	slli	a1,a1,0x10
   1c780:	0105d593          	srli	a1,a1,0x10
   1c784:	00b787b3          	add	a5,a5,a1
   1c788:	feb51f23          	sh	a1,-2(a0)
   1c78c:	0ff7f793          	andi	a5,a5,255
   1c790:	00f89023          	sh	a5,0(a7)
   1c794:	fa886ae3          	bltu	a6,s0,1c748 <core_init_matrix+0x7c>
   1c798:	00128293          	addi	t0,t0,1
   1c79c:	0082f663          	bleu	s0,t0,1c7a8 <core_init_matrix+0xdc>
   1c7a0:	00070313          	mv	t1,a4
   1c7a4:	f99ff06f          	j	1c73c <core_init_matrix+0x70>
   1c7a8:	007487b3          	add	a5,s1,t2
   1c7ac:	fff78793          	addi	a5,a5,-1
   1c7b0:	ffc7f793          	andi	a5,a5,-4
   1c7b4:	00478793          	addi	a5,a5,4
   1c7b8:	0001f637          	lui	a2,0x1f
   1c7bc:	00040593          	mv	a1,s0
   1c7c0:	000f0513          	mv	a0,t5
   1c7c4:	0096a423          	sw	s1,8(a3)
   1c7c8:	a6060613          	addi	a2,a2,-1440 # 1ea60 <errpat+0xad8>
   1c7cc:	01e6a223          	sw	t5,4(a3)
   1c7d0:	00f6a623          	sw	a5,12(a3)
   1c7d4:	01f6a023          	sw	t6,0(a3)
   1c7d8:	d4dff0ef          	jal	ra,1c524 <printmat>
   1c7dc:	0001f637          	lui	a2,0x1f
   1c7e0:	00048513          	mv	a0,s1
   1c7e4:	00040593          	mv	a1,s0
   1c7e8:	a6460613          	addi	a2,a2,-1436 # 1ea64 <errpat+0xadc>
   1c7ec:	d39ff0ef          	jal	ra,1c524 <printmat>
   1c7f0:	00040513          	mv	a0,s0
   1c7f4:	00c12083          	lw	ra,12(sp)
   1c7f8:	00812403          	lw	s0,8(sp)
   1c7fc:	00412483          	lw	s1,4(sp)
   1c800:	01010113          	addi	sp,sp,16
   1c804:	00008067          	ret
   1c808:	00648493          	addi	s1,s1,6
   1c80c:	fff00f93          	li	t6,-1
   1c810:	fff00413          	li	s0,-1
   1c814:	00200393          	li	t2,2
   1c818:	f0dff06f          	j	1c724 <core_init_matrix+0x58>

0001c81c <matrix_sum>:
   1c81c:	08050a63          	beqz	a0,1c8b0 <matrix_sum+0x94>
   1c820:	40a00f33          	neg	t5,a0
   1c824:	00251793          	slli	a5,a0,0x2
   1c828:	00f585b3          	add	a1,a1,a5
   1c82c:	002f1f93          	slli	t6,t5,0x2
   1c830:	00000e13          	li	t3,0
   1c834:	00000793          	li	a5,0
   1c838:	00000693          	li	a3,0
   1c83c:	00000893          	li	a7,0
   1c840:	003f1f13          	slli	t5,t5,0x3
   1c844:	00bf8eb3          	add	t4,t6,a1
   1c848:	000e8713          	mv	a4,t4
   1c84c:	01c0006f          	j	1c868 <matrix_sum+0x4c>
   1c850:	01031793          	slli	a5,t1,0x10
   1c854:	00470713          	addi	a4,a4,4
   1c858:	4107d793          	srai	a5,a5,0x10
   1c85c:	00000893          	li	a7,0
   1c860:	00080693          	mv	a3,a6
   1c864:	02e58c63          	beq	a1,a4,1c89c <matrix_sum+0x80>
   1c868:	00072803          	lw	a6,0(a4)
   1c86c:	01079793          	slli	a5,a5,0x10
   1c870:	0107d793          	srli	a5,a5,0x10
   1c874:	0106a6b3          	slt	a3,a3,a6
   1c878:	010888b3          	add	a7,a7,a6
   1c87c:	00a78313          	addi	t1,a5,10
   1c880:	00d787b3          	add	a5,a5,a3
   1c884:	fd1646e3          	blt	a2,a7,1c850 <matrix_sum+0x34>
   1c888:	01079793          	slli	a5,a5,0x10
   1c88c:	00470713          	addi	a4,a4,4
   1c890:	4107d793          	srai	a5,a5,0x10
   1c894:	00080693          	mv	a3,a6
   1c898:	fce598e3          	bne	a1,a4,1c868 <matrix_sum+0x4c>
   1c89c:	001e0e13          	addi	t3,t3,1
   1c8a0:	41ee85b3          	sub	a1,t4,t5
   1c8a4:	fbc510e3          	bne	a0,t3,1c844 <matrix_sum+0x28>
   1c8a8:	00078513          	mv	a0,a5
   1c8ac:	00008067          	ret
   1c8b0:	00000793          	li	a5,0
   1c8b4:	00078513          	mv	a0,a5
   1c8b8:	00008067          	ret

0001c8bc <matrix_mul_const>:
   1c8bc:	02050e63          	beqz	a0,1c8f8 <matrix_mul_const+0x3c>
   1c8c0:	00151e13          	slli	t3,a0,0x1
   1c8c4:	00251313          	slli	t1,a0,0x2
   1c8c8:	00000893          	li	a7,0
   1c8cc:	00ce0833          	add	a6,t3,a2
   1c8d0:	00058713          	mv	a4,a1
   1c8d4:	00061783          	lh	a5,0(a2)
   1c8d8:	00470713          	addi	a4,a4,4
   1c8dc:	00260613          	addi	a2,a2,2
   1c8e0:	02d787b3          	mul	a5,a5,a3
   1c8e4:	fef72e23          	sw	a5,-4(a4)
   1c8e8:	ff0616e3          	bne	a2,a6,1c8d4 <matrix_mul_const+0x18>
   1c8ec:	00188893          	addi	a7,a7,1
   1c8f0:	006585b3          	add	a1,a1,t1
   1c8f4:	fd151ce3          	bne	a0,a7,1c8cc <matrix_mul_const+0x10>
   1c8f8:	00008067          	ret

0001c8fc <matrix_add_const>:
   1c8fc:	02050a63          	beqz	a0,1c930 <matrix_add_const+0x34>
   1c900:	01061613          	slli	a2,a2,0x10
   1c904:	01065613          	srli	a2,a2,0x10
   1c908:	00151813          	slli	a6,a0,0x1
   1c90c:	00000693          	li	a3,0
   1c910:	00b80733          	add	a4,a6,a1
   1c914:	0005d783          	lhu	a5,0(a1)
   1c918:	00258593          	addi	a1,a1,2
   1c91c:	00f607b3          	add	a5,a2,a5
   1c920:	fef59f23          	sh	a5,-2(a1)
   1c924:	feb718e3          	bne	a4,a1,1c914 <matrix_add_const+0x18>
   1c928:	00168693          	addi	a3,a3,1
   1c92c:	fed512e3          	bne	a0,a3,1c910 <matrix_add_const+0x14>
   1c930:	00008067          	ret

0001c934 <matrix_mul_vect>:
   1c934:	04050663          	beqz	a0,1c980 <matrix_mul_vect+0x4c>
   1c938:	00151e93          	slli	t4,a0,0x1
   1c93c:	00251513          	slli	a0,a0,0x2
   1c940:	00a58e33          	add	t3,a1,a0
   1c944:	01d68333          	add	t1,a3,t4
   1c948:	00068793          	mv	a5,a3
   1c94c:	00060513          	mv	a0,a2
   1c950:	00000813          	li	a6,0
   1c954:	00051703          	lh	a4,0(a0)
   1c958:	00079883          	lh	a7,0(a5)
   1c95c:	00278793          	addi	a5,a5,2
   1c960:	00250513          	addi	a0,a0,2
   1c964:	03170733          	mul	a4,a4,a7
   1c968:	00e80833          	add	a6,a6,a4
   1c96c:	fef314e3          	bne	t1,a5,1c954 <matrix_mul_vect+0x20>
   1c970:	0105a023          	sw	a6,0(a1)
   1c974:	00458593          	addi	a1,a1,4
   1c978:	01d60633          	add	a2,a2,t4
   1c97c:	fcbe16e3          	bne	t3,a1,1c948 <matrix_mul_vect+0x14>
   1c980:	00008067          	ret

0001c984 <matrix_mul_matrix>:
   1c984:	08050063          	beqz	a0,1ca04 <matrix_mul_matrix+0x80>
   1c988:	00151e13          	slli	t3,a0,0x1
   1c98c:	ff010113          	addi	sp,sp,-16
   1c990:	00812623          	sw	s0,12(sp)
   1c994:	01c60eb3          	add	t4,a2,t3
   1c998:	00251413          	slli	s0,a0,0x2
   1c99c:	01c682b3          	add	t0,a3,t3
   1c9a0:	00000393          	li	t2,0
   1c9a4:	00068f13          	mv	t5,a3
   1c9a8:	00058f93          	mv	t6,a1
   1c9ac:	000f0813          	mv	a6,t5
   1c9b0:	00060793          	mv	a5,a2
   1c9b4:	00000893          	li	a7,0
   1c9b8:	00079703          	lh	a4,0(a5)
   1c9bc:	00081303          	lh	t1,0(a6)
   1c9c0:	00278793          	addi	a5,a5,2
   1c9c4:	01c80833          	add	a6,a6,t3
   1c9c8:	02670733          	mul	a4,a4,t1
   1c9cc:	00e888b3          	add	a7,a7,a4
   1c9d0:	fefe94e3          	bne	t4,a5,1c9b8 <matrix_mul_matrix+0x34>
   1c9d4:	011fa023          	sw	a7,0(t6) # ffff8000 <heap_memory_used+0xfffd6228>
   1c9d8:	002f0f13          	addi	t5,t5,2
   1c9dc:	004f8f93          	addi	t6,t6,4
   1c9e0:	fde296e3          	bne	t0,t5,1c9ac <matrix_mul_matrix+0x28>
   1c9e4:	00138393          	addi	t2,t2,1
   1c9e8:	01c60633          	add	a2,a2,t3
   1c9ec:	01ce8eb3          	add	t4,t4,t3
   1c9f0:	008585b3          	add	a1,a1,s0
   1c9f4:	fa7518e3          	bne	a0,t2,1c9a4 <matrix_mul_matrix+0x20>
   1c9f8:	00c12403          	lw	s0,12(sp)
   1c9fc:	01010113          	addi	sp,sp,16
   1ca00:	00008067          	ret
   1ca04:	00008067          	ret

0001ca08 <matrix_mul_matrix_bitextract>:
   1ca08:	08050a63          	beqz	a0,1ca9c <matrix_mul_matrix_bitextract+0x94>
   1ca0c:	00151e13          	slli	t3,a0,0x1
   1ca10:	ff010113          	addi	sp,sp,-16
   1ca14:	00812623          	sw	s0,12(sp)
   1ca18:	01c60eb3          	add	t4,a2,t3
   1ca1c:	00251413          	slli	s0,a0,0x2
   1ca20:	01c682b3          	add	t0,a3,t3
   1ca24:	00000393          	li	t2,0
   1ca28:	00068f13          	mv	t5,a3
   1ca2c:	00058f93          	mv	t6,a1
   1ca30:	000f0893          	mv	a7,t5
   1ca34:	00060813          	mv	a6,a2
   1ca38:	00000313          	li	t1,0
   1ca3c:	00089703          	lh	a4,0(a7)
   1ca40:	00081783          	lh	a5,0(a6)
   1ca44:	00280813          	addi	a6,a6,2
   1ca48:	01c888b3          	add	a7,a7,t3
   1ca4c:	02e787b3          	mul	a5,a5,a4
   1ca50:	4027d713          	srai	a4,a5,0x2
   1ca54:	4057d793          	srai	a5,a5,0x5
   1ca58:	00f77713          	andi	a4,a4,15
   1ca5c:	07f7f793          	andi	a5,a5,127
   1ca60:	02f707b3          	mul	a5,a4,a5
   1ca64:	00f30333          	add	t1,t1,a5
   1ca68:	fd0e9ae3          	bne	t4,a6,1ca3c <matrix_mul_matrix_bitextract+0x34>
   1ca6c:	006fa023          	sw	t1,0(t6)
   1ca70:	002f0f13          	addi	t5,t5,2
   1ca74:	004f8f93          	addi	t6,t6,4
   1ca78:	fbe29ce3          	bne	t0,t5,1ca30 <matrix_mul_matrix_bitextract+0x28>
   1ca7c:	00138393          	addi	t2,t2,1
   1ca80:	01c60633          	add	a2,a2,t3
   1ca84:	01ce8eb3          	add	t4,t4,t3
   1ca88:	008585b3          	add	a1,a1,s0
   1ca8c:	f8751ee3          	bne	a0,t2,1ca28 <matrix_mul_matrix_bitextract+0x20>
   1ca90:	00c12403          	lw	s0,12(sp)
   1ca94:	01010113          	addi	sp,sp,16
   1ca98:	00008067          	ret
   1ca9c:	00008067          	ret

0001caa0 <matrix_test>:
   1caa0:	fb010113          	addi	sp,sp,-80
   1caa4:	04812423          	sw	s0,72(sp)
   1caa8:	04912223          	sw	s1,68(sp)
   1caac:	05212023          	sw	s2,64(sp)
   1cab0:	03412c23          	sw	s4,56(sp)
   1cab4:	04112623          	sw	ra,76(sp)
   1cab8:	fffffa37          	lui	s4,0xfffff
   1cabc:	03312e23          	sw	s3,60(sp)
   1cac0:	03512a23          	sw	s5,52(sp)
   1cac4:	03612823          	sw	s6,48(sp)
   1cac8:	03712623          	sw	s7,44(sp)
   1cacc:	03812423          	sw	s8,40(sp)
   1cad0:	03912223          	sw	s9,36(sp)
   1cad4:	03a12023          	sw	s10,32(sp)
   1cad8:	01b12e23          	sw	s11,28(sp)
   1cadc:	00058413          	mv	s0,a1
   1cae0:	00060493          	mv	s1,a2
   1cae4:	00068913          	mv	s2,a3
   1cae8:	01476a33          	or	s4,a4,s4
   1caec:	3c050663          	beqz	a0,1ceb8 <matrix_test+0x418>
   1caf0:	01071a93          	slli	s5,a4,0x10
   1caf4:	00070d13          	mv	s10,a4
   1caf8:	010ada93          	srli	s5,s5,0x10
   1cafc:	00151c13          	slli	s8,a0,0x1
   1cb00:	00060b93          	mv	s7,a2
   1cb04:	00060793          	mv	a5,a2
   1cb08:	00000993          	li	s3,0
   1cb0c:	00fc0633          	add	a2,s8,a5
   1cb10:	0007d683          	lhu	a3,0(a5)
   1cb14:	00278793          	addi	a5,a5,2
   1cb18:	00da86b3          	add	a3,s5,a3
   1cb1c:	fed79f23          	sh	a3,-2(a5)
   1cb20:	fef618e3          	bne	a2,a5,1cb10 <matrix_test+0x70>
   1cb24:	00198993          	addi	s3,s3,1
   1cb28:	00060793          	mv	a5,a2
   1cb2c:	ff3510e3          	bne	a0,s3,1cb0c <matrix_test+0x6c>
   1cb30:	0001f637          	lui	a2,0x1f
   1cb34:	00048513          	mv	a0,s1
   1cb38:	a6860613          	addi	a2,a2,-1432 # 1ea68 <errpat+0xae0>
   1cb3c:	00098593          	mv	a1,s3
   1cb40:	9e5ff0ef          	jal	ra,1c524 <printmat>
   1cb44:	00299b13          	slli	s6,s3,0x2
   1cb48:	00040c93          	mv	s9,s0
   1cb4c:	00040513          	mv	a0,s0
   1cb50:	00048793          	mv	a5,s1
   1cb54:	00000713          	li	a4,0
   1cb58:	018785b3          	add	a1,a5,s8
   1cb5c:	00050613          	mv	a2,a0
   1cb60:	00079683          	lh	a3,0(a5)
   1cb64:	00460613          	addi	a2,a2,4
   1cb68:	00278793          	addi	a5,a5,2
   1cb6c:	03a686b3          	mul	a3,a3,s10
   1cb70:	fed62e23          	sw	a3,-4(a2)
   1cb74:	feb796e3          	bne	a5,a1,1cb60 <matrix_test+0xc0>
   1cb78:	00170713          	addi	a4,a4,1
   1cb7c:	01650533          	add	a0,a0,s6
   1cb80:	fd371ce3          	bne	a4,s3,1cb58 <matrix_test+0xb8>
   1cb84:	41300db3          	neg	s11,s3
   1cb88:	01640d33          	add	s10,s0,s6
   1cb8c:	002d9713          	slli	a4,s11,0x2
   1cb90:	000d0893          	mv	a7,s10
   1cb94:	00000513          	li	a0,0
   1cb98:	00000793          	li	a5,0
   1cb9c:	00000593          	li	a1,0
   1cba0:	00000313          	li	t1,0
   1cba4:	003d9d93          	slli	s11,s11,0x3
   1cba8:	01170e33          	add	t3,a4,a7
   1cbac:	000e0613          	mv	a2,t3
   1cbb0:	01c0006f          	j	1cbcc <matrix_test+0x12c>
   1cbb4:	01081513          	slli	a0,a6,0x10
   1cbb8:	00460613          	addi	a2,a2,4
   1cbbc:	41055513          	srai	a0,a0,0x10
   1cbc0:	00000593          	li	a1,0
   1cbc4:	00068793          	mv	a5,a3
   1cbc8:	02c88c63          	beq	a7,a2,1cc00 <matrix_test+0x160>
   1cbcc:	00062683          	lw	a3,0(a2)
   1cbd0:	01051513          	slli	a0,a0,0x10
   1cbd4:	01055513          	srli	a0,a0,0x10
   1cbd8:	00d7a7b3          	slt	a5,a5,a3
   1cbdc:	00d585b3          	add	a1,a1,a3
   1cbe0:	00a50813          	addi	a6,a0,10
   1cbe4:	00f50533          	add	a0,a0,a5
   1cbe8:	fcba46e3          	blt	s4,a1,1cbb4 <matrix_test+0x114>
   1cbec:	01051513          	slli	a0,a0,0x10
   1cbf0:	00460613          	addi	a2,a2,4
   1cbf4:	41055513          	srai	a0,a0,0x10
   1cbf8:	00068793          	mv	a5,a3
   1cbfc:	fcc898e3          	bne	a7,a2,1cbcc <matrix_test+0x12c>
   1cc00:	00130313          	addi	t1,t1,1
   1cc04:	41be08b3          	sub	a7,t3,s11
   1cc08:	fb3310e3          	bne	t1,s3,1cba8 <matrix_test+0x108>
   1cc0c:	00000593          	li	a1,0
   1cc10:	00e12623          	sw	a4,12(sp)
   1cc14:	489000ef          	jal	ra,1d89c <crc16>
   1cc18:	0001f637          	lui	a2,0x1f
   1cc1c:	00a12423          	sw	a0,8(sp)
   1cc20:	a7c60613          	addi	a2,a2,-1412 # 1ea7c <errpat+0xaf4>
   1cc24:	00098593          	mv	a1,s3
   1cc28:	00040513          	mv	a0,s0
   1cc2c:	9cdff0ef          	jal	ra,1c5f8 <printmatC>
   1cc30:	00040593          	mv	a1,s0
   1cc34:	00098513          	mv	a0,s3
   1cc38:	00090693          	mv	a3,s2
   1cc3c:	00048613          	mv	a2,s1
   1cc40:	cf5ff0ef          	jal	ra,1c934 <matrix_mul_vect>
   1cc44:	00812883          	lw	a7,8(sp)
   1cc48:	00c12703          	lw	a4,12(sp)
   1cc4c:	00000513          	li	a0,0
   1cc50:	00000793          	li	a5,0
   1cc54:	00000593          	li	a1,0
   1cc58:	00000313          	li	t1,0
   1cc5c:	01a70e33          	add	t3,a4,s10
   1cc60:	000e0613          	mv	a2,t3
   1cc64:	01c0006f          	j	1cc80 <matrix_test+0x1e0>
   1cc68:	01081513          	slli	a0,a6,0x10
   1cc6c:	00460613          	addi	a2,a2,4
   1cc70:	41055513          	srai	a0,a0,0x10
   1cc74:	00000593          	li	a1,0
   1cc78:	00068793          	mv	a5,a3
   1cc7c:	02cd0c63          	beq	s10,a2,1ccb4 <matrix_test+0x214>
   1cc80:	00062683          	lw	a3,0(a2)
   1cc84:	01051513          	slli	a0,a0,0x10
   1cc88:	01055513          	srli	a0,a0,0x10
   1cc8c:	00d7a7b3          	slt	a5,a5,a3
   1cc90:	00d585b3          	add	a1,a1,a3
   1cc94:	00a50813          	addi	a6,a0,10
   1cc98:	00f50533          	add	a0,a0,a5
   1cc9c:	fcba46e3          	blt	s4,a1,1cc68 <matrix_test+0x1c8>
   1cca0:	01051513          	slli	a0,a0,0x10
   1cca4:	00460613          	addi	a2,a2,4
   1cca8:	41055513          	srai	a0,a0,0x10
   1ccac:	00068793          	mv	a5,a3
   1ccb0:	fccd18e3          	bne	s10,a2,1cc80 <matrix_test+0x1e0>
   1ccb4:	00130313          	addi	t1,t1,1
   1ccb8:	41be0d33          	sub	s10,t3,s11
   1ccbc:	fb3310e3          	bne	t1,s3,1cc5c <matrix_test+0x1bc>
   1ccc0:	00088593          	mv	a1,a7
   1ccc4:	3d9000ef          	jal	ra,1d89c <crc16>
   1ccc8:	0001f637          	lui	a2,0x1f
   1cccc:	a9060613          	addi	a2,a2,-1392 # 1ea90 <errpat+0xb08>
   1ccd0:	00098593          	mv	a1,s3
   1ccd4:	00050d13          	mv	s10,a0
   1ccd8:	00040513          	mv	a0,s0
   1ccdc:	91dff0ef          	jal	ra,1c5f8 <printmatC>
   1cce0:	00090693          	mv	a3,s2
   1cce4:	00098513          	mv	a0,s3
   1cce8:	00048613          	mv	a2,s1
   1ccec:	00040593          	mv	a1,s0
   1ccf0:	c95ff0ef          	jal	ra,1c984 <matrix_mul_matrix>
   1ccf4:	00040313          	mv	t1,s0
   1ccf8:	00000513          	li	a0,0
   1ccfc:	00000793          	li	a5,0
   1cd00:	00000693          	li	a3,0
   1cd04:	00000893          	li	a7,0
   1cd08:	00030593          	mv	a1,t1
   1cd0c:	00000613          	li	a2,0
   1cd10:	0200006f          	j	1cd30 <matrix_test+0x290>
   1cd14:	01081513          	slli	a0,a6,0x10
   1cd18:	00160613          	addi	a2,a2,1
   1cd1c:	41055513          	srai	a0,a0,0x10
   1cd20:	00000693          	li	a3,0
   1cd24:	00458593          	addi	a1,a1,4
   1cd28:	00070793          	mv	a5,a4
   1cd2c:	03367e63          	bleu	s3,a2,1cd68 <matrix_test+0x2c8>
   1cd30:	0005a703          	lw	a4,0(a1)
   1cd34:	01051513          	slli	a0,a0,0x10
   1cd38:	01055513          	srli	a0,a0,0x10
   1cd3c:	00e7a7b3          	slt	a5,a5,a4
   1cd40:	00e686b3          	add	a3,a3,a4
   1cd44:	00a50813          	addi	a6,a0,10
   1cd48:	00f50533          	add	a0,a0,a5
   1cd4c:	fcda44e3          	blt	s4,a3,1cd14 <matrix_test+0x274>
   1cd50:	01051513          	slli	a0,a0,0x10
   1cd54:	00160613          	addi	a2,a2,1
   1cd58:	41055513          	srai	a0,a0,0x10
   1cd5c:	00458593          	addi	a1,a1,4
   1cd60:	00070793          	mv	a5,a4
   1cd64:	fd3666e3          	bltu	a2,s3,1cd30 <matrix_test+0x290>
   1cd68:	00188893          	addi	a7,a7,1
   1cd6c:	01630333          	add	t1,t1,s6
   1cd70:	f938ece3          	bltu	a7,s3,1cd08 <matrix_test+0x268>
   1cd74:	000d0593          	mv	a1,s10
   1cd78:	325000ef          	jal	ra,1d89c <crc16>
   1cd7c:	0001f637          	lui	a2,0x1f
   1cd80:	aa060613          	addi	a2,a2,-1376 # 1eaa0 <errpat+0xb18>
   1cd84:	00098593          	mv	a1,s3
   1cd88:	00050d13          	mv	s10,a0
   1cd8c:	00040513          	mv	a0,s0
   1cd90:	869ff0ef          	jal	ra,1c5f8 <printmatC>
   1cd94:	00090693          	mv	a3,s2
   1cd98:	00098513          	mv	a0,s3
   1cd9c:	00048613          	mv	a2,s1
   1cda0:	00040593          	mv	a1,s0
   1cda4:	c65ff0ef          	jal	ra,1ca08 <matrix_mul_matrix_bitextract>
   1cda8:	00000513          	li	a0,0
   1cdac:	00000793          	li	a5,0
   1cdb0:	00000693          	li	a3,0
   1cdb4:	00000893          	li	a7,0
   1cdb8:	000c8593          	mv	a1,s9
   1cdbc:	00000613          	li	a2,0
   1cdc0:	0200006f          	j	1cde0 <matrix_test+0x340>
   1cdc4:	01081513          	slli	a0,a6,0x10
   1cdc8:	00160613          	addi	a2,a2,1
   1cdcc:	41055513          	srai	a0,a0,0x10
   1cdd0:	00000693          	li	a3,0
   1cdd4:	00458593          	addi	a1,a1,4
   1cdd8:	00070793          	mv	a5,a4
   1cddc:	03367e63          	bleu	s3,a2,1ce18 <matrix_test+0x378>
   1cde0:	0005a703          	lw	a4,0(a1)
   1cde4:	01051513          	slli	a0,a0,0x10
   1cde8:	01055513          	srli	a0,a0,0x10
   1cdec:	00e7a7b3          	slt	a5,a5,a4
   1cdf0:	00e686b3          	add	a3,a3,a4
   1cdf4:	00a50813          	addi	a6,a0,10
   1cdf8:	00f50533          	add	a0,a0,a5
   1cdfc:	fcda44e3          	blt	s4,a3,1cdc4 <matrix_test+0x324>
   1ce00:	01051513          	slli	a0,a0,0x10
   1ce04:	00160613          	addi	a2,a2,1
   1ce08:	41055513          	srai	a0,a0,0x10
   1ce0c:	00458593          	addi	a1,a1,4
   1ce10:	00070793          	mv	a5,a4
   1ce14:	fd3666e3          	bltu	a2,s3,1cde0 <matrix_test+0x340>
   1ce18:	00188893          	addi	a7,a7,1
   1ce1c:	016c8cb3          	add	s9,s9,s6
   1ce20:	f938ece3          	bltu	a7,s3,1cdb8 <matrix_test+0x318>
   1ce24:	000d0593          	mv	a1,s10
   1ce28:	275000ef          	jal	ra,1d89c <crc16>
   1ce2c:	0001f637          	lui	a2,0x1f
   1ce30:	ab460613          	addi	a2,a2,-1356 # 1eab4 <errpat+0xb2c>
   1ce34:	00050493          	mv	s1,a0
   1ce38:	00098593          	mv	a1,s3
   1ce3c:	00040513          	mv	a0,s0
   1ce40:	fb8ff0ef          	jal	ra,1c5f8 <printmatC>
   1ce44:	00000613          	li	a2,0
   1ce48:	000b8793          	mv	a5,s7
   1ce4c:	00000693          	li	a3,0
   1ce50:	0007d703          	lhu	a4,0(a5)
   1ce54:	00278793          	addi	a5,a5,2
   1ce58:	00168693          	addi	a3,a3,1
   1ce5c:	41570733          	sub	a4,a4,s5
   1ce60:	fee79f23          	sh	a4,-2(a5)
   1ce64:	ff36e6e3          	bltu	a3,s3,1ce50 <matrix_test+0x3b0>
   1ce68:	00160613          	addi	a2,a2,1
   1ce6c:	018b8bb3          	add	s7,s7,s8
   1ce70:	fd366ce3          	bltu	a2,s3,1ce48 <matrix_test+0x3a8>
   1ce74:	04c12083          	lw	ra,76(sp)
   1ce78:	04812403          	lw	s0,72(sp)
   1ce7c:	01049513          	slli	a0,s1,0x10
   1ce80:	04012903          	lw	s2,64(sp)
   1ce84:	04412483          	lw	s1,68(sp)
   1ce88:	03c12983          	lw	s3,60(sp)
   1ce8c:	03812a03          	lw	s4,56(sp)
   1ce90:	03412a83          	lw	s5,52(sp)
   1ce94:	03012b03          	lw	s6,48(sp)
   1ce98:	02c12b83          	lw	s7,44(sp)
   1ce9c:	02812c03          	lw	s8,40(sp)
   1cea0:	02412c83          	lw	s9,36(sp)
   1cea4:	02012d03          	lw	s10,32(sp)
   1cea8:	01c12d83          	lw	s11,28(sp)
   1ceac:	41055513          	srai	a0,a0,0x10
   1ceb0:	05010113          	addi	sp,sp,80
   1ceb4:	00008067          	ret
   1ceb8:	0001f637          	lui	a2,0x1f
   1cebc:	a6860613          	addi	a2,a2,-1432 # 1ea68 <errpat+0xae0>
   1cec0:	00048513          	mv	a0,s1
   1cec4:	00000593          	li	a1,0
   1cec8:	e5cff0ef          	jal	ra,1c524 <printmat>
   1cecc:	00000593          	li	a1,0
   1ced0:	00000513          	li	a0,0
   1ced4:	1c9000ef          	jal	ra,1d89c <crc16>
   1ced8:	0001f637          	lui	a2,0x1f
   1cedc:	00050993          	mv	s3,a0
   1cee0:	a7c60613          	addi	a2,a2,-1412 # 1ea7c <errpat+0xaf4>
   1cee4:	00040513          	mv	a0,s0
   1cee8:	00000593          	li	a1,0
   1ceec:	f0cff0ef          	jal	ra,1c5f8 <printmatC>
   1cef0:	00090693          	mv	a3,s2
   1cef4:	00048613          	mv	a2,s1
   1cef8:	00040593          	mv	a1,s0
   1cefc:	00000513          	li	a0,0
   1cf00:	a35ff0ef          	jal	ra,1c934 <matrix_mul_vect>
   1cf04:	00098593          	mv	a1,s3
   1cf08:	00000513          	li	a0,0
   1cf0c:	191000ef          	jal	ra,1d89c <crc16>
   1cf10:	0001f637          	lui	a2,0x1f
   1cf14:	00050993          	mv	s3,a0
   1cf18:	a9060613          	addi	a2,a2,-1392 # 1ea90 <errpat+0xb08>
   1cf1c:	00040513          	mv	a0,s0
   1cf20:	00000593          	li	a1,0
   1cf24:	ed4ff0ef          	jal	ra,1c5f8 <printmatC>
   1cf28:	00090693          	mv	a3,s2
   1cf2c:	00048613          	mv	a2,s1
   1cf30:	00040593          	mv	a1,s0
   1cf34:	00000513          	li	a0,0
   1cf38:	a4dff0ef          	jal	ra,1c984 <matrix_mul_matrix>
   1cf3c:	00098593          	mv	a1,s3
   1cf40:	00000513          	li	a0,0
   1cf44:	159000ef          	jal	ra,1d89c <crc16>
   1cf48:	0001f637          	lui	a2,0x1f
   1cf4c:	00050993          	mv	s3,a0
   1cf50:	aa060613          	addi	a2,a2,-1376 # 1eaa0 <errpat+0xb18>
   1cf54:	00040513          	mv	a0,s0
   1cf58:	00000593          	li	a1,0
   1cf5c:	e9cff0ef          	jal	ra,1c5f8 <printmatC>
   1cf60:	00048613          	mv	a2,s1
   1cf64:	00090693          	mv	a3,s2
   1cf68:	00040593          	mv	a1,s0
   1cf6c:	00000513          	li	a0,0
   1cf70:	a99ff0ef          	jal	ra,1ca08 <matrix_mul_matrix_bitextract>
   1cf74:	00098593          	mv	a1,s3
   1cf78:	00000513          	li	a0,0
   1cf7c:	121000ef          	jal	ra,1d89c <crc16>
   1cf80:	0001f637          	lui	a2,0x1f
   1cf84:	00050493          	mv	s1,a0
   1cf88:	ab460613          	addi	a2,a2,-1356 # 1eab4 <errpat+0xb2c>
   1cf8c:	00000593          	li	a1,0
   1cf90:	00040513          	mv	a0,s0
   1cf94:	e64ff0ef          	jal	ra,1c5f8 <printmatC>
   1cf98:	eddff06f          	j	1ce74 <matrix_test+0x3d4>

0001cf9c <core_bench_matrix>:
   1cf9c:	ff010113          	addi	sp,sp,-16
   1cfa0:	00812423          	sw	s0,8(sp)
   1cfa4:	00058713          	mv	a4,a1
   1cfa8:	00060413          	mv	s0,a2
   1cfac:	00c52583          	lw	a1,12(a0)
   1cfb0:	00852683          	lw	a3,8(a0)
   1cfb4:	00452603          	lw	a2,4(a0)
   1cfb8:	00052503          	lw	a0,0(a0)
   1cfbc:	00112623          	sw	ra,12(sp)
   1cfc0:	ae1ff0ef          	jal	ra,1caa0 <matrix_test>
   1cfc4:	00040593          	mv	a1,s0
   1cfc8:	00812403          	lw	s0,8(sp)
   1cfcc:	00c12083          	lw	ra,12(sp)
   1cfd0:	01010113          	addi	sp,sp,16
   1cfd4:	0c90006f          	j	1d89c <crc16>

0001cfd8 <start_time>:
   1cfd8:	ff010113          	addi	sp,sp,-16
   1cfdc:	00112623          	sw	ra,12(sp)
   1cfe0:	0f9000ef          	jal	ra,1d8d8 <time>
   1cfe4:	00c12083          	lw	ra,12(sp)
   1cfe8:	000227b7          	lui	a5,0x22
   1cfec:	dca7a223          	sw	a0,-572(a5) # 21dc4 <start_time_val>
   1cff0:	01010113          	addi	sp,sp,16
   1cff4:	00008067          	ret

0001cff8 <stop_time>:
   1cff8:	ff010113          	addi	sp,sp,-16
   1cffc:	00112623          	sw	ra,12(sp)
   1d000:	0d9000ef          	jal	ra,1d8d8 <time>
   1d004:	00c12083          	lw	ra,12(sp)
   1d008:	000227b7          	lui	a5,0x22
   1d00c:	dca7a023          	sw	a0,-576(a5) # 21dc0 <stop_time_val>
   1d010:	01010113          	addi	sp,sp,16
   1d014:	00008067          	ret

0001d018 <get_time>:
   1d018:	000227b7          	lui	a5,0x22
   1d01c:	dc07a503          	lw	a0,-576(a5) # 21dc0 <stop_time_val>
   1d020:	000227b7          	lui	a5,0x22
   1d024:	dc47a783          	lw	a5,-572(a5) # 21dc4 <start_time_val>
   1d028:	40f50533          	sub	a0,a0,a5
   1d02c:	00008067          	ret

0001d030 <time_in_secs>:
   1d030:	000317b7          	lui	a5,0x31
   1d034:	d4078793          	addi	a5,a5,-704 # 30d40 <heap_memory_used+0xef68>
   1d038:	02f55533          	divu	a0,a0,a5
   1d03c:	00008067          	ret

0001d040 <portable_init>:
   1d040:	00100793          	li	a5,1
   1d044:	00f50023          	sb	a5,0(a0)
   1d048:	00008067          	ret

0001d04c <portable_fini>:
   1d04c:	00050023          	sb	zero,0(a0)
   1d050:	00008067          	ret

0001d054 <core_init_state>:
   1d054:	ff010113          	addi	sp,sp,-16
   1d058:	00812423          	sw	s0,8(sp)
   1d05c:	01212023          	sw	s2,0(sp)
   1d060:	00050413          	mv	s0,a0
   1d064:	00058913          	mv	s2,a1
   1d068:	00050593          	mv	a1,a0
   1d06c:	0001f537          	lui	a0,0x1f
   1d070:	00912223          	sw	s1,4(sp)
   1d074:	ad450513          	addi	a0,a0,-1324 # 1ead4 <errpat+0xb4c>
   1d078:	00060493          	mv	s1,a2
   1d07c:	00090613          	mv	a2,s2
   1d080:	00112623          	sw	ra,12(sp)
   1d084:	209000ef          	jal	ra,1da8c <printf>
   1d088:	00000e13          	li	t3,0
   1d08c:	00000313          	li	t1,0
   1d090:	00190693          	addi	a3,s2,1 # 1001 <coremarkBenchmark+0xf59>
   1d094:	01c30eb3          	add	t4,t1,t3
   1d098:	01069693          	slli	a3,a3,0x10
   1d09c:	0001e637          	lui	a2,0x1e
   1d0a0:	0001e5b7          	lui	a1,0x1e
   1d0a4:	fff40513          	addi	a0,s0,-1
   1d0a8:	001e8f13          	addi	t5,t4,1
   1d0ac:	0106d693          	srli	a3,a3,0x10
   1d0b0:	00000793          	li	a5,0
   1d0b4:	02c00893          	li	a7,44
   1d0b8:	00400813          	li	a6,4
   1d0bc:	f5860613          	addi	a2,a2,-168 # 1df58 <intpat>
   1d0c0:	f4458593          	addi	a1,a1,-188 # 1df44 <state_known_crc+0xc>
   1d0c4:	04af7e63          	bleu	a0,t5,1d120 <core_init_state+0xcc>
   1d0c8:	0a0e1063          	bnez	t3,1d168 <core_init_state+0x114>
   1d0cc:	0076f793          	andi	a5,a3,7
   1d0d0:	ffd78793          	addi	a5,a5,-3
   1d0d4:	01079793          	slli	a5,a5,0x10
   1d0d8:	0036d713          	srli	a4,a3,0x3
   1d0dc:	0107d793          	srli	a5,a5,0x10
   1d0e0:	00377713          	andi	a4,a4,3
   1d0e4:	0cf86463          	bltu	a6,a5,1d1ac <core_init_state+0x158>
   1d0e8:	00279793          	slli	a5,a5,0x2
   1d0ec:	00b787b3          	add	a5,a5,a1
   1d0f0:	0007a783          	lw	a5,0(a5)
   1d0f4:	00271713          	slli	a4,a4,0x2
   1d0f8:	00e60733          	add	a4,a2,a4
   1d0fc:	00078067          	jr	a5
   1d100:	01072783          	lw	a5,16(a4)
   1d104:	00800e13          	li	t3,8
   1d108:	00168693          	addi	a3,a3,1
   1d10c:	01c30eb3          	add	t4,t1,t3
   1d110:	01069693          	slli	a3,a3,0x10
   1d114:	001e8f13          	addi	t5,t4,1
   1d118:	0106d693          	srli	a3,a3,0x10
   1d11c:	faaf66e3          	bltu	t5,a0,1d0c8 <core_init_state+0x74>
   1d120:	00837c63          	bleu	s0,t1,1d138 <core_init_state+0xe4>
   1d124:	006487b3          	add	a5,s1,t1
   1d128:	00848433          	add	s0,s1,s0
   1d12c:	00078023          	sb	zero,0(a5)
   1d130:	00178793          	addi	a5,a5,1
   1d134:	fef41ce3          	bne	s0,a5,1d12c <core_init_state+0xd8>
   1d138:	00812403          	lw	s0,8(sp)
   1d13c:	00c12083          	lw	ra,12(sp)
   1d140:	00012903          	lw	s2,0(sp)
   1d144:	00048593          	mv	a1,s1
   1d148:	00412483          	lw	s1,4(sp)
   1d14c:	0001f537          	lui	a0,0x1f
   1d150:	ae450513          	addi	a0,a0,-1308 # 1eae4 <errpat+0xb5c>
   1d154:	01010113          	addi	sp,sp,16
   1d158:	1350006f          	j	1da8c <printf>
   1d15c:	02072783          	lw	a5,32(a4)
   1d160:	00800e13          	li	t3,8
   1d164:	fa5ff06f          	j	1d108 <core_init_state+0xb4>
   1d168:	00648733          	add	a4,s1,t1
   1d16c:	01c78e33          	add	t3,a5,t3
   1d170:	0007c303          	lbu	t1,0(a5)
   1d174:	00170713          	addi	a4,a4,1
   1d178:	00178793          	addi	a5,a5,1
   1d17c:	fe670fa3          	sb	t1,-1(a4)
   1d180:	fefe18e3          	bne	t3,a5,1d170 <core_init_state+0x11c>
   1d184:	0076f793          	andi	a5,a3,7
   1d188:	ffd78793          	addi	a5,a5,-3
   1d18c:	01d48eb3          	add	t4,s1,t4
   1d190:	01079793          	slli	a5,a5,0x10
   1d194:	0036d713          	srli	a4,a3,0x3
   1d198:	011e8023          	sb	a7,0(t4)
   1d19c:	0107d793          	srli	a5,a5,0x10
   1d1a0:	000f0313          	mv	t1,t5
   1d1a4:	00377713          	andi	a4,a4,3
   1d1a8:	f4f870e3          	bleu	a5,a6,1d0e8 <core_init_state+0x94>
   1d1ac:	00271713          	slli	a4,a4,0x2
   1d1b0:	00e60733          	add	a4,a2,a4
   1d1b4:	00072783          	lw	a5,0(a4)
   1d1b8:	00400e13          	li	t3,4
   1d1bc:	f4dff06f          	j	1d108 <core_init_state+0xb4>
   1d1c0:	03072783          	lw	a5,48(a4)
   1d1c4:	00800e13          	li	t3,8
   1d1c8:	f41ff06f          	j	1d108 <core_init_state+0xb4>

0001d1cc <core_state_transition>:
   1d1cc:	00052783          	lw	a5,0(a0)
   1d1d0:	0007c703          	lbu	a4,0(a5)
   1d1d4:	06070463          	beqz	a4,1d23c <core_state_transition+0x70>
   1d1d8:	02c00693          	li	a3,44
   1d1dc:	00178613          	addi	a2,a5,1
   1d1e0:	2ad70463          	beq	a4,a3,1d488 <core_state_transition+0x2bc>
   1d1e4:	0005a803          	lw	a6,0(a1)
   1d1e8:	fd070893          	addi	a7,a4,-48
   1d1ec:	0ff8f893          	andi	a7,a7,255
   1d1f0:	00900313          	li	t1,9
   1d1f4:	00180813          	addi	a6,a6,1
   1d1f8:	05136863          	bltu	t1,a7,1d248 <core_state_transition+0x7c>
   1d1fc:	0105a023          	sw	a6,0(a1)
   1d200:	0017c703          	lbu	a4,1(a5)
   1d204:	2c070463          	beqz	a4,1d4cc <core_state_transition+0x300>
   1d208:	00278793          	addi	a5,a5,2
   1d20c:	0cd70e63          	beq	a4,a3,1d2e8 <core_state_transition+0x11c>
   1d210:	02e00813          	li	a6,46
   1d214:	00900893          	li	a7,9
   1d218:	02c00313          	li	t1,44
   1d21c:	fd070693          	addi	a3,a4,-48
   1d220:	0ff6f693          	andi	a3,a3,255
   1d224:	0d070663          	beq	a4,a6,1d2f0 <core_state_transition+0x124>
   1d228:	20d8f463          	bleu	a3,a7,1d430 <core_state_transition+0x264>
   1d22c:	0105a683          	lw	a3,16(a1)
   1d230:	00100713          	li	a4,1
   1d234:	00168693          	addi	a3,a3,1
   1d238:	00d5a823          	sw	a3,16(a1)
   1d23c:	00f52023          	sw	a5,0(a0)
   1d240:	00070513          	mv	a0,a4
   1d244:	00008067          	ret
   1d248:	02b00893          	li	a7,43
   1d24c:	03170c63          	beq	a4,a7,1d284 <core_state_transition+0xb8>
   1d250:	02d00893          	li	a7,45
   1d254:	03170863          	beq	a4,a7,1d284 <core_state_transition+0xb8>
   1d258:	02e00893          	li	a7,46
   1d25c:	23170c63          	beq	a4,a7,1d494 <core_state_transition+0x2c8>
   1d260:	0045a703          	lw	a4,4(a1)
   1d264:	0105a023          	sw	a6,0(a1)
   1d268:	00060793          	mv	a5,a2
   1d26c:	00170713          	addi	a4,a4,1
   1d270:	00e5a223          	sw	a4,4(a1)
   1d274:	00100713          	li	a4,1
   1d278:	00f52023          	sw	a5,0(a0)
   1d27c:	00070513          	mv	a0,a4
   1d280:	00008067          	ret
   1d284:	0105a023          	sw	a6,0(a1)
   1d288:	0017c803          	lbu	a6,1(a5)
   1d28c:	22080463          	beqz	a6,1d4b4 <core_state_transition+0x2e8>
   1d290:	00278613          	addi	a2,a5,2
   1d294:	22d80063          	beq	a6,a3,1d4b4 <core_state_transition+0x2e8>
   1d298:	0085a683          	lw	a3,8(a1)
   1d29c:	fd080713          	addi	a4,a6,-48
   1d2a0:	0ff77713          	andi	a4,a4,255
   1d2a4:	00900893          	li	a7,9
   1d2a8:	00168693          	addi	a3,a3,1
   1d2ac:	02e8f263          	bleu	a4,a7,1d2d0 <core_state_transition+0x104>
   1d2b0:	02e00713          	li	a4,46
   1d2b4:	1ae80a63          	beq	a6,a4,1d468 <core_state_transition+0x29c>
   1d2b8:	00d5a423          	sw	a3,8(a1)
   1d2bc:	00060793          	mv	a5,a2
   1d2c0:	00100713          	li	a4,1
   1d2c4:	00f52023          	sw	a5,0(a0)
   1d2c8:	00070513          	mv	a0,a4
   1d2cc:	00008067          	ret
   1d2d0:	00d5a423          	sw	a3,8(a1)
   1d2d4:	0027c703          	lbu	a4,2(a5)
   1d2d8:	1e070a63          	beqz	a4,1d4cc <core_state_transition+0x300>
   1d2dc:	02c00693          	li	a3,44
   1d2e0:	00160793          	addi	a5,a2,1
   1d2e4:	f2d716e3          	bne	a4,a3,1d210 <core_state_transition+0x44>
   1d2e8:	00400713          	li	a4,4
   1d2ec:	f51ff06f          	j	1d23c <core_state_transition+0x70>
   1d2f0:	0105a703          	lw	a4,16(a1)
   1d2f4:	00170713          	addi	a4,a4,1
   1d2f8:	00e5a823          	sw	a4,16(a1)
   1d2fc:	00164703          	lbu	a4,1(a2)
   1d300:	1c070e63          	beqz	a4,1d4dc <core_state_transition+0x310>
   1d304:	02c00693          	li	a3,44
   1d308:	00178813          	addi	a6,a5,1
   1d30c:	18d70e63          	beq	a4,a3,1d4a8 <core_state_transition+0x2dc>
   1d310:	fd070693          	addi	a3,a4,-48
   1d314:	04500613          	li	a2,69
   1d318:	0df77713          	andi	a4,a4,223
   1d31c:	00900893          	li	a7,9
   1d320:	02c00313          	li	t1,44
   1d324:	0ff6f693          	andi	a3,a3,255
   1d328:	02c70863          	beq	a4,a2,1d358 <core_state_transition+0x18c>
   1d32c:	12d8e263          	bltu	a7,a3,1d450 <core_state_transition+0x284>
   1d330:	0017c703          	lbu	a4,1(a5)
   1d334:	00180693          	addi	a3,a6,1
   1d338:	00080793          	mv	a5,a6
   1d33c:	16070663          	beqz	a4,1d4a8 <core_state_transition+0x2dc>
   1d340:	1c670263          	beq	a4,t1,1d504 <core_state_transition+0x338>
   1d344:	00068813          	mv	a6,a3
   1d348:	fd070693          	addi	a3,a4,-48
   1d34c:	0df77713          	andi	a4,a4,223
   1d350:	0ff6f693          	andi	a3,a3,255
   1d354:	fcc71ce3          	bne	a4,a2,1d32c <core_state_transition+0x160>
   1d358:	0145a703          	lw	a4,20(a1)
   1d35c:	00170713          	addi	a4,a4,1
   1d360:	00e5aa23          	sw	a4,20(a1)
   1d364:	0017c703          	lbu	a4,1(a5)
   1d368:	14070c63          	beqz	a4,1d4c0 <core_state_transition+0x2f4>
   1d36c:	02c00613          	li	a2,44
   1d370:	00180793          	addi	a5,a6,1
   1d374:	14c70863          	beq	a4,a2,1d4c4 <core_state_transition+0x2f8>
   1d378:	00c5a683          	lw	a3,12(a1)
   1d37c:	fd570713          	addi	a4,a4,-43
   1d380:	0fd77713          	andi	a4,a4,253
   1d384:	00168693          	addi	a3,a3,1
   1d388:	00d5a623          	sw	a3,12(a1)
   1d38c:	00070a63          	beqz	a4,1d3a0 <core_state_transition+0x1d4>
   1d390:	00100713          	li	a4,1
   1d394:	00f52023          	sw	a5,0(a0)
   1d398:	00070513          	mv	a0,a4
   1d39c:	00008067          	ret
   1d3a0:	00184703          	lbu	a4,1(a6)
   1d3a4:	14070063          	beqz	a4,1d4e4 <core_state_transition+0x318>
   1d3a8:	00280693          	addi	a3,a6,2
   1d3ac:	14c70063          	beq	a4,a2,1d4ec <core_state_transition+0x320>
   1d3b0:	0185a783          	lw	a5,24(a1)
   1d3b4:	fd070713          	addi	a4,a4,-48
   1d3b8:	0ff77713          	andi	a4,a4,255
   1d3bc:	00178793          	addi	a5,a5,1
   1d3c0:	00900893          	li	a7,9
   1d3c4:	00f5ac23          	sw	a5,24(a1)
   1d3c8:	00e8f863          	bleu	a4,a7,1d3d8 <core_state_transition+0x20c>
   1d3cc:	00068793          	mv	a5,a3
   1d3d0:	00100713          	li	a4,1
   1d3d4:	fc1ff06f          	j	1d394 <core_state_transition+0x1c8>
   1d3d8:	00284703          	lbu	a4,2(a6)
   1d3dc:	10070e63          	beqz	a4,1d4f8 <core_state_transition+0x32c>
   1d3e0:	00380793          	addi	a5,a6,3
   1d3e4:	04c70263          	beq	a4,a2,1d428 <core_state_transition+0x25c>
   1d3e8:	00900613          	li	a2,9
   1d3ec:	02c00893          	li	a7,44
   1d3f0:	fd070713          	addi	a4,a4,-48
   1d3f4:	0ff77713          	andi	a4,a4,255
   1d3f8:	00e67c63          	bleu	a4,a2,1d410 <core_state_transition+0x244>
   1d3fc:	0045a683          	lw	a3,4(a1)
   1d400:	00100713          	li	a4,1
   1d404:	00168693          	addi	a3,a3,1
   1d408:	00d5a223          	sw	a3,4(a1)
   1d40c:	e31ff06f          	j	1d23c <core_state_transition+0x70>
   1d410:	0016c703          	lbu	a4,1(a3)
   1d414:	00178813          	addi	a6,a5,1
   1d418:	00078693          	mv	a3,a5
   1d41c:	00070663          	beqz	a4,1d428 <core_state_transition+0x25c>
   1d420:	00080793          	mv	a5,a6
   1d424:	fd1716e3          	bne	a4,a7,1d3f0 <core_state_transition+0x224>
   1d428:	00700713          	li	a4,7
   1d42c:	e11ff06f          	j	1d23c <core_state_transition+0x70>
   1d430:	00164703          	lbu	a4,1(a2)
   1d434:	00178693          	addi	a3,a5,1
   1d438:	00078613          	mv	a2,a5
   1d43c:	ea0706e3          	beqz	a4,1d2e8 <core_state_transition+0x11c>
   1d440:	00068793          	mv	a5,a3
   1d444:	dc671ce3          	bne	a4,t1,1d21c <core_state_transition+0x50>
   1d448:	00400713          	li	a4,4
   1d44c:	df1ff06f          	j	1d23c <core_state_transition+0x70>
   1d450:	0145a683          	lw	a3,20(a1)
   1d454:	00080793          	mv	a5,a6
   1d458:	00100713          	li	a4,1
   1d45c:	00168693          	addi	a3,a3,1
   1d460:	00d5aa23          	sw	a3,20(a1)
   1d464:	dd9ff06f          	j	1d23c <core_state_transition+0x70>
   1d468:	00d5a423          	sw	a3,8(a1)
   1d46c:	0027c703          	lbu	a4,2(a5)
   1d470:	06070463          	beqz	a4,1d4d8 <core_state_transition+0x30c>
   1d474:	02c00793          	li	a5,44
   1d478:	00160813          	addi	a6,a2,1
   1d47c:	02f70663          	beq	a4,a5,1d4a8 <core_state_transition+0x2dc>
   1d480:	00060793          	mv	a5,a2
   1d484:	e8dff06f          	j	1d310 <core_state_transition+0x144>
   1d488:	00060793          	mv	a5,a2
   1d48c:	00000713          	li	a4,0
   1d490:	dadff06f          	j	1d23c <core_state_transition+0x70>
   1d494:	0105a023          	sw	a6,0(a1)
   1d498:	0017c703          	lbu	a4,1(a5)
   1d49c:	02070e63          	beqz	a4,1d4d8 <core_state_transition+0x30c>
   1d4a0:	00278813          	addi	a6,a5,2
   1d4a4:	fcd71ee3          	bne	a4,a3,1d480 <core_state_transition+0x2b4>
   1d4a8:	00080793          	mv	a5,a6
   1d4ac:	00500713          	li	a4,5
   1d4b0:	d8dff06f          	j	1d23c <core_state_transition+0x70>
   1d4b4:	00060793          	mv	a5,a2
   1d4b8:	00200713          	li	a4,2
   1d4bc:	d81ff06f          	j	1d23c <core_state_transition+0x70>
   1d4c0:	00080793          	mv	a5,a6
   1d4c4:	00300713          	li	a4,3
   1d4c8:	d75ff06f          	j	1d23c <core_state_transition+0x70>
   1d4cc:	00060793          	mv	a5,a2
   1d4d0:	00400713          	li	a4,4
   1d4d4:	d69ff06f          	j	1d23c <core_state_transition+0x70>
   1d4d8:	00060793          	mv	a5,a2
   1d4dc:	00500713          	li	a4,5
   1d4e0:	d5dff06f          	j	1d23c <core_state_transition+0x70>
   1d4e4:	00600713          	li	a4,6
   1d4e8:	d55ff06f          	j	1d23c <core_state_transition+0x70>
   1d4ec:	00068793          	mv	a5,a3
   1d4f0:	00600713          	li	a4,6
   1d4f4:	d49ff06f          	j	1d23c <core_state_transition+0x70>
   1d4f8:	00068793          	mv	a5,a3
   1d4fc:	00700713          	li	a4,7
   1d500:	d3dff06f          	j	1d23c <core_state_transition+0x70>
   1d504:	00068793          	mv	a5,a3
   1d508:	00500713          	li	a4,5
   1d50c:	d31ff06f          	j	1d23c <core_state_transition+0x70>

0001d510 <core_bench_state>:
   1d510:	f8010113          	addi	sp,sp,-128
   1d514:	07412423          	sw	s4,104(sp)
   1d518:	07612023          	sw	s6,96(sp)
   1d51c:	05812c23          	sw	s8,88(sp)
   1d520:	05a12823          	sw	s10,80(sp)
   1d524:	00060c13          	mv	s8,a2
   1d528:	00068b13          	mv	s6,a3
   1d52c:	00070a13          	mv	s4,a4
   1d530:	00050d13          	mv	s10,a0
   1d534:	0001f537          	lui	a0,0x1f
   1d538:	00078713          	mv	a4,a5
   1d53c:	06812c23          	sw	s0,120(sp)
   1d540:	000a0693          	mv	a3,s4
   1d544:	00058413          	mv	s0,a1
   1d548:	000b0613          	mv	a2,s6
   1d54c:	000c0593          	mv	a1,s8
   1d550:	af850513          	addi	a0,a0,-1288 # 1eaf8 <errpat+0xb70>
   1d554:	06912a23          	sw	s1,116(sp)
   1d558:	07212823          	sw	s2,112(sp)
   1d55c:	07312623          	sw	s3,108(sp)
   1d560:	06112e23          	sw	ra,124(sp)
   1d564:	00078993          	mv	s3,a5
   1d568:	07512223          	sw	s5,100(sp)
   1d56c:	05712e23          	sw	s7,92(sp)
   1d570:	05912a23          	sw	s9,84(sp)
   1d574:	01010493          	addi	s1,sp,16
   1d578:	00812623          	sw	s0,12(sp)
   1d57c:	510000ef          	jal	ra,1da8c <printf>
   1d580:	03010913          	addi	s2,sp,48
   1d584:	05010693          	addi	a3,sp,80
   1d588:	00048713          	mv	a4,s1
   1d58c:	03010793          	addi	a5,sp,48
   1d590:	0007a023          	sw	zero,0(a5)
   1d594:	00072023          	sw	zero,0(a4)
   1d598:	00478793          	addi	a5,a5,4
   1d59c:	00470713          	addi	a4,a4,4
   1d5a0:	fed798e3          	bne	a5,a3,1d590 <core_bench_state+0x80>
   1d5a4:	00c12783          	lw	a5,12(sp)
   1d5a8:	0007c783          	lbu	a5,0(a5)
   1d5ac:	04078463          	beqz	a5,1d5f4 <core_bench_state+0xe4>
   1d5b0:	00c10c93          	addi	s9,sp,12
   1d5b4:	0001fab7          	lui	s5,0x1f
   1d5b8:	03010593          	addi	a1,sp,48
   1d5bc:	000c8513          	mv	a0,s9
   1d5c0:	c0dff0ef          	jal	ra,1d1cc <core_state_transition>
   1d5c4:	00251793          	slli	a5,a0,0x2
   1d5c8:	05010713          	addi	a4,sp,80
   1d5cc:	00f707b3          	add	a5,a4,a5
   1d5d0:	fc07a703          	lw	a4,-64(a5)
   1d5d4:	00050593          	mv	a1,a0
   1d5d8:	b14a8513          	addi	a0,s5,-1260 # 1eb14 <errpat+0xb8c>
   1d5dc:	00170713          	addi	a4,a4,1
   1d5e0:	fce7a023          	sw	a4,-64(a5)
   1d5e4:	4a8000ef          	jal	ra,1da8c <printf>
   1d5e8:	00c12783          	lw	a5,12(sp)
   1d5ec:	0007c783          	lbu	a5,0(a5)
   1d5f0:	fc0794e3          	bnez	a5,1d5b8 <core_bench_state+0xa8>
   1d5f4:	0001fbb7          	lui	s7,0x1f
   1d5f8:	818b8513          	addi	a0,s7,-2024 # 1e818 <errpat+0x890>
   1d5fc:	490000ef          	jal	ra,1da8c <printf>
   1d600:	01a40d33          	add	s10,s0,s10
   1d604:	00812623          	sw	s0,12(sp)
   1d608:	11a47a63          	bleu	s10,s0,1d71c <core_bench_state+0x20c>
   1d60c:	00040793          	mv	a5,s0
   1d610:	02c00613          	li	a2,44
   1d614:	0007c703          	lbu	a4,0(a5)
   1d618:	018746b3          	xor	a3,a4,s8
   1d61c:	00c70463          	beq	a4,a2,1d624 <core_bench_state+0x114>
   1d620:	00d78023          	sb	a3,0(a5)
   1d624:	00c12783          	lw	a5,12(sp)
   1d628:	014787b3          	add	a5,a5,s4
   1d62c:	00f12623          	sw	a5,12(sp)
   1d630:	ffa7e2e3          	bltu	a5,s10,1d614 <core_bench_state+0x104>
   1d634:	00044783          	lbu	a5,0(s0)
   1d638:	00812623          	sw	s0,12(sp)
   1d63c:	0e078c63          	beqz	a5,1d734 <core_bench_state+0x224>
   1d640:	00c10c93          	addi	s9,sp,12
   1d644:	0001fab7          	lui	s5,0x1f
   1d648:	03010593          	addi	a1,sp,48
   1d64c:	000c8513          	mv	a0,s9
   1d650:	b7dff0ef          	jal	ra,1d1cc <core_state_transition>
   1d654:	00251793          	slli	a5,a0,0x2
   1d658:	05010713          	addi	a4,sp,80
   1d65c:	00f707b3          	add	a5,a4,a5
   1d660:	fc07a703          	lw	a4,-64(a5)
   1d664:	00050593          	mv	a1,a0
   1d668:	b14a8513          	addi	a0,s5,-1260 # 1eb14 <errpat+0xb8c>
   1d66c:	00170713          	addi	a4,a4,1
   1d670:	fce7a023          	sw	a4,-64(a5)
   1d674:	418000ef          	jal	ra,1da8c <printf>
   1d678:	00c12783          	lw	a5,12(sp)
   1d67c:	0007c783          	lbu	a5,0(a5)
   1d680:	fc0794e3          	bnez	a5,1d648 <core_bench_state+0x138>
   1d684:	818b8513          	addi	a0,s7,-2024
   1d688:	404000ef          	jal	ra,1da8c <printf>
   1d68c:	00812623          	sw	s0,12(sp)
   1d690:	03a47463          	bleu	s10,s0,1d6b8 <core_bench_state+0x1a8>
   1d694:	02c00693          	li	a3,44
   1d698:	00044783          	lbu	a5,0(s0)
   1d69c:	0167c733          	xor	a4,a5,s6
   1d6a0:	00d78463          	beq	a5,a3,1d6a8 <core_bench_state+0x198>
   1d6a4:	00e40023          	sb	a4,0(s0)
   1d6a8:	00c12403          	lw	s0,12(sp)
   1d6ac:	01440433          	add	s0,s0,s4
   1d6b0:	00812623          	sw	s0,12(sp)
   1d6b4:	ffa462e3          	bltu	s0,s10,1d698 <core_bench_state+0x188>
   1d6b8:	02048413          	addi	s0,s1,32
   1d6bc:	0004a503          	lw	a0,0(s1)
   1d6c0:	00098593          	mv	a1,s3
   1d6c4:	00448493          	addi	s1,s1,4
   1d6c8:	1a0000ef          	jal	ra,1d868 <crcu32>
   1d6cc:	00050593          	mv	a1,a0
   1d6d0:	00092503          	lw	a0,0(s2)
   1d6d4:	00490913          	addi	s2,s2,4
   1d6d8:	190000ef          	jal	ra,1d868 <crcu32>
   1d6dc:	00050993          	mv	s3,a0
   1d6e0:	fc849ee3          	bne	s1,s0,1d6bc <core_bench_state+0x1ac>
   1d6e4:	07c12083          	lw	ra,124(sp)
   1d6e8:	07812403          	lw	s0,120(sp)
   1d6ec:	07412483          	lw	s1,116(sp)
   1d6f0:	07012903          	lw	s2,112(sp)
   1d6f4:	06c12983          	lw	s3,108(sp)
   1d6f8:	06812a03          	lw	s4,104(sp)
   1d6fc:	06412a83          	lw	s5,100(sp)
   1d700:	06012b03          	lw	s6,96(sp)
   1d704:	05c12b83          	lw	s7,92(sp)
   1d708:	05812c03          	lw	s8,88(sp)
   1d70c:	05412c83          	lw	s9,84(sp)
   1d710:	05012d03          	lw	s10,80(sp)
   1d714:	08010113          	addi	sp,sp,128
   1d718:	00008067          	ret
   1d71c:	00044783          	lbu	a5,0(s0)
   1d720:	f20790e3          	bnez	a5,1d640 <core_bench_state+0x130>
   1d724:	818b8513          	addi	a0,s7,-2024
   1d728:	364000ef          	jal	ra,1da8c <printf>
   1d72c:	00812623          	sw	s0,12(sp)
   1d730:	f89ff06f          	j	1d6b8 <core_bench_state+0x1a8>
   1d734:	818b8513          	addi	a0,s7,-2024
   1d738:	354000ef          	jal	ra,1da8c <printf>
   1d73c:	00812623          	sw	s0,12(sp)
   1d740:	f55ff06f          	j	1d694 <core_bench_state+0x184>

0001d744 <get_seed_32>:
   1d744:	00500793          	li	a5,5
   1d748:	04a7ec63          	bltu	a5,a0,1d7a0 <get_seed_32+0x5c>
   1d74c:	0001e7b7          	lui	a5,0x1e
   1d750:	f9878793          	addi	a5,a5,-104 # 1df98 <errpat+0x10>
   1d754:	00251513          	slli	a0,a0,0x2
   1d758:	00f50533          	add	a0,a0,a5
   1d75c:	00052783          	lw	a5,0(a0)
   1d760:	00078067          	jr	a5
   1d764:	000227b7          	lui	a5,0x22
   1d768:	dc87a503          	lw	a0,-568(a5) # 21dc8 <seed5_volatile>
   1d76c:	00008067          	ret
   1d770:	000227b7          	lui	a5,0x22
   1d774:	dd47a503          	lw	a0,-556(a5) # 21dd4 <seed1_volatile>
   1d778:	00008067          	ret
   1d77c:	000227b7          	lui	a5,0x22
   1d780:	dd07a503          	lw	a0,-560(a5) # 21dd0 <seed2_volatile>
   1d784:	00008067          	ret
   1d788:	0001f7b7          	lui	a5,0x1f
   1d78c:	1607a503          	lw	a0,352(a5) # 1f160 <seed3_volatile>
   1d790:	00008067          	ret
   1d794:	000227b7          	lui	a5,0x22
   1d798:	dcc7a503          	lw	a0,-564(a5) # 21dcc <seed4_volatile>
   1d79c:	00008067          	ret
   1d7a0:	00000513          	li	a0,0
   1d7a4:	00008067          	ret

0001d7a8 <crcu8>:
   1d7a8:	ffffa637          	lui	a2,0xffffa
   1d7ac:	00800793          	li	a5,8
   1d7b0:	00160613          	addi	a2,a2,1 # ffffa001 <heap_memory_used+0xfffd8229>
   1d7b4:	00a5c733          	xor	a4,a1,a0
   1d7b8:	fff78793          	addi	a5,a5,-1
   1d7bc:	0015d593          	srli	a1,a1,0x1
   1d7c0:	00177713          	andi	a4,a4,1
   1d7c4:	0ff7f793          	andi	a5,a5,255
   1d7c8:	00c5c6b3          	xor	a3,a1,a2
   1d7cc:	00155513          	srli	a0,a0,0x1
   1d7d0:	00070663          	beqz	a4,1d7dc <crcu8+0x34>
   1d7d4:	01069593          	slli	a1,a3,0x10
   1d7d8:	0105d593          	srli	a1,a1,0x10
   1d7dc:	fc079ce3          	bnez	a5,1d7b4 <crcu8+0xc>
   1d7e0:	00058513          	mv	a0,a1
   1d7e4:	00008067          	ret

0001d7e8 <crcu16>:
   1d7e8:	ffffa837          	lui	a6,0xffffa
   1d7ec:	0ff57693          	andi	a3,a0,255
   1d7f0:	00800793          	li	a5,8
   1d7f4:	00180813          	addi	a6,a6,1 # ffffa001 <heap_memory_used+0xfffd8229>
   1d7f8:	00d5c733          	xor	a4,a1,a3
   1d7fc:	fff78793          	addi	a5,a5,-1
   1d800:	0015d593          	srli	a1,a1,0x1
   1d804:	00177713          	andi	a4,a4,1
   1d808:	0ff7f793          	andi	a5,a5,255
   1d80c:	0105c633          	xor	a2,a1,a6
   1d810:	0016d693          	srli	a3,a3,0x1
   1d814:	00070663          	beqz	a4,1d820 <crcu16+0x38>
   1d818:	01061593          	slli	a1,a2,0x10
   1d81c:	0105d593          	srli	a1,a1,0x10
   1d820:	fc079ce3          	bnez	a5,1d7f8 <crcu16+0x10>
   1d824:	ffffa637          	lui	a2,0xffffa
   1d828:	00855513          	srli	a0,a0,0x8
   1d82c:	00800793          	li	a5,8
   1d830:	00160613          	addi	a2,a2,1 # ffffa001 <heap_memory_used+0xfffd8229>
   1d834:	00a5c733          	xor	a4,a1,a0
   1d838:	fff78793          	addi	a5,a5,-1
   1d83c:	0015d593          	srli	a1,a1,0x1
   1d840:	00177713          	andi	a4,a4,1
   1d844:	0ff7f793          	andi	a5,a5,255
   1d848:	00c5c6b3          	xor	a3,a1,a2
   1d84c:	00155513          	srli	a0,a0,0x1
   1d850:	00070663          	beqz	a4,1d85c <crcu16+0x74>
   1d854:	01069593          	slli	a1,a3,0x10
   1d858:	0105d593          	srli	a1,a1,0x10
   1d85c:	fc079ce3          	bnez	a5,1d834 <crcu16+0x4c>
   1d860:	00058513          	mv	a0,a1
   1d864:	00008067          	ret

0001d868 <crcu32>:
   1d868:	ff010113          	addi	sp,sp,-16
   1d86c:	00812423          	sw	s0,8(sp)
   1d870:	00050413          	mv	s0,a0
   1d874:	01051513          	slli	a0,a0,0x10
   1d878:	01055513          	srli	a0,a0,0x10
   1d87c:	00112623          	sw	ra,12(sp)
   1d880:	f69ff0ef          	jal	ra,1d7e8 <crcu16>
   1d884:	00050593          	mv	a1,a0
   1d888:	01045513          	srli	a0,s0,0x10
   1d88c:	00812403          	lw	s0,8(sp)
   1d890:	00c12083          	lw	ra,12(sp)
   1d894:	01010113          	addi	sp,sp,16
   1d898:	f51ff06f          	j	1d7e8 <crcu16>

0001d89c <crc16>:
   1d89c:	01051513          	slli	a0,a0,0x10
   1d8a0:	01055513          	srli	a0,a0,0x10
   1d8a4:	f45ff06f          	j	1d7e8 <crcu16>

0001d8a8 <check_data_types>:
   1d8a8:	00000513          	li	a0,0
   1d8ac:	00008067          	ret

0001d8b0 <risvISATestStartMsg>:
   1d8b0:	0001f537          	lui	a0,0x1f
   1d8b4:	bc850513          	addi	a0,a0,-1080 # 1ebc8 <errpat+0xc40>
   1d8b8:	1d40006f          	j	1da8c <printf>

0001d8bc <risvDhrystoneStartMsg>:
   1d8bc:	0001f537          	lui	a0,0x1f
   1d8c0:	c1850513          	addi	a0,a0,-1000 # 1ec18 <errpat+0xc90>
   1d8c4:	1c80006f          	j	1da8c <printf>

0001d8c8 <risvCoremarkStartMsg>:
   1d8c8:	0001f537          	lui	a0,0x1f
   1d8cc:	c6850513          	addi	a0,a0,-920 # 1ec68 <errpat+0xce0>
   1d8d0:	1bc0006f          	j	1da8c <printf>

0001d8d4 <init>:
   1d8d4:	fb0e206f          	j	84 <isaTest>

0001d8d8 <time>:
   1d8d8:	c0002573          	rdcycle	a0
   1d8dc:	00008067          	ret

0001d8e0 <insn>:
   1d8e0:	c0202573          	rdinstret	a0
   1d8e4:	00008067          	ret

0001d8e8 <enableIntr>:
   1d8e8:	300467f3          	csrrsi	a5,mstatus,8
   1d8ec:	00008067          	ret

0001d8f0 <enableExternalIntr>:
   1d8f0:	000017b7          	lui	a5,0x1
   1d8f4:	80078793          	addi	a5,a5,-2048 # 800 <coremarkBenchmark+0x758>
   1d8f8:	3047a7f3          	csrrs	a5,mie,a5
   1d8fc:	300467f3          	csrrsi	a5,mstatus,8
   1d900:	00008067          	ret

0001d904 <enableTimerIntr>:
   1d904:	08000793          	li	a5,128
   1d908:	3047a7f3          	csrrs	a5,mie,a5
   1d90c:	300467f3          	csrrsi	a5,mstatus,8
   1d910:	00008067          	ret

0001d914 <disableIntr>:
   1d914:	300477f3          	csrrci	a5,mstatus,8
   1d918:	00008067          	ret

0001d91c <disableExternalIntr>:
   1d91c:	000017b7          	lui	a5,0x1
   1d920:	80078793          	addi	a5,a5,-2048 # 800 <coremarkBenchmark+0x758>
   1d924:	3047b7f3          	csrrc	a5,mie,a5
   1d928:	00008067          	ret

0001d92c <disableTimerIntr>:
   1d92c:	08000793          	li	a5,128
   1d930:	3047b7f3          	csrrc	a5,mie,a5
   1d934:	00008067          	ret

0001d938 <readMtime>:
   1d938:	100007b7          	lui	a5,0x10000
   1d93c:	0047a503          	lw	a0,4(a5) # 10000004 <heap_memory_used+0xffde22c>
   1d940:	00008067          	ret

0001d944 <readMtimeCmp>:
   1d944:	100007b7          	lui	a5,0x10000
   1d948:	00c7a503          	lw	a0,12(a5) # 1000000c <heap_memory_used+0xffde234>
   1d94c:	00008067          	ret

0001d950 <writeMtimeCmp>:
   1d950:	100007b7          	lui	a5,0x10000
   1d954:	00a7a623          	sw	a0,12(a5) # 1000000c <heap_memory_used+0xffde234>
   1d958:	00008067          	ret

0001d95c <malloc>:
   1d95c:	000226b7          	lui	a3,0x22
   1d960:	dd86a783          	lw	a5,-552(a3) # 21dd8 <heap_memory_used>
   1d964:	00a78733          	add	a4,a5,a0
   1d968:	00022537          	lui	a0,0x22
   1d96c:	dce6ac23          	sw	a4,-552(a3)
   1d970:	9bc50513          	addi	a0,a0,-1604 # 219bc <heap_memory>
   1d974:	40000693          	li	a3,1024
   1d978:	00a78533          	add	a0,a5,a0
   1d97c:	00e6d463          	ble	a4,a3,1d984 <malloc+0x28>
   1d980:	00100073          	ebreak
   1d984:	00008067          	ret

0001d988 <printf_c>:
   1d988:	e0001737          	lui	a4,0xe0001
   1d98c:	02c72783          	lw	a5,44(a4) # e000102c <heap_memory_used+0xdffdf254>
   1d990:	0107f793          	andi	a5,a5,16
   1d994:	fe079ce3          	bnez	a5,1d98c <printf_c+0x4>
   1d998:	02a72823          	sw	a0,48(a4)
   1d99c:	00008067          	ret

0001d9a0 <printf_s>:
   1d9a0:	00054683          	lbu	a3,0(a0)
   1d9a4:	02068263          	beqz	a3,1d9c8 <printf_s+0x28>
   1d9a8:	e0001737          	lui	a4,0xe0001
   1d9ac:	00150513          	addi	a0,a0,1
   1d9b0:	02c72783          	lw	a5,44(a4) # e000102c <heap_memory_used+0xdffdf254>
   1d9b4:	0107f793          	andi	a5,a5,16
   1d9b8:	fe079ce3          	bnez	a5,1d9b0 <printf_s+0x10>
   1d9bc:	02d72823          	sw	a3,48(a4)
   1d9c0:	00054683          	lbu	a3,0(a0)
   1d9c4:	fe0694e3          	bnez	a3,1d9ac <printf_s+0xc>
   1d9c8:	00008067          	ret

0001d9cc <printf_d>:
   1d9cc:	fe010113          	addi	sp,sp,-32
   1d9d0:	04054c63          	bltz	a0,1da28 <printf_d+0x5c>
   1d9d4:	00010613          	mv	a2,sp
   1d9d8:	00060713          	mv	a4,a2
   1d9dc:	00a00693          	li	a3,10
   1d9e0:	00051463          	bnez	a0,1d9e8 <printf_d+0x1c>
   1d9e4:	00c71e63          	bne	a4,a2,1da00 <printf_d+0x34>
   1d9e8:	02d567b3          	rem	a5,a0,a3
   1d9ec:	00170713          	addi	a4,a4,1
   1d9f0:	03078793          	addi	a5,a5,48
   1d9f4:	02d54533          	div	a0,a0,a3
   1d9f8:	fef70fa3          	sb	a5,-1(a4)
   1d9fc:	fe5ff06f          	j	1d9e0 <printf_d+0x14>
   1da00:	e00016b7          	lui	a3,0xe0001
   1da04:	fff70713          	addi	a4,a4,-1
   1da08:	00074583          	lbu	a1,0(a4)
   1da0c:	02c6a783          	lw	a5,44(a3) # e000102c <heap_memory_used+0xdffdf254>
   1da10:	0107f793          	andi	a5,a5,16
   1da14:	fe079ce3          	bnez	a5,1da0c <printf_d+0x40>
   1da18:	02b6a823          	sw	a1,48(a3)
   1da1c:	fec714e3          	bne	a4,a2,1da04 <printf_d+0x38>
   1da20:	02010113          	addi	sp,sp,32
   1da24:	00008067          	ret
   1da28:	e0001737          	lui	a4,0xe0001
   1da2c:	02c72783          	lw	a5,44(a4) # e000102c <heap_memory_used+0xdffdf254>
   1da30:	0107f793          	andi	a5,a5,16
   1da34:	fe079ce3          	bnez	a5,1da2c <printf_d+0x60>
   1da38:	02d00793          	li	a5,45
   1da3c:	02f72823          	sw	a5,48(a4)
   1da40:	40a00533          	neg	a0,a0
   1da44:	f91ff06f          	j	1d9d4 <printf_d+0x8>

0001da48 <printf_h>:
   1da48:	fff58593          	addi	a1,a1,-1
   1da4c:	00259593          	slli	a1,a1,0x2
   1da50:	0205cc63          	bltz	a1,1da88 <printf_h+0x40>
   1da54:	0001f637          	lui	a2,0x1f
   1da58:	cb860613          	addi	a2,a2,-840 # 1ecb8 <errpat+0xd30>
   1da5c:	e0001737          	lui	a4,0xe0001
   1da60:	00b557b3          	srl	a5,a0,a1
   1da64:	00f7f793          	andi	a5,a5,15
   1da68:	00f607b3          	add	a5,a2,a5
   1da6c:	0007c683          	lbu	a3,0(a5)
   1da70:	02c72783          	lw	a5,44(a4) # e000102c <heap_memory_used+0xdffdf254>
   1da74:	0107f793          	andi	a5,a5,16
   1da78:	fe079ce3          	bnez	a5,1da70 <printf_h+0x28>
   1da7c:	02d72823          	sw	a3,48(a4)
   1da80:	ffc58593          	addi	a1,a1,-4
   1da84:	fc05dee3          	bgez	a1,1da60 <printf_h+0x18>
   1da88:	00008067          	ret

0001da8c <printf>:
   1da8c:	fb010113          	addi	sp,sp,-80
   1da90:	02112623          	sw	ra,44(sp)
   1da94:	02812423          	sw	s0,40(sp)
   1da98:	02912223          	sw	s1,36(sp)
   1da9c:	03212023          	sw	s2,32(sp)
   1daa0:	01312e23          	sw	s3,28(sp)
   1daa4:	01412c23          	sw	s4,24(sp)
   1daa8:	01512a23          	sw	s5,20(sp)
   1daac:	00054303          	lbu	t1,0(a0)
   1dab0:	04f12223          	sw	a5,68(sp)
   1dab4:	03410793          	addi	a5,sp,52
   1dab8:	02b12a23          	sw	a1,52(sp)
   1dabc:	02c12c23          	sw	a2,56(sp)
   1dac0:	02d12e23          	sw	a3,60(sp)
   1dac4:	04e12023          	sw	a4,64(sp)
   1dac8:	05012423          	sw	a6,72(sp)
   1dacc:	05112623          	sw	a7,76(sp)
   1dad0:	00f12623          	sw	a5,12(sp)
   1dad4:	04030663          	beqz	t1,1db20 <printf+0x94>
   1dad8:	0001fab7          	lui	s5,0x1f
   1dadc:	00050a13          	mv	s4,a0
   1dae0:	00000413          	li	s0,0
   1dae4:	06300493          	li	s1,99
   1dae8:	07300913          	li	s2,115
   1daec:	06400993          	li	s3,100
   1daf0:	cb8a8a93          	addi	s5,s5,-840 # 1ecb8 <errpat+0xd30>
   1daf4:	02500793          	li	a5,37
   1daf8:	e0001737          	lui	a4,0xe0001
   1dafc:	04f30463          	beq	t1,a5,1db44 <printf+0xb8>
   1db00:	02c72783          	lw	a5,44(a4) # e000102c <heap_memory_used+0xdffdf254>
   1db04:	0107f793          	andi	a5,a5,16
   1db08:	fe079ce3          	bnez	a5,1db00 <printf+0x74>
   1db0c:	02672823          	sw	t1,48(a4)
   1db10:	00140413          	addi	s0,s0,1
   1db14:	008a07b3          	add	a5,s4,s0
   1db18:	0007c303          	lbu	t1,0(a5)
   1db1c:	fc031ce3          	bnez	t1,1daf4 <printf+0x68>
   1db20:	02c12083          	lw	ra,44(sp)
   1db24:	02812403          	lw	s0,40(sp)
   1db28:	02412483          	lw	s1,36(sp)
   1db2c:	02012903          	lw	s2,32(sp)
   1db30:	01c12983          	lw	s3,28(sp)
   1db34:	01812a03          	lw	s4,24(sp)
   1db38:	01412a83          	lw	s5,20(sp)
   1db3c:	05010113          	addi	sp,sp,80
   1db40:	00008067          	ret
   1db44:	00140713          	addi	a4,s0,1
   1db48:	00ea06b3          	add	a3,s4,a4
   1db4c:	00040813          	mv	a6,s0
   1db50:	07500613          	li	a2,117
   1db54:	06c00593          	li	a1,108
   1db58:	03000893          	li	a7,48
   1db5c:	0200006f          	j	1db7c <printf+0xf0>
   1db60:	07278863          	beq	a5,s2,1dbd0 <printf+0x144>
   1db64:	05378a63          	beq	a5,s3,1dbb8 <printf+0x12c>
   1db68:	04c78863          	beq	a5,a2,1dbb8 <printf+0x12c>
   1db6c:	0ab78063          	beq	a5,a1,1dc0c <printf+0x180>
   1db70:	0d178063          	beq	a5,a7,1dc30 <printf+0x1a4>
   1db74:	00070813          	mv	a6,a4
   1db78:	00170713          	addi	a4,a4,1
   1db7c:	0006c783          	lbu	a5,0(a3)
   1db80:	00070413          	mv	s0,a4
   1db84:	00168693          	addi	a3,a3,1
   1db88:	f80784e3          	beqz	a5,1db10 <printf+0x84>
   1db8c:	fc979ae3          	bne	a5,s1,1db60 <printf+0xd4>
   1db90:	00c12783          	lw	a5,12(sp)
   1db94:	e0001737          	lui	a4,0xe0001
   1db98:	0007a683          	lw	a3,0(a5)
   1db9c:	00478793          	addi	a5,a5,4
   1dba0:	00f12623          	sw	a5,12(sp)
   1dba4:	02c72783          	lw	a5,44(a4) # e000102c <heap_memory_used+0xdffdf254>
   1dba8:	0107f793          	andi	a5,a5,16
   1dbac:	fe079ce3          	bnez	a5,1dba4 <printf+0x118>
   1dbb0:	02d72823          	sw	a3,48(a4)
   1dbb4:	f5dff06f          	j	1db10 <printf+0x84>
   1dbb8:	00c12783          	lw	a5,12(sp)
   1dbbc:	0007a503          	lw	a0,0(a5)
   1dbc0:	00478793          	addi	a5,a5,4
   1dbc4:	00f12623          	sw	a5,12(sp)
   1dbc8:	e05ff0ef          	jal	ra,1d9cc <printf_d>
   1dbcc:	f45ff06f          	j	1db10 <printf+0x84>
   1dbd0:	00c12783          	lw	a5,12(sp)
   1dbd4:	0007a683          	lw	a3,0(a5)
   1dbd8:	00478793          	addi	a5,a5,4
   1dbdc:	00f12623          	sw	a5,12(sp)
   1dbe0:	0006c603          	lbu	a2,0(a3)
   1dbe4:	f20606e3          	beqz	a2,1db10 <printf+0x84>
   1dbe8:	e0001737          	lui	a4,0xe0001
   1dbec:	00168693          	addi	a3,a3,1
   1dbf0:	02c72783          	lw	a5,44(a4) # e000102c <heap_memory_used+0xdffdf254>
   1dbf4:	0107f793          	andi	a5,a5,16
   1dbf8:	fe079ce3          	bnez	a5,1dbf0 <printf+0x164>
   1dbfc:	02c72823          	sw	a2,48(a4)
   1dc00:	0006c603          	lbu	a2,0(a3)
   1dc04:	fe0614e3          	bnez	a2,1dbec <printf+0x160>
   1dc08:	f09ff06f          	j	1db10 <printf+0x84>
   1dc0c:	008a07b3          	add	a5,s4,s0
   1dc10:	00c12703          	lw	a4,12(sp)
   1dc14:	0017c683          	lbu	a3,1(a5)
   1dc18:	00072503          	lw	a0,0(a4)
   1dc1c:	00470793          	addi	a5,a4,4
   1dc20:	06c68463          	beq	a3,a2,1dc88 <printf+0x1fc>
   1dc24:	00f12623          	sw	a5,12(sp)
   1dc28:	da5ff0ef          	jal	ra,1d9cc <printf_d>
   1dc2c:	ee5ff06f          	j	1db10 <printf+0x84>
   1dc30:	00ea0733          	add	a4,s4,a4
   1dc34:	00c12783          	lw	a5,12(sp)
   1dc38:	00174683          	lbu	a3,1(a4)
   1dc3c:	00478713          	addi	a4,a5,4
   1dc40:	fcf68693          	addi	a3,a3,-49
   1dc44:	00e12623          	sw	a4,12(sp)
   1dc48:	00269693          	slli	a3,a3,0x2
   1dc4c:	0007a583          	lw	a1,0(a5)
   1dc50:	0206c863          	bltz	a3,1dc80 <printf+0x1f4>
   1dc54:	e0001737          	lui	a4,0xe0001
   1dc58:	00d5d7b3          	srl	a5,a1,a3
   1dc5c:	00f7f793          	andi	a5,a5,15
   1dc60:	00fa87b3          	add	a5,s5,a5
   1dc64:	0007c603          	lbu	a2,0(a5)
   1dc68:	02c72783          	lw	a5,44(a4) # e000102c <heap_memory_used+0xdffdf254>
   1dc6c:	0107f793          	andi	a5,a5,16
   1dc70:	fe079ce3          	bnez	a5,1dc68 <printf+0x1dc>
   1dc74:	02c72823          	sw	a2,48(a4)
   1dc78:	ffc68693          	addi	a3,a3,-4
   1dc7c:	fc06dee3          	bgez	a3,1dc58 <printf+0x1cc>
   1dc80:	00380413          	addi	s0,a6,3
   1dc84:	e8dff06f          	j	1db10 <printf+0x84>
   1dc88:	00280413          	addi	s0,a6,2
   1dc8c:	00f12623          	sw	a5,12(sp)
   1dc90:	d3dff0ef          	jal	ra,1d9cc <printf_d>
   1dc94:	e7dff06f          	j	1db10 <printf+0x84>

0001dc98 <scanf_c>:
   1dc98:	ff010113          	addi	sp,sp,-16
   1dc9c:	e0001737          	lui	a4,0xe0001
   1dca0:	02c72783          	lw	a5,44(a4) # e000102c <heap_memory_used+0xdffdf254>
   1dca4:	0027f793          	andi	a5,a5,2
   1dca8:	fe079ce3          	bnez	a5,1dca0 <scanf_c+0x8>
   1dcac:	03074783          	lbu	a5,48(a4)
   1dcb0:	e0001737          	lui	a4,0xe0001
   1dcb4:	00f107a3          	sb	a5,15(sp)
   1dcb8:	00f14683          	lbu	a3,15(sp)
   1dcbc:	0ff6f693          	andi	a3,a3,255
   1dcc0:	02c72783          	lw	a5,44(a4) # e000102c <heap_memory_used+0xdffdf254>
   1dcc4:	0107f793          	andi	a5,a5,16
   1dcc8:	fe079ce3          	bnez	a5,1dcc0 <scanf_c+0x28>
   1dccc:	02d72823          	sw	a3,48(a4)
   1dcd0:	00f14503          	lbu	a0,15(sp)
   1dcd4:	01010113          	addi	sp,sp,16
   1dcd8:	00008067          	ret

0001dcdc <scanf>:
   1dcdc:	ff010113          	addi	sp,sp,-16
   1dce0:	e0001737          	lui	a4,0xe0001
   1dce4:	02c72783          	lw	a5,44(a4) # e000102c <heap_memory_used+0xdffdf254>
   1dce8:	0027f793          	andi	a5,a5,2
   1dcec:	fe079ce3          	bnez	a5,1dce4 <scanf+0x8>
   1dcf0:	03074783          	lbu	a5,48(a4)
   1dcf4:	e0001737          	lui	a4,0xe0001
   1dcf8:	00f107a3          	sb	a5,15(sp)
   1dcfc:	00f14683          	lbu	a3,15(sp)
   1dd00:	0ff6f693          	andi	a3,a3,255
   1dd04:	02c72783          	lw	a5,44(a4) # e000102c <heap_memory_used+0xdffdf254>
   1dd08:	0107f793          	andi	a5,a5,16
   1dd0c:	fe079ce3          	bnez	a5,1dd04 <scanf+0x28>
   1dd10:	02d72823          	sw	a3,48(a4)
   1dd14:	00f14783          	lbu	a5,15(sp)
   1dd18:	06e00713          	li	a4,110
   1dd1c:	0ff7f793          	andi	a5,a5,255
   1dd20:	00f10723          	sb	a5,14(sp)
   1dd24:	00e14783          	lbu	a5,14(sp)
   1dd28:	00f70863          	beq	a4,a5,1dd38 <scanf+0x5c>
   1dd2c:	00e14783          	lbu	a5,14(sp)
   1dd30:	00e14783          	lbu	a5,14(sp)
   1dd34:	fef71ce3          	bne	a4,a5,1dd2c <scanf+0x50>
   1dd38:	0001e537          	lui	a0,0x1e
   1dd3c:	2d050513          	addi	a0,a0,720 # 1e2d0 <errpat+0x348>
   1dd40:	01010113          	addi	sp,sp,16
   1dd44:	00008067          	ret

0001dd48 <memcpy>:
   1dd48:	02060063          	beqz	a2,1dd68 <memcpy+0x20>
   1dd4c:	00c50633          	add	a2,a0,a2
   1dd50:	00050793          	mv	a5,a0
   1dd54:	00158593          	addi	a1,a1,1
   1dd58:	fff5c703          	lbu	a4,-1(a1)
   1dd5c:	00178793          	addi	a5,a5,1
   1dd60:	fee78fa3          	sb	a4,-1(a5)
   1dd64:	fef618e3          	bne	a2,a5,1dd54 <memcpy+0xc>
   1dd68:	00008067          	ret

0001dd6c <strcpy>:
   1dd6c:	00050793          	mv	a5,a0
   1dd70:	0180006f          	j	1dd88 <strcpy+0x1c>
   1dd74:	00158593          	addi	a1,a1,1
   1dd78:	fff5c703          	lbu	a4,-1(a1)
   1dd7c:	00178793          	addi	a5,a5,1
   1dd80:	fee78fa3          	sb	a4,-1(a5)
   1dd84:	08070a63          	beqz	a4,1de18 <strcpy+0xac>
   1dd88:	00b7e733          	or	a4,a5,a1
   1dd8c:	00377713          	andi	a4,a4,3
   1dd90:	fe0712e3          	bnez	a4,1dd74 <strcpy+0x8>
   1dd94:	0005a683          	lw	a3,0(a1)
   1dd98:	feff08b7          	lui	a7,0xfeff0
   1dd9c:	eff88893          	addi	a7,a7,-257 # fefefeff <heap_memory_used+0xfefce127>
   1dda0:	01168733          	add	a4,a3,a7
   1dda4:	fff6c613          	not	a2,a3
   1dda8:	80808837          	lui	a6,0x80808
   1ddac:	08080813          	addi	a6,a6,128 # 80808080 <heap_memory_used+0x807e62a8>
   1ddb0:	00c77733          	and	a4,a4,a2
   1ddb4:	01077733          	and	a4,a4,a6
   1ddb8:	02071463          	bnez	a4,1dde0 <strcpy+0x74>
   1ddbc:	00d7a023          	sw	a3,0(a5)
   1ddc0:	00458593          	addi	a1,a1,4
   1ddc4:	0005a683          	lw	a3,0(a1)
   1ddc8:	00478793          	addi	a5,a5,4
   1ddcc:	01168733          	add	a4,a3,a7
   1ddd0:	fff6c613          	not	a2,a3
   1ddd4:	00c77733          	and	a4,a4,a2
   1ddd8:	01077733          	and	a4,a4,a6
   1dddc:	fe0700e3          	beqz	a4,1ddbc <strcpy+0x50>
   1dde0:	00d78023          	sb	a3,0(a5)
   1dde4:	0ff6f713          	andi	a4,a3,255
   1dde8:	02070863          	beqz	a4,1de18 <strcpy+0xac>
   1ddec:	0086d713          	srli	a4,a3,0x8
   1ddf0:	00e780a3          	sb	a4,1(a5)
   1ddf4:	0ff77713          	andi	a4,a4,255
   1ddf8:	02070063          	beqz	a4,1de18 <strcpy+0xac>
   1ddfc:	0106d713          	srli	a4,a3,0x10
   1de00:	00e78123          	sb	a4,2(a5)
   1de04:	0ff77713          	andi	a4,a4,255
   1de08:	00070863          	beqz	a4,1de18 <strcpy+0xac>
   1de0c:	0186d693          	srli	a3,a3,0x18
   1de10:	00d781a3          	sb	a3,3(a5)
   1de14:	00008067          	ret
   1de18:	00008067          	ret

0001de1c <strcmp>:
   1de1c:	01c0006f          	j	1de38 <strcmp+0x1c>
   1de20:	00150513          	addi	a0,a0,1
   1de24:	00158593          	addi	a1,a1,1
   1de28:	fff54783          	lbu	a5,-1(a0)
   1de2c:	fff5c703          	lbu	a4,-1(a1)
   1de30:	08e79863          	bne	a5,a4,1dec0 <strcmp+0xa4>
   1de34:	08078263          	beqz	a5,1deb8 <strcmp+0x9c>
   1de38:	00b567b3          	or	a5,a0,a1
   1de3c:	0037f793          	andi	a5,a5,3
   1de40:	fe0790e3          	bnez	a5,1de20 <strcmp+0x4>
   1de44:	00052703          	lw	a4,0(a0)
   1de48:	0005a683          	lw	a3,0(a1)
   1de4c:	04d71a63          	bne	a4,a3,1dea0 <strcmp+0x84>
   1de50:	feff0837          	lui	a6,0xfeff0
   1de54:	eff80813          	addi	a6,a6,-257 # fefefeff <heap_memory_used+0xfefce127>
   1de58:	fff74793          	not	a5,a4
   1de5c:	80808637          	lui	a2,0x80808
   1de60:	01070733          	add	a4,a4,a6
   1de64:	00e7f7b3          	and	a5,a5,a4
   1de68:	08060613          	addi	a2,a2,128 # 80808080 <heap_memory_used+0x807e62a8>
   1de6c:	00c7f7b3          	and	a5,a5,a2
   1de70:	00078663          	beqz	a5,1de7c <strcmp+0x60>
   1de74:	0440006f          	j	1deb8 <strcmp+0x9c>
   1de78:	04079063          	bnez	a5,1deb8 <strcmp+0x9c>
   1de7c:	00450513          	addi	a0,a0,4
   1de80:	00052703          	lw	a4,0(a0)
   1de84:	00458593          	addi	a1,a1,4
   1de88:	0005a683          	lw	a3,0(a1)
   1de8c:	010707b3          	add	a5,a4,a6
   1de90:	fff74893          	not	a7,a4
   1de94:	0117f7b3          	and	a5,a5,a7
   1de98:	00c7f7b3          	and	a5,a5,a2
   1de9c:	fcd70ee3          	beq	a4,a3,1de78 <strcmp+0x5c>
   1dea0:	0ff77793          	andi	a5,a4,255
   1dea4:	0ff6f613          	andi	a2,a3,255
   1dea8:	02c78263          	beq	a5,a2,1decc <strcmp+0xb0>
   1deac:	00100513          	li	a0,1
   1deb0:	06c7e463          	bltu	a5,a2,1df18 <strcmp+0xfc>
   1deb4:	00008067          	ret
   1deb8:	00000513          	li	a0,0
   1debc:	00008067          	ret
   1dec0:	04e7ec63          	bltu	a5,a4,1df18 <strcmp+0xfc>
   1dec4:	00100513          	li	a0,1
   1dec8:	00008067          	ret
   1decc:	00000513          	li	a0,0
   1ded0:	fe0782e3          	beqz	a5,1deb4 <strcmp+0x98>
   1ded4:	00875793          	srli	a5,a4,0x8
   1ded8:	0086d613          	srli	a2,a3,0x8
   1dedc:	0ff7f793          	andi	a5,a5,255
   1dee0:	0ff67613          	andi	a2,a2,255
   1dee4:	fcc794e3          	bne	a5,a2,1deac <strcmp+0x90>
   1dee8:	fc0786e3          	beqz	a5,1deb4 <strcmp+0x98>
   1deec:	01075793          	srli	a5,a4,0x10
   1def0:	0106d613          	srli	a2,a3,0x10
   1def4:	0ff7f793          	andi	a5,a5,255
   1def8:	0ff67613          	andi	a2,a2,255
   1defc:	fac798e3          	bne	a5,a2,1deac <strcmp+0x90>
   1df00:	fa078ae3          	beqz	a5,1deb4 <strcmp+0x98>
   1df04:	01875713          	srli	a4,a4,0x18
   1df08:	0186d693          	srli	a3,a3,0x18
   1df0c:	fad704e3          	beq	a4,a3,1deb4 <strcmp+0x98>
   1df10:	00100513          	li	a0,1
   1df14:	fad770e3          	bleu	a3,a4,1deb4 <strcmp+0x98>
   1df18:	fff00513          	li	a0,-1
   1df1c:	00008067          	ret

Disassembly of section .rodata.str1.4:

0001dfb0 <.rodata.str1.4>:
   1dfb0:	4844                	lw	s1,20(s0)
   1dfb2:	5952                	lw	s2,52(sp)
   1dfb4:	4e4f5453          	0x4e4f5453
   1dfb8:	2045                	jal	1e058 <errpat+0xd0>
   1dfba:	5250                	lw	a2,36(a2)
   1dfbc:	4152474f          	fnmadd.s	fa4,ft4,fs5,fs0,rmm
   1dfc0:	2c4d                	jal	1e272 <errpat+0x2ea>
   1dfc2:	5320                	lw	s0,96(a4)
   1dfc4:	20454d4f          	fnmadd.s	fs10,fa0,ft4,ft4,rmm
   1dfc8:	49525453          	0x49525453
   1dfcc:	474e                	lw	a4,208(sp)
   1dfce:	0000                	unimp
   1dfd0:	4844                	lw	s1,20(s0)
   1dfd2:	5952                	lw	s2,52(sp)
   1dfd4:	4e4f5453          	0x4e4f5453
   1dfd8:	2045                	jal	1e078 <errpat+0xf0>
   1dfda:	5250                	lw	a2,36(a2)
   1dfdc:	4152474f          	fnmadd.s	fa4,ft4,fs5,fs0,rmm
   1dfe0:	2c4d                	jal	1e292 <errpat+0x30a>
   1dfe2:	3120                	fld	fs0,96(a0)
   1dfe4:	20545327          	0x20545327
   1dfe8:	49525453          	0x49525453
   1dfec:	474e                	lw	a4,208(sp)
   1dfee:	0000                	unimp
   1dff0:	6844                	flw	fs1,20(s0)
   1dff2:	7972                	flw	fs2,60(sp)
   1dff4:	6e6f7473          	csrrci	s0,0x6e6,30
   1dff8:	2065                	jal	1e0a0 <errpat+0x118>
   1dffa:	6542                	flw	fa0,16(sp)
   1dffc:	636e                	flw	ft6,216(sp)
   1dffe:	6d68                	flw	fa0,92(a0)
   1e000:	7261                	lui	tp,0xffff8
   1e002:	56202c6b          	0x56202c6b
   1e006:	7265                	lui	tp,0xffff9
   1e008:	6e6f6973          	csrrsi	s2,0x6e6,30
   1e00c:	3220                	fld	fs0,96(a2)
   1e00e:	312e                	fld	ft2,232(sp)
   1e010:	2820                	fld	fs0,80(s0)
   1e012:	614c                	flw	fa1,4(a0)
   1e014:	676e                	flw	fa4,216(sp)
   1e016:	6175                	addi	sp,sp,368
   1e018:	203a6567          	0x203a6567
   1e01c:	000a2943          	fmadd.s	fs2,fs4,ft0,ft0,rdn
   1e020:	7250                	flw	fa2,36(a2)
   1e022:	6172676f          	jal	a4,44e38 <heap_memory_used+0x23060>
   1e026:	206d                	jal	1e0d0 <errpat+0x148>
   1e028:	706d6f63          	bltu	s10,t1,1e746 <errpat+0x7be>
   1e02c:	6c69                	lui	s8,0x1a
   1e02e:	6465                	lui	s0,0x19
   1e030:	7720                	flw	fs0,104(a4)
   1e032:	7469                	lui	s0,0xffffa
   1e034:	2068                	fld	fa0,192(s0)
   1e036:	67657227          	0x67657227
   1e03a:	7369                	lui	t1,0xffffa
   1e03c:	6574                	flw	fa3,76(a0)
   1e03e:	2772                	fld	fa4,280(sp)
   1e040:	6120                	flw	fs0,64(a0)
   1e042:	7474                	flw	fa3,108(s0)
   1e044:	6972                	flw	fs2,28(sp)
   1e046:	7562                	flw	fa0,56(sp)
   1e048:	6574                	flw	fa3,76(a0)
   1e04a:	000a                	0xa
   1e04c:	7250                	flw	fa2,36(a2)
   1e04e:	6172676f          	jal	a4,44e64 <heap_memory_used+0x2308c>
   1e052:	206d                	jal	1e0fc <errpat+0x174>
   1e054:	706d6f63          	bltu	s10,t1,1e772 <errpat+0x7ea>
   1e058:	6c69                	lui	s8,0x1a
   1e05a:	6465                	lui	s0,0x19
   1e05c:	7720                	flw	fs0,104(a4)
   1e05e:	7469                	lui	s0,0xffffa
   1e060:	6f68                	flw	fa0,92(a4)
   1e062:	7475                	lui	s0,0xffffd
   1e064:	2720                	fld	fs0,72(a4)
   1e066:	6572                	flw	fa0,28(sp)
   1e068:	74736967          	0x74736967
   1e06c:	7265                	lui	tp,0xffff9
   1e06e:	74612027          	fsw	ft6,1856(sp)
   1e072:	7274                	flw	fa3,100(a2)
   1e074:	6269                	lui	tp,0x1a
   1e076:	7475                	lui	s0,0xffffd
   1e078:	0a65                	addi	s4,s4,25
   1e07a:	0000                	unimp
   1e07c:	6c50                	flw	fa2,28(s0)
   1e07e:	6165                	addi	sp,sp,112
   1e080:	67206573          	csrrsi	a0,0x672,0
   1e084:	7669                	lui	a2,0xffffa
   1e086:	2065                	jal	1e12e <errpat+0x1a6>
   1e088:	6874                	flw	fa3,84(s0)
   1e08a:	2065                	jal	1e132 <errpat+0x1aa>
   1e08c:	756e                	flw	fa0,248(sp)
   1e08e:	626d                	lui	tp,0x1b
   1e090:	7265                	lui	tp,0xffff9
   1e092:	6f20                	flw	fs0,88(a4)
   1e094:	2066                	fld	ft0,88(sp)
   1e096:	7572                	flw	fa0,60(sp)
   1e098:	736e                	flw	ft6,248(sp)
   1e09a:	7420                	flw	fs0,104(s0)
   1e09c:	7268                	flw	fa0,100(a2)
   1e09e:	6867756f          	jal	a0,95724 <heap_memory_used+0x7394c>
   1e0a2:	7420                	flw	fs0,104(s0)
   1e0a4:	6568                	flw	fa0,76(a0)
   1e0a6:	6220                	flw	fs0,64(a2)
   1e0a8:	6e65                	lui	t3,0x19
   1e0aa:	616d6863          	bltu	s10,s6,1e6ba <errpat+0x732>
   1e0ae:	6b72                	flw	fs6,28(sp)
   1e0b0:	203a                	fld	ft0,392(sp)
   1e0b2:	0000                	unimp
   1e0b4:	7845                	lui	a6,0xffff1
   1e0b6:	6365                	lui	t1,0x19
   1e0b8:	7475                	lui	s0,0xffffd
   1e0ba:	6f69                	lui	t5,0x1a
   1e0bc:	206e                	fld	ft0,216(sp)
   1e0be:	72617473          	csrrci	s0,0x726,2
   1e0c2:	7374                	flw	fa3,100(a4)
   1e0c4:	202c                	fld	fa1,64(s0)
   1e0c6:	6425                	lui	s0,0x9
   1e0c8:	7220                	flw	fs0,96(a2)
   1e0ca:	6e75                	lui	t3,0x1d
   1e0cc:	68742073          	csrs	0x687,s0
   1e0d0:	6f72                	flw	ft10,28(sp)
   1e0d2:	6775                	lui	a4,0x1d
   1e0d4:	2068                	fld	fa0,192(s0)
   1e0d6:	6844                	flw	fs1,20(s0)
   1e0d8:	7972                	flw	fs2,60(sp)
   1e0da:	6e6f7473          	csrrci	s0,0x6e6,30
   1e0de:	0a65                	addi	s4,s4,25
   1e0e0:	0000                	unimp
   1e0e2:	0000                	unimp
   1e0e4:	4844                	lw	s1,20(s0)
   1e0e6:	5952                	lw	s2,52(sp)
   1e0e8:	4e4f5453          	0x4e4f5453
   1e0ec:	2045                	jal	1e18c <errpat+0x204>
   1e0ee:	5250                	lw	a2,36(a2)
   1e0f0:	4152474f          	fnmadd.s	fa4,ft4,fs5,fs0,rmm
   1e0f4:	2c4d                	jal	1e3a6 <errpat+0x41e>
   1e0f6:	3220                	fld	fs0,96(a2)
   1e0f8:	20444e27          	0x20444e27
   1e0fc:	49525453          	0x49525453
   1e100:	474e                	lw	a4,208(sp)
   1e102:	0000                	unimp
   1e104:	4844                	lw	s1,20(s0)
   1e106:	5952                	lw	s2,52(sp)
   1e108:	4e4f5453          	0x4e4f5453
   1e10c:	2045                	jal	1e1ac <errpat+0x224>
   1e10e:	5250                	lw	a2,36(a2)
   1e110:	4152474f          	fnmadd.s	fa4,ft4,fs5,fs0,rmm
   1e114:	2c4d                	jal	1e3c6 <errpat+0x43e>
   1e116:	3320                	fld	fs0,96(a4)
   1e118:	20445227          	0x20445227
   1e11c:	49525453          	0x49525453
   1e120:	474e                	lw	a4,208(sp)
   1e122:	0000                	unimp
   1e124:	7845                	lui	a6,0xffff1
   1e126:	6365                	lui	t1,0x19
   1e128:	7475                	lui	s0,0xffffd
   1e12a:	6f69                	lui	t5,0x1a
   1e12c:	206e                	fld	ft0,216(sp)
   1e12e:	6e65                	lui	t3,0x19
   1e130:	7364                	flw	fs1,100(a4)
   1e132:	000a                	0xa
   1e134:	6946                	flw	fs2,80(sp)
   1e136:	616e                	flw	ft2,216(sp)
   1e138:	206c                	fld	fa1,192(s0)
   1e13a:	6176                	flw	ft2,92(sp)
   1e13c:	756c                	flw	fa1,108(a0)
   1e13e:	7365                	lui	t1,0xffff9
   1e140:	6f20                	flw	fs0,88(a4)
   1e142:	2066                	fld	ft0,88(sp)
   1e144:	6874                	flw	fa3,84(s0)
   1e146:	2065                	jal	1e1ee <errpat+0x266>
   1e148:	6176                	flw	ft2,92(sp)
   1e14a:	6972                	flw	fs2,28(sp)
   1e14c:	6261                	lui	tp,0x18
   1e14e:	656c                	flw	fa1,76(a0)
   1e150:	73752073          	csrs	0x737,a0
   1e154:	6465                	lui	s0,0x19
   1e156:	6920                	flw	fs0,80(a0)
   1e158:	206e                	fld	ft0,216(sp)
   1e15a:	6874                	flw	fa3,84(s0)
   1e15c:	2065                	jal	1e204 <errpat+0x27c>
   1e15e:	6562                	flw	fa0,24(sp)
   1e160:	636e                	flw	ft6,216(sp)
   1e162:	6d68                	flw	fa0,92(a0)
   1e164:	7261                	lui	tp,0xffff8
   1e166:	000a3a6b          	0xa3a6b
   1e16a:	0000                	unimp
   1e16c:	6e49                	lui	t3,0x12
   1e16e:	5f74                	lw	a3,124(a4)
   1e170:	626f6c47          	fmsub.d	fs8,ft10,ft6,fa2,unknown
   1e174:	203a                	fld	ft0,392(sp)
   1e176:	2020                	fld	fs0,64(s0)
   1e178:	2020                	fld	fs0,64(s0)
   1e17a:	2020                	fld	fs0,64(s0)
   1e17c:	2020                	fld	fs0,64(s0)
   1e17e:	2020                	fld	fs0,64(s0)
   1e180:	2520                	fld	fs0,72(a0)
   1e182:	0a64                	addi	s1,sp,284
   1e184:	0000                	unimp
   1e186:	0000                	unimp
   1e188:	2020                	fld	fs0,64(s0)
   1e18a:	2020                	fld	fs0,64(s0)
   1e18c:	2020                	fld	fs0,64(s0)
   1e18e:	2020                	fld	fs0,64(s0)
   1e190:	756f6873          	csrrsi	a6,0x756,30
   1e194:	646c                	flw	fa1,76(s0)
   1e196:	6220                	flw	fs0,64(a2)
   1e198:	3a65                	jal	1db50 <printf+0xc4>
   1e19a:	2020                	fld	fs0,64(s0)
   1e19c:	2520                	fld	fs0,72(a0)
   1e19e:	0a64                	addi	s1,sp,284
   1e1a0:	0000                	unimp
   1e1a2:	0000                	unimp
   1e1a4:	6f42                	flw	ft10,16(sp)
   1e1a6:	475f6c6f          	jal	s8,114e1a <heap_memory_used+0xf3042>
   1e1aa:	6f6c                	flw	fa1,92(a4)
   1e1ac:	3a62                	fld	fs4,56(sp)
   1e1ae:	2020                	fld	fs0,64(s0)
   1e1b0:	2020                	fld	fs0,64(s0)
   1e1b2:	2020                	fld	fs0,64(s0)
   1e1b4:	2020                	fld	fs0,64(s0)
   1e1b6:	2020                	fld	fs0,64(s0)
   1e1b8:	2520                	fld	fs0,72(a0)
   1e1ba:	0a64                	addi	s1,sp,284
   1e1bc:	0000                	unimp
   1e1be:	0000                	unimp
   1e1c0:	315f6843          	fmadd.s	fa6,ft10,fs5,ft6,unknown
   1e1c4:	475f 6f6c 3a62      	0x3a626f6c475f
   1e1ca:	2020                	fld	fs0,64(s0)
   1e1cc:	2020                	fld	fs0,64(s0)
   1e1ce:	2020                	fld	fs0,64(s0)
   1e1d0:	2020                	fld	fs0,64(s0)
   1e1d2:	2020                	fld	fs0,64(s0)
   1e1d4:	2520                	fld	fs0,72(a0)
   1e1d6:	00000a63          	beqz	zero,1e1ea <errpat+0x262>
   1e1da:	0000                	unimp
   1e1dc:	2020                	fld	fs0,64(s0)
   1e1de:	2020                	fld	fs0,64(s0)
   1e1e0:	2020                	fld	fs0,64(s0)
   1e1e2:	2020                	fld	fs0,64(s0)
   1e1e4:	756f6873          	csrrsi	a6,0x756,30
   1e1e8:	646c                	flw	fa1,76(s0)
   1e1ea:	6220                	flw	fs0,64(a2)
   1e1ec:	3a65                	jal	1dba4 <printf+0x118>
   1e1ee:	2020                	fld	fs0,64(s0)
   1e1f0:	2520                	fld	fs0,72(a0)
   1e1f2:	00000a63          	beqz	zero,1e206 <errpat+0x27e>
   1e1f6:	0000                	unimp
   1e1f8:	325f6843          	fmadd.d	fa6,ft10,ft5,ft6,unknown
   1e1fc:	475f 6f6c 3a62      	0x3a626f6c475f
   1e202:	2020                	fld	fs0,64(s0)
   1e204:	2020                	fld	fs0,64(s0)
   1e206:	2020                	fld	fs0,64(s0)
   1e208:	2020                	fld	fs0,64(s0)
   1e20a:	2020                	fld	fs0,64(s0)
   1e20c:	2520                	fld	fs0,72(a0)
   1e20e:	00000a63          	beqz	zero,1e222 <errpat+0x29a>
   1e212:	0000                	unimp
   1e214:	7241                	lui	tp,0xffff0
   1e216:	5f72                	lw	t5,60(sp)
   1e218:	5f31                	li	t5,-20
   1e21a:	626f6c47          	fmsub.d	fs8,ft10,ft6,fa2,unknown
   1e21e:	3a5d385b          	0x3a5d385b
   1e222:	2020                	fld	fs0,64(s0)
   1e224:	2020                	fld	fs0,64(s0)
   1e226:	2020                	fld	fs0,64(s0)
   1e228:	2520                	fld	fs0,72(a0)
   1e22a:	0a64                	addi	s1,sp,284
   1e22c:	0000                	unimp
   1e22e:	0000                	unimp
   1e230:	7241                	lui	tp,0xffff0
   1e232:	5f72                	lw	t5,60(sp)
   1e234:	5f32                	lw	t5,44(sp)
   1e236:	626f6c47          	fmsub.d	fs8,ft10,ft6,fa2,unknown
   1e23a:	5b5d385b          	0x5b5d385b
   1e23e:	203a5d37          	lui	s10,0x203a5
   1e242:	2020                	fld	fs0,64(s0)
   1e244:	2520                	fld	fs0,72(a0)
   1e246:	0a64                	addi	s1,sp,284
   1e248:	0000                	unimp
   1e24a:	0000                	unimp
   1e24c:	2020                	fld	fs0,64(s0)
   1e24e:	2020                	fld	fs0,64(s0)
   1e250:	2020                	fld	fs0,64(s0)
   1e252:	2020                	fld	fs0,64(s0)
   1e254:	756f6873          	csrrsi	a6,0x756,30
   1e258:	646c                	flw	fa1,76(s0)
   1e25a:	6220                	flw	fs0,64(a2)
   1e25c:	3a65                	jal	1dc14 <printf+0x188>
   1e25e:	2020                	fld	fs0,64(s0)
   1e260:	4e20                	lw	s0,88(a2)
   1e262:	6d75                	lui	s10,0x1d
   1e264:	6562                	flw	fa0,24(sp)
   1e266:	5f72                	lw	t5,60(sp)
   1e268:	525f664f          	fnmadd.d	fa2,ft10,ft5,fa0,unknown
   1e26c:	6e75                	lui	t3,0x1d
   1e26e:	202b2073          	csrs	0x202,s6
   1e272:	3031                	jal	1da7e <printf_h+0x36>
   1e274:	000a                	0xa
   1e276:	0000                	unimp
   1e278:	7450                	flw	fa2,44(s0)
   1e27a:	5f72                	lw	t5,60(sp)
   1e27c:	626f6c47          	fmsub.d	fs8,ft10,ft6,fa2,unknown
   1e280:	3e2d                	jal	1ddba <strcpy+0x4e>
   1e282:	000a                	0xa
   1e284:	2020                	fld	fs0,64(s0)
   1e286:	7450                	flw	fa2,44(s0)
   1e288:	5f72                	lw	t5,60(sp)
   1e28a:	706d6f43          	fmadd.s	ft10,fs10,ft6,fa4,unknown
   1e28e:	203a                	fld	ft0,392(sp)
   1e290:	2020                	fld	fs0,64(s0)
   1e292:	2020                	fld	fs0,64(s0)
   1e294:	2020                	fld	fs0,64(s0)
   1e296:	2020                	fld	fs0,64(s0)
   1e298:	2520                	fld	fs0,72(a0)
   1e29a:	0a64                	addi	s1,sp,284
   1e29c:	0000                	unimp
   1e29e:	0000                	unimp
   1e2a0:	2020                	fld	fs0,64(s0)
   1e2a2:	2020                	fld	fs0,64(s0)
   1e2a4:	2020                	fld	fs0,64(s0)
   1e2a6:	2020                	fld	fs0,64(s0)
   1e2a8:	756f6873          	csrrsi	a6,0x756,30
   1e2ac:	646c                	flw	fa1,76(s0)
   1e2ae:	6220                	flw	fs0,64(a2)
   1e2b0:	3a65                	jal	1dc68 <printf+0x1dc>
   1e2b2:	2020                	fld	fs0,64(s0)
   1e2b4:	2820                	fld	fs0,80(s0)
   1e2b6:	6d69                	lui	s10,0x1a
   1e2b8:	6c70                	flw	fa2,92(s0)
   1e2ba:	6d65                	lui	s10,0x19
   1e2bc:	6e65                	lui	t3,0x19
   1e2be:	6174                	flw	fa3,68(a0)
   1e2c0:	6974                	flw	fa3,84(a0)
   1e2c2:	642d6e6f          	jal	t3,f4904 <heap_memory_used+0xd2b2c>
   1e2c6:	7065                	0x7065
   1e2c8:	6e65                	lui	t3,0x19
   1e2ca:	6564                	flw	fs1,76(a0)
   1e2cc:	746e                	flw	fs0,248(sp)
   1e2ce:	0a29                	addi	s4,s4,10
   1e2d0:	0000                	unimp
   1e2d2:	0000                	unimp
   1e2d4:	2020                	fld	fs0,64(s0)
   1e2d6:	6944                	flw	fs1,20(a0)
   1e2d8:	3a726373          	csrrsi	t1,0x3a7,4
   1e2dc:	2020                	fld	fs0,64(s0)
   1e2de:	2020                	fld	fs0,64(s0)
   1e2e0:	2020                	fld	fs0,64(s0)
   1e2e2:	2020                	fld	fs0,64(s0)
   1e2e4:	2020                	fld	fs0,64(s0)
   1e2e6:	2020                	fld	fs0,64(s0)
   1e2e8:	2520                	fld	fs0,72(a0)
   1e2ea:	0a64                	addi	s1,sp,284
   1e2ec:	0000                	unimp
   1e2ee:	0000                	unimp
   1e2f0:	2020                	fld	fs0,64(s0)
   1e2f2:	6e45                	lui	t3,0x11
   1e2f4:	6d75                	lui	s10,0x1d
   1e2f6:	435f 6d6f 3a70      	0x3a706d6f435f
   1e2fc:	2020                	fld	fs0,64(s0)
   1e2fe:	2020                	fld	fs0,64(s0)
   1e300:	2020                	fld	fs0,64(s0)
   1e302:	2020                	fld	fs0,64(s0)
   1e304:	2520                	fld	fs0,72(a0)
   1e306:	0a64                	addi	s1,sp,284
   1e308:	0000                	unimp
   1e30a:	0000                	unimp
   1e30c:	2020                	fld	fs0,64(s0)
   1e30e:	6e49                	lui	t3,0x12
   1e310:	5f74                	lw	a3,124(a4)
   1e312:	706d6f43          	fmadd.s	ft10,fs10,ft6,fa4,unknown
   1e316:	203a                	fld	ft0,392(sp)
   1e318:	2020                	fld	fs0,64(s0)
   1e31a:	2020                	fld	fs0,64(s0)
   1e31c:	2020                	fld	fs0,64(s0)
   1e31e:	2020                	fld	fs0,64(s0)
   1e320:	2520                	fld	fs0,72(a0)
   1e322:	0a64                	addi	s1,sp,284
   1e324:	0000                	unimp
   1e326:	0000                	unimp
   1e328:	2020                	fld	fs0,64(s0)
   1e32a:	5f727453          	0x5f727453
   1e32e:	706d6f43          	fmadd.s	ft10,fs10,ft6,fa4,unknown
   1e332:	203a                	fld	ft0,392(sp)
   1e334:	2020                	fld	fs0,64(s0)
   1e336:	2020                	fld	fs0,64(s0)
   1e338:	2020                	fld	fs0,64(s0)
   1e33a:	2020                	fld	fs0,64(s0)
   1e33c:	2520                	fld	fs0,72(a0)
   1e33e:	00000a73          	0xa73
   1e342:	0000                	unimp
   1e344:	2020                	fld	fs0,64(s0)
   1e346:	2020                	fld	fs0,64(s0)
   1e348:	2020                	fld	fs0,64(s0)
   1e34a:	2020                	fld	fs0,64(s0)
   1e34c:	756f6873          	csrrsi	a6,0x756,30
   1e350:	646c                	flw	fa1,76(s0)
   1e352:	6220                	flw	fs0,64(a2)
   1e354:	3a65                	jal	1dd0c <scanf+0x30>
   1e356:	2020                	fld	fs0,64(s0)
   1e358:	4420                	lw	s0,72(s0)
   1e35a:	5248                	lw	a0,36(a2)
   1e35c:	5359                	li	t1,-10
   1e35e:	4f54                	lw	a3,28(a4)
   1e360:	454e                	lw	a0,208(sp)
   1e362:	5020                	lw	s0,96(s0)
   1e364:	4f52                	lw	t5,20(sp)
   1e366:	4d415247          	0x4d415247
   1e36a:	202c                	fld	fa1,64(s0)
   1e36c:	454d4f53          	0x454d4f53
   1e370:	5320                	lw	s0,96(a4)
   1e372:	5254                	lw	a3,36(a2)
   1e374:	4e49                	li	t3,18
   1e376:	00000a47          	fmsub.s	fs4,ft0,ft0,ft0,rne
   1e37a:	0000                	unimp
   1e37c:	654e                	flw	fa0,208(sp)
   1e37e:	7478                	flw	fa4,108(s0)
   1e380:	505f 7274 475f      	0x475f7274505f
   1e386:	6f6c                	flw	fa1,92(a4)
   1e388:	2d62                	fld	fs10,24(sp)
   1e38a:	0a3e                	slli	s4,s4,0xf
   1e38c:	0000                	unimp
   1e38e:	0000                	unimp
   1e390:	2020                	fld	fs0,64(s0)
   1e392:	2020                	fld	fs0,64(s0)
   1e394:	2020                	fld	fs0,64(s0)
   1e396:	2020                	fld	fs0,64(s0)
   1e398:	756f6873          	csrrsi	a6,0x756,30
   1e39c:	646c                	flw	fa1,76(s0)
   1e39e:	6220                	flw	fs0,64(a2)
   1e3a0:	3a65                	jal	1dd58 <memcpy+0x10>
   1e3a2:	2020                	fld	fs0,64(s0)
   1e3a4:	2820                	fld	fs0,80(s0)
   1e3a6:	6d69                	lui	s10,0x1a
   1e3a8:	6c70                	flw	fa2,92(s0)
   1e3aa:	6d65                	lui	s10,0x19
   1e3ac:	6e65                	lui	t3,0x19
   1e3ae:	6174                	flw	fa3,68(a0)
   1e3b0:	6974                	flw	fa3,84(a0)
   1e3b2:	642d6e6f          	jal	t3,f49f4 <heap_memory_used+0xd2c1c>
   1e3b6:	7065                	0x7065
   1e3b8:	6e65                	lui	t3,0x19
   1e3ba:	6564                	flw	fs1,76(a0)
   1e3bc:	746e                	flw	fs0,248(sp)
   1e3be:	2c29                	jal	1e5d8 <errpat+0x650>
   1e3c0:	7320                	flw	fs0,96(a4)
   1e3c2:	6d61                	lui	s10,0x18
   1e3c4:	2065                	jal	1e46c <errpat+0x4e4>
   1e3c6:	7361                	lui	t1,0xffff8
   1e3c8:	6120                	flw	fs0,64(a0)
   1e3ca:	6f62                	flw	ft10,24(sp)
   1e3cc:	6576                	flw	fa0,92(sp)
   1e3ce:	000a                	0xa
   1e3d0:	6e49                	lui	t3,0x12
   1e3d2:	5f74                	lw	a3,124(a4)
   1e3d4:	5f31                	li	t5,-20
   1e3d6:	6f4c                	flw	fa1,28(a4)
   1e3d8:	20203a63          	0x20203a63
   1e3dc:	2020                	fld	fs0,64(s0)
   1e3de:	2020                	fld	fs0,64(s0)
   1e3e0:	2020                	fld	fs0,64(s0)
   1e3e2:	2020                	fld	fs0,64(s0)
   1e3e4:	2520                	fld	fs0,72(a0)
   1e3e6:	0a64                	addi	s1,sp,284
   1e3e8:	0000                	unimp
   1e3ea:	0000                	unimp
   1e3ec:	6e49                	lui	t3,0x12
   1e3ee:	5f74                	lw	a3,124(a4)
   1e3f0:	5f32                	lw	t5,44(sp)
   1e3f2:	6f4c                	flw	fa1,28(a4)
   1e3f4:	20203a63          	0x20203a63
   1e3f8:	2020                	fld	fs0,64(s0)
   1e3fa:	2020                	fld	fs0,64(s0)
   1e3fc:	2020                	fld	fs0,64(s0)
   1e3fe:	2020                	fld	fs0,64(s0)
   1e400:	2520                	fld	fs0,72(a0)
   1e402:	0a64                	addi	s1,sp,284
   1e404:	0000                	unimp
   1e406:	0000                	unimp
   1e408:	6e49                	lui	t3,0x12
   1e40a:	5f74                	lw	a3,124(a4)
   1e40c:	6f4c5f33          	0x6f4c5f33
   1e410:	20203a63          	0x20203a63
   1e414:	2020                	fld	fs0,64(s0)
   1e416:	2020                	fld	fs0,64(s0)
   1e418:	2020                	fld	fs0,64(s0)
   1e41a:	2020                	fld	fs0,64(s0)
   1e41c:	2520                	fld	fs0,72(a0)
   1e41e:	0a64                	addi	s1,sp,284
   1e420:	0000                	unimp
   1e422:	0000                	unimp
   1e424:	6e45                	lui	t3,0x11
   1e426:	6d75                	lui	s10,0x1d
   1e428:	4c5f 636f 203a      	0x203a636f4c5f
   1e42e:	2020                	fld	fs0,64(s0)
   1e430:	2020                	fld	fs0,64(s0)
   1e432:	2020                	fld	fs0,64(s0)
   1e434:	2020                	fld	fs0,64(s0)
   1e436:	2020                	fld	fs0,64(s0)
   1e438:	2520                	fld	fs0,72(a0)
   1e43a:	0a64                	addi	s1,sp,284
   1e43c:	0000                	unimp
   1e43e:	0000                	unimp
   1e440:	5f727453          	0x5f727453
   1e444:	5f31                	li	t5,-20
   1e446:	6f4c                	flw	fa1,28(a4)
   1e448:	20203a63          	0x20203a63
   1e44c:	2020                	fld	fs0,64(s0)
   1e44e:	2020                	fld	fs0,64(s0)
   1e450:	2020                	fld	fs0,64(s0)
   1e452:	2020                	fld	fs0,64(s0)
   1e454:	2520                	fld	fs0,72(a0)
   1e456:	00000a73          	0xa73
   1e45a:	0000                	unimp
   1e45c:	2020                	fld	fs0,64(s0)
   1e45e:	2020                	fld	fs0,64(s0)
   1e460:	2020                	fld	fs0,64(s0)
   1e462:	2020                	fld	fs0,64(s0)
   1e464:	756f6873          	csrrsi	a6,0x756,30
   1e468:	646c                	flw	fa1,76(s0)
   1e46a:	6220                	flw	fs0,64(a2)
   1e46c:	3a65                	jal	1de24 <strcmp+0x8>
   1e46e:	2020                	fld	fs0,64(s0)
   1e470:	4420                	lw	s0,72(s0)
   1e472:	5248                	lw	a0,36(a2)
   1e474:	5359                	li	t1,-10
   1e476:	4f54                	lw	a3,28(a4)
   1e478:	454e                	lw	a0,208(sp)
   1e47a:	5020                	lw	s0,96(s0)
   1e47c:	4f52                	lw	t5,20(sp)
   1e47e:	4d415247          	0x4d415247
   1e482:	202c                	fld	fa1,64(s0)
   1e484:	2731                	jal	1eb90 <errpat+0xc08>
   1e486:	53205453          	0x53205453
   1e48a:	5254                	lw	a3,36(a2)
   1e48c:	4e49                	li	t3,18
   1e48e:	00000a47          	fmsub.s	fs4,ft0,ft0,ft0,rne
   1e492:	0000                	unimp
   1e494:	5f727453          	0x5f727453
   1e498:	5f32                	lw	t5,44(sp)
   1e49a:	6f4c                	flw	fa1,28(a4)
   1e49c:	20203a63          	0x20203a63
   1e4a0:	2020                	fld	fs0,64(s0)
   1e4a2:	2020                	fld	fs0,64(s0)
   1e4a4:	2020                	fld	fs0,64(s0)
   1e4a6:	2020                	fld	fs0,64(s0)
   1e4a8:	2520                	fld	fs0,72(a0)
   1e4aa:	00000a73          	0xa73
   1e4ae:	0000                	unimp
   1e4b0:	2020                	fld	fs0,64(s0)
   1e4b2:	2020                	fld	fs0,64(s0)
   1e4b4:	2020                	fld	fs0,64(s0)
   1e4b6:	2020                	fld	fs0,64(s0)
   1e4b8:	756f6873          	csrrsi	a6,0x756,30
   1e4bc:	646c                	flw	fa1,76(s0)
   1e4be:	6220                	flw	fs0,64(a2)
   1e4c0:	3a65                	jal	1de78 <strcmp+0x5c>
   1e4c2:	2020                	fld	fs0,64(s0)
   1e4c4:	4420                	lw	s0,72(s0)
   1e4c6:	5248                	lw	a0,36(a2)
   1e4c8:	5359                	li	t1,-10
   1e4ca:	4f54                	lw	a3,28(a4)
   1e4cc:	454e                	lw	a0,208(sp)
   1e4ce:	5020                	lw	s0,96(s0)
   1e4d0:	4f52                	lw	t5,20(sp)
   1e4d2:	4d415247          	0x4d415247
   1e4d6:	202c                	fld	fa1,64(s0)
   1e4d8:	2732                	fld	fa4,264(sp)
   1e4da:	444e                	lw	s0,208(sp)
   1e4dc:	5320                	lw	s0,96(a4)
   1e4de:	5254                	lw	a3,36(a2)
   1e4e0:	4e49                	li	t3,18
   1e4e2:	00000a47          	fmsub.s	fs4,ft0,ft0,ft0,rne
   1e4e6:	0000                	unimp
   1e4e8:	754e                	flw	fa0,240(sp)
   1e4ea:	626d                	lui	tp,0x1b
   1e4ec:	7265                	lui	tp,0xffff9
   1e4ee:	4f5f 5f66 7552      	0x75525f664f5f
   1e4f4:	736e                	flw	ft6,248(sp)
   1e4f6:	203a                	fld	ft0,392(sp)
   1e4f8:	6425                	lui	s0,0x9
   1e4fa:	000a                	0xa
   1e4fc:	7355                	lui	t1,0xffff5
   1e4fe:	7265                	lui	tp,0xffff9
   1e500:	545f 6d69 3a65      	0x3a656d69545f
   1e506:	2520                	fld	fs0,72(a0)
   1e508:	2064                	fld	fs1,192(s0)
   1e50a:	6c637963          	bleu	t1,t1,1ebdc <errpat+0xc54>
   1e50e:	7365                	lui	t1,0xffff9
   1e510:	202c                	fld	fa1,64(s0)
   1e512:	6425                	lui	s0,0x9
   1e514:	6920                	flw	fs0,80(a0)
   1e516:	736e                	flw	ft6,248(sp)
   1e518:	7274                	flw	fa3,100(a2)
   1e51a:	6375                	lui	t1,0x1d
   1e51c:	6974                	flw	fa3,84(a0)
   1e51e:	0a736e6f          	jal	t3,54dc4 <heap_memory_used+0x32fec>
   1e522:	0000                	unimp
   1e524:	6c637943          	0x6c637943
   1e528:	7365                	lui	t1,0xffff9
   1e52a:	505f 7265 495f      	0x495f7265505f
   1e530:	736e                	flw	ft6,248(sp)
   1e532:	7274                	flw	fa3,100(a2)
   1e534:	6375                	lui	t1,0x1d
   1e536:	6974                	flw	fa3,84(a0)
   1e538:	203a6e6f          	jal	t3,c4f3a <heap_memory_used+0xa3162>
   1e53c:	6425                	lui	s0,0x9
   1e53e:	252e                	fld	fa0,200(sp)
   1e540:	2564                	fld	fs1,200(a0)
   1e542:	2564                	fld	fs1,200(a0)
   1e544:	0a64                	addi	s1,sp,284
   1e546:	0000                	unimp
   1e548:	6844                	flw	fs1,20(s0)
   1e54a:	7972                	flw	fs2,60(sp)
   1e54c:	6e6f7473          	csrrci	s0,0x6e6,30
   1e550:	7365                	lui	t1,0xffff9
   1e552:	505f 7265 535f      	0x535f7265505f
   1e558:	6365                	lui	t1,0x19
   1e55a:	5f646e6f          	jal	t3,64b50 <heap_memory_used+0x42d78>
   1e55e:	6550                	flw	fa2,12(a0)
   1e560:	5f72                	lw	t5,60(sp)
   1e562:	484d                	li	a6,19
   1e564:	3a7a                	fld	fs4,440(sp)
   1e566:	2520                	fld	fs0,72(a0)
   1e568:	0a64                	addi	s1,sp,284
   1e56a:	0000                	unimp
   1e56c:	4d44                	lw	s1,28(a0)
   1e56e:	5049                	0x5049
   1e570:	65505f53          	0x65505f53
   1e574:	5f72                	lw	t5,60(sp)
   1e576:	484d                	li	a6,19
   1e578:	3a7a                	fld	fs4,440(sp)
   1e57a:	2520                	fld	fs0,72(a0)
   1e57c:	2e64                	fld	fs1,216(a2)
   1e57e:	6425                	lui	s0,0x9
   1e580:	6425                	lui	s0,0x9
   1e582:	6425                	lui	s0,0x9
   1e584:	000a                	0xa
   1e586:	0000                	unimp
   1e588:	694c                	flw	fa1,20(a0)
   1e58a:	66207473          	csrrci	s0,0x662,0
   1e58e:	6e69                	lui	t3,0x1a
   1e590:	2064                	fld	fs1,192(s0)
   1e592:	6425                	lui	s0,0x9
   1e594:	203a                	fld	ft0,392(sp)
   1e596:	2c64255b          	0x2c64255b
   1e59a:	6425                	lui	s0,0x9
   1e59c:	252c                	fld	fa1,72(a0)
   1e59e:	5d64                	lw	s1,124(a0)
   1e5a0:	000a                	0xa
   1e5a2:	0000                	unimp
   1e5a4:	694c                	flw	fa1,20(a0)
   1e5a6:	73207473          	csrrci	s0,0x732,0
   1e5aa:	2074726f          	jal	tp,65fb0 <heap_memory_used+0x441d8>
   1e5ae:	3a31                	jal	1deca <strcmp+0xae>
   1e5b0:	2520                	fld	fs0,72(a0)
   1e5b2:	3430                	fld	fa2,104(s0)
   1e5b4:	0a78                	addi	a4,sp,284
   1e5b6:	0000                	unimp
   1e5b8:	694c                	flw	fa1,20(a0)
   1e5ba:	73207473          	csrrci	s0,0x732,0
   1e5be:	2074726f          	jal	tp,65fc4 <heap_memory_used+0x441ec>
   1e5c2:	3a32                	fld	fs4,296(sp)
   1e5c4:	2520                	fld	fs0,72(a0)
   1e5c6:	3430                	fld	fa2,104(s0)
   1e5c8:	0a78                	addi	a4,sp,284
   1e5ca:	0000                	unimp
   1e5cc:	6e49                	lui	t3,0x12
   1e5ce:	7469                	lui	s0,0xffffa
   1e5d0:	6169                	addi	sp,sp,208
   1e5d2:	696c                	flw	fa1,84(a0)
   1e5d4:	657a                	flw	fa0,156(sp)
   1e5d6:	2064                	fld	fs1,192(s0)
   1e5d8:	696c                	flw	fa1,84(a0)
   1e5da:	0a3a7473          	csrrci	s0,0xa3,20
   1e5de:	0000                	unimp
   1e5e0:	3430255b          	0x3430255b
   1e5e4:	2c78                	fld	fa4,216(s0)
   1e5e6:	3025                	jal	1de0e <strcpy+0xa2>
   1e5e8:	7834                	flw	fa3,112(s0)
   1e5ea:	005d                	c.addi	zero,23
   1e5ec:	6b36                	flw	fs6,76(sp)
   1e5ee:	7020                	flw	fs0,96(s0)
   1e5f0:	7265                	lui	tp,0xffff9
   1e5f2:	6f66                	flw	ft10,88(sp)
   1e5f4:	6d72                	flw	fs10,28(sp)
   1e5f6:	6e61                	lui	t3,0x18
   1e5f8:	72206563          	bltu	zero,sp,1ed22 <tdat3+0x2>
   1e5fc:	6e75                	lui	t3,0x1d
   1e5fe:	7020                	flw	fs0,96(s0)
   1e600:	7261                	lui	tp,0xffff8
   1e602:	6d61                	lui	s10,0x18
   1e604:	7465                	lui	s0,0xffff9
   1e606:	7265                	lui	tp,0xffff9
   1e608:	6f662073          	csrs	0x6f6,a2
   1e60c:	2072                	fld	ft0,280(sp)
   1e60e:	65726f63          	bltu	tp,s7,1ec6c <errpat+0xce4>
   1e612:	616d                	addi	sp,sp,240
   1e614:	6b72                	flw	fs6,28(sp)
   1e616:	0a2e                	slli	s4,s4,0xb
   1e618:	0000                	unimp
   1e61a:	0000                	unimp
   1e61c:	6b36                	flw	fs6,76(sp)
   1e61e:	7620                	flw	fs0,104(a2)
   1e620:	6c61                	lui	s8,0x18
   1e622:	6469                	lui	s0,0x1a
   1e624:	7461                	lui	s0,0xffff8
   1e626:	6f69                	lui	t5,0x1a
   1e628:	206e                	fld	ft0,216(sp)
   1e62a:	7572                	flw	fa0,60(sp)
   1e62c:	206e                	fld	ft0,216(sp)
   1e62e:	6170                	flw	fa2,68(a0)
   1e630:	6172                	flw	ft2,28(sp)
   1e632:	656d                	lui	a0,0x1b
   1e634:	6574                	flw	fa3,76(a0)
   1e636:	7372                	flw	ft6,60(sp)
   1e638:	6620                	flw	fs0,72(a2)
   1e63a:	6320726f          	jal	tp,25c6c <heap_memory_used+0x3e94>
   1e63e:	6d65726f          	jal	tp,75d14 <heap_memory_used+0x53f3c>
   1e642:	7261                	lui	tp,0xffff8
   1e644:	000a2e6b          	0xa2e6b
   1e648:	7250                	flw	fa2,36(a2)
   1e64a:	6c69666f          	jal	a2,b4d10 <heap_memory_used+0x92f38>
   1e64e:	2065                	jal	1e6f6 <errpat+0x76e>
   1e650:	656e6567          	0x656e6567
   1e654:	6172                	flw	ft2,28(sp)
   1e656:	6974                	flw	fa3,84(a0)
   1e658:	72206e6f          	jal	t3,24d7a <heap_memory_used+0x2fa2>
   1e65c:	6e75                	lui	t3,0x1d
   1e65e:	7020                	flw	fs0,96(s0)
   1e660:	7261                	lui	tp,0xffff8
   1e662:	6d61                	lui	s10,0x18
   1e664:	7465                	lui	s0,0xffff9
   1e666:	7265                	lui	tp,0xffff9
   1e668:	6f662073          	csrs	0x6f6,a2
   1e66c:	2072                	fld	ft0,280(sp)
   1e66e:	65726f63          	bltu	tp,s7,1eccc <fsw_data>
   1e672:	616d                	addi	sp,sp,240
   1e674:	6b72                	flw	fs6,28(sp)
   1e676:	0a2e                	slli	s4,s4,0xb
   1e678:	0000                	unimp
   1e67a:	0000                	unimp
   1e67c:	4b32                	lw	s6,12(sp)
   1e67e:	7020                	flw	fs0,96(s0)
   1e680:	7265                	lui	tp,0xffff9
   1e682:	6f66                	flw	ft10,88(sp)
   1e684:	6d72                	flw	fs10,28(sp)
   1e686:	6e61                	lui	t3,0x18
   1e688:	72206563          	bltu	zero,sp,1edb2 <foo+0x6a>
   1e68c:	6e75                	lui	t3,0x1d
   1e68e:	7020                	flw	fs0,96(s0)
   1e690:	7261                	lui	tp,0xffff8
   1e692:	6d61                	lui	s10,0x18
   1e694:	7465                	lui	s0,0xffff9
   1e696:	7265                	lui	tp,0xffff9
   1e698:	6f662073          	csrs	0x6f6,a2
   1e69c:	2072                	fld	ft0,280(sp)
   1e69e:	65726f63          	bltu	tp,s7,1ecfc <tdat5>
   1e6a2:	616d                	addi	sp,sp,240
   1e6a4:	6b72                	flw	fs6,28(sp)
   1e6a6:	0a2e                	slli	s4,s4,0xb
   1e6a8:	0000                	unimp
   1e6aa:	0000                	unimp
   1e6ac:	4b32                	lw	s6,12(sp)
   1e6ae:	7620                	flw	fs0,104(a2)
   1e6b0:	6c61                	lui	s8,0x18
   1e6b2:	6469                	lui	s0,0x1a
   1e6b4:	7461                	lui	s0,0xffff8
   1e6b6:	6f69                	lui	t5,0x1a
   1e6b8:	206e                	fld	ft0,216(sp)
   1e6ba:	7572                	flw	fa0,60(sp)
   1e6bc:	206e                	fld	ft0,216(sp)
   1e6be:	6170                	flw	fa2,68(a0)
   1e6c0:	6172                	flw	ft2,28(sp)
   1e6c2:	656d                	lui	a0,0x1b
   1e6c4:	6574                	flw	fa3,76(a0)
   1e6c6:	7372                	flw	ft6,60(sp)
   1e6c8:	6620                	flw	fs0,72(a2)
   1e6ca:	6320726f          	jal	tp,25cfc <heap_memory_used+0x3f24>
   1e6ce:	6d65726f          	jal	tp,75da4 <heap_memory_used+0x53fcc>
   1e6d2:	7261                	lui	tp,0xffff8
   1e6d4:	000a2e6b          	0xa2e6b
   1e6d8:	5d75255b          	0x5d75255b
   1e6dc:	5245                	li	tp,-15
   1e6de:	4f52                	lw	t5,20(sp)
   1e6e0:	2152                	fld	ft2,272(sp)
   1e6e2:	6c20                	flw	fs0,88(s0)
   1e6e4:	7369                	lui	t1,0xffffa
   1e6e6:	2074                	fld	fa3,192(s0)
   1e6e8:	20637263          	bleu	t1,t1,1e8ec <errpat+0x964>
   1e6ec:	7830                	flw	fa2,112(s0)
   1e6ee:	3025                	jal	1df16 <strcmp+0xfa>
   1e6f0:	7834                	flw	fa3,112(s0)
   1e6f2:	2d20                	fld	fs0,88(a0)
   1e6f4:	7320                	flw	fs0,96(a4)
   1e6f6:	6f68                	flw	fa0,92(a4)
   1e6f8:	6c75                	lui	s8,0x1d
   1e6fa:	2064                	fld	fs1,192(s0)
   1e6fc:	6562                	flw	fa0,24(sp)
   1e6fe:	3020                	fld	fs0,96(s0)
   1e700:	2578                	fld	fa4,200(a0)
   1e702:	3430                	fld	fa2,104(s0)
   1e704:	0a78                	addi	a4,sp,284
   1e706:	0000                	unimp
   1e708:	5d75255b          	0x5d75255b
   1e70c:	5245                	li	tp,-15
   1e70e:	4f52                	lw	t5,20(sp)
   1e710:	2152                	fld	ft2,272(sp)
   1e712:	6d20                	flw	fs0,88(a0)
   1e714:	7461                	lui	s0,0xffff8
   1e716:	6972                	flw	fs2,28(sp)
   1e718:	2078                	fld	fa4,192(s0)
   1e71a:	20637263          	bleu	t1,t1,1e91e <errpat+0x996>
   1e71e:	7830                	flw	fa2,112(s0)
   1e720:	3025                	jal	1df48 <state_known_crc+0x10>
   1e722:	7834                	flw	fa3,112(s0)
   1e724:	2d20                	fld	fs0,88(a0)
   1e726:	7320                	flw	fs0,96(a4)
   1e728:	6f68                	flw	fa0,92(a4)
   1e72a:	6c75                	lui	s8,0x1d
   1e72c:	2064                	fld	fs1,192(s0)
   1e72e:	6562                	flw	fa0,24(sp)
   1e730:	3020                	fld	fs0,96(s0)
   1e732:	2578                	fld	fa4,200(a0)
   1e734:	3430                	fld	fa2,104(s0)
   1e736:	0a78                	addi	a4,sp,284
   1e738:	0000                	unimp
   1e73a:	0000                	unimp
   1e73c:	5d75255b          	0x5d75255b
   1e740:	5245                	li	tp,-15
   1e742:	4f52                	lw	t5,20(sp)
   1e744:	2152                	fld	ft2,272(sp)
   1e746:	7320                	flw	fs0,96(a4)
   1e748:	6174                	flw	fa3,68(a0)
   1e74a:	6574                	flw	fa3,76(a0)
   1e74c:	6320                	flw	fs0,64(a4)
   1e74e:	6372                	flw	ft6,28(sp)
   1e750:	3020                	fld	fs0,96(s0)
   1e752:	2578                	fld	fa4,200(a0)
   1e754:	3430                	fld	fa2,104(s0)
   1e756:	2078                	fld	fa4,192(s0)
   1e758:	202d                	jal	1e782 <errpat+0x7fa>
   1e75a:	756f6873          	csrrsi	a6,0x756,30
   1e75e:	646c                	flw	fa1,76(s0)
   1e760:	6220                	flw	fs0,64(a2)
   1e762:	2065                	jal	1e80a <errpat+0x882>
   1e764:	7830                	flw	fa2,112(s0)
   1e766:	3025                	jal	1df8e <errpat+0x6>
   1e768:	7834                	flw	fa3,112(s0)
   1e76a:	000a                	0xa
   1e76c:	65726f43          	0x65726f43
   1e770:	614d                	addi	sp,sp,176
   1e772:	6b72                	flw	fs6,28(sp)
   1e774:	5320                	lw	s0,96(a4)
   1e776:	7a69                	lui	s4,0xffffa
   1e778:	2065                	jal	1e820 <errpat+0x898>
   1e77a:	2020                	fld	fs0,64(s0)
   1e77c:	3a20                	fld	fs0,112(a2)
   1e77e:	2520                	fld	fs0,72(a0)
   1e780:	756c                	flw	fa1,108(a0)
   1e782:	000a                	0xa
   1e784:	6f54                	flw	fa3,28(a4)
   1e786:	6174                	flw	fa3,68(a0)
   1e788:	206c                	fld	fa1,192(s0)
   1e78a:	6974                	flw	fa3,84(a0)
   1e78c:	20736b63          	bltu	t1,t2,1e9a2 <errpat+0xa1a>
   1e790:	2020                	fld	fs0,64(s0)
   1e792:	2020                	fld	fs0,64(s0)
   1e794:	3a20                	fld	fs0,112(a2)
   1e796:	2520                	fld	fs0,72(a0)
   1e798:	756c                	flw	fa1,108(a0)
   1e79a:	000a                	0xa
   1e79c:	6f54                	flw	fa3,28(a4)
   1e79e:	6174                	flw	fa3,68(a0)
   1e7a0:	206c                	fld	fa1,192(s0)
   1e7a2:	6974                	flw	fa3,84(a0)
   1e7a4:	656d                	lui	a0,0x1b
   1e7a6:	2820                	fld	fs0,80(s0)
   1e7a8:	73636573          	csrrsi	a0,0x736,6
   1e7ac:	3a29                	jal	1e0c6 <errpat+0x13e>
   1e7ae:	2520                	fld	fs0,72(a0)
   1e7b0:	2e64                	fld	fs1,216(a2)
   1e7b2:	6425                	lui	s0,0x9
   1e7b4:	6425                	lui	s0,0x9
   1e7b6:	6425                	lui	s0,0x9
   1e7b8:	000a                	0xa
   1e7ba:	0000                	unimp
   1e7bc:	7449                	lui	s0,0xffff2
   1e7be:	7265                	lui	tp,0xffff9
   1e7c0:	7461                	lui	s0,0xffff8
   1e7c2:	6f69                	lui	t5,0x1a
   1e7c4:	736e                	flw	ft6,248(sp)
   1e7c6:	6365532f          	0x6365532f
   1e7ca:	2020                	fld	fs0,64(s0)
   1e7cc:	3a20                	fld	fs0,112(a2)
   1e7ce:	2520                	fld	fs0,72(a0)
   1e7d0:	2e64                	fld	fs1,216(a2)
   1e7d2:	6425                	lui	s0,0x9
   1e7d4:	6425                	lui	s0,0x9
   1e7d6:	6425                	lui	s0,0x9
   1e7d8:	000a                	0xa
   1e7da:	0000                	unimp
   1e7dc:	5245                	li	tp,-15
   1e7de:	4f52                	lw	t5,20(sp)
   1e7e0:	2152                	fld	ft2,272(sp)
   1e7e2:	4d20                	lw	s0,88(a0)
   1e7e4:	7375                	lui	t1,0xffffd
   1e7e6:	2074                	fld	fa3,192(s0)
   1e7e8:	7865                	lui	a6,0xffff9
   1e7ea:	6365                	lui	t1,0x19
   1e7ec:	7475                	lui	s0,0xffffd
   1e7ee:	2065                	jal	1e896 <errpat+0x90e>
   1e7f0:	6f66                	flw	ft10,88(sp)
   1e7f2:	2072                	fld	ft0,280(sp)
   1e7f4:	7461                	lui	s0,0xffff8
   1e7f6:	6c20                	flw	fs0,88(s0)
   1e7f8:	6165                	addi	sp,sp,112
   1e7fa:	31207473          	csrrci	s0,0x312,0
   1e7fe:	2030                	fld	fa2,64(s0)
   1e800:	73636573          	csrrsi	a0,0x736,6
   1e804:	6620                	flw	fs0,72(a2)
   1e806:	6120726f          	jal	tp,25e18 <heap_memory_used+0x4040>
   1e80a:	7620                	flw	fs0,104(a2)
   1e80c:	6c61                	lui	s8,0x18
   1e80e:	6469                	lui	s0,0x1a
   1e810:	7220                	flw	fs0,96(a2)
   1e812:	7365                	lui	t1,0xffff9
   1e814:	6c75                	lui	s8,0x1d
   1e816:	2174                	fld	fa3,192(a0)
   1e818:	000a                	0xa
   1e81a:	0000                	unimp
   1e81c:	7449                	lui	s0,0xffff2
   1e81e:	7265                	lui	tp,0xffff9
   1e820:	7461                	lui	s0,0xffff8
   1e822:	6f69                	lui	t5,0x1a
   1e824:	736e                	flw	ft6,248(sp)
   1e826:	2020                	fld	fs0,64(s0)
   1e828:	2020                	fld	fs0,64(s0)
   1e82a:	2020                	fld	fs0,64(s0)
   1e82c:	3a20                	fld	fs0,112(a2)
   1e82e:	2520                	fld	fs0,72(a0)
   1e830:	756c                	flw	fa1,108(a0)
   1e832:	000a                	0xa
   1e834:	6972                	flw	fs2,28(sp)
   1e836:	36766373          	csrrsi	t1,0x367,12
   1e83a:	2d34                	fld	fa3,88(a0)
   1e83c:	6e75                	lui	t3,0x1d
   1e83e:	776f6e6b          	0x776f6e6b
   1e842:	2d6e                	fld	fs10,216(sp)
   1e844:	6c65                	lui	s8,0x19
   1e846:	2d66                	fld	fs10,88(sp)
   1e848:	20636367          	0x20636367
   1e84c:	2e312e37          	lui	t3,0x2e312
   1e850:	2031                	jal	1e85c <errpat+0x8d4>
   1e852:	3032                	fld	ft0,296(sp)
   1e854:	3731                	jal	1e760 <errpat+0x7d8>
   1e856:	3530                	fld	fa2,104(a0)
   1e858:	3930                	fld	fa2,112(a0)
   1e85a:	0000                	unimp
   1e85c:	706d6f43          	fmadd.s	ft10,fs10,ft6,fa4,unknown
   1e860:	6c69                	lui	s8,0x1a
   1e862:	7265                	lui	tp,0xffff9
   1e864:	7620                	flw	fs0,104(a2)
   1e866:	7265                	lui	tp,0xffff9
   1e868:	6e6f6973          	csrrsi	s2,0x6e6,30
   1e86c:	3a20                	fld	fs0,112(a2)
   1e86e:	2520                	fld	fs0,72(a0)
   1e870:	00000a73          	0xa73
   1e874:	4f2d                	li	t5,11
   1e876:	0032                	0x32
   1e878:	706d6f43          	fmadd.s	ft10,fs10,ft6,fa4,unknown
   1e87c:	6c69                	lui	s8,0x1a
   1e87e:	7265                	lui	tp,0xffff9
   1e880:	6620                	flw	fs0,72(a2)
   1e882:	616c                	flw	fa1,68(a0)
   1e884:	20207367          	0x20207367
   1e888:	3a20                	fld	fs0,112(a2)
   1e88a:	2520                	fld	fs0,72(a0)
   1e88c:	00000a73          	0xa73
   1e890:	43415453          	0x43415453
   1e894:	0000004b          	fnmsub.s	ft0,ft0,ft0,ft0,rne
   1e898:	654d                	lui	a0,0x13
   1e89a:	6f6d                	lui	t5,0x1b
   1e89c:	7972                	flw	fs2,60(sp)
   1e89e:	6c20                	flw	fs0,88(s0)
   1e8a0:	7461636f          	jal	t1,34fe6 <heap_memory_used+0x1320e>
   1e8a4:	6f69                	lui	t5,0x1a
   1e8a6:	206e                	fld	ft0,216(sp)
   1e8a8:	3a20                	fld	fs0,112(a2)
   1e8aa:	2520                	fld	fs0,72(a0)
   1e8ac:	00000a73          	0xa73
   1e8b0:	64656573          	csrrsi	a0,0x646,10
   1e8b4:	20637263          	bleu	t1,t1,1eab8 <errpat+0xb30>
   1e8b8:	2020                	fld	fs0,64(s0)
   1e8ba:	2020                	fld	fs0,64(s0)
   1e8bc:	2020                	fld	fs0,64(s0)
   1e8be:	2020                	fld	fs0,64(s0)
   1e8c0:	3a20                	fld	fs0,112(a2)
   1e8c2:	3020                	fld	fs0,96(s0)
   1e8c4:	2578                	fld	fa4,200(a0)
   1e8c6:	3430                	fld	fa2,104(s0)
   1e8c8:	0a78                	addi	a4,sp,284
   1e8ca:	0000                	unimp
   1e8cc:	5d64255b          	0x5d64255b
   1e8d0:	6c637263          	bleu	t1,t1,1ef94 <foo+0x24c>
   1e8d4:	7369                	lui	t1,0xffffa
   1e8d6:	2074                	fld	fa3,192(s0)
   1e8d8:	2020                	fld	fs0,64(s0)
   1e8da:	2020                	fld	fs0,64(s0)
   1e8dc:	2020                	fld	fs0,64(s0)
   1e8de:	203a                	fld	ft0,392(sp)
   1e8e0:	7830                	flw	fa2,112(s0)
   1e8e2:	3025                	jal	1e10a <errpat+0x182>
   1e8e4:	7834                	flw	fa3,112(s0)
   1e8e6:	000a                	0xa
   1e8e8:	5d64255b          	0x5d64255b
   1e8ec:	6d637263          	bleu	s6,t1,1efb0 <foo+0x268>
   1e8f0:	7461                	lui	s0,0xffff8
   1e8f2:	6972                	flw	fs2,28(sp)
   1e8f4:	2078                	fld	fa4,192(s0)
   1e8f6:	2020                	fld	fs0,64(s0)
   1e8f8:	2020                	fld	fs0,64(s0)
   1e8fa:	203a                	fld	ft0,392(sp)
   1e8fc:	7830                	flw	fa2,112(s0)
   1e8fe:	3025                	jal	1e126 <errpat+0x19e>
   1e900:	7834                	flw	fa3,112(s0)
   1e902:	000a                	0xa
   1e904:	5d64255b          	0x5d64255b
   1e908:	73637263          	bleu	s6,t1,1f02c <foo+0x2e4>
   1e90c:	6174                	flw	fa3,68(a0)
   1e90e:	6574                	flw	fa3,76(a0)
   1e910:	2020                	fld	fs0,64(s0)
   1e912:	2020                	fld	fs0,64(s0)
   1e914:	2020                	fld	fs0,64(s0)
   1e916:	203a                	fld	ft0,392(sp)
   1e918:	7830                	flw	fa2,112(s0)
   1e91a:	3025                	jal	1e142 <errpat+0x1ba>
   1e91c:	7834                	flw	fa3,112(s0)
   1e91e:	000a                	0xa
   1e920:	5d64255b          	0x5d64255b
   1e924:	66637263          	bleu	t1,t1,1ef88 <foo+0x240>
   1e928:	6e69                	lui	t3,0x1a
   1e92a:	6c61                	lui	s8,0x18
   1e92c:	2020                	fld	fs0,64(s0)
   1e92e:	2020                	fld	fs0,64(s0)
   1e930:	2020                	fld	fs0,64(s0)
   1e932:	203a                	fld	ft0,392(sp)
   1e934:	7830                	flw	fa2,112(s0)
   1e936:	3025                	jal	1e15e <errpat+0x1d6>
   1e938:	7834                	flw	fa3,112(s0)
   1e93a:	000a                	0xa
   1e93c:	72726f43          	fmadd.d	ft10,ft4,ft7,fa4,unknown
   1e940:	6365                	lui	t1,0x19
   1e942:	2074                	fld	fa3,192(s0)
   1e944:	7265706f          	j	7606a <heap_memory_used+0x54292>
   1e948:	7461                	lui	s0,0xffff8
   1e94a:	6f69                	lui	t5,0x1a
   1e94c:	206e                	fld	ft0,216(sp)
   1e94e:	6176                	flw	ft2,92(sp)
   1e950:	696c                	flw	fa1,84(a0)
   1e952:	6164                	flw	fs1,68(a0)
   1e954:	6574                	flw	fa3,76(a0)
   1e956:	2e64                	fld	fs1,216(a2)
   1e958:	5320                	lw	s0,96(a4)
   1e95a:	6565                	lui	a0,0x19
   1e95c:	7220                	flw	fs0,96(a2)
   1e95e:	6165                	addi	sp,sp,112
   1e960:	6d64                	flw	fs1,92(a0)
   1e962:	2e65                	jal	1ed1a <tdat+0x2>
   1e964:	7874                	flw	fa3,116(s0)
   1e966:	2074                	fld	fa3,192(s0)
   1e968:	6f66                	flw	ft10,88(sp)
   1e96a:	2072                	fld	ft0,280(sp)
   1e96c:	7572                	flw	fa0,60(sp)
   1e96e:	206e                	fld	ft0,216(sp)
   1e970:	6e61                	lui	t3,0x18
   1e972:	2064                	fld	fs1,192(s0)
   1e974:	6572                	flw	fa0,28(sp)
   1e976:	6f70                	flw	fa2,92(a4)
   1e978:	7472                	flw	fs0,60(sp)
   1e97a:	6e69                	lui	t3,0x1a
   1e97c:	75722067          	0x75722067
   1e980:	656c                	flw	fa1,76(a0)
   1e982:	000a2e73          	csrrs	t3,0x0,s4
   1e986:	0000                	unimp
   1e988:	65726f43          	0x65726f43
   1e98c:	614d                	addi	sp,sp,176
   1e98e:	6b72                	flw	fs6,28(sp)
   1e990:	3120                	fld	fs0,96(a0)
   1e992:	302e                	fld	ft0,232(sp)
   1e994:	3a20                	fld	fs0,112(a2)
   1e996:	2520                	fld	fs0,72(a0)
   1e998:	2e64                	fld	fs1,216(a2)
   1e99a:	6425                	lui	s0,0x9
   1e99c:	6425                	lui	s0,0x9
   1e99e:	6425                	lui	s0,0x9
   1e9a0:	2020                	fld	fs0,64(s0)
   1e9a2:	7325202f          	0x7325202f
   1e9a6:	2520                	fld	fs0,72(a0)
   1e9a8:	00000073          	ecall
   1e9ac:	2f20                	fld	fs0,88(a4)
   1e9ae:	2520                	fld	fs0,72(a0)
   1e9b0:	00000073          	ecall
   1e9b4:	7245                	lui	tp,0xffff1
   1e9b6:	6f72                	flw	ft10,28(sp)
   1e9b8:	7372                	flw	ft6,60(sp)
   1e9ba:	6420                	flw	fs0,72(s0)
   1e9bc:	7465                	lui	s0,0xffff9
   1e9be:	6365                	lui	t1,0x19
   1e9c0:	6574                	flw	fa3,76(a0)
   1e9c2:	0a64                	addi	s1,sp,284
   1e9c4:	0000                	unimp
   1e9c6:	0000                	unimp
   1e9c8:	6e6e6143          	0x6e6e6143
   1e9cc:	7620746f          	jal	s0,2612e <heap_memory_used+0x4356>
   1e9d0:	6c61                	lui	s8,0x18
   1e9d2:	6469                	lui	s0,0x1a
   1e9d4:	7461                	lui	s0,0xffff8
   1e9d6:	2065                	jal	1ea7e <errpat+0xaf6>
   1e9d8:	7265706f          	j	760fe <heap_memory_used+0x54326>
   1e9dc:	7461                	lui	s0,0xffff8
   1e9de:	6f69                	lui	t5,0x1a
   1e9e0:	206e                	fld	ft0,216(sp)
   1e9e2:	6f66                	flw	ft10,88(sp)
   1e9e4:	2072                	fld	ft0,280(sp)
   1e9e6:	6874                	flw	fa3,84(s0)
   1e9e8:	7365                	lui	t1,0xffff9
   1e9ea:	2065                	jal	1ea92 <errpat+0xb0a>
   1e9ec:	64656573          	csrrsi	a0,0x646,10
   1e9f0:	7620                	flw	fs0,104(a2)
   1e9f2:	6c61                	lui	s8,0x18
   1e9f4:	6575                	lui	a0,0x1d
   1e9f6:	70202c73          	csrr	s8,0x702
   1e9fa:	656c                	flw	fa1,76(a0)
   1e9fc:	7361                	lui	t1,0xffff8
   1e9fe:	2065                	jal	1eaa6 <errpat+0xb1e>
   1ea00:	706d6f63          	bltu	s10,t1,1f11e <foo+0x3d6>
   1ea04:	7261                	lui	tp,0xffff8
   1ea06:	2065                	jal	1eaae <errpat+0xb26>
   1ea08:	68746977          	0x68746977
   1ea0c:	7220                	flw	fs0,96(a2)
   1ea0e:	7365                	lui	t1,0xffff9
   1ea10:	6c75                	lui	s8,0x1d
   1ea12:	7374                	flw	fa3,100(a4)
   1ea14:	6f20                	flw	fs0,88(a4)
   1ea16:	206e                	fld	ft0,216(sp)
   1ea18:	2061                	jal	1eaa0 <errpat+0xb18>
   1ea1a:	776f6e6b          	0x776f6e6b
   1ea1e:	206e                	fld	ft0,216(sp)
   1ea20:	6c70                	flw	fa2,92(s0)
   1ea22:	7461                	lui	s0,0xffff8
   1ea24:	6f66                	flw	ft10,88(sp)
   1ea26:	6d72                	flw	fs10,28(sp)
   1ea28:	0a2e                	slli	s4,s4,0xb
   1ea2a:	0000                	unimp
   1ea2c:	74617453          	0x74617453
   1ea30:	6369                	lui	t1,0x1a
   1ea32:	0000                	unimp
   1ea34:	6548                	flw	fa0,12(a0)
   1ea36:	7061                	0x7061
   1ea38:	0000                	unimp
   1ea3a:	0000                	unimp
   1ea3c:	63617453          	0x63617453
   1ea40:	0000006b          	0x6b
   1ea44:	614d                	addi	sp,sp,176
   1ea46:	7274                	flw	fa3,100(a2)
   1ea48:	7869                	lui	a6,0xffffa
   1ea4a:	2520                	fld	fs0,72(a0)
   1ea4c:	255b2073          	csrs	0x255,s6
   1ea50:	7864                	flw	fs1,116(s0)
   1ea52:	6425                	lui	s0,0x9
   1ea54:	3a5d                	jal	1e40a <errpat+0x482>
   1ea56:	000a                	0xa
   1ea58:	002c                	addi	a1,sp,8
   1ea5a:	0000                	unimp
   1ea5c:	6425                	lui	s0,0x9
   1ea5e:	0000                	unimp
   1ea60:	0041                	c.addi	zero,16
   1ea62:	0000                	unimp
   1ea64:	0042                	0x42
   1ea66:	0000                	unimp
   1ea68:	616d                	addi	sp,sp,240
   1ea6a:	7274                	flw	fa3,100(a2)
   1ea6c:	7869                	lui	a6,0xffffa
   1ea6e:	615f 6464 635f      	0x635f6464615f
   1ea74:	74736e6f          	jal	t3,559ba <heap_memory_used+0x33be2>
   1ea78:	0000                	unimp
   1ea7a:	0000                	unimp
   1ea7c:	616d                	addi	sp,sp,240
   1ea7e:	7274                	flw	fa3,100(a2)
   1ea80:	7869                	lui	a6,0xffffa
   1ea82:	6d5f 6c75 635f      	0x635f6c756d5f
   1ea88:	74736e6f          	jal	t3,559ce <heap_memory_used+0x33bf6>
   1ea8c:	0000                	unimp
   1ea8e:	0000                	unimp
   1ea90:	616d                	addi	sp,sp,240
   1ea92:	7274                	flw	fa3,100(a2)
   1ea94:	7869                	lui	a6,0xffffa
   1ea96:	6d5f 6c75 765f      	0x765f6c756d5f
   1ea9c:	6365                	lui	t1,0x19
   1ea9e:	0074                	addi	a3,sp,12
   1eaa0:	616d                	addi	sp,sp,240
   1eaa2:	7274                	flw	fa3,100(a2)
   1eaa4:	7869                	lui	a6,0xffffa
   1eaa6:	6d5f 6c75 6d5f      	0x6d5f6c756d5f
   1eaac:	7461                	lui	s0,0xffff8
   1eaae:	6972                	flw	fs2,28(sp)
   1eab0:	0078                	addi	a4,sp,12
   1eab2:	0000                	unimp
   1eab4:	616d                	addi	sp,sp,240
   1eab6:	7274                	flw	fa3,100(a2)
   1eab8:	7869                	lui	a6,0xffffa
   1eaba:	6d5f 6c75 6d5f      	0x6d5f6c756d5f
   1eac0:	7461                	lui	s0,0xffff8
   1eac2:	6972                	flw	fs2,28(sp)
   1eac4:	5f78                	lw	a4,124(a4)
   1eac6:	6962                	flw	fs2,24(sp)
   1eac8:	6574                	flw	fa3,76(a0)
   1eaca:	7478                	flw	fa4,108(s0)
   1eacc:	6172                	flw	ft2,28(sp)
   1eace:	00007463          	bleu	zero,zero,1ead6 <errpat+0xb4e>
   1ead2:	0000                	unimp
   1ead4:	74617453          	0x74617453
   1ead8:	3a65                	jal	1e490 <errpat+0x508>
   1eada:	2520                	fld	fs0,72(a0)
   1eadc:	2c64                	fld	fs1,216(s0)
   1eade:	6425                	lui	s0,0x9
   1eae0:	000a                	0xa
   1eae2:	0000                	unimp
   1eae4:	74617453          	0x74617453
   1eae8:	2065                	jal	1eb90 <errpat+0xc08>
   1eaea:	6e49                	lui	t3,0x12
   1eaec:	7570                	flw	fa2,108(a0)
   1eaee:	3a74                	fld	fa3,240(a2)
   1eaf0:	2520                	fld	fs0,72(a0)
   1eaf2:	00000a73          	0xa73
   1eaf6:	0000                	unimp
   1eaf8:	74617453          	0x74617453
   1eafc:	2065                	jal	1eba4 <errpat+0xc1c>
   1eafe:	6542                	flw	fa0,16(sp)
   1eb00:	636e                	flw	ft6,216(sp)
   1eb02:	3a68                	fld	fa0,240(a2)
   1eb04:	2520                	fld	fs0,72(a0)
   1eb06:	2c64                	fld	fs1,216(s0)
   1eb08:	6425                	lui	s0,0x9
   1eb0a:	252c                	fld	fa1,72(a0)
   1eb0c:	2c64                	fld	fs1,216(s0)
   1eb0e:	3025                	jal	1e336 <errpat+0x3ae>
   1eb10:	7834                	flw	fa3,112(s0)
   1eb12:	000a                	0xa
   1eb14:	6425                	lui	s0,0x9
   1eb16:	002c                	addi	a1,sp,8
   1eb18:	3054                	fld	fa3,160(s0)
   1eb1a:	332e                	fld	ft6,232(sp)
   1eb1c:	2d65                	jal	1f1d4 <Arr_2_Glob+0x10>
   1eb1e:	4631                	li	a2,12
   1eb20:	0000                	unimp
   1eb22:	0000                	unimp
   1eb24:	542d                	li	s0,-21
   1eb26:	542e                	lw	s0,232(sp)
   1eb28:	71542b2b          	0x71542b2b
   1eb2c:	0000                	unimp
   1eb2e:	0000                	unimp
   1eb30:	5431                	li	s0,-20
   1eb32:	65342e33          	0x65342e33
   1eb36:	7a34                	flw	fa3,112(a2)
   1eb38:	0000                	unimp
   1eb3a:	0000                	unimp
   1eb3c:	302e3433          	0x302e3433
   1eb40:	2d65                	jal	1f1f8 <Arr_2_Glob+0x34>
   1eb42:	5e54                	lw	a3,60(a2)
   1eb44:	0000                	unimp
   1eb46:	0000                	unimp
   1eb48:	2e35                	jal	1ee84 <foo+0x13c>
   1eb4a:	3035                	jal	1e376 <errpat+0x3ee>
   1eb4c:	6530                	flw	fa2,72(a0)
   1eb4e:	0000332b          	0x332b
   1eb52:	0000                	unimp
   1eb54:	2e2d                	jal	1ee8e <foo+0x146>
   1eb56:	3231                	jal	1e462 <errpat+0x4da>
   1eb58:	322d6533          	0x322d6533
   1eb5c:	0000                	unimp
   1eb5e:	0000                	unimp
   1eb60:	382d                	jal	1e39a <errpat+0x412>
   1eb62:	382b6537          	lui	a0,0x382b6
   1eb66:	00003233          	snez	tp,zero
   1eb6a:	0000                	unimp
   1eb6c:	362e302b          	0x362e302b
   1eb70:	2d65                	jal	1f228 <Arr_2_Glob+0x64>
   1eb72:	3231                	jal	1e47e <errpat+0x4f6>
   1eb74:	0000                	unimp
   1eb76:	0000                	unimp
   1eb78:	352e3533          	0x352e3533
   1eb7c:	3434                	fld	fa3,104(s0)
   1eb7e:	3030                	fld	fa2,96(s0)
   1eb80:	0000                	unimp
   1eb82:	0000                	unimp
   1eb84:	312e                	fld	ft2,232(sp)
   1eb86:	3332                	fld	ft6,296(sp)
   1eb88:	3534                	fld	fa3,104(a0)
   1eb8a:	3030                	fld	fa2,96(s0)
   1eb8c:	0000                	unimp
   1eb8e:	0000                	unimp
   1eb90:	312d                	jal	1e7ba <errpat+0x832>
   1eb92:	3031                	jal	1e39e <errpat+0x416>
   1eb94:	372e                	fld	fa4,232(sp)
   1eb96:	3030                	fld	fa2,96(s0)
   1eb98:	0000                	unimp
   1eb9a:	0000                	unimp
   1eb9c:	362e302b          	0x362e302b
   1eba0:	3434                	fld	fa3,104(s0)
   1eba2:	3030                	fld	fa2,96(s0)
   1eba4:	0000                	unimp
   1eba6:	0000                	unimp
   1eba8:	3035                	jal	1e3d4 <errpat+0x44c>
   1ebaa:	3231                	jal	1e4b6 <errpat+0x52e>
   1ebac:	0000                	unimp
   1ebae:	0000                	unimp
   1ebb0:	3231                	jal	1e4bc <errpat+0x534>
   1ebb2:	00003433          	snez	s0,zero
   1ebb6:	0000                	unimp
   1ebb8:	382d                	jal	1e3f2 <errpat+0x46a>
   1ebba:	00003437          	lui	s0,0x3
   1ebbe:	0000                	unimp
   1ebc0:	3232312b          	0x3232312b
   1ebc4:	0000                	unimp
   1ebc6:	0000                	unimp
   1ebc8:	0a0a                	slli	s4,s4,0x2
   1ebca:	2d2d                	jal	1f204 <Arr_2_Glob+0x40>
   1ebcc:	2d2d                	jal	1f206 <Arr_2_Glob+0x42>
   1ebce:	2d2d                	jal	1f208 <Arr_2_Glob+0x44>
   1ebd0:	2d2d                	jal	1f20a <Arr_2_Glob+0x46>
   1ebd2:	2d2d                	jal	1f20c <Arr_2_Glob+0x48>
   1ebd4:	2d2d                	jal	1f20e <Arr_2_Glob+0x4a>
   1ebd6:	2d2d                	jal	1f210 <Arr_2_Glob+0x4c>
   1ebd8:	2d2d                	jal	1f212 <Arr_2_Glob+0x4e>
   1ebda:	2d2d                	jal	1f214 <Arr_2_Glob+0x50>
   1ebdc:	2d2d                	jal	1f216 <Arr_2_Glob+0x52>
   1ebde:	2d2d                	jal	1f218 <Arr_2_Glob+0x54>
   1ebe0:	2d2d                	jal	1f21a <Arr_2_Glob+0x56>
   1ebe2:	5220                	lw	s0,96(a2)
   1ebe4:	5349                	li	t1,-14
   1ebe6:	20562d43          	fmadd.s	fs10,fa2,ft5,ft4,rdn
   1ebea:	5349                	li	t1,-14
   1ebec:	2041                	jal	1ec6c <errpat+0xce4>
   1ebee:	6554                	flw	fa3,12(a0)
   1ebf0:	73277473          	csrrci	s0,0x732,14
   1ebf4:	4220                	lw	s0,64(a2)
   1ebf6:	6765                	lui	a4,0x19
   1ebf8:	6e69                	lui	t3,0x1a
   1ebfa:	2d2d2073          	csrs	0x2d2,s10
   1ebfe:	2d2d                	jal	1f238 <Arr_2_Glob+0x74>
   1ec00:	2d2d                	jal	1f23a <Arr_2_Glob+0x76>
   1ec02:	2d2d                	jal	1f23c <Arr_2_Glob+0x78>
   1ec04:	2d2d                	jal	1f23e <Arr_2_Glob+0x7a>
   1ec06:	2d2d                	jal	1f240 <Arr_2_Glob+0x7c>
   1ec08:	2d2d                	jal	1f242 <Arr_2_Glob+0x7e>
   1ec0a:	2d2d                	jal	1f244 <Arr_2_Glob+0x80>
   1ec0c:	2d2d                	jal	1f246 <Arr_2_Glob+0x82>
   1ec0e:	2d2d                	jal	1f248 <Arr_2_Glob+0x84>
   1ec10:	2d2d                	jal	1f24a <Arr_2_Glob+0x86>
   1ec12:	2d2d                	jal	1f24c <Arr_2_Glob+0x88>
   1ec14:	000a                	0xa
   1ec16:	0000                	unimp
   1ec18:	0a0a                	slli	s4,s4,0x2
   1ec1a:	2d2d                	jal	1f254 <Arr_2_Glob+0x90>
   1ec1c:	2d2d                	jal	1f256 <Arr_2_Glob+0x92>
   1ec1e:	2d2d                	jal	1f258 <Arr_2_Glob+0x94>
   1ec20:	2d2d                	jal	1f25a <Arr_2_Glob+0x96>
   1ec22:	2d2d                	jal	1f25c <Arr_2_Glob+0x98>
   1ec24:	2d2d                	jal	1f25e <Arr_2_Glob+0x9a>
   1ec26:	2d2d                	jal	1f260 <Arr_2_Glob+0x9c>
   1ec28:	2d2d                	jal	1f262 <Arr_2_Glob+0x9e>
   1ec2a:	2d2d                	jal	1f264 <Arr_2_Glob+0xa0>
   1ec2c:	2d2d                	jal	1f266 <Arr_2_Glob+0xa2>
   1ec2e:	2d2d                	jal	1f268 <Arr_2_Glob+0xa4>
   1ec30:	2d2d                	jal	1f26a <Arr_2_Glob+0xa6>
   1ec32:	4420                	lw	s0,72(s0)
   1ec34:	7268                	flw	fa0,100(a2)
   1ec36:	7379                	lui	t1,0xffffe
   1ec38:	6f74                	flw	fa3,92(a4)
   1ec3a:	656e                	flw	fa0,216(sp)
   1ec3c:	4220                	lw	s0,64(a2)
   1ec3e:	6e65                	lui	t3,0x19
   1ec40:	616d6863          	bltu	s10,s6,1f250 <Arr_2_Glob+0x8c>
   1ec44:	6b72                	flw	fs6,28(sp)
   1ec46:	4220                	lw	s0,64(a2)
   1ec48:	6765                	lui	a4,0x19
   1ec4a:	6e69                	lui	t3,0x1a
   1ec4c:	2d2d2073          	csrs	0x2d2,s10
   1ec50:	2d2d                	jal	1f28a <Arr_2_Glob+0xc6>
   1ec52:	2d2d                	jal	1f28c <Arr_2_Glob+0xc8>
   1ec54:	2d2d                	jal	1f28e <Arr_2_Glob+0xca>
   1ec56:	2d2d                	jal	1f290 <Arr_2_Glob+0xcc>
   1ec58:	2d2d                	jal	1f292 <Arr_2_Glob+0xce>
   1ec5a:	2d2d                	jal	1f294 <Arr_2_Glob+0xd0>
   1ec5c:	2d2d                	jal	1f296 <Arr_2_Glob+0xd2>
   1ec5e:	2d2d                	jal	1f298 <Arr_2_Glob+0xd4>
   1ec60:	2d2d                	jal	1f29a <Arr_2_Glob+0xd6>
   1ec62:	2d2d                	jal	1f29c <Arr_2_Glob+0xd8>
   1ec64:	2d2d                	jal	1f29e <Arr_2_Glob+0xda>
   1ec66:	000a                	0xa
   1ec68:	0a0a                	slli	s4,s4,0x2
   1ec6a:	2d2d                	jal	1f2a4 <Arr_2_Glob+0xe0>
   1ec6c:	2d2d                	jal	1f2a6 <Arr_2_Glob+0xe2>
   1ec6e:	2d2d                	jal	1f2a8 <Arr_2_Glob+0xe4>
   1ec70:	2d2d                	jal	1f2aa <Arr_2_Glob+0xe6>
   1ec72:	2d2d                	jal	1f2ac <Arr_2_Glob+0xe8>
   1ec74:	2d2d                	jal	1f2ae <Arr_2_Glob+0xea>
   1ec76:	2d2d                	jal	1f2b0 <Arr_2_Glob+0xec>
   1ec78:	2d2d                	jal	1f2b2 <Arr_2_Glob+0xee>
   1ec7a:	2d2d                	jal	1f2b4 <Arr_2_Glob+0xf0>
   1ec7c:	2d2d                	jal	1f2b6 <Arr_2_Glob+0xf2>
   1ec7e:	2d2d                	jal	1f2b8 <Arr_2_Glob+0xf4>
   1ec80:	2d2d                	jal	1f2ba <Arr_2_Glob+0xf6>
   1ec82:	4320                	lw	s0,64(a4)
   1ec84:	6d65726f          	jal	tp,7635a <heap_memory_used+0x54582>
   1ec88:	7261                	lui	tp,0xffff8
   1ec8a:	6542206b          	0x6542206b
   1ec8e:	636e                	flw	ft6,216(sp)
   1ec90:	6d68                	flw	fa0,92(a0)
   1ec92:	7261                	lui	tp,0xffff8
   1ec94:	6542206b          	0x6542206b
   1ec98:	736e6967          	0x736e6967
   1ec9c:	2d20                	fld	fs0,88(a0)
   1ec9e:	2d2d                	jal	1f2d8 <Arr_2_Glob+0x114>
   1eca0:	2d2d                	jal	1f2da <Arr_2_Glob+0x116>
   1eca2:	2d2d                	jal	1f2dc <Arr_2_Glob+0x118>
   1eca4:	2d2d                	jal	1f2de <Arr_2_Glob+0x11a>
   1eca6:	2d2d                	jal	1f2e0 <Arr_2_Glob+0x11c>
   1eca8:	2d2d                	jal	1f2e2 <Arr_2_Glob+0x11e>
   1ecaa:	2d2d                	jal	1f2e4 <Arr_2_Glob+0x120>
   1ecac:	2d2d                	jal	1f2e6 <Arr_2_Glob+0x122>
   1ecae:	2d2d                	jal	1f2e8 <Arr_2_Glob+0x124>
   1ecb0:	2d2d                	jal	1f2ea <Arr_2_Glob+0x126>
   1ecb2:	2d2d                	jal	1f2ec <Arr_2_Glob+0x128>
   1ecb4:	0a2d                	addi	s4,s4,11
   1ecb6:	0000                	unimp
   1ecb8:	3130                	fld	fa2,96(a0)
   1ecba:	3332                	fld	ft6,296(sp)
   1ecbc:	3534                	fld	fa3,104(a0)
   1ecbe:	3736                	fld	fa4,360(sp)
   1ecc0:	3938                	fld	fa4,112(a0)
   1ecc2:	4241                	li	tp,16
   1ecc4:	46454443          	0x46454443
   1ecc8:	0000                	unimp
	...
