0x0 	0d51d0ef          	jal	ra,1d8d4 <init>
0x4 	00100073          	ebreak
0x8 	00004137          	lui	sp,0x4
0xc 	000011b7          	lui	gp,0x1
0x10 	00000213          	li	tp,0
0x14 	00000293          	li	t0,0
0x18 	00000313          	li	t1,0
0x1c 	00000393          	li	t2,0
0x20 	00000413          	li	s0,0
0x24 	00000493          	li	s1,0
0x28 	00000513          	li	a0,0
0x2c 	00000593          	li	a1,0
0x30 	00000613          	li	a2,0
0x34 	00000693          	li	a3,0
0x38 	00000713          	li	a4,0
0x3c 	00000793          	li	a5,0
0x40 	00000813          	li	a6,0
0x44 	00000893          	li	a7,0
0x48 	00000913          	li	s2,0
0x4c 	00000993          	li	s3,0
0x50 	00000a13          	li	s4,0
0x54 	00000a93          	li	s5,0
0x58 	00000b13          	li	s6,0
0x5c 	00000b93          	li	s7,0
0x60 	00000c13          	li	s8,0
0x64 	00000c93          	li	s9,0
0x68 	00000d13          	li	s10,0
0x6c 	00000d93          	li	s11,0
0x70 	00000e13          	li	t3,0
0x74 	00000e93          	li	t4,0
0x78 	00000f13          	li	t5,0
0x7c 	00000f93          	li	t6,0
0x80 	00008067          	ret
0x84 	02d1d0ef          	jal	ra,1d8b0 <risvISATestStartMsg>
0x88 	f81ff0ef          	jal	ra,8 <initReg>
0x8c 	77d0f0ef          	jal	ra,10008 <add>
0x90 	f79ff0ef          	jal	ra,8 <initReg>
0x94 	0411d0ef          	jal	ra,1d8d4 <init>
0x98 	0251d0ef          	jal	ra,1d8bc <risvDhrystoneStartMsg>
0x9c 	f6dff0ef          	jal	ra,8 <initReg>
0xa0 	09d1a0ef          	jal	ra,1a93c <DHRYSTONE>
0xa4 	0311d0ef          	jal	ra,1d8d4 <init>
0xa8 	0211d0ef          	jal	ra,1d8c8 <risvCoremarkStartMsg>
0xac 	f5dff0ef          	jal	ra,8 <initReg>
0xb0 	27d1b0ef          	jal	ra,1bb2c <COREMARK>
0xb4 	0211d0ef          	jal	ra,1d8d4 <init>
0xb8 	6461                	lui	s0,0x18
0xbc 	2064                	fld	fs1,192(s0)
0xc0 	0009                	c.addi	zero,2
0xc4 	00010537          	lui	a0,0x10
0xc8 	00050513          	mv	a0,a0
0xcc 	00004137          	lui	sp,0x4
0xd0 	18d0d0ef          	jal	ra,1d9a0 <printf_s>
0xd4 	00000093          	li	ra,0
0xd8 	00000113          	li	sp,0
0xdc 	002081b3          	add	gp,ra,sp
0xe0 	00000e93          	li	t4,0
0xe4 	00200e13          	li	t3,2
0xe8 	4dd19663          	bne	gp,t4,104f8 <fail>
0xec 	00100093          	li	ra,1
0xf0 	00100113          	li	sp,1
0xf4 	002081b3          	add	gp,ra,sp
0xf8 	00200e93          	li	t4,2
0xfc 	00300e13          	li	t3,3
0x100 	4bd19a63          	bne	gp,t4,104f8 <fail>
0x104 	00300093          	li	ra,3
0x108 	00700113          	li	sp,7
0x10c 	002081b3          	add	gp,ra,sp
0x110 	00a00e93          	li	t4,10
0x114 	00400e13          	li	t3,4
0x118 	49d19e63          	bne	gp,t4,104f8 <fail>
0x11c 	00000093          	li	ra,0
0x120 	ffff8137          	lui	sp,0xffff8
0x124 	002081b3          	add	gp,ra,sp
0x128 	ffff8eb7          	lui	t4,0xffff8
0x12c 	00500e13          	li	t3,5
0x130 	49d19263          	bne	gp,t4,104f8 <fail>
0x134 	800000b7          	lui	ra,0x80000
0x138 	00000113          	li	sp,0
0x13c 	002081b3          	add	gp,ra,sp
0x140 	80000eb7          	lui	t4,0x80000
0x144 	00600e13          	li	t3,6
0x148 	47d19663          	bne	gp,t4,104f8 <fail>
0x14c 	800000b7          	lui	ra,0x80000
0x150 	ffff8137          	lui	sp,0xffff8
0x154 	002081b3          	add	gp,ra,sp
0x158 	7fff8eb7          	lui	t4,0x7fff8
0x15c 	00700e13          	li	t3,7
0x160 	45d19a63          	bne	gp,t4,104f8 <fail>
0x164 	00000093          	li	ra,0
0x168 	00008137          	lui	sp,0x8
0x16c 	fff10113          	addi	sp,sp,-1 # 7fff <coremarkBenchmark+0x7f57>
0x170 	002081b3          	add	gp,ra,sp
0x174 	00008eb7          	lui	t4,0x8
0x178 	fffe8e93          	addi	t4,t4,-1 # 7fff <coremarkBenchmark+0x7f57>
0x17c 	00800e13          	li	t3,8
0x180 	43d19a63          	bne	gp,t4,104f8 <fail>
0x184 	800000b7          	lui	ra,0x80000
0x188 	fff08093          	addi	ra,ra,-1 # 7fffffff <heap_memory_used+0x7ffde227>
0x18c 	00000113          	li	sp,0
0x190 	002081b3          	add	gp,ra,sp
0x194 	80000eb7          	lui	t4,0x80000
0x198 	fffe8e93          	addi	t4,t4,-1 # 7fffffff <heap_memory_used+0x7ffde227>
0x19c 	00900e13          	li	t3,9
0x1a0 	41d19a63          	bne	gp,t4,104f8 <fail>
0x1a4 	800000b7          	lui	ra,0x80000
0x1a8 	fff08093          	addi	ra,ra,-1 # 7fffffff <heap_memory_used+0x7ffde227>
0x1ac 	00008137          	lui	sp,0x8
0x1b0 	fff10113          	addi	sp,sp,-1 # 7fff <coremarkBenchmark+0x7f57>
0x1b4 	002081b3          	add	gp,ra,sp
0x1b8 	80008eb7          	lui	t4,0x80008
0x1bc 	ffee8e93          	addi	t4,t4,-2 # 80007ffe <heap_memory_used+0x7ffe6226>
0x1c0 	00a00e13          	li	t3,10
0x1c4 	3fd19863          	bne	gp,t4,104f8 <fail>
0x1c8 	800000b7          	lui	ra,0x80000
0x1cc 	00008137          	lui	sp,0x8
0x1d0 	fff10113          	addi	sp,sp,-1 # 7fff <coremarkBenchmark+0x7f57>
0x1d4 	002081b3          	add	gp,ra,sp
0x1d8 	80008eb7          	lui	t4,0x80008
0x1dc 	fffe8e93          	addi	t4,t4,-1 # 80007fff <heap_memory_used+0x7ffe6227>
0x1e0 	00b00e13          	li	t3,11
0x1e4 	3dd19863          	bne	gp,t4,104f8 <fail>
0x1e8 	800000b7          	lui	ra,0x80000
0x1ec 	fff08093          	addi	ra,ra,-1 # 7fffffff <heap_memory_used+0x7ffde227>
0x1f0 	ffff8137          	lui	sp,0xffff8
0x1f4 	002081b3          	add	gp,ra,sp
0x1f8 	7fff8eb7          	lui	t4,0x7fff8
0x1fc 	fffe8e93          	addi	t4,t4,-1 # 7fff7fff <heap_memory_used+0x7ffd6227>
0x200 	00c00e13          	li	t3,12
0x204 	3bd19863          	bne	gp,t4,104f8 <fail>
0x208 	00000093          	li	ra,0
0x20c 	fff00113          	li	sp,-1
0x210 	002081b3          	add	gp,ra,sp
0x214 	fff00e93          	li	t4,-1
0x218 	00d00e13          	li	t3,13
0x21c 	39d19c63          	bne	gp,t4,104f8 <fail>
0x220 	fff00093          	li	ra,-1
0x224 	00100113          	li	sp,1
0x228 	002081b3          	add	gp,ra,sp
0x22c 	00000e93          	li	t4,0
0x230 	00e00e13          	li	t3,14
0x234 	39d19063          	bne	gp,t4,104f8 <fail>
0x238 	fff00093          	li	ra,-1
0x23c 	fff00113          	li	sp,-1
0x240 	002081b3          	add	gp,ra,sp
0x244 	ffe00e93          	li	t4,-2
0x248 	00f00e13          	li	t3,15
0x24c 	37d19463          	bne	gp,t4,104f8 <fail>
0x250 	00100093          	li	ra,1
0x254 	80000137          	lui	sp,0x80000
0x258 	fff10113          	addi	sp,sp,-1 # 7fffffff <heap_memory_used+0x7ffde227>
0x25c 	002081b3          	add	gp,ra,sp
0x260 	80000eb7          	lui	t4,0x80000
0x264 	01000e13          	li	t3,16
0x268 	35d19663          	bne	gp,t4,104f8 <fail>
0x26c 	00d00093          	li	ra,13
0x270 	00b00113          	li	sp,11
0x274 	002080b3          	add	ra,ra,sp
0x278 	01800e93          	li	t4,24
0x27c 	01100e13          	li	t3,17
0x280 	33d09a63          	bne	ra,t4,104f8 <fail>
0x284 	00e00093          	li	ra,14
0x288 	00b00113          	li	sp,11
0x28c 	00208133          	add	sp,ra,sp
0x290 	01900e93          	li	t4,25
0x294 	01200e13          	li	t3,18
0x298 	31d11e63          	bne	sp,t4,104f8 <fail>
0x29c 	00d00093          	li	ra,13
0x2a0 	001080b3          	add	ra,ra,ra
0x2a4 	01a00e93          	li	t4,26
0x2a8 	01300e13          	li	t3,19
0x2ac 	31d09463          	bne	ra,t4,104f8 <fail>
0x2b0 	00000213          	li	tp,0
0x2b4 	00d00093          	li	ra,13
0x2b8 	00b00113          	li	sp,11
0x2bc 	002081b3          	add	gp,ra,sp
0x2c0 	00018313          	mv	t1,gp
0x2c4 	00120213          	addi	tp,tp,1 # 1 <_start+0x1>
0x2c8 	00200293          	li	t0,2
0x2cc 	fe5214e3          	bne	tp,t0,101f8 <test_20+0x4>
0x2d0 	01800e93          	li	t4,24
0x2d4 	01400e13          	li	t3,20
0x2d8 	2dd31e63          	bne	t1,t4,104f8 <fail>
0x2dc 	00000213          	li	tp,0
0x2e0 	00e00093          	li	ra,14
0x2e4 	00b00113          	li	sp,11
0x2e8 	002081b3          	add	gp,ra,sp
0x2ec 	00000013          	nop
0x2f0 	00018313          	mv	t1,gp
0x2f4 	00120213          	addi	tp,tp,1 # 1 <_start+0x1>
0x2f8 	00200293          	li	t0,2
0x2fc 	fe5212e3          	bne	tp,t0,10224 <test_21+0x4>
0x300 	01900e93          	li	t4,25
0x304 	01500e13          	li	t3,21
0x308 	2bd31663          	bne	t1,t4,104f8 <fail>
0x30c 	00000213          	li	tp,0
0x310 	00f00093          	li	ra,15
0x314 	00b00113          	li	sp,11
0x318 	002081b3          	add	gp,ra,sp
0x31c 	00000013          	nop
0x320 	00000013          	nop
0x324 	00018313          	mv	t1,gp
0x328 	00120213          	addi	tp,tp,1 # 1 <_start+0x1>
0x32c 	00200293          	li	t0,2
0x330 	fe5210e3          	bne	tp,t0,10254 <test_22+0x4>
0x334 	01a00e93          	li	t4,26
0x338 	01600e13          	li	t3,22
0x33c 	27d31c63          	bne	t1,t4,104f8 <fail>
0x340 	00000213          	li	tp,0
0x344 	00d00093          	li	ra,13
0x348 	00b00113          	li	sp,11
0x34c 	002081b3          	add	gp,ra,sp
0x350 	00120213          	addi	tp,tp,1 # 1 <_start+0x1>
0x354 	00200293          	li	t0,2
0x358 	fe5216e3          	bne	tp,t0,10288 <test_23+0x4>
0x35c 	01800e93          	li	t4,24
0x360 	01700e13          	li	t3,23
0x364 	25d19863          	bne	gp,t4,104f8 <fail>
0x368 	00000213          	li	tp,0
0x36c 	00e00093          	li	ra,14
0x370 	00b00113          	li	sp,11
0x374 	00000013          	nop
0x378 	002081b3          	add	gp,ra,sp
0x37c 	00120213          	addi	tp,tp,1 # 1 <_start+0x1>
0x380 	00200293          	li	t0,2
0x384 	fe5214e3          	bne	tp,t0,102b0 <test_24+0x4>
0x388 	01900e93          	li	t4,25
0x38c 	01800e13          	li	t3,24
0x390 	23d19263          	bne	gp,t4,104f8 <fail>
0x394 	00000213          	li	tp,0
0x398 	00f00093          	li	ra,15
0x39c 	00b00113          	li	sp,11
0x3a0 	00000013          	nop
0x3a4 	00000013          	nop
0x3a8 	002081b3          	add	gp,ra,sp
0x3ac 	00120213          	addi	tp,tp,1 # 1 <_start+0x1>
0x3b0 	00200293          	li	t0,2
0x3b4 	fe5212e3          	bne	tp,t0,102dc <test_25+0x4>
0x3b8 	01a00e93          	li	t4,26
0x3bc 	01900e13          	li	t3,25
0x3c0 	1fd19a63          	bne	gp,t4,104f8 <fail>
0x3c4 	00000213          	li	tp,0
0x3c8 	00d00093          	li	ra,13
0x3cc 	00000013          	nop
0x3d0 	00b00113          	li	sp,11
0x3d4 	002081b3          	add	gp,ra,sp
0x3d8 	00120213          	addi	tp,tp,1 # 1 <_start+0x1>
0x3dc 	00200293          	li	t0,2
0x3e0 	fe5214e3          	bne	tp,t0,1030c <test_26+0x4>
0x3e4 	01800e93          	li	t4,24
0x3e8 	01a00e13          	li	t3,26
0x3ec 	1dd19463          	bne	gp,t4,104f8 <fail>
0x3f0 	00000213          	li	tp,0
0x3f4 	00e00093          	li	ra,14
0x3f8 	00000013          	nop
0x3fc 	00b00113          	li	sp,11
0x400 	00000013          	nop
0x404 	002081b3          	add	gp,ra,sp
0x408 	00120213          	addi	tp,tp,1 # 1 <_start+0x1>
0x40c 	00200293          	li	t0,2
0x410 	fe5212e3          	bne	tp,t0,10338 <test_27+0x4>
0x414 	01900e93          	li	t4,25
0x418 	01b00e13          	li	t3,27
0x41c 	19d19c63          	bne	gp,t4,104f8 <fail>
0x420 	00000213          	li	tp,0
0x424 	00f00093          	li	ra,15
0x428 	00000013          	nop
0x42c 	00000013          	nop
0x430 	00b00113          	li	sp,11
0x434 	002081b3          	add	gp,ra,sp
0x438 	00120213          	addi	tp,tp,1 # 1 <_start+0x1>
0x43c 	00200293          	li	t0,2
0x440 	fe5212e3          	bne	tp,t0,10368 <test_28+0x4>
0x444 	01a00e93          	li	t4,26
0x448 	01c00e13          	li	t3,28
0x44c 	17d19463          	bne	gp,t4,104f8 <fail>
0x450 	00000213          	li	tp,0
0x454 	00b00113          	li	sp,11
0x458 	00d00093          	li	ra,13
0x45c 	002081b3          	add	gp,ra,sp
0x460 	00120213          	addi	tp,tp,1 # 1 <_start+0x1>
0x464 	00200293          	li	t0,2
0x468 	fe5216e3          	bne	tp,t0,10398 <test_29+0x4>
0x46c 	01800e93          	li	t4,24
0x470 	01d00e13          	li	t3,29
0x474 	15d19063          	bne	gp,t4,104f8 <fail>
0x478 	00000213          	li	tp,0
0x47c 	00b00113          	li	sp,11
0x480 	00e00093          	li	ra,14
0x484 	00000013          	nop
0x488 	002081b3          	add	gp,ra,sp
0x48c 	00120213          	addi	tp,tp,1 # 1 <_start+0x1>
0x490 	00200293          	li	t0,2
0x494 	fe5214e3          	bne	tp,t0,103c0 <test_30+0x4>
0x498 	01900e93          	li	t4,25
0x49c 	01e00e13          	li	t3,30
0x4a0 	11d19a63          	bne	gp,t4,104f8 <fail>
0x4a4 	00000213          	li	tp,0
0x4a8 	00b00113          	li	sp,11
0x4ac 	00f00093          	li	ra,15
0x4b0 	00000013          	nop
0x4b4 	00000013          	nop
0x4b8 	002081b3          	add	gp,ra,sp
0x4bc 	00120213          	addi	tp,tp,1 # 1 <_start+0x1>
0x4c0 	00200293          	li	t0,2
0x4c4 	fe5212e3          	bne	tp,t0,103ec <test_31+0x4>
0x4c8 	01a00e93          	li	t4,26
0x4cc 	01f00e13          	li	t3,31
0x4d0 	0fd19263          	bne	gp,t4,104f8 <fail>
0x4d4 	00000213          	li	tp,0
0x4d8 	00b00113          	li	sp,11
0x4dc 	00000013          	nop
0x4e0 	00d00093          	li	ra,13
0x4e4 	002081b3          	add	gp,ra,sp
0x4e8 	00120213          	addi	tp,tp,1 # 1 <_start+0x1>
0x4ec 	00200293          	li	t0,2
0x4f0 	fe5214e3          	bne	tp,t0,1041c <test_32+0x4>
0x4f4 	01800e93          	li	t4,24
0x4f8 	02000e13          	li	t3,32
0x4fc 	0bd19c63          	bne	gp,t4,104f8 <fail>
0x500 	00000213          	li	tp,0
0x504 	00b00113          	li	sp,11
0x508 	00000013          	nop
0x50c 	00e00093          	li	ra,14
0x510 	00000013          	nop
0x514 	002081b3          	add	gp,ra,sp
0x518 	00120213          	addi	tp,tp,1 # 1 <_start+0x1>
0x51c 	00200293          	li	t0,2
0x520 	fe5212e3          	bne	tp,t0,10448 <test_33+0x4>
0x524 	01900e93          	li	t4,25
0x528 	02100e13          	li	t3,33
0x52c 	09d19463          	bne	gp,t4,104f8 <fail>
0x530 	00000213          	li	tp,0
0x534 	00b00113          	li	sp,11
0x538 	00000013          	nop
0x53c 	00000013          	nop
0x540 	00f00093          	li	ra,15
0x544 	002081b3          	add	gp,ra,sp
0x548 	00120213          	addi	tp,tp,1 # 1 <_start+0x1>
0x54c 	00200293          	li	t0,2
0x550 	fe5212e3          	bne	tp,t0,10478 <test_34+0x4>
0x554 	01a00e93          	li	t4,26
0x558 	02200e13          	li	t3,34
0x55c 	05d19c63          	bne	gp,t4,104f8 <fail>
0x560 	00f00093          	li	ra,15
0x564 	00100133          	add	sp,zero,ra
0x568 	00f00e93          	li	t4,15
0x56c 	02300e13          	li	t3,35
0x570 	05d11263          	bne	sp,t4,104f8 <fail>
0x574 	02000093          	li	ra,32
0x578 	00008133          	add	sp,ra,zero
0x57c 	02000e93          	li	t4,32
0x580 	02400e13          	li	t3,36
0x584 	03d11863          	bne	sp,t4,104f8 <fail>
0x588 	000000b3          	add	ra,zero,zero
0x58c 	00000e93          	li	t4,0
0x590 	02500e13          	li	t3,37
0x594 	03d09063          	bne	ra,t4,104f8 <fail>
0x598 	01000093          	li	ra,16
0x59c 	01e00113          	li	sp,30
0x5a0 	00208033          	add	zero,ra,sp
0x5a4 	00000e93          	li	t4,0
0x5a8 	02600e13          	li	t3,38
0x5ac 	01d01463          	bne	zero,t4,104f8 <fail>
0x5b0 	05c01863          	bne	zero,t3,10544 <pass>
0x5b4 	04500513          	li	a0,69
0x5b8 	00004137          	lui	sp,0x4
0x5bc 	4880d0ef          	jal	ra,1d988 <printf_c>
0x5c0 	05200513          	li	a0,82
0x5c4 	00004137          	lui	sp,0x4
0x5c8 	47c0d0ef          	jal	ra,1d988 <printf_c>
0x5cc 	00004137          	lui	sp,0x4
0x5d0 	4740d0ef          	jal	ra,1d988 <printf_c>
0x5d4 	04f00513          	li	a0,79
0x5d8 	00004137          	lui	sp,0x4
0x5dc 	4680d0ef          	jal	ra,1d988 <printf_c>
0x5e0 	00004137          	lui	sp,0x4
0x5e4 	05200513          	li	a0,82
0x5e8 	00004137          	lui	sp,0x4
0x5ec 	4580d0ef          	jal	ra,1d988 <printf_c>
0x5f0 	00a00513          	li	a0,10
0x5f4 	00004137          	lui	sp,0x4
0x5f8 	44c0d0ef          	jal	ra,1d988 <printf_c>
0x5fc 	0340006f          	j	10574 <addi>
0x600 	04f00513          	li	a0,79
0x604 	00004137          	lui	sp,0x4
0x608 	43c0d0ef          	jal	ra,1d988 <printf_c>
0x60c 	04b00513          	li	a0,75
0x610 	00004137          	lui	sp,0x4
0x614 	4300d0ef          	jal	ra,1d988 <printf_c>
0x618 	00a00513          	li	a0,10
0x61c 	00004137          	lui	sp,0x4
0x620 	4240d0ef          	jal	ra,1d988 <printf_c>
0x624 	00c0006f          	j	10574 <addi>
0x628 	6461                	lui	s0,0x18
0x62c 	6964                	flw	fs1,84(a0)
0x630 	0920                	addi	s0,sp,152
0x634 	00010537          	lui	a0,0x10
0x638 	56c50513          	addi	a0,a0,1388 # 1056c <.test_name>
0x63c 	00004137          	lui	sp,0x4
0x640 	4200d0ef          	jal	ra,1d9a0 <printf_s>
0x644 	00000093          	li	ra,0
0x648 	00008193          	mv	gp,ra
0x64c 	00000e93          	li	t4,0
0x650 	00200e13          	li	t3,2
0x654 	27d19c63          	bne	gp,t4,1080c <fail>
0x658 	00100093          	li	ra,1
0x65c 	00108193          	addi	gp,ra,1
0x660 	00200e93          	li	t4,2
0x664 	00300e13          	li	t3,3
0x668 	27d19263          	bne	gp,t4,1080c <fail>
0x66c 	00300093          	li	ra,3
0x670 	00708193          	addi	gp,ra,7
0x674 	00a00e93          	li	t4,10
0x678 	00400e13          	li	t3,4
0x67c 	25d19863          	bne	gp,t4,1080c <fail>
0x680 	00000093          	li	ra,0
0x684 	80008193          	addi	gp,ra,-2048
0x688 	80000e93          	li	t4,-2048
0x68c 	00500e13          	li	t3,5
0x690 	23d19e63          	bne	gp,t4,1080c <fail>
0x694 	800000b7          	lui	ra,0x80000
0x698 	00008193          	mv	gp,ra
0x69c 	80000eb7          	lui	t4,0x80000
0x6a0 	00600e13          	li	t3,6
0x6a4 	23d19463          	bne	gp,t4,1080c <fail>
0x6a8 	800000b7          	lui	ra,0x80000
0x6ac 	80008193          	addi	gp,ra,-2048 # 7ffff800 <heap_memory_used+0x7ffdda28>
0x6b0 	80000eb7          	lui	t4,0x80000
0x6b4 	800e8e93          	addi	t4,t4,-2048 # 7ffff800 <heap_memory_used+0x7ffdda28>
0x6b8 	00700e13          	li	t3,7
0x6bc 	21d19863          	bne	gp,t4,1080c <fail>
0x6c0 	00000093          	li	ra,0
0x6c4 	7ff08193          	addi	gp,ra,2047
0x6c8 	7ff00e93          	li	t4,2047
0x6cc 	00800e13          	li	t3,8
0x6d0 	1fd19e63          	bne	gp,t4,1080c <fail>
0x6d4 	800000b7          	lui	ra,0x80000
0x6d8 	fff08093          	addi	ra,ra,-1 # 7fffffff <heap_memory_used+0x7ffde227>
0x6dc 	00008193          	mv	gp,ra
0x6e0 	80000eb7          	lui	t4,0x80000
0x6e4 	fffe8e93          	addi	t4,t4,-1 # 7fffffff <heap_memory_used+0x7ffde227>
0x6e8 	00900e13          	li	t3,9
0x6ec 	1fd19063          	bne	gp,t4,1080c <fail>
0x6f0 	800000b7          	lui	ra,0x80000
0x6f4 	fff08093          	addi	ra,ra,-1 # 7fffffff <heap_memory_used+0x7ffde227>
0x6f8 	7ff08193          	addi	gp,ra,2047
0x6fc 	80000eb7          	lui	t4,0x80000
0x700 	7fee8e93          	addi	t4,t4,2046 # 800007fe <heap_memory_used+0x7ffdea26>
0x704 	00a00e13          	li	t3,10
0x708 	1dd19263          	bne	gp,t4,1080c <fail>
0x70c 	800000b7          	lui	ra,0x80000
0x710 	7ff08193          	addi	gp,ra,2047 # 800007ff <heap_memory_used+0x7ffdea27>
0x714 	80000eb7          	lui	t4,0x80000
0x718 	7ffe8e93          	addi	t4,t4,2047 # 800007ff <heap_memory_used+0x7ffdea27>
0x71c 	00b00e13          	li	t3,11
0x720 	1bd19663          	bne	gp,t4,1080c <fail>
0x724 	800000b7          	lui	ra,0x80000
0x728 	fff08093          	addi	ra,ra,-1 # 7fffffff <heap_memory_used+0x7ffde227>
0x72c 	80008193          	addi	gp,ra,-2048
0x730 	7ffffeb7          	lui	t4,0x7ffff
0x734 	7ffe8e93          	addi	t4,t4,2047 # 7ffff7ff <heap_memory_used+0x7ffdda27>
0x738 	00c00e13          	li	t3,12
0x73c 	19d19863          	bne	gp,t4,1080c <fail>
0x740 	00000093          	li	ra,0
0x744 	fff08193          	addi	gp,ra,-1
0x748 	fff00e93          	li	t4,-1
0x74c 	00d00e13          	li	t3,13
0x750 	17d19e63          	bne	gp,t4,1080c <fail>
0x754 	fff00093          	li	ra,-1
0x758 	00108193          	addi	gp,ra,1
0x75c 	00000e93          	li	t4,0
0x760 	00e00e13          	li	t3,14
0x764 	17d19463          	bne	gp,t4,1080c <fail>
0x768 	fff00093          	li	ra,-1
0x76c 	fff08193          	addi	gp,ra,-1
0x770 	ffe00e93          	li	t4,-2
0x774 	00f00e13          	li	t3,15
0x778 	15d19a63          	bne	gp,t4,1080c <fail>
0x77c 	800000b7          	lui	ra,0x80000
0x780 	fff08093          	addi	ra,ra,-1 # 7fffffff <heap_memory_used+0x7ffde227>
0x784 	00108193          	addi	gp,ra,1
0x788 	80000eb7          	lui	t4,0x80000
0x78c 	01000e13          	li	t3,16
0x790 	13d19e63          	bne	gp,t4,1080c <fail>
0x794 	00d00093          	li	ra,13
0x798 	00b08093          	addi	ra,ra,11
0x79c 	01800e93          	li	t4,24
0x7a0 	01100e13          	li	t3,17
0x7a4 	13d09463          	bne	ra,t4,1080c <fail>
0x7a8 	00000213          	li	tp,0
0x7ac 	00d00093          	li	ra,13
0x7b0 	00b08193          	addi	gp,ra,11
0x7b4 	00018313          	mv	t1,gp
0x7b8 	00120213          	addi	tp,tp,1 # 1 <_start+0x1>
0x7bc 	00200293          	li	t0,2
0x7c0 	fe5216e3          	bne	tp,t0,106ec <test_18+0x4>
0x7c4 	01800e93          	li	t4,24
0x7c8 	01200e13          	li	t3,18
0x7cc 	11d31063          	bne	t1,t4,1080c <fail>
0x7d0 	00000213          	li	tp,0
0x7d4 	00d00093          	li	ra,13
0x7d8 	00a08193          	addi	gp,ra,10
0x7dc 	00000013          	nop
0x7e0 	00018313          	mv	t1,gp
0x7e4 	00120213          	addi	tp,tp,1 # 1 <_start+0x1>
0x7e8 	00200293          	li	t0,2
0x7ec 	fe5214e3          	bne	tp,t0,10714 <test_19+0x4>
0x7f0 	01700e93          	li	t4,23
0x7f4 	01300e13          	li	t3,19
0x7f8 	0dd31a63          	bne	t1,t4,1080c <fail>
0x7fc 	00000213          	li	tp,0
0x800 	00d00093          	li	ra,13
0x804 	00908193          	addi	gp,ra,9
0x808 	00000013          	nop
0x80c 	00000013          	nop
0x810 	00018313          	mv	t1,gp
0x814 	00120213          	addi	tp,tp,1 # 1 <_start+0x1>
0x818 	00200293          	li	t0,2
0x81c 	fe5212e3          	bne	tp,t0,10740 <test_20+0x4>
0x820 	01600e93          	li	t4,22
0x824 	01400e13          	li	t3,20
0x828 	0bd31263          	bne	t1,t4,1080c <fail>
0x82c 	00000213          	li	tp,0
0x830 	00d00093          	li	ra,13
0x834 	00b08193          	addi	gp,ra,11
0x838 	00120213          	addi	tp,tp,1 # 1 <_start+0x1>
0x83c 	00200293          	li	t0,2
0x840 	fe5218e3          	bne	tp,t0,10770 <test_21+0x4>
0x844 	01800e93          	li	t4,24
0x848 	01500e13          	li	t3,21
0x84c 	09d19063          	bne	gp,t4,1080c <fail>
0x850 	00000213          	li	tp,0
0x854 	00d00093          	li	ra,13
0x858 	00000013          	nop
0x85c 	00a08193          	addi	gp,ra,10
0x860 	00120213          	addi	tp,tp,1 # 1 <_start+0x1>
0x864 	00200293          	li	t0,2
0x868 	fe5216e3          	bne	tp,t0,10794 <test_22+0x4>
0x86c 	01700e93          	li	t4,23
0x870 	01600e13          	li	t3,22
0x874 	05d19c63          	bne	gp,t4,1080c <fail>
0x878 	00000213          	li	tp,0
0x87c 	00d00093          	li	ra,13
0x880 	00000013          	nop
0x884 	00000013          	nop
0x888 	00908193          	addi	gp,ra,9
0x88c 	00120213          	addi	tp,tp,1 # 1 <_start+0x1>
0x890 	00200293          	li	t0,2
0x894 	fe5214e3          	bne	tp,t0,107bc <test_23+0x4>
0x898 	01600e93          	li	t4,22
0x89c 	01700e13          	li	t3,23
0x8a0 	03d19663          	bne	gp,t4,1080c <fail>
0x8a4 	02000093          	li	ra,32
0x8a8 	02000e93          	li	t4,32
0x8ac 	01800e13          	li	t3,24
0x8b0 	01d09e63          	bne	ra,t4,1080c <fail>
0x8b4 	02100093          	li	ra,33
0x8b8 	03208013          	addi	zero,ra,50
0x8bc 	00000e93          	li	t4,0
0x8c0 	01900e13          	li	t3,25
0x8c4 	01d01463          	bne	zero,t4,1080c <fail>
0x8c8 	05c01863          	bne	zero,t3,10858 <pass>
0x8cc 	04500513          	li	a0,69
0x8d0 	00004137          	lui	sp,0x4
0x8d4 	1740d0ef          	jal	ra,1d988 <printf_c>
0x8d8 	05200513          	li	a0,82
0x8dc 	00004137          	lui	sp,0x4
0x8e0 	1680d0ef          	jal	ra,1d988 <printf_c>
0x8e4 	00004137          	lui	sp,0x4
0x8e8 	1600d0ef          	jal	ra,1d988 <printf_c>
0x8ec 	04f00513          	li	a0,79
0x8f0 	00004137          	lui	sp,0x4
0x8f4 	1540d0ef          	jal	ra,1d988 <printf_c>
0x8f8 	00004137          	lui	sp,0x4
0x8fc 	05200513          	li	a0,82
0x900 	00004137          	lui	sp,0x4
0x904 	1440d0ef          	jal	ra,1d988 <printf_c>
0x908 	00a00513          	li	a0,10
0x90c 	00004137          	lui	sp,0x4
0x910 	1380d0ef          	jal	ra,1d988 <printf_c>
0x914 	0340006f          	j	10888 <and>
0x918 	04f00513          	li	a0,79
0x91c 	00004137          	lui	sp,0x4
0x920 	1280d0ef          	jal	ra,1d988 <printf_c>
0x924 	04b00513          	li	a0,75
0x928 	00004137          	lui	sp,0x4
0x92c 	11c0d0ef          	jal	ra,1d988 <printf_c>
0x930 	00a00513          	li	a0,10
0x934 	00004137          	lui	sp,0x4
0x938 	1100d0ef          	jal	ra,1d988 <printf_c>
0x93c 	00c0006f          	j	10888 <and>
0x940 	6e61                	lui	t3,0x18
0x944 	2064                	fld	fs1,192(s0)
0x948 	0009                	c.addi	zero,2
0x94c 	00011537          	lui	a0,0x11
0x950 	88050513          	addi	a0,a0,-1920 # 10880 <.test_name>
0x954 	00004137          	lui	sp,0x4
0x958 	10c0d0ef          	jal	ra,1d9a0 <printf_s>
0x95c 	ff0100b7          	lui	ra,0xff010
0x960 	f0008093          	addi	ra,ra,-256 # ff00ff00 <heap_memory_used+0xfefee128>
0x964 	0f0f1137          	lui	sp,0xf0f1
0x968 	f0f10113          	addi	sp,sp,-241 # f0f0f0f <heap_memory_used+0xf0cf137>
0x96c 	0020f1b3          	and	gp,ra,sp
0x970 	0f001eb7          	lui	t4,0xf001
0x974 	f00e8e93          	addi	t4,t4,-256 # f000f00 <heap_memory_used+0xefdf128>
0x978 	00200e13          	li	t3,2
0x97c 	49d19c63          	bne	gp,t4,10d50 <fail>
0x980 	0ff010b7          	lui	ra,0xff01
0x984 	ff008093          	addi	ra,ra,-16 # ff00ff0 <heap_memory_used+0xfedf218>
0x988 	f0f0f137          	lui	sp,0xf0f0f
0x98c 	0f010113          	addi	sp,sp,240 # f0f0f0f0 <heap_memory_used+0xf0eed318>
0x990 	0020f1b3          	and	gp,ra,sp
0x994 	00f00eb7          	lui	t4,0xf00
0x998 	0f0e8e93          	addi	t4,t4,240 # f000f0 <heap_memory_used+0xede318>
0x99c 	00300e13          	li	t3,3
0x9a0 	47d19a63          	bne	gp,t4,10d50 <fail>
0x9a4 	00ff00b7          	lui	ra,0xff0
0x9a8 	0ff08093          	addi	ra,ra,255 # ff00ff <heap_memory_used+0xfce327>
0x9ac 	0f0f1137          	lui	sp,0xf0f1
0x9b0 	f0f10113          	addi	sp,sp,-241 # f0f0f0f <heap_memory_used+0xf0cf137>
0x9b4 	0020f1b3          	and	gp,ra,sp
0x9b8 	000f0eb7          	lui	t4,0xf0
0x9bc 	00fe8e93          	addi	t4,t4,15 # f000f <heap_memory_used+0xce237>
0x9c0 	00400e13          	li	t3,4
0x9c4 	45d19863          	bne	gp,t4,10d50 <fail>
0x9c8 	f00ff0b7          	lui	ra,0xf00ff
0x9cc 	00f08093          	addi	ra,ra,15 # f00ff00f <heap_memory_used+0xf00dd237>
0x9d0 	f0f0f137          	lui	sp,0xf0f0f
0x9d4 	0f010113          	addi	sp,sp,240 # f0f0f0f0 <heap_memory_used+0xf0eed318>
0x9d8 	0020f1b3          	and	gp,ra,sp
0x9dc 	f000feb7          	lui	t4,0xf000f
0x9e0 	00500e13          	li	t3,5
0x9e4 	43d19863          	bne	gp,t4,10d50 <fail>
0x9e8 	ff0100b7          	lui	ra,0xff010
0x9ec 	f0008093          	addi	ra,ra,-256 # ff00ff00 <heap_memory_used+0xfefee128>
0x9f0 	0f0f1137          	lui	sp,0xf0f1
0x9f4 	f0f10113          	addi	sp,sp,-241 # f0f0f0f <heap_memory_used+0xf0cf137>
0x9f8 	0020f0b3          	and	ra,ra,sp
0x9fc 	0f001eb7          	lui	t4,0xf001
0xa00 	f00e8e93          	addi	t4,t4,-256 # f000f00 <heap_memory_used+0xefdf128>
0xa04 	00600e13          	li	t3,6
0xa08 	41d09663          	bne	ra,t4,10d50 <fail>
0xa0c 	0ff010b7          	lui	ra,0xff01
0xa10 	ff008093          	addi	ra,ra,-16 # ff00ff0 <heap_memory_used+0xfedf218>
0xa14 	f0f0f137          	lui	sp,0xf0f0f
0xa18 	0f010113          	addi	sp,sp,240 # f0f0f0f0 <heap_memory_used+0xf0eed318>
0xa1c 	0020f133          	and	sp,ra,sp
0xa20 	00f00eb7          	lui	t4,0xf00
0xa24 	0f0e8e93          	addi	t4,t4,240 # f000f0 <heap_memory_used+0xede318>
0xa28 	00700e13          	li	t3,7
0xa2c 	3fd11463          	bne	sp,t4,10d50 <fail>
0xa30 	ff0100b7          	lui	ra,0xff010
0xa34 	f0008093          	addi	ra,ra,-256 # ff00ff00 <heap_memory_used+0xfefee128>
0xa38 	0010f0b3          	and	ra,ra,ra
0xa3c 	ff010eb7          	lui	t4,0xff010
0xa40 	f00e8e93          	addi	t4,t4,-256 # ff00ff00 <heap_memory_used+0xfefee128>
0xa44 	00800e13          	li	t3,8
0xa48 	3dd09663          	bne	ra,t4,10d50 <fail>
0xa4c 	00000213          	li	tp,0
0xa50 	ff0100b7          	lui	ra,0xff010
0xa54 	f0008093          	addi	ra,ra,-256 # ff00ff00 <heap_memory_used+0xfefee128>
0xa58 	0f0f1137          	lui	sp,0xf0f1
0xa5c 	f0f10113          	addi	sp,sp,-241 # f0f0f0f <heap_memory_used+0xf0cf137>
0xa60 	0020f1b3          	and	gp,ra,sp
0xa64 	00018313          	mv	t1,gp
0xa68 	00120213          	addi	tp,tp,1 # 1 <_start+0x1>
0xa6c 	00200293          	li	t0,2
0xa70 	fe5210e3          	bne	tp,t0,1098c <test_9+0x4>
0xa74 	0f001eb7          	lui	t4,0xf001
0xa78 	f00e8e93          	addi	t4,t4,-256 # f000f00 <heap_memory_used+0xefdf128>
0xa7c 	00900e13          	li	t3,9
0xa80 	39d31a63          	bne	t1,t4,10d50 <fail>
0xa84 	00000213          	li	tp,0
0xa88 	0ff010b7          	lui	ra,0xff01
0xa8c 	ff008093          	addi	ra,ra,-16 # ff00ff0 <heap_memory_used+0xfedf218>
0xa90 	f0f0f137          	lui	sp,0xf0f0f
0xa94 	0f010113          	addi	sp,sp,240 # f0f0f0f0 <heap_memory_used+0xf0eed318>
0xa98 	0020f1b3          	and	gp,ra,sp
0xa9c 	00000013          	nop
0xaa0 	00018313          	mv	t1,gp
0xaa4 	00120213          	addi	tp,tp,1 # 1 <_start+0x1>
0xaa8 	00200293          	li	t0,2
0xaac 	fc521ee3          	bne	tp,t0,109c4 <test_10+0x4>
0xab0 	00f00eb7          	lui	t4,0xf00
0xab4 	0f0e8e93          	addi	t4,t4,240 # f000f0 <heap_memory_used+0xede318>
0xab8 	00a00e13          	li	t3,10
0xabc 	35d31c63          	bne	t1,t4,10d50 <fail>
0xac0 	00000213          	li	tp,0
0xac4 	00ff00b7          	lui	ra,0xff0
0xac8 	0ff08093          	addi	ra,ra,255 # ff00ff <heap_memory_used+0xfce327>
0xacc 	0f0f1137          	lui	sp,0xf0f1
0xad0 	f0f10113          	addi	sp,sp,-241 # f0f0f0f <heap_memory_used+0xf0cf137>
0xad4 	0020f1b3          	and	gp,ra,sp
0xad8 	00000013          	nop
0xadc 	00000013          	nop
0xae0 	00018313          	mv	t1,gp
0xae4 	00120213          	addi	tp,tp,1 # 1 <_start+0x1>
0xae8 	00200293          	li	t0,2
0xaec 	fc521ce3          	bne	tp,t0,10a00 <test_11+0x4>
0xaf0 	000f0eb7          	lui	t4,0xf0
0xaf4 	00fe8e93          	addi	t4,t4,15 # f000f <heap_memory_used+0xce237>
0xaf8 	00b00e13          	li	t3,11
0xafc 	31d31c63          	bne	t1,t4,10d50 <fail>
0xb00 	00000213          	li	tp,0
0xb04 	ff0100b7          	lui	ra,0xff010
0xb08 	f0008093          	addi	ra,ra,-256 # ff00ff00 <heap_memory_used+0xfefee128>
0xb0c 	0f0f1137          	lui	sp,0xf0f1
0xb10 	f0f10113          	addi	sp,sp,-241 # f0f0f0f <heap_memory_used+0xf0cf137>
0xb14 	0020f1b3          	and	gp,ra,sp
0xb18 	00120213          	addi	tp,tp,1 # 1 <_start+0x1>
0xb1c 	00200293          	li	t0,2
0xb20 	fe5212e3          	bne	tp,t0,10a40 <test_12+0x4>
0xb24 	0f001eb7          	lui	t4,0xf001
0xb28 	f00e8e93          	addi	t4,t4,-256 # f000f00 <heap_memory_used+0xefdf128>
0xb2c 	00c00e13          	li	t3,12
0xb30 	2fd19263          	bne	gp,t4,10d50 <fail>
0xb34 	00000213          	li	tp,0
0xb38 	0ff010b7          	lui	ra,0xff01
0xb3c 	ff008093          	addi	ra,ra,-16 # ff00ff0 <heap_memory_used+0xfedf218>
0xb40 	f0f0f137          	lui	sp,0xf0f0f
0xb44 	0f010113          	addi	sp,sp,240 # f0f0f0f0 <heap_memory_used+0xf0eed318>
0xb48 	00000013          	nop
0xb4c 	0020f1b3          	and	gp,ra,sp
0xb50 	00120213          	addi	tp,tp,1 # 1 <_start+0x1>
0xb54 	00200293          	li	t0,2
0xb58 	fe5210e3          	bne	tp,t0,10a74 <test_13+0x4>
0xb5c 	00f00eb7          	lui	t4,0xf00
0xb60 	0f0e8e93          	addi	t4,t4,240 # f000f0 <heap_memory_used+0xede318>
0xb64 	00d00e13          	li	t3,13
0xb68 	2bd19663          	bne	gp,t4,10d50 <fail>
0xb6c 	00000213          	li	tp,0
0xb70 	00ff00b7          	lui	ra,0xff0
0xb74 	0ff08093          	addi	ra,ra,255 # ff00ff <heap_memory_used+0xfce327>
0xb78 	0f0f1137          	lui	sp,0xf0f1
0xb7c 	f0f10113          	addi	sp,sp,-241 # f0f0f0f <heap_memory_used+0xf0cf137>
0xb80 	00000013          	nop
0xb84 	00000013          	nop
0xb88 	0020f1b3          	and	gp,ra,sp
0xb8c 	00120213          	addi	tp,tp,1 # 1 <_start+0x1>
0xb90 	00200293          	li	t0,2
0xb94 	fc521ee3          	bne	tp,t0,10aac <test_14+0x4>
0xb98 	000f0eb7          	lui	t4,0xf0
0xb9c 	00fe8e93          	addi	t4,t4,15 # f000f <heap_memory_used+0xce237>
0xba0 	00e00e13          	li	t3,14
0xba4 	27d19863          	bne	gp,t4,10d50 <fail>
0xba8 	00000213          	li	tp,0
0xbac 	ff0100b7          	lui	ra,0xff010
0xbb0 	f0008093          	addi	ra,ra,-256 # ff00ff00 <heap_memory_used+0xfefee128>
0xbb4 	00000013          	nop
0xbb8 	0f0f1137          	lui	sp,0xf0f1
0xbbc 	f0f10113          	addi	sp,sp,-241 # f0f0f0f <heap_memory_used+0xf0cf137>
0xbc0 	0020f1b3          	and	gp,ra,sp
0xbc4 	00120213          	addi	tp,tp,1 # 1 <_start+0x1>
0xbc8 	00200293          	li	t0,2
0xbcc 	fe5210e3          	bne	tp,t0,10ae8 <test_15+0x4>
0xbd0 	0f001eb7          	lui	t4,0xf001
0xbd4 	f00e8e93          	addi	t4,t4,-256 # f000f00 <heap_memory_used+0xefdf128>
0xbd8 	00f00e13          	li	t3,15
0xbdc 	23d19c63          	bne	gp,t4,10d50 <fail>
0xbe0 	00000213          	li	tp,0
0xbe4 	0ff010b7          	lui	ra,0xff01
0xbe8 	ff008093          	addi	ra,ra,-16 # ff00ff0 <heap_memory_used+0xfedf218>
0xbec 	00000013          	nop
0xbf0 	f0f0f137          	lui	sp,0xf0f0f
0xbf4 	0f010113          	addi	sp,sp,240 # f0f0f0f0 <heap_memory_used+0xf0eed318>
0xbf8 	00000013          	nop
0xbfc 	0020f1b3          	and	gp,ra,sp
0xc00 	00120213          	addi	tp,tp,1 # 1 <_start+0x1>
0xc04 	00200293          	li	t0,2
0xc08 	fc521ee3          	bne	tp,t0,10b20 <test_16+0x4>
0xc0c 	00f00eb7          	lui	t4,0xf00
0xc10 	0f0e8e93          	addi	t4,t4,240 # f000f0 <heap_memory_used+0xede318>
0xc14 	01000e13          	li	t3,16
0xc18 	1fd19e63          	bne	gp,t4,10d50 <fail>
0xc1c 	00000213          	li	tp,0
0xc20 	00ff00b7          	lui	ra,0xff0
0xc24 	0ff08093          	addi	ra,ra,255 # ff00ff <heap_memory_used+0xfce327>
0xc28 	00000013          	nop
0xc2c 	00000013          	nop
0xc30 	0f0f1137          	lui	sp,0xf0f1
0xc34 	f0f10113          	addi	sp,sp,-241 # f0f0f0f <heap_memory_used+0xf0cf137>
0xc38 	0020f1b3          	and	gp,ra,sp
0xc3c 	00120213          	addi	tp,tp,1 # 1 <_start+0x1>
0xc40 	00200293          	li	t0,2
0xc44 	fc521ee3          	bne	tp,t0,10b5c <test_17+0x4>
0xc48 	000f0eb7          	lui	t4,0xf0
0xc4c 	00fe8e93          	addi	t4,t4,15 # f000f <heap_memory_used+0xce237>
0xc50 	01100e13          	li	t3,17
0xc54 	1dd19063          	bne	gp,t4,10d50 <fail>
0xc58 	00000213          	li	tp,0
0xc5c 	0f0f1137          	lui	sp,0xf0f1
0xc60 	f0f10113          	addi	sp,sp,-241 # f0f0f0f <heap_memory_used+0xf0cf137>
0xc64 	ff0100b7          	lui	ra,0xff010
0xc68 	f0008093          	addi	ra,ra,-256 # ff00ff00 <heap_memory_used+0xfefee128>
0xc6c 	0020f1b3          	and	gp,ra,sp
0xc70 	00120213          	addi	tp,tp,1 # 1 <_start+0x1>
0xc74 	00200293          	li	t0,2
0xc78 	fe5212e3          	bne	tp,t0,10b98 <test_18+0x4>
0xc7c 	0f001eb7          	lui	t4,0xf001
0xc80 	f00e8e93          	addi	t4,t4,-256 # f000f00 <heap_memory_used+0xefdf128>
0xc84 	01200e13          	li	t3,18
0xc88 	19d19663          	bne	gp,t4,10d50 <fail>
0xc8c 	00000213          	li	tp,0
0xc90 	f0f0f137          	lui	sp,0xf0f0f
0xc94 	0f010113          	addi	sp,sp,240 # f0f0f0f0 <heap_memory_used+0xf0eed318>
0xc98 	0ff010b7          	lui	ra,0xff01
0xc9c 	ff008093          	addi	ra,ra,-16 # ff00ff0 <heap_memory_used+0xfedf218>
0xca0 	00000013          	nop
0xca4 	0020f1b3          	and	gp,ra,sp
0xca8 	00120213          	addi	tp,tp,1 # 1 <_start+0x1>
0xcac 	00200293          	li	t0,2
0xcb0 	fe5210e3          	bne	tp,t0,10bcc <test_19+0x4>
0xcb4 	00f00eb7          	lui	t4,0xf00
0xcb8 	0f0e8e93          	addi	t4,t4,240 # f000f0 <heap_memory_used+0xede318>
0xcbc 	01300e13          	li	t3,19
0xcc0 	15d19a63          	bne	gp,t4,10d50 <fail>
0xcc4 	00000213          	li	tp,0
0xcc8 	0f0f1137          	lui	sp,0xf0f1
0xccc 	f0f10113          	addi	sp,sp,-241 # f0f0f0f <heap_memory_used+0xf0cf137>
0xcd0 	00ff00b7          	lui	ra,0xff0
0xcd4 	0ff08093          	addi	ra,ra,255 # ff00ff <heap_memory_used+0xfce327>
0xcd8 	00000013          	nop
0xcdc 	00000013          	nop
0xce0 	0020f1b3          	and	gp,ra,sp
0xce4 	00120213          	addi	tp,tp,1 # 1 <_start+0x1>
0xce8 	00200293          	li	t0,2
0xcec 	fc521ee3          	bne	tp,t0,10c04 <test_20+0x4>
0xcf0 	000f0eb7          	lui	t4,0xf0
0xcf4 	00fe8e93          	addi	t4,t4,15 # f000f <heap_memory_used+0xce237>
0xcf8 	01400e13          	li	t3,20
0xcfc 	11d19c63          	bne	gp,t4,10d50 <fail>
0xd00 	00000213          	li	tp,0
0xd04 	0f0f1137          	lui	sp,0xf0f1
0xd08 	f0f10113          	addi	sp,sp,-241 # f0f0f0f <heap_memory_used+0xf0cf137>
0xd0c 	00000013          	nop
0xd10 	ff0100b7          	lui	ra,0xff010
0xd14 	f0008093          	addi	ra,ra,-256 # ff00ff00 <heap_memory_used+0xfefee128>
0xd18 	0020f1b3          	and	gp,ra,sp
0xd1c 	00120213          	addi	tp,tp,1 # 1 <_start+0x1>
0xd20 	00200293          	li	t0,2
0xd24 	fe5210e3          	bne	tp,t0,10c40 <test_21+0x4>
0xd28 	0f001eb7          	lui	t4,0xf001
0xd2c 	f00e8e93          	addi	t4,t4,-256 # f000f00 <heap_memory_used+0xefdf128>
0xd30 	01500e13          	li	t3,21
0xd34 	0fd19063          	bne	gp,t4,10d50 <fail>
0xd38 	00000213          	li	tp,0
0xd3c 	f0f0f137          	lui	sp,0xf0f0f
0xd40 	0f010113          	addi	sp,sp,240 # f0f0f0f0 <heap_memory_used+0xf0eed318>
0xd44 	00000013          	nop
0xd48 	0ff010b7          	lui	ra,0xff01
0xd4c 	ff008093          	addi	ra,ra,-16 # ff00ff0 <heap_memory_used+0xfedf218>
0xd50 	00000013          	nop
0xd54 	0020f1b3          	and	gp,ra,sp
0xd58 	00120213          	addi	tp,tp,1 # 1 <_start+0x1>
0xd5c 	00200293          	li	t0,2
0xd60 	fc521ee3          	bne	tp,t0,10c78 <test_22+0x4>
0xd64 	00f00eb7          	lui	t4,0xf00
0xd68 	0f0e8e93          	addi	t4,t4,240 # f000f0 <heap_memory_used+0xede318>
0xd6c 	01600e13          	li	t3,22
0xd70 	0bd19263          	bne	gp,t4,10d50 <fail>
0xd74 	00000213          	li	tp,0
0xd78 	0f0f1137          	lui	sp,0xf0f1
0xd7c 	f0f10113          	addi	sp,sp,-241 # f0f0f0f <heap_memory_used+0xf0cf137>
0xd80 	00000013          	nop
0xd84 	00000013          	nop
0xd88 	00ff00b7          	lui	ra,0xff0
0xd8c 	0ff08093          	addi	ra,ra,255 # ff00ff <heap_memory_used+0xfce327>
0xd90 	0020f1b3          	and	gp,ra,sp
0xd94 	00120213          	addi	tp,tp,1 # 1 <_start+0x1>
0xd98 	00200293          	li	t0,2
0xd9c 	fc521ee3          	bne	tp,t0,10cb4 <test_23+0x4>
0xda0 	000f0eb7          	lui	t4,0xf0
0xda4 	00fe8e93          	addi	t4,t4,15 # f000f <heap_memory_used+0xce237>
0xda8 	01700e13          	li	t3,23
0xdac 	07d19463          	bne	gp,t4,10d50 <fail>
0xdb0 	ff0100b7          	lui	ra,0xff010
0xdb4 	f0008093          	addi	ra,ra,-256 # ff00ff00 <heap_memory_used+0xfefee128>
0xdb8 	00107133          	and	sp,zero,ra
0xdbc 	00000e93          	li	t4,0
0xdc0 	01800e13          	li	t3,24
0xdc4 	05d11863          	bne	sp,t4,10d50 <fail>
0xdc8 	00ff00b7          	lui	ra,0xff0
0xdcc 	0ff08093          	addi	ra,ra,255 # ff00ff <heap_memory_used+0xfce327>
0xdd0 	0000f133          	and	sp,ra,zero
0xdd4 	00000e93          	li	t4,0
0xdd8 	01900e13          	li	t3,25
0xddc 	03d11c63          	bne	sp,t4,10d50 <fail>
0xde0 	000070b3          	and	ra,zero,zero
0xde4 	00000e93          	li	t4,0
0xde8 	01a00e13          	li	t3,26
0xdec 	03d09463          	bne	ra,t4,10d50 <fail>
0xdf0 	111110b7          	lui	ra,0x11111
0xdf4 	11108093          	addi	ra,ra,273 # 11111111 <heap_memory_used+0x110ef339>
0xdf8 	22222137          	lui	sp,0x22222
0xdfc 	22210113          	addi	sp,sp,546 # 22222222 <heap_memory_used+0x2220044a>
0xe00 	0020f033          	and	zero,ra,sp
0xe04 	00000e93          	li	t4,0
0xe08 	01b00e13          	li	t3,27
0xe0c 	01d01463          	bne	zero,t4,10d50 <fail>
0xe10 	05c01863          	bne	zero,t3,10d9c <pass>
0xe14 	04500513          	li	a0,69
0xe18 	00004137          	lui	sp,0x4
0xe1c 	4310c0ef          	jal	ra,1d988 <printf_c>
0xe20 	05200513          	li	a0,82
0xe24 	00004137          	lui	sp,0x4
0xe28 	4250c0ef          	jal	ra,1d988 <printf_c>
0xe2c 	00004137          	lui	sp,0x4
0xe30 	41d0c0ef          	jal	ra,1d988 <printf_c>
0xe34 	04f00513          	li	a0,79
0xe38 	00004137          	lui	sp,0x4
0xe3c 	4110c0ef          	jal	ra,1d988 <printf_c>
0xe40 	00004137          	lui	sp,0x4
0xe44 	05200513          	li	a0,82
0xe48 	00004137          	lui	sp,0x4
0xe4c 	4010c0ef          	jal	ra,1d988 <printf_c>
0xe50 	00a00513          	li	a0,10
0xe54 	00004137          	lui	sp,0x4
0xe58 	3f50c0ef          	jal	ra,1d988 <printf_c>
0xe5c 	0340006f          	j	10dcc <andi>
0xe60 	04f00513          	li	a0,79
0xe64 	00004137          	lui	sp,0x4
0xe68 	3e50c0ef          	jal	ra,1d988 <printf_c>
0xe6c 	04b00513          	li	a0,75
0xe70 	00004137          	lui	sp,0x4
0xe74 	3d90c0ef          	jal	ra,1d988 <printf_c>
0xe78 	00a00513          	li	a0,10
0xe7c 	00004137          	lui	sp,0x4
0xe80 	3cd0c0ef          	jal	ra,1d988 <printf_c>
0xe84 	00c0006f          	j	10dcc <andi>
0xe88 	6e61                	lui	t3,0x18
0xe8c 	6964                	flw	fs1,84(a0)
0xe90 	0920                	addi	s0,sp,152
0xe94 	00011537          	lui	a0,0x11
0xe98 	dc450513          	addi	a0,a0,-572 # 10dc4 <.test_name>
0xe9c 	00004137          	lui	sp,0x4
0xea0 	3c90c0ef          	jal	ra,1d9a0 <printf_s>
0xea4 	ff0100b7          	lui	ra,0xff010
0xea8 	f0008093          	addi	ra,ra,-256 # ff00ff00 <heap_memory_used+0xfefee128>
0xeac 	f0f0f193          	andi	gp,ra,-241
0xeb0 	ff010eb7          	lui	t4,0xff010
0xeb4 	f00e8e93          	addi	t4,t4,-256 # ff00ff00 <heap_memory_used+0xfefee128>
0xeb8 	00200e13          	li	t3,2
0xebc 	1bd19463          	bne	gp,t4,10f9c <fail>
0xec0 	0ff010b7          	lui	ra,0xff01
0xec4 	ff008093          	addi	ra,ra,-16 # ff00ff0 <heap_memory_used+0xfedf218>
0xec8 	0f00f193          	andi	gp,ra,240
0xecc 	0f000e93          	li	t4,240
0xed0 	00300e13          	li	t3,3
0xed4 	19d19863          	bne	gp,t4,10f9c <fail>
0xed8 	00ff00b7          	lui	ra,0xff0
0xedc 	0ff08093          	addi	ra,ra,255 # ff00ff <heap_memory_used+0xfce327>
0xee0 	70f0f193          	andi	gp,ra,1807
0xee4 	00f00e93          	li	t4,15
0xee8 	00400e13          	li	t3,4
0xeec 	17d19c63          	bne	gp,t4,10f9c <fail>
0xef0 	f00ff0b7          	lui	ra,0xf00ff
0xef4 	00f08093          	addi	ra,ra,15 # f00ff00f <heap_memory_used+0xf00dd237>
0xef8 	0f00f193          	andi	gp,ra,240
0xefc 	00000e93          	li	t4,0
0xf00 	00500e13          	li	t3,5
0xf04 	17d19063          	bne	gp,t4,10f9c <fail>
0xf08 	ff0100b7          	lui	ra,0xff010
0xf0c 	f0008093          	addi	ra,ra,-256 # ff00ff00 <heap_memory_used+0xfefee128>
0xf10 	0f00f093          	andi	ra,ra,240
0xf14 	00000e93          	li	t4,0
0xf18 	00600e13          	li	t3,6
0xf1c 	15d09463          	bne	ra,t4,10f9c <fail>
0xf20 	00000213          	li	tp,0
0xf24 	0ff010b7          	lui	ra,0xff01
0xf28 	ff008093          	addi	ra,ra,-16 # ff00ff0 <heap_memory_used+0xfedf218>
0xf2c 	70f0f193          	andi	gp,ra,1807
0xf30 	00018313          	mv	t1,gp
0xf34 	00120213          	addi	tp,tp,1 # 1 <_start+0x1>
0xf38 	00200293          	li	t0,2
0xf3c 	fe5214e3          	bne	tp,t0,10e5c <test_7+0x4>
0xf40 	70000e93          	li	t4,1792
0xf44 	00700e13          	li	t3,7
0xf48 	11d31e63          	bne	t1,t4,10f9c <fail>
0xf4c 	00000213          	li	tp,0
0xf50 	00ff00b7          	lui	ra,0xff0
0xf54 	0ff08093          	addi	ra,ra,255 # ff00ff <heap_memory_used+0xfce327>
0xf58 	0f00f193          	andi	gp,ra,240
0xf5c 	00000013          	nop
0xf60 	00018313          	mv	t1,gp
0xf64 	00120213          	addi	tp,tp,1 # 1 <_start+0x1>
0xf68 	00200293          	li	t0,2
0xf6c 	fe5212e3          	bne	tp,t0,10e88 <test_8+0x4>
0xf70 	0f000e93          	li	t4,240
0xf74 	00800e13          	li	t3,8
0xf78 	0fd31663          	bne	t1,t4,10f9c <fail>
0xf7c 	00000213          	li	tp,0
0xf80 	f00ff0b7          	lui	ra,0xf00ff
0xf84 	00f08093          	addi	ra,ra,15 # f00ff00f <heap_memory_used+0xf00dd237>
0xf88 	f0f0f193          	andi	gp,ra,-241
0xf8c 	00000013          	nop
0xf90 	00000013          	nop
0xf94 	00018313          	mv	t1,gp
0xf98 	00120213          	addi	tp,tp,1 # 1 <_start+0x1>
0xf9c 	00200293          	li	t0,2
0xfa0 	fe5210e3          	bne	tp,t0,10eb8 <test_9+0x4>
0xfa4 	f00ffeb7          	lui	t4,0xf00ff
0xfa8 	00fe8e93          	addi	t4,t4,15 # f00ff00f <heap_memory_used+0xf00dd237>
0xfac 	00900e13          	li	t3,9
0xfb0 	0bd31a63          	bne	t1,t4,10f9c <fail>
0xfb4 	00000213          	li	tp,0
0xfb8 	0ff010b7          	lui	ra,0xff01
0xfbc 	ff008093          	addi	ra,ra,-16 # ff00ff0 <heap_memory_used+0xfedf218>
0xfc0 	70f0f193          	andi	gp,ra,1807
0xfc4 	00120213          	addi	tp,tp,1 # 1 <_start+0x1>
0xfc8 	00200293          	li	t0,2
0xfcc 	fe5216e3          	bne	tp,t0,10ef0 <test_10+0x4>
0xfd0 	70000e93          	li	t4,1792
0xfd4 	00a00e13          	li	t3,10
0xfd8 	09d19663          	bne	gp,t4,10f9c <fail>
0xfdc 	00000213          	li	tp,0
0xfe0 	00ff00b7          	lui	ra,0xff0
0xfe4 	0ff08093          	addi	ra,ra,255 # ff00ff <heap_memory_used+0xfce327>
0xfe8 	00000013          	nop
0xfec 	0f00f193          	andi	gp,ra,240
0xff0 	00120213          	addi	tp,tp,1 # 1 <_start+0x1>
0xff4 	00200293          	li	t0,2
0xff8 	fe5214e3          	bne	tp,t0,10f18 <test_11+0x4>
0xffc 	0f000e93          	li	t4,240
0x1000 	00b00e13          	li	t3,11
0x1004 	07d19063          	bne	gp,t4,10f9c <fail>
0x1008 	00000213          	li	tp,0
0x100c 	f00ff0b7          	lui	ra,0xf00ff
0x1010 	00f08093          	addi	ra,ra,15 # f00ff00f <heap_memory_used+0xf00dd237>
0x1014 	00000013          	nop
0x1018 	00000013          	nop
0x101c 	70f0f193          	andi	gp,ra,1807
0x1020 	00120213          	addi	tp,tp,1 # 1 <_start+0x1>
0x1024 	00200293          	li	t0,2
0x1028 	fe5212e3          	bne	tp,t0,10f44 <test_12+0x4>
0x102c 	00f00e93          	li	t4,15
0x1030 	00c00e13          	li	t3,12
0x1034 	03d19863          	bne	gp,t4,10f9c <fail>
0x1038 	0f007093          	andi	ra,zero,240
0x103c 	00000e93          	li	t4,0
0x1040 	00d00e13          	li	t3,13
0x1044 	03d09063          	bne	ra,t4,10f9c <fail>
0x1048 	00ff00b7          	lui	ra,0xff0
0x104c 	0ff08093          	addi	ra,ra,255 # ff00ff <heap_memory_used+0xfce327>
0x1050 	70f0f013          	andi	zero,ra,1807
0x1054 	00000e93          	li	t4,0
0x1058 	00e00e13          	li	t3,14
0x105c 	01d01463          	bne	zero,t4,10f9c <fail>
0x1060 	05c01863          	bne	zero,t3,10fe8 <pass>
0x1064 	04500513          	li	a0,69
0x1068 	00004137          	lui	sp,0x4
0x106c 	1e50c0ef          	jal	ra,1d988 <printf_c>
0x1070 	05200513          	li	a0,82
0x1074 	00004137          	lui	sp,0x4
0x1078 	1d90c0ef          	jal	ra,1d988 <printf_c>
0x107c 	00004137          	lui	sp,0x4
0x1080 	1d10c0ef          	jal	ra,1d988 <printf_c>
0x1084 	04f00513          	li	a0,79
0x1088 	00004137          	lui	sp,0x4
0x108c 	1c50c0ef          	jal	ra,1d988 <printf_c>
0x1090 	00004137          	lui	sp,0x4
0x1094 	05200513          	li	a0,82
0x1098 	00004137          	lui	sp,0x4
0x109c 	1b50c0ef          	jal	ra,1d988 <printf_c>
0x10a0 	00a00513          	li	a0,10
0x10a4 	00004137          	lui	sp,0x4
0x10a8 	1a90c0ef          	jal	ra,1d988 <printf_c>
0x10ac 	0340006f          	j	11018 <auipc>
0x10b0 	04f00513          	li	a0,79
0x10b4 	00004137          	lui	sp,0x4
0x10b8 	1990c0ef          	jal	ra,1d988 <printf_c>
0x10bc 	04b00513          	li	a0,75
0x10c0 	00004137          	lui	sp,0x4
0x10c4 	18d0c0ef          	jal	ra,1d988 <printf_c>
0x10c8 	00a00513          	li	a0,10
0x10cc 	00004137          	lui	sp,0x4
0x10d0 	1810c0ef          	jal	ra,1d988 <printf_c>
0x10d4 	00c0006f          	j	11018 <auipc>
0x10d8 	7561                	lui	a0,0xffff8
0x10dc 	7069                	0x7069
0x10e0 	00092063          	0x92063
0x10e4 	00011537          	lui	a0,0x11
0x10e8 	01050513          	addi	a0,a0,16 # 11010 <.test_name>
0x10ec 	00004137          	lui	sp,0x4
0x10f0 	17d0c0ef          	jal	ra,1d9a0 <printf_s>
0x10f4 	00002517          	auipc	a0,0x2
0x10f8 	71c50513          	addi	a0,a0,1820 # 13744 <fail+0x48>
0x10fc 	004005ef          	jal	a1,11034 <test_2+0xc>
0x1100 	40b50533          	sub	a0,a0,a1
0x1104 	00002eb7          	lui	t4,0x2
0x1108 	710e8e93          	addi	t4,t4,1808 # 2710 <coremarkBenchmark+0x2668>
0x110c 	00200e13          	li	t3,2
0x1110 	03d51463          	bne	a0,t4,1106c <fail>
0x1114 	ffffe517          	auipc	a0,0xffffe
0x1118 	8fc50513          	addi	a0,a0,-1796 # e944 <coremarkBenchmark+0xe89c>
0x111c 	004005ef          	jal	a1,11054 <test_3+0xc>
0x1120 	40b50533          	sub	a0,a0,a1
0x1124 	ffffeeb7          	lui	t4,0xffffe
0x1128 	8f0e8e93          	addi	t4,t4,-1808 # ffffd8f0 <heap_memory_used+0xfffdbb18>
0x112c 	00300e13          	li	t3,3
0x1130 	01d51463          	bne	a0,t4,1106c <fail>
0x1134 	05c01863          	bne	zero,t3,110b8 <pass>
0x1138 	04500513          	li	a0,69
0x113c 	00004137          	lui	sp,0x4
0x1140 	1150c0ef          	jal	ra,1d988 <printf_c>
0x1144 	05200513          	li	a0,82
0x1148 	00004137          	lui	sp,0x4
0x114c 	1090c0ef          	jal	ra,1d988 <printf_c>
0x1150 	00004137          	lui	sp,0x4
0x1154 	1010c0ef          	jal	ra,1d988 <printf_c>
0x1158 	04f00513          	li	a0,79
0x115c 	00004137          	lui	sp,0x4
0x1160 	0f50c0ef          	jal	ra,1d988 <printf_c>
0x1164 	00004137          	lui	sp,0x4
0x1168 	05200513          	li	a0,82
0x116c 	00004137          	lui	sp,0x4
0x1170 	0e50c0ef          	jal	ra,1d988 <printf_c>
0x1174 	00a00513          	li	a0,10
0x1178 	00004137          	lui	sp,0x4
0x117c 	0d90c0ef          	jal	ra,1d988 <printf_c>
0x1180 	0340006f          	j	110e8 <beq>
0x1184 	04f00513          	li	a0,79
0x1188 	00004137          	lui	sp,0x4
0x118c 	0c90c0ef          	jal	ra,1d988 <printf_c>
0x1190 	04b00513          	li	a0,75
0x1194 	00004137          	lui	sp,0x4
0x1198 	0bd0c0ef          	jal	ra,1d988 <printf_c>
0x119c 	00a00513          	li	a0,10
0x11a0 	00004137          	lui	sp,0x4
0x11a4 	0b10c0ef          	jal	ra,1d988 <printf_c>
0x11a8 	00c0006f          	j	110e8 <beq>
0x11ac 	6562                	flw	fa0,24(sp)
0x11b0 	2071                	jal	1116e <test_5+0x16>
0x11b4 	0009                	c.addi	zero,2
0x11b8 	00011537          	lui	a0,0x11
0x11bc 	0e050513          	addi	a0,a0,224 # 110e0 <.test_name>
0x11c0 	00004137          	lui	sp,0x4
0x11c4 	0ad0c0ef          	jal	ra,1d9a0 <printf_s>
0x11c8 	00200e13          	li	t3,2
0x11cc 	00000093          	li	ra,0
0x11d0 	00000113          	li	sp,0
0x11d4 	00208663          	beq	ra,sp,11110 <test_2+0x18>
0x11d8 	2bc01863          	bne	zero,t3,113b8 <fail>
0x11dc 	01c01663          	bne	zero,t3,11118 <test_3>
0x11e0 	fe208ee3          	beq	ra,sp,1110c <test_2+0x14>
0x11e4 	2bc01263          	bne	zero,t3,113b8 <fail>
0x11e8 	00300e13          	li	t3,3
0x11ec 	00100093          	li	ra,1
0x11f0 	00100113          	li	sp,1
0x11f4 	00208663          	beq	ra,sp,11130 <test_3+0x18>
0x11f8 	29c01863          	bne	zero,t3,113b8 <fail>
0x11fc 	01c01663          	bne	zero,t3,11138 <test_4>
0x1200 	fe208ee3          	beq	ra,sp,1112c <test_3+0x14>
0x1204 	29c01263          	bne	zero,t3,113b8 <fail>
0x1208 	00400e13          	li	t3,4
0x120c 	fff00093          	li	ra,-1
0x1210 	fff00113          	li	sp,-1
0x1214 	00208663          	beq	ra,sp,11150 <test_4+0x18>
0x1218 	27c01863          	bne	zero,t3,113b8 <fail>
0x121c 	01c01663          	bne	zero,t3,11158 <test_5>
0x1220 	fe208ee3          	beq	ra,sp,1114c <test_4+0x14>
0x1224 	27c01263          	bne	zero,t3,113b8 <fail>
0x1228 	00500e13          	li	t3,5
0x122c 	00000093          	li	ra,0
0x1230 	00100113          	li	sp,1
0x1234 	00208463          	beq	ra,sp,1116c <test_5+0x14>
0x1238 	01c01463          	bne	zero,t3,11170 <test_5+0x18>
0x123c 	25c01663          	bne	zero,t3,113b8 <fail>
0x1240 	fe208ee3          	beq	ra,sp,1116c <test_5+0x14>
0x1244 	00600e13          	li	t3,6
0x1248 	00100093          	li	ra,1
0x124c 	00000113          	li	sp,0
0x1250 	00208463          	beq	ra,sp,11188 <test_6+0x14>
0x1254 	01c01463          	bne	zero,t3,1118c <test_6+0x18>
0x1258 	23c01863          	bne	zero,t3,113b8 <fail>
0x125c 	fe208ee3          	beq	ra,sp,11188 <test_6+0x14>
0x1260 	00700e13          	li	t3,7
0x1264 	fff00093          	li	ra,-1
0x1268 	00100113          	li	sp,1
0x126c 	00208463          	beq	ra,sp,111a4 <test_7+0x14>
0x1270 	01c01463          	bne	zero,t3,111a8 <test_7+0x18>
0x1274 	21c01a63          	bne	zero,t3,113b8 <fail>
0x1278 	fe208ee3          	beq	ra,sp,111a4 <test_7+0x14>
0x127c 	00800e13          	li	t3,8
0x1280 	00100093          	li	ra,1
0x1284 	fff00113          	li	sp,-1
0x1288 	00208463          	beq	ra,sp,111c0 <test_8+0x14>
0x128c 	01c01463          	bne	zero,t3,111c4 <test_8+0x18>
0x1290 	1fc01c63          	bne	zero,t3,113b8 <fail>
0x1294 	fe208ee3          	beq	ra,sp,111c0 <test_8+0x14>
0x1298 	00900e13          	li	t3,9
0x129c 	00000213          	li	tp,0
0x12a0 	00000093          	li	ra,0
0x12a4 	fff00113          	li	sp,-1
0x12a8 	1e208063          	beq	ra,sp,113b8 <fail>
0x12ac 	00120213          	addi	tp,tp,1 # 1 <_start+0x1>
0x12b0 	00200293          	li	t0,2
0x12b4 	fe5216e3          	bne	tp,t0,111d0 <test_9+0x8>
0x12b8 	00a00e13          	li	t3,10
0x12bc 	00000213          	li	tp,0
0x12c0 	00000093          	li	ra,0
0x12c4 	fff00113          	li	sp,-1
0x12c8 	00000013          	nop
0x12cc 	1a208e63          	beq	ra,sp,113b8 <fail>
0x12d0 	00120213          	addi	tp,tp,1 # 1 <_start+0x1>
0x12d4 	00200293          	li	t0,2
0x12d8 	fe5214e3          	bne	tp,t0,111f0 <test_10+0x8>
0x12dc 	00b00e13          	li	t3,11
0x12e0 	00000213          	li	tp,0
0x12e4 	00000093          	li	ra,0
0x12e8 	fff00113          	li	sp,-1
0x12ec 	00000013          	nop
0x12f0 	00000013          	nop
0x12f4 	18208a63          	beq	ra,sp,113b8 <fail>
0x12f8 	00120213          	addi	tp,tp,1 # 1 <_start+0x1>
0x12fc 	00200293          	li	t0,2
0x1300 	fe5212e3          	bne	tp,t0,11214 <test_11+0x8>
0x1304 	00c00e13          	li	t3,12
0x1308 	00000213          	li	tp,0
0x130c 	00000093          	li	ra,0
0x1310 	00000013          	nop
0x1314 	fff00113          	li	sp,-1
0x1318 	16208863          	beq	ra,sp,113b8 <fail>
0x131c 	00120213          	addi	tp,tp,1 # 1 <_start+0x1>
0x1320 	00200293          	li	t0,2
0x1324 	fe5214e3          	bne	tp,t0,1123c <test_12+0x8>
0x1328 	00d00e13          	li	t3,13
0x132c 	00000213          	li	tp,0
0x1330 	00000093          	li	ra,0
0x1334 	00000013          	nop
0x1338 	fff00113          	li	sp,-1
0x133c 	00000013          	nop
0x1340 	14208463          	beq	ra,sp,113b8 <fail>
0x1344 	00120213          	addi	tp,tp,1 # 1 <_start+0x1>
0x1348 	00200293          	li	t0,2
0x134c 	fe5212e3          	bne	tp,t0,11260 <test_13+0x8>
0x1350 	00e00e13          	li	t3,14
0x1354 	00000213          	li	tp,0
0x1358 	00000093          	li	ra,0
0x135c 	00000013          	nop
0x1360 	00000013          	nop
0x1364 	fff00113          	li	sp,-1
0x1368 	12208063          	beq	ra,sp,113b8 <fail>
0x136c 	00120213          	addi	tp,tp,1 # 1 <_start+0x1>
0x1370 	00200293          	li	t0,2
0x1374 	fe5212e3          	bne	tp,t0,11288 <test_14+0x8>
0x1378 	00f00e13          	li	t3,15
0x137c 	00000213          	li	tp,0
0x1380 	00000093          	li	ra,0
0x1384 	fff00113          	li	sp,-1
0x1388 	10208063          	beq	ra,sp,113b8 <fail>
0x138c 	00120213          	addi	tp,tp,1 # 1 <_start+0x1>
0x1390 	00200293          	li	t0,2
0x1394 	fe5216e3          	bne	tp,t0,112b0 <test_15+0x8>
0x1398 	01000e13          	li	t3,16
0x139c 	00000213          	li	tp,0
0x13a0 	00000093          	li	ra,0
0x13a4 	fff00113          	li	sp,-1
0x13a8 	00000013          	nop
0x13ac 	0c208e63          	beq	ra,sp,113b8 <fail>
0x13b0 	00120213          	addi	tp,tp,1 # 1 <_start+0x1>
0x13b4 	00200293          	li	t0,2
0x13b8 	fe5214e3          	bne	tp,t0,112d0 <test_16+0x8>
0x13bc 	01100e13          	li	t3,17
0x13c0 	00000213          	li	tp,0
0x13c4 	00000093          	li	ra,0
0x13c8 	fff00113          	li	sp,-1
0x13cc 	00000013          	nop
0x13d0 	00000013          	nop
0x13d4 	0a208a63          	beq	ra,sp,113b8 <fail>
0x13d8 	00120213          	addi	tp,tp,1 # 1 <_start+0x1>
0x13dc 	00200293          	li	t0,2
0x13e0 	fe5212e3          	bne	tp,t0,112f4 <test_17+0x8>
0x13e4 	01200e13          	li	t3,18
0x13e8 	00000213          	li	tp,0
0x13ec 	00000093          	li	ra,0
0x13f0 	00000013          	nop
0x13f4 	fff00113          	li	sp,-1
0x13f8 	08208863          	beq	ra,sp,113b8 <fail>
0x13fc 	00120213          	addi	tp,tp,1 # 1 <_start+0x1>
0x1400 	00200293          	li	t0,2
0x1404 	fe5214e3          	bne	tp,t0,1131c <test_18+0x8>
0x1408 	01300e13          	li	t3,19
0x140c 	00000213          	li	tp,0
0x1410 	00000093          	li	ra,0
0x1414 	00000013          	nop
0x1418 	fff00113          	li	sp,-1
0x141c 	00000013          	nop
0x1420 	06208463          	beq	ra,sp,113b8 <fail>
0x1424 	00120213          	addi	tp,tp,1 # 1 <_start+0x1>
0x1428 	00200293          	li	t0,2
0x142c 	fe5212e3          	bne	tp,t0,11340 <test_19+0x8>
0x1430 	01400e13          	li	t3,20
0x1434 	00000213          	li	tp,0
0x1438 	00000093          	li	ra,0
0x143c 	00000013          	nop
0x1440 	00000013          	nop
0x1444 	fff00113          	li	sp,-1
0x1448 	04208063          	beq	ra,sp,113b8 <fail>
0x144c 	00120213          	addi	tp,tp,1 # 1 <_start+0x1>
0x1450 	00200293          	li	t0,2
0x1454 	fe5212e3          	bne	tp,t0,11368 <test_20+0x8>
0x1458 	00100093          	li	ra,1
0x145c 	00000a63          	beqz	zero,113a0 <test_21+0x18>
0x1460 	00108093          	addi	ra,ra,1
0x1464 	00108093          	addi	ra,ra,1
0x1468 	00108093          	addi	ra,ra,1
0x146c 	00108093          	addi	ra,ra,1
0x1470 	00108093          	addi	ra,ra,1
0x1474 	00108093          	addi	ra,ra,1
0x1478 	00300e93          	li	t4,3
0x147c 	01500e13          	li	t3,21
0x1480 	01d09463          	bne	ra,t4,113b8 <fail>
0x1484 	05c01863          	bne	zero,t3,11404 <pass>
0x1488 	04500513          	li	a0,69
0x148c 	00004137          	lui	sp,0x4
0x1490 	5c80c0ef          	jal	ra,1d988 <printf_c>
0x1494 	05200513          	li	a0,82
0x1498 	00004137          	lui	sp,0x4
0x149c 	5bc0c0ef          	jal	ra,1d988 <printf_c>
0x14a0 	00004137          	lui	sp,0x4
0x14a4 	5b40c0ef          	jal	ra,1d988 <printf_c>
0x14a8 	04f00513          	li	a0,79
0x14ac 	00004137          	lui	sp,0x4
0x14b0 	5a80c0ef          	jal	ra,1d988 <printf_c>
0x14b4 	00004137          	lui	sp,0x4
0x14b8 	05200513          	li	a0,82
0x14bc 	00004137          	lui	sp,0x4
0x14c0 	5980c0ef          	jal	ra,1d988 <printf_c>
0x14c4 	00a00513          	li	a0,10
0x14c8 	00004137          	lui	sp,0x4
0x14cc 	58c0c0ef          	jal	ra,1d988 <printf_c>
0x14d0 	0340006f          	j	11434 <bge>
0x14d4 	04f00513          	li	a0,79
0x14d8 	00004137          	lui	sp,0x4
0x14dc 	57c0c0ef          	jal	ra,1d988 <printf_c>
0x14e0 	04b00513          	li	a0,75
0x14e4 	00004137          	lui	sp,0x4
0x14e8 	5700c0ef          	jal	ra,1d988 <printf_c>
0x14ec 	00a00513          	li	a0,10
0x14f0 	00004137          	lui	sp,0x4
0x14f4 	5640c0ef          	jal	ra,1d988 <printf_c>
0x14f8 	00c0006f          	j	11434 <bge>
0x14fc 	6762                	flw	fa4,24(sp)
0x1500 	2065                	jal	114d6 <test_6+0x12>
0x1504 	0009                	c.addi	zero,2
0x1508 	00011537          	lui	a0,0x11
0x150c 	42c50513          	addi	a0,a0,1068 # 1142c <.test_name>
0x1510 	00004137          	lui	sp,0x4
0x1514 	5600c0ef          	jal	ra,1d9a0 <printf_s>
0x1518 	00200e13          	li	t3,2
0x151c 	00000093          	li	ra,0
0x1520 	00000113          	li	sp,0
0x1524 	0020d663          	ble	sp,ra,1145c <test_2+0x18>
0x1528 	31c01863          	bne	zero,t3,11764 <fail>
0x152c 	01c01663          	bne	zero,t3,11464 <test_3>
0x1530 	fe20dee3          	ble	sp,ra,11458 <test_2+0x14>
0x1534 	31c01263          	bne	zero,t3,11764 <fail>
0x1538 	00300e13          	li	t3,3
0x153c 	00100093          	li	ra,1
0x1540 	00100113          	li	sp,1
0x1544 	0020d663          	ble	sp,ra,1147c <test_3+0x18>
0x1548 	2fc01863          	bne	zero,t3,11764 <fail>
0x154c 	01c01663          	bne	zero,t3,11484 <test_4>
0x1550 	fe20dee3          	ble	sp,ra,11478 <test_3+0x14>
0x1554 	2fc01263          	bne	zero,t3,11764 <fail>
0x1558 	00400e13          	li	t3,4
0x155c 	fff00093          	li	ra,-1
0x1560 	fff00113          	li	sp,-1
0x1564 	0020d663          	ble	sp,ra,1149c <test_4+0x18>
0x1568 	2dc01863          	bne	zero,t3,11764 <fail>
0x156c 	01c01663          	bne	zero,t3,114a4 <test_5>
0x1570 	fe20dee3          	ble	sp,ra,11498 <test_4+0x14>
0x1574 	2dc01263          	bne	zero,t3,11764 <fail>
0x1578 	00500e13          	li	t3,5
0x157c 	00100093          	li	ra,1
0x1580 	00000113          	li	sp,0
0x1584 	0020d663          	ble	sp,ra,114bc <test_5+0x18>
0x1588 	2bc01863          	bne	zero,t3,11764 <fail>
0x158c 	01c01663          	bne	zero,t3,114c4 <test_6>
0x1590 	fe20dee3          	ble	sp,ra,114b8 <test_5+0x14>
0x1594 	2bc01263          	bne	zero,t3,11764 <fail>
0x1598 	00600e13          	li	t3,6
0x159c 	00100093          	li	ra,1
0x15a0 	fff00113          	li	sp,-1
0x15a4 	0020d663          	ble	sp,ra,114dc <test_6+0x18>
0x15a8 	29c01863          	bne	zero,t3,11764 <fail>
0x15ac 	01c01663          	bne	zero,t3,114e4 <test_7>
0x15b0 	fe20dee3          	ble	sp,ra,114d8 <test_6+0x14>
0x15b4 	29c01263          	bne	zero,t3,11764 <fail>
0x15b8 	00700e13          	li	t3,7
0x15bc 	fff00093          	li	ra,-1
0x15c0 	ffe00113          	li	sp,-2
0x15c4 	0020d663          	ble	sp,ra,114fc <test_7+0x18>
0x15c8 	27c01863          	bne	zero,t3,11764 <fail>
0x15cc 	01c01663          	bne	zero,t3,11504 <test_8>
0x15d0 	fe20dee3          	ble	sp,ra,114f8 <test_7+0x14>
0x15d4 	27c01263          	bne	zero,t3,11764 <fail>
0x15d8 	00800e13          	li	t3,8
0x15dc 	00000093          	li	ra,0
0x15e0 	00100113          	li	sp,1
0x15e4 	0020d463          	ble	sp,ra,11518 <test_8+0x14>
0x15e8 	01c01463          	bne	zero,t3,1151c <test_8+0x18>
0x15ec 	25c01663          	bne	zero,t3,11764 <fail>
0x15f0 	fe20dee3          	ble	sp,ra,11518 <test_8+0x14>
0x15f4 	00900e13          	li	t3,9
0x15f8 	fff00093          	li	ra,-1
0x15fc 	00100113          	li	sp,1
0x1600 	0020d463          	ble	sp,ra,11534 <test_9+0x14>
0x1604 	01c01463          	bne	zero,t3,11538 <test_9+0x18>
0x1608 	23c01863          	bne	zero,t3,11764 <fail>
0x160c 	fe20dee3          	ble	sp,ra,11534 <test_9+0x14>
0x1610 	00a00e13          	li	t3,10
0x1614 	ffe00093          	li	ra,-2
0x1618 	fff00113          	li	sp,-1
0x161c 	0020d463          	ble	sp,ra,11550 <test_10+0x14>
0x1620 	01c01463          	bne	zero,t3,11554 <test_10+0x18>
0x1624 	21c01a63          	bne	zero,t3,11764 <fail>
0x1628 	fe20dee3          	ble	sp,ra,11550 <test_10+0x14>
0x162c 	00b00e13          	li	t3,11
0x1630 	ffe00093          	li	ra,-2
0x1634 	00100113          	li	sp,1
0x1638 	0020d463          	ble	sp,ra,1156c <test_11+0x14>
0x163c 	01c01463          	bne	zero,t3,11570 <test_11+0x18>
0x1640 	1fc01c63          	bne	zero,t3,11764 <fail>
0x1644 	fe20dee3          	ble	sp,ra,1156c <test_11+0x14>
0x1648 	00c00e13          	li	t3,12
0x164c 	00000213          	li	tp,0
0x1650 	fff00093          	li	ra,-1
0x1654 	00000113          	li	sp,0
0x1658 	1e20d063          	ble	sp,ra,11764 <fail>
0x165c 	00120213          	addi	tp,tp,1 # 1 <_start+0x1>
0x1660 	00200293          	li	t0,2
0x1664 	fe5216e3          	bne	tp,t0,1157c <test_12+0x8>
0x1668 	00d00e13          	li	t3,13
0x166c 	00000213          	li	tp,0
0x1670 	fff00093          	li	ra,-1
0x1674 	00000113          	li	sp,0
0x1678 	00000013          	nop
0x167c 	1a20de63          	ble	sp,ra,11764 <fail>
0x1680 	00120213          	addi	tp,tp,1 # 1 <_start+0x1>
0x1684 	00200293          	li	t0,2
0x1688 	fe5214e3          	bne	tp,t0,1159c <test_13+0x8>
0x168c 	00e00e13          	li	t3,14
0x1690 	00000213          	li	tp,0
0x1694 	fff00093          	li	ra,-1
0x1698 	00000113          	li	sp,0
0x169c 	00000013          	nop
0x16a0 	00000013          	nop
0x16a4 	1820da63          	ble	sp,ra,11764 <fail>
0x16a8 	00120213          	addi	tp,tp,1 # 1 <_start+0x1>
0x16ac 	00200293          	li	t0,2
0x16b0 	fe5212e3          	bne	tp,t0,115c0 <test_14+0x8>
0x16b4 	00f00e13          	li	t3,15
0x16b8 	00000213          	li	tp,0
0x16bc 	fff00093          	li	ra,-1
0x16c0 	00000013          	nop
0x16c4 	00000113          	li	sp,0
0x16c8 	1620d863          	ble	sp,ra,11764 <fail>
0x16cc 	00120213          	addi	tp,tp,1 # 1 <_start+0x1>
0x16d0 	00200293          	li	t0,2
0x16d4 	fe5214e3          	bne	tp,t0,115e8 <test_15+0x8>
0x16d8 	01000e13          	li	t3,16
0x16dc 	00000213          	li	tp,0
0x16e0 	fff00093          	li	ra,-1
0x16e4 	00000013          	nop
0x16e8 	00000113          	li	sp,0
0x16ec 	00000013          	nop
0x16f0 	1420d463          	ble	sp,ra,11764 <fail>
0x16f4 	00120213          	addi	tp,tp,1 # 1 <_start+0x1>
0x16f8 	00200293          	li	t0,2
0x16fc 	fe5212e3          	bne	tp,t0,1160c <test_16+0x8>
0x1700 	01100e13          	li	t3,17
0x1704 	00000213          	li	tp,0
0x1708 	fff00093          	li	ra,-1
0x170c 	00000013          	nop
0x1710 	00000013          	nop
0x1714 	00000113          	li	sp,0
0x1718 	1220d063          	ble	sp,ra,11764 <fail>
0x171c 	00120213          	addi	tp,tp,1 # 1 <_start+0x1>
0x1720 	00200293          	li	t0,2
0x1724 	fe5212e3          	bne	tp,t0,11634 <test_17+0x8>
0x1728 	01200e13          	li	t3,18
0x172c 	00000213          	li	tp,0
0x1730 	fff00093          	li	ra,-1
0x1734 	00000113          	li	sp,0
0x1738 	1020d063          	ble	sp,ra,11764 <fail>
0x173c 	00120213          	addi	tp,tp,1 # 1 <_start+0x1>
0x1740 	00200293          	li	t0,2
0x1744 	fe5216e3          	bne	tp,t0,1165c <test_18+0x8>
0x1748 	01300e13          	li	t3,19
0x174c 	00000213          	li	tp,0
0x1750 	fff00093          	li	ra,-1
0x1754 	00000113          	li	sp,0
0x1758 	00000013          	nop
0x175c 	0c20de63          	ble	sp,ra,11764 <fail>
0x1760 	00120213          	addi	tp,tp,1 # 1 <_start+0x1>
0x1764 	00200293          	li	t0,2
0x1768 	fe5214e3          	bne	tp,t0,1167c <test_19+0x8>
0x176c 	01400e13          	li	t3,20
0x1770 	00000213          	li	tp,0
0x1774 	fff00093          	li	ra,-1
0x1778 	00000113          	li	sp,0
0x177c 	00000013          	nop
0x1780 	00000013          	nop
0x1784 	0a20da63          	ble	sp,ra,11764 <fail>
0x1788 	00120213          	addi	tp,tp,1 # 1 <_start+0x1>
0x178c 	00200293          	li	t0,2
0x1790 	fe5212e3          	bne	tp,t0,116a0 <test_20+0x8>
0x1794 	01500e13          	li	t3,21
0x1798 	00000213          	li	tp,0
0x179c 	fff00093          	li	ra,-1
0x17a0 	00000013          	nop
0x17a4 	00000113          	li	sp,0
0x17a8 	0820d863          	ble	sp,ra,11764 <fail>
0x17ac 	00120213          	addi	tp,tp,1 # 1 <_start+0x1>
0x17b0 	00200293          	li	t0,2
0x17b4 	fe5214e3          	bne	tp,t0,116c8 <test_21+0x8>
0x17b8 	01600e13          	li	t3,22
0x17bc 	00000213          	li	tp,0
0x17c0 	fff00093          	li	ra,-1
0x17c4 	00000013          	nop
0x17c8 	00000113          	li	sp,0
0x17cc 	00000013          	nop
0x17d0 	0620d463          	ble	sp,ra,11764 <fail>
0x17d4 	00120213          	addi	tp,tp,1 # 1 <_start+0x1>
0x17d8 	00200293          	li	t0,2
0x17dc 	fe5212e3          	bne	tp,t0,116ec <test_22+0x8>
0x17e0 	01700e13          	li	t3,23
0x17e4 	00000213          	li	tp,0
0x17e8 	fff00093          	li	ra,-1
0x17ec 	00000013          	nop
0x17f0 	00000013          	nop
0x17f4 	00000113          	li	sp,0
0x17f8 	0420d063          	ble	sp,ra,11764 <fail>
0x17fc 	00120213          	addi	tp,tp,1 # 1 <_start+0x1>
0x1800 	00200293          	li	t0,2
0x1804 	fe5212e3          	bne	tp,t0,11714 <test_23+0x8>
0x1808 	00100093          	li	ra,1
0x180c 	0000da63          	bgez	ra,1174c <test_24+0x18>
0x1810 	00108093          	addi	ra,ra,1
0x1814 	00108093          	addi	ra,ra,1
0x1818 	00108093          	addi	ra,ra,1
0x181c 	00108093          	addi	ra,ra,1
0x1820 	00108093          	addi	ra,ra,1
0x1824 	00108093          	addi	ra,ra,1
0x1828 	00300e93          	li	t4,3
0x182c 	01800e13          	li	t3,24
0x1830 	01d09463          	bne	ra,t4,11764 <fail>
0x1834 	05c01863          	bne	zero,t3,117b0 <pass>
0x1838 	04500513          	li	a0,69
0x183c 	00004137          	lui	sp,0x4
0x1840 	21c0c0ef          	jal	ra,1d988 <printf_c>
0x1844 	05200513          	li	a0,82
0x1848 	00004137          	lui	sp,0x4
0x184c 	2100c0ef          	jal	ra,1d988 <printf_c>
0x1850 	00004137          	lui	sp,0x4
0x1854 	2080c0ef          	jal	ra,1d988 <printf_c>
0x1858 	04f00513          	li	a0,79
0x185c 	00004137          	lui	sp,0x4
0x1860 	1fc0c0ef          	jal	ra,1d988 <printf_c>
0x1864 	00004137          	lui	sp,0x4
0x1868 	05200513          	li	a0,82
0x186c 	00004137          	lui	sp,0x4
0x1870 	1ec0c0ef          	jal	ra,1d988 <printf_c>
0x1874 	00a00513          	li	a0,10
0x1878 	00004137          	lui	sp,0x4
0x187c 	1e00c0ef          	jal	ra,1d988 <printf_c>
0x1880 	0340006f          	j	117e0 <bgeu>
0x1884 	04f00513          	li	a0,79
0x1888 	00004137          	lui	sp,0x4
0x188c 	1d00c0ef          	jal	ra,1d988 <printf_c>
0x1890 	04b00513          	li	a0,75
0x1894 	00004137          	lui	sp,0x4
0x1898 	1c40c0ef          	jal	ra,1d988 <printf_c>
0x189c 	00a00513          	li	a0,10
0x18a0 	00004137          	lui	sp,0x4
0x18a4 	1b80c0ef          	jal	ra,1d988 <printf_c>
0x18a8 	00c0006f          	j	117e0 <bgeu>
0x18ac 	6762                	flw	fa4,24(sp)
0x18b0 	7565                	lui	a0,0xffff9
0x18b4 	0920                	addi	s0,sp,152
0x18b8 	00011537          	lui	a0,0x11
0x18bc 	7d850513          	addi	a0,a0,2008 # 117d8 <.test_name>
0x18c0 	00004137          	lui	sp,0x4
0x18c4 	1b40c0ef          	jal	ra,1d9a0 <printf_s>
0x18c8 	00200e13          	li	t3,2
0x18cc 	00000093          	li	ra,0
0x18d0 	00000113          	li	sp,0
0x18d4 	0020f663          	bleu	sp,ra,11808 <test_2+0x18>
0x18d8 	35c01263          	bne	zero,t3,11b44 <fail>
0x18dc 	01c01663          	bne	zero,t3,11810 <test_3>
0x18e0 	fe20fee3          	bleu	sp,ra,11804 <test_2+0x14>
0x18e4 	33c01c63          	bne	zero,t3,11b44 <fail>
0x18e8 	00300e13          	li	t3,3
0x18ec 	00100093          	li	ra,1
0x18f0 	00100113          	li	sp,1
0x18f4 	0020f663          	bleu	sp,ra,11828 <test_3+0x18>
0x18f8 	33c01263          	bne	zero,t3,11b44 <fail>
0x18fc 	01c01663          	bne	zero,t3,11830 <test_4>
0x1900 	fe20fee3          	bleu	sp,ra,11824 <test_3+0x14>
0x1904 	31c01c63          	bne	zero,t3,11b44 <fail>
0x1908 	00400e13          	li	t3,4
0x190c 	fff00093          	li	ra,-1
0x1910 	fff00113          	li	sp,-1
0x1914 	0020f663          	bleu	sp,ra,11848 <test_4+0x18>
0x1918 	31c01263          	bne	zero,t3,11b44 <fail>
0x191c 	01c01663          	bne	zero,t3,11850 <test_5>
0x1920 	fe20fee3          	bleu	sp,ra,11844 <test_4+0x14>
0x1924 	2fc01c63          	bne	zero,t3,11b44 <fail>
0x1928 	00500e13          	li	t3,5
0x192c 	00100093          	li	ra,1
0x1930 	00000113          	li	sp,0
0x1934 	0020f663          	bleu	sp,ra,11868 <test_5+0x18>
0x1938 	2fc01263          	bne	zero,t3,11b44 <fail>
0x193c 	01c01663          	bne	zero,t3,11870 <test_6>
0x1940 	fe20fee3          	bleu	sp,ra,11864 <test_5+0x14>
0x1944 	2dc01c63          	bne	zero,t3,11b44 <fail>
0x1948 	00600e13          	li	t3,6
0x194c 	fff00093          	li	ra,-1
0x1950 	ffe00113          	li	sp,-2
0x1954 	0020f663          	bleu	sp,ra,11888 <test_6+0x18>
0x1958 	2dc01263          	bne	zero,t3,11b44 <fail>
0x195c 	01c01663          	bne	zero,t3,11890 <test_7>
0x1960 	fe20fee3          	bleu	sp,ra,11884 <test_6+0x14>
0x1964 	2bc01c63          	bne	zero,t3,11b44 <fail>
0x1968 	00700e13          	li	t3,7
0x196c 	fff00093          	li	ra,-1
0x1970 	00000113          	li	sp,0
0x1974 	0020f663          	bleu	sp,ra,118a8 <test_7+0x18>
0x1978 	2bc01263          	bne	zero,t3,11b44 <fail>
0x197c 	01c01663          	bne	zero,t3,118b0 <test_8>
0x1980 	fe20fee3          	bleu	sp,ra,118a4 <test_7+0x14>
0x1984 	29c01c63          	bne	zero,t3,11b44 <fail>
0x1988 	00800e13          	li	t3,8
0x198c 	00000093          	li	ra,0
0x1990 	00100113          	li	sp,1
0x1994 	0020f463          	bleu	sp,ra,118c4 <test_8+0x14>
0x1998 	01c01463          	bne	zero,t3,118c8 <test_8+0x18>
0x199c 	29c01063          	bne	zero,t3,11b44 <fail>
0x19a0 	fe20fee3          	bleu	sp,ra,118c4 <test_8+0x14>
0x19a4 	00900e13          	li	t3,9
0x19a8 	ffe00093          	li	ra,-2
0x19ac 	fff00113          	li	sp,-1
0x19b0 	0020f463          	bleu	sp,ra,118e0 <test_9+0x14>
0x19b4 	01c01463          	bne	zero,t3,118e4 <test_9+0x18>
0x19b8 	27c01263          	bne	zero,t3,11b44 <fail>
0x19bc 	fe20fee3          	bleu	sp,ra,118e0 <test_9+0x14>
0x19c0 	00a00e13          	li	t3,10
0x19c4 	00000093          	li	ra,0
0x19c8 	fff00113          	li	sp,-1
0x19cc 	0020f463          	bleu	sp,ra,118fc <test_10+0x14>
0x19d0 	01c01463          	bne	zero,t3,11900 <test_10+0x18>
0x19d4 	25c01463          	bne	zero,t3,11b44 <fail>
0x19d8 	fe20fee3          	bleu	sp,ra,118fc <test_10+0x14>
0x19dc 	00b00e13          	li	t3,11
0x19e0 	800000b7          	lui	ra,0x80000
0x19e4 	fff08093          	addi	ra,ra,-1 # 7fffffff <heap_memory_used+0x7ffde227>
0x19e8 	80000137          	lui	sp,0x80000
0x19ec 	0020f463          	bleu	sp,ra,1191c <test_11+0x18>
0x19f0 	01c01463          	bne	zero,t3,11920 <test_11+0x1c>
0x19f4 	23c01463          	bne	zero,t3,11b44 <fail>
0x19f8 	fe20fee3          	bleu	sp,ra,1191c <test_11+0x18>
0x19fc 	00c00e13          	li	t3,12
0x1a00 	00000213          	li	tp,0
0x1a04 	f00000b7          	lui	ra,0xf0000
0x1a08 	fff08093          	addi	ra,ra,-1 # efffffff <heap_memory_used+0xeffde227>
0x1a0c 	f0000137          	lui	sp,0xf0000
0x1a10 	2020f663          	bleu	sp,ra,11b44 <fail>
0x1a14 	00120213          	addi	tp,tp,1 # 1 <_start+0x1>
0x1a18 	00200293          	li	t0,2
0x1a1c 	fe5214e3          	bne	tp,t0,1192c <test_12+0x8>
0x1a20 	00d00e13          	li	t3,13
0x1a24 	00000213          	li	tp,0
0x1a28 	f00000b7          	lui	ra,0xf0000
0x1a2c 	fff08093          	addi	ra,ra,-1 # efffffff <heap_memory_used+0xeffde227>
0x1a30 	f0000137          	lui	sp,0xf0000
0x1a34 	00000013          	nop
0x1a38 	1e20f263          	bleu	sp,ra,11b44 <fail>
0x1a3c 	00120213          	addi	tp,tp,1 # 1 <_start+0x1>
0x1a40 	00200293          	li	t0,2
0x1a44 	fe5212e3          	bne	tp,t0,11950 <test_13+0x8>
0x1a48 	00e00e13          	li	t3,14
0x1a4c 	00000213          	li	tp,0
0x1a50 	f00000b7          	lui	ra,0xf0000
0x1a54 	fff08093          	addi	ra,ra,-1 # efffffff <heap_memory_used+0xeffde227>
0x1a58 	f0000137          	lui	sp,0xf0000
0x1a5c 	00000013          	nop
0x1a60 	00000013          	nop
0x1a64 	1a20fc63          	bleu	sp,ra,11b44 <fail>
0x1a68 	00120213          	addi	tp,tp,1 # 1 <_start+0x1>
0x1a6c 	00200293          	li	t0,2
0x1a70 	fe5210e3          	bne	tp,t0,11978 <test_14+0x8>
0x1a74 	00f00e13          	li	t3,15
0x1a78 	00000213          	li	tp,0
0x1a7c 	f00000b7          	lui	ra,0xf0000
0x1a80 	fff08093          	addi	ra,ra,-1 # efffffff <heap_memory_used+0xeffde227>
0x1a84 	00000013          	nop
0x1a88 	f0000137          	lui	sp,0xf0000
0x1a8c 	1820f863          	bleu	sp,ra,11b44 <fail>
0x1a90 	00120213          	addi	tp,tp,1 # 1 <_start+0x1>
0x1a94 	00200293          	li	t0,2
0x1a98 	fe5212e3          	bne	tp,t0,119a4 <test_15+0x8>
0x1a9c 	01000e13          	li	t3,16
0x1aa0 	00000213          	li	tp,0
0x1aa4 	f00000b7          	lui	ra,0xf0000
0x1aa8 	fff08093          	addi	ra,ra,-1 # efffffff <heap_memory_used+0xeffde227>
0x1aac 	00000013          	nop
0x1ab0 	f0000137          	lui	sp,0xf0000
0x1ab4 	00000013          	nop
0x1ab8 	1620f263          	bleu	sp,ra,11b44 <fail>
0x1abc 	00120213          	addi	tp,tp,1 # 1 <_start+0x1>
0x1ac0 	00200293          	li	t0,2
0x1ac4 	fe5210e3          	bne	tp,t0,119cc <test_16+0x8>
0x1ac8 	01100e13          	li	t3,17
0x1acc 	00000213          	li	tp,0
0x1ad0 	f00000b7          	lui	ra,0xf0000
0x1ad4 	fff08093          	addi	ra,ra,-1 # efffffff <heap_memory_used+0xeffde227>
0x1ad8 	00000013          	nop
0x1adc 	00000013          	nop
0x1ae0 	f0000137          	lui	sp,0xf0000
0x1ae4 	1220fc63          	bleu	sp,ra,11b44 <fail>
0x1ae8 	00120213          	addi	tp,tp,1 # 1 <_start+0x1>
0x1aec 	00200293          	li	t0,2
0x1af0 	fe5210e3          	bne	tp,t0,119f8 <test_17+0x8>
0x1af4 	01200e13          	li	t3,18
0x1af8 	00000213          	li	tp,0
0x1afc 	f00000b7          	lui	ra,0xf0000
0x1b00 	fff08093          	addi	ra,ra,-1 # efffffff <heap_memory_used+0xeffde227>
0x1b04 	f0000137          	lui	sp,0xf0000
0x1b08 	1020fa63          	bleu	sp,ra,11b44 <fail>
0x1b0c 	00120213          	addi	tp,tp,1 # 1 <_start+0x1>
0x1b10 	00200293          	li	t0,2
0x1b14 	fe5214e3          	bne	tp,t0,11a24 <test_18+0x8>
0x1b18 	01300e13          	li	t3,19
0x1b1c 	00000213          	li	tp,0
0x1b20 	f00000b7          	lui	ra,0xf0000
0x1b24 	fff08093          	addi	ra,ra,-1 # efffffff <heap_memory_used+0xeffde227>
0x1b28 	f0000137          	lui	sp,0xf0000
0x1b2c 	00000013          	nop
0x1b30 	0e20f663          	bleu	sp,ra,11b44 <fail>
0x1b34 	00120213          	addi	tp,tp,1 # 1 <_start+0x1>
0x1b38 	00200293          	li	t0,2
0x1b3c 	fe5212e3          	bne	tp,t0,11a48 <test_19+0x8>
0x1b40 	01400e13          	li	t3,20
0x1b44 	00000213          	li	tp,0
0x1b48 	f00000b7          	lui	ra,0xf0000
0x1b4c 	fff08093          	addi	ra,ra,-1 # efffffff <heap_memory_used+0xeffde227>
0x1b50 	f0000137          	lui	sp,0xf0000
0x1b54 	00000013          	nop
0x1b58 	00000013          	nop
0x1b5c 	0c20f063          	bleu	sp,ra,11b44 <fail>
0x1b60 	00120213          	addi	tp,tp,1 # 1 <_start+0x1>
0x1b64 	00200293          	li	t0,2
0x1b68 	fe5210e3          	bne	tp,t0,11a70 <test_20+0x8>
0x1b6c 	01500e13          	li	t3,21
0x1b70 	00000213          	li	tp,0
0x1b74 	f00000b7          	lui	ra,0xf0000
0x1b78 	fff08093          	addi	ra,ra,-1 # efffffff <heap_memory_used+0xeffde227>
0x1b7c 	00000013          	nop
0x1b80 	f0000137          	lui	sp,0xf0000
0x1b84 	0820fc63          	bleu	sp,ra,11b44 <fail>
0x1b88 	00120213          	addi	tp,tp,1 # 1 <_start+0x1>
0x1b8c 	00200293          	li	t0,2
0x1b90 	fe5212e3          	bne	tp,t0,11a9c <test_21+0x8>
0x1b94 	01600e13          	li	t3,22
0x1b98 	00000213          	li	tp,0
0x1b9c 	f00000b7          	lui	ra,0xf0000
0x1ba0 	fff08093          	addi	ra,ra,-1 # efffffff <heap_memory_used+0xeffde227>
0x1ba4 	00000013          	nop
0x1ba8 	f0000137          	lui	sp,0xf0000
0x1bac 	00000013          	nop
0x1bb0 	0620f663          	bleu	sp,ra,11b44 <fail>
0x1bb4 	00120213          	addi	tp,tp,1 # 1 <_start+0x1>
0x1bb8 	00200293          	li	t0,2
0x1bbc 	fe5210e3          	bne	tp,t0,11ac4 <test_22+0x8>
0x1bc0 	01700e13          	li	t3,23
0x1bc4 	00000213          	li	tp,0
0x1bc8 	f00000b7          	lui	ra,0xf0000
0x1bcc 	fff08093          	addi	ra,ra,-1 # efffffff <heap_memory_used+0xeffde227>
0x1bd0 	00000013          	nop
0x1bd4 	00000013          	nop
0x1bd8 	f0000137          	lui	sp,0xf0000
0x1bdc 	0420f063          	bleu	sp,ra,11b44 <fail>
0x1be0 	00120213          	addi	tp,tp,1 # 1 <_start+0x1>
0x1be4 	00200293          	li	t0,2
0x1be8 	fe5210e3          	bne	tp,t0,11af0 <test_23+0x8>
0x1bec 	00100093          	li	ra,1
0x1bf0 	0000fa63          	bleu	zero,ra,11b2c <test_24+0x18>
0x1bf4 	00108093          	addi	ra,ra,1
0x1bf8 	00108093          	addi	ra,ra,1
0x1bfc 	00108093          	addi	ra,ra,1
0x1c00 	00108093          	addi	ra,ra,1
0x1c04 	00108093          	addi	ra,ra,1
0x1c08 	00108093          	addi	ra,ra,1
0x1c0c 	00300e93          	li	t4,3
0x1c10 	01800e13          	li	t3,24
0x1c14 	01d09463          	bne	ra,t4,11b44 <fail>
0x1c18 	05c01863          	bne	zero,t3,11b90 <pass>
0x1c1c 	04500513          	li	a0,69
0x1c20 	00004137          	lui	sp,0x4
0x1c24 	63d0b0ef          	jal	ra,1d988 <printf_c>
0x1c28 	05200513          	li	a0,82
0x1c2c 	00004137          	lui	sp,0x4
0x1c30 	6310b0ef          	jal	ra,1d988 <printf_c>
0x1c34 	00004137          	lui	sp,0x4
0x1c38 	6290b0ef          	jal	ra,1d988 <printf_c>
0x1c3c 	04f00513          	li	a0,79
0x1c40 	00004137          	lui	sp,0x4
0x1c44 	61d0b0ef          	jal	ra,1d988 <printf_c>
0x1c48 	00004137          	lui	sp,0x4
0x1c4c 	05200513          	li	a0,82
0x1c50 	00004137          	lui	sp,0x4
0x1c54 	60d0b0ef          	jal	ra,1d988 <printf_c>
0x1c58 	00a00513          	li	a0,10
0x1c5c 	00004137          	lui	sp,0x4
0x1c60 	6010b0ef          	jal	ra,1d988 <printf_c>
0x1c64 	0340006f          	j	11bc0 <blt>
0x1c68 	04f00513          	li	a0,79
0x1c6c 	00004137          	lui	sp,0x4
0x1c70 	5f10b0ef          	jal	ra,1d988 <printf_c>
0x1c74 	04b00513          	li	a0,75
0x1c78 	00004137          	lui	sp,0x4
0x1c7c 	5e50b0ef          	jal	ra,1d988 <printf_c>
0x1c80 	00a00513          	li	a0,10
0x1c84 	00004137          	lui	sp,0x4
0x1c88 	5d90b0ef          	jal	ra,1d988 <printf_c>
0x1c8c 	00c0006f          	j	11bc0 <blt>
0x1c90 	6c62                	flw	fs8,24(sp)
0x1c94 	2074                	fld	fa3,192(s0)
0x1c98 	0009                	c.addi	zero,2
0x1c9c 	00012537          	lui	a0,0x12
0x1ca0 	bb850513          	addi	a0,a0,-1096 # 11bb8 <.test_name>
0x1ca4 	00004137          	lui	sp,0x4
0x1ca8 	5d50b0ef          	jal	ra,1d9a0 <printf_s>
0x1cac 	00200e13          	li	t3,2
0x1cb0 	00000093          	li	ra,0
0x1cb4 	00100113          	li	sp,1
0x1cb8 	0020c663          	blt	ra,sp,11be8 <test_2+0x18>
0x1cbc 	2bc01863          	bne	zero,t3,11e90 <fail>
0x1cc0 	01c01663          	bne	zero,t3,11bf0 <test_3>
0x1cc4 	fe20cee3          	blt	ra,sp,11be4 <test_2+0x14>
0x1cc8 	2bc01263          	bne	zero,t3,11e90 <fail>
0x1ccc 	00300e13          	li	t3,3
0x1cd0 	fff00093          	li	ra,-1
0x1cd4 	00100113          	li	sp,1
0x1cd8 	0020c663          	blt	ra,sp,11c08 <test_3+0x18>
0x1cdc 	29c01863          	bne	zero,t3,11e90 <fail>
0x1ce0 	01c01663          	bne	zero,t3,11c10 <test_4>
0x1ce4 	fe20cee3          	blt	ra,sp,11c04 <test_3+0x14>
0x1ce8 	29c01263          	bne	zero,t3,11e90 <fail>
0x1cec 	00400e13          	li	t3,4
0x1cf0 	ffe00093          	li	ra,-2
0x1cf4 	fff00113          	li	sp,-1
0x1cf8 	0020c663          	blt	ra,sp,11c28 <test_4+0x18>
0x1cfc 	27c01863          	bne	zero,t3,11e90 <fail>
0x1d00 	01c01663          	bne	zero,t3,11c30 <test_5>
0x1d04 	fe20cee3          	blt	ra,sp,11c24 <test_4+0x14>
0x1d08 	27c01263          	bne	zero,t3,11e90 <fail>
0x1d0c 	00500e13          	li	t3,5
0x1d10 	00100093          	li	ra,1
0x1d14 	00000113          	li	sp,0
0x1d18 	0020c463          	blt	ra,sp,11c44 <test_5+0x14>
0x1d1c 	01c01463          	bne	zero,t3,11c48 <test_5+0x18>
0x1d20 	25c01663          	bne	zero,t3,11e90 <fail>
0x1d24 	fe20cee3          	blt	ra,sp,11c44 <test_5+0x14>
0x1d28 	00600e13          	li	t3,6
0x1d2c 	00100093          	li	ra,1
0x1d30 	fff00113          	li	sp,-1
0x1d34 	0020c463          	blt	ra,sp,11c60 <test_6+0x14>
0x1d38 	01c01463          	bne	zero,t3,11c64 <test_6+0x18>
0x1d3c 	23c01863          	bne	zero,t3,11e90 <fail>
0x1d40 	fe20cee3          	blt	ra,sp,11c60 <test_6+0x14>
0x1d44 	00700e13          	li	t3,7
0x1d48 	fff00093          	li	ra,-1
0x1d4c 	ffe00113          	li	sp,-2
0x1d50 	0020c463          	blt	ra,sp,11c7c <test_7+0x14>
0x1d54 	01c01463          	bne	zero,t3,11c80 <test_7+0x18>
0x1d58 	21c01a63          	bne	zero,t3,11e90 <fail>
0x1d5c 	fe20cee3          	blt	ra,sp,11c7c <test_7+0x14>
0x1d60 	00800e13          	li	t3,8
0x1d64 	00100093          	li	ra,1
0x1d68 	ffe00113          	li	sp,-2
0x1d6c 	0020c463          	blt	ra,sp,11c98 <test_8+0x14>
0x1d70 	01c01463          	bne	zero,t3,11c9c <test_8+0x18>
0x1d74 	1fc01c63          	bne	zero,t3,11e90 <fail>
0x1d78 	fe20cee3          	blt	ra,sp,11c98 <test_8+0x14>
0x1d7c 	00900e13          	li	t3,9
0x1d80 	00000213          	li	tp,0
0x1d84 	00000093          	li	ra,0
0x1d88 	fff00113          	li	sp,-1
0x1d8c 	1e20c063          	blt	ra,sp,11e90 <fail>
0x1d90 	00120213          	addi	tp,tp,1 # 1 <_start+0x1>
0x1d94 	00200293          	li	t0,2
0x1d98 	fe5216e3          	bne	tp,t0,11ca8 <test_9+0x8>
0x1d9c 	00a00e13          	li	t3,10
0x1da0 	00000213          	li	tp,0
0x1da4 	00000093          	li	ra,0
0x1da8 	fff00113          	li	sp,-1
0x1dac 	00000013          	nop
0x1db0 	1a20ce63          	blt	ra,sp,11e90 <fail>
0x1db4 	00120213          	addi	tp,tp,1 # 1 <_start+0x1>
0x1db8 	00200293          	li	t0,2
0x1dbc 	fe5214e3          	bne	tp,t0,11cc8 <test_10+0x8>
0x1dc0 	00b00e13          	li	t3,11
0x1dc4 	00000213          	li	tp,0
0x1dc8 	00000093          	li	ra,0
0x1dcc 	fff00113          	li	sp,-1
0x1dd0 	00000013          	nop
0x1dd4 	00000013          	nop
0x1dd8 	1820ca63          	blt	ra,sp,11e90 <fail>
0x1ddc 	00120213          	addi	tp,tp,1 # 1 <_start+0x1>
0x1de0 	00200293          	li	t0,2
0x1de4 	fe5212e3          	bne	tp,t0,11cec <test_11+0x8>
0x1de8 	00c00e13          	li	t3,12
0x1dec 	00000213          	li	tp,0
0x1df0 	00000093          	li	ra,0
0x1df4 	00000013          	nop
0x1df8 	fff00113          	li	sp,-1
0x1dfc 	1620c863          	blt	ra,sp,11e90 <fail>
0x1e00 	00120213          	addi	tp,tp,1 # 1 <_start+0x1>
0x1e04 	00200293          	li	t0,2
0x1e08 	fe5214e3          	bne	tp,t0,11d14 <test_12+0x8>
0x1e0c 	00d00e13          	li	t3,13
0x1e10 	00000213          	li	tp,0
0x1e14 	00000093          	li	ra,0
0x1e18 	00000013          	nop
0x1e1c 	fff00113          	li	sp,-1
0x1e20 	00000013          	nop
0x1e24 	1420c463          	blt	ra,sp,11e90 <fail>
0x1e28 	00120213          	addi	tp,tp,1 # 1 <_start+0x1>
0x1e2c 	00200293          	li	t0,2
0x1e30 	fe5212e3          	bne	tp,t0,11d38 <test_13+0x8>
0x1e34 	00e00e13          	li	t3,14
0x1e38 	00000213          	li	tp,0
0x1e3c 	00000093          	li	ra,0
0x1e40 	00000013          	nop
0x1e44 	00000013          	nop
0x1e48 	fff00113          	li	sp,-1
0x1e4c 	1220c063          	blt	ra,sp,11e90 <fail>
0x1e50 	00120213          	addi	tp,tp,1 # 1 <_start+0x1>
0x1e54 	00200293          	li	t0,2
0x1e58 	fe5212e3          	bne	tp,t0,11d60 <test_14+0x8>
0x1e5c 	00f00e13          	li	t3,15
0x1e60 	00000213          	li	tp,0
0x1e64 	00000093          	li	ra,0
0x1e68 	fff00113          	li	sp,-1
0x1e6c 	1020c063          	blt	ra,sp,11e90 <fail>
0x1e70 	00120213          	addi	tp,tp,1 # 1 <_start+0x1>
0x1e74 	00200293          	li	t0,2
0x1e78 	fe5216e3          	bne	tp,t0,11d88 <test_15+0x8>
0x1e7c 	01000e13          	li	t3,16
0x1e80 	00000213          	li	tp,0
0x1e84 	00000093          	li	ra,0
0x1e88 	fff00113          	li	sp,-1
0x1e8c 	00000013          	nop
0x1e90 	0c20ce63          	blt	ra,sp,11e90 <fail>
0x1e94 	00120213          	addi	tp,tp,1 # 1 <_start+0x1>
0x1e98 	00200293          	li	t0,2
0x1e9c 	fe5214e3          	bne	tp,t0,11da8 <test_16+0x8>
0x1ea0 	01100e13          	li	t3,17
0x1ea4 	00000213          	li	tp,0
0x1ea8 	00000093          	li	ra,0
0x1eac 	fff00113          	li	sp,-1
0x1eb0 	00000013          	nop
0x1eb4 	00000013          	nop
0x1eb8 	0a20ca63          	blt	ra,sp,11e90 <fail>
0x1ebc 	00120213          	addi	tp,tp,1 # 1 <_start+0x1>
0x1ec0 	00200293          	li	t0,2
0x1ec4 	fe5212e3          	bne	tp,t0,11dcc <test_17+0x8>
0x1ec8 	01200e13          	li	t3,18
0x1ecc 	00000213          	li	tp,0
0x1ed0 	00000093          	li	ra,0
0x1ed4 	00000013          	nop
0x1ed8 	fff00113          	li	sp,-1
0x1edc 	0820c863          	blt	ra,sp,11e90 <fail>
0x1ee0 	00120213          	addi	tp,tp,1 # 1 <_start+0x1>
0x1ee4 	00200293          	li	t0,2
0x1ee8 	fe5214e3          	bne	tp,t0,11df4 <test_18+0x8>
0x1eec 	01300e13          	li	t3,19
0x1ef0 	00000213          	li	tp,0
0x1ef4 	00000093          	li	ra,0
0x1ef8 	00000013          	nop
0x1efc 	fff00113          	li	sp,-1
0x1f00 	00000013          	nop
0x1f04 	0620c463          	blt	ra,sp,11e90 <fail>
0x1f08 	00120213          	addi	tp,tp,1 # 1 <_start+0x1>
0x1f0c 	00200293          	li	t0,2
0x1f10 	fe5212e3          	bne	tp,t0,11e18 <test_19+0x8>
0x1f14 	01400e13          	li	t3,20
0x1f18 	00000213          	li	tp,0
0x1f1c 	00000093          	li	ra,0
0x1f20 	00000013          	nop
0x1f24 	00000013          	nop
0x1f28 	fff00113          	li	sp,-1
0x1f2c 	0420c063          	blt	ra,sp,11e90 <fail>
0x1f30 	00120213          	addi	tp,tp,1 # 1 <_start+0x1>
0x1f34 	00200293          	li	t0,2
0x1f38 	fe5212e3          	bne	tp,t0,11e40 <test_20+0x8>
0x1f3c 	00100093          	li	ra,1
0x1f40 	00104a63          	bgtz	ra,11e78 <test_21+0x18>
0x1f44 	00108093          	addi	ra,ra,1
0x1f48 	00108093          	addi	ra,ra,1
0x1f4c 	00108093          	addi	ra,ra,1
0x1f50 	00108093          	addi	ra,ra,1
0x1f54 	00108093          	addi	ra,ra,1
0x1f58 	00108093          	addi	ra,ra,1
0x1f5c 	00300e93          	li	t4,3
0x1f60 	01500e13          	li	t3,21
0x1f64 	01d09463          	bne	ra,t4,11e90 <fail>
0x1f68 	05c01863          	bne	zero,t3,11edc <pass>
0x1f6c 	04500513          	li	a0,69
0x1f70 	00004137          	lui	sp,0x4
0x1f74 	2f10b0ef          	jal	ra,1d988 <printf_c>
0x1f78 	05200513          	li	a0,82
0x1f7c 	00004137          	lui	sp,0x4
0x1f80 	2e50b0ef          	jal	ra,1d988 <printf_c>
0x1f84 	00004137          	lui	sp,0x4
0x1f88 	2dd0b0ef          	jal	ra,1d988 <printf_c>
0x1f8c 	04f00513          	li	a0,79
0x1f90 	00004137          	lui	sp,0x4
0x1f94 	2d10b0ef          	jal	ra,1d988 <printf_c>
0x1f98 	00004137          	lui	sp,0x4
0x1f9c 	05200513          	li	a0,82
0x1fa0 	00004137          	lui	sp,0x4
0x1fa4 	2c10b0ef          	jal	ra,1d988 <printf_c>
0x1fa8 	00a00513          	li	a0,10
0x1fac 	00004137          	lui	sp,0x4
0x1fb0 	2b50b0ef          	jal	ra,1d988 <printf_c>
0x1fb4 	0340006f          	j	11f0c <bltu>
0x1fb8 	04f00513          	li	a0,79
0x1fbc 	00004137          	lui	sp,0x4
0x1fc0 	2a50b0ef          	jal	ra,1d988 <printf_c>
0x1fc4 	04b00513          	li	a0,75
0x1fc8 	00004137          	lui	sp,0x4
0x1fcc 	2990b0ef          	jal	ra,1d988 <printf_c>
0x1fd0 	00a00513          	li	a0,10
0x1fd4 	00004137          	lui	sp,0x4
0x1fd8 	28d0b0ef          	jal	ra,1d988 <printf_c>
0x1fdc 	00c0006f          	j	11f0c <bltu>
0x1fe0 	6c62                	flw	fs8,24(sp)
0x1fe4 	7574                	flw	fa3,108(a0)
0x1fe8 	0920                	addi	s0,sp,152
0x1fec 	00012537          	lui	a0,0x12
0x1ff0 	f0450513          	addi	a0,a0,-252 # 11f04 <.test_name>
0x1ff4 	00004137          	lui	sp,0x4
0x1ff8 	2890b0ef          	jal	ra,1d9a0 <printf_s>
0x1ffc 	00200e13          	li	t3,2
0x2000 	00000093          	li	ra,0
0x2004 	00100113          	li	sp,1
0x2008 	0020e663          	bltu	ra,sp,11f34 <test_2+0x18>
0x200c 	2fc01263          	bne	zero,t3,12210 <fail>
0x2010 	01c01663          	bne	zero,t3,11f3c <test_3>
0x2014 	fe20eee3          	bltu	ra,sp,11f30 <test_2+0x14>
0x2018 	2dc01c63          	bne	zero,t3,12210 <fail>
0x201c 	00300e13          	li	t3,3
0x2020 	ffe00093          	li	ra,-2
0x2024 	fff00113          	li	sp,-1
0x2028 	0020e663          	bltu	ra,sp,11f54 <test_3+0x18>
0x202c 	2dc01263          	bne	zero,t3,12210 <fail>
0x2030 	01c01663          	bne	zero,t3,11f5c <test_4>
0x2034 	fe20eee3          	bltu	ra,sp,11f50 <test_3+0x14>
0x2038 	2bc01c63          	bne	zero,t3,12210 <fail>
0x203c 	00400e13          	li	t3,4
0x2040 	00000093          	li	ra,0
0x2044 	fff00113          	li	sp,-1
0x2048 	0020e663          	bltu	ra,sp,11f74 <test_4+0x18>
0x204c 	2bc01263          	bne	zero,t3,12210 <fail>
0x2050 	01c01663          	bne	zero,t3,11f7c <test_5>
0x2054 	fe20eee3          	bltu	ra,sp,11f70 <test_4+0x14>
0x2058 	29c01c63          	bne	zero,t3,12210 <fail>
0x205c 	00500e13          	li	t3,5
0x2060 	00100093          	li	ra,1
0x2064 	00000113          	li	sp,0
0x2068 	0020e463          	bltu	ra,sp,11f90 <test_5+0x14>
0x206c 	01c01463          	bne	zero,t3,11f94 <test_5+0x18>
0x2070 	29c01063          	bne	zero,t3,12210 <fail>
0x2074 	fe20eee3          	bltu	ra,sp,11f90 <test_5+0x14>
0x2078 	00600e13          	li	t3,6
0x207c 	fff00093          	li	ra,-1
0x2080 	ffe00113          	li	sp,-2
0x2084 	0020e463          	bltu	ra,sp,11fac <test_6+0x14>
0x2088 	01c01463          	bne	zero,t3,11fb0 <test_6+0x18>
0x208c 	27c01263          	bne	zero,t3,12210 <fail>
0x2090 	fe20eee3          	bltu	ra,sp,11fac <test_6+0x14>
0x2094 	00700e13          	li	t3,7
0x2098 	fff00093          	li	ra,-1
0x209c 	00000113          	li	sp,0
0x20a0 	0020e463          	bltu	ra,sp,11fc8 <test_7+0x14>
0x20a4 	01c01463          	bne	zero,t3,11fcc <test_7+0x18>
0x20a8 	25c01463          	bne	zero,t3,12210 <fail>
0x20ac 	fe20eee3          	bltu	ra,sp,11fc8 <test_7+0x14>
0x20b0 	00800e13          	li	t3,8
0x20b4 	800000b7          	lui	ra,0x80000
0x20b8 	80000137          	lui	sp,0x80000
0x20bc 	fff10113          	addi	sp,sp,-1 # 7fffffff <heap_memory_used+0x7ffde227>
0x20c0 	0020e463          	bltu	ra,sp,11fe8 <test_8+0x18>
0x20c4 	01c01463          	bne	zero,t3,11fec <test_8+0x1c>
0x20c8 	23c01463          	bne	zero,t3,12210 <fail>
0x20cc 	fe20eee3          	bltu	ra,sp,11fe8 <test_8+0x18>
0x20d0 	00900e13          	li	t3,9
0x20d4 	00000213          	li	tp,0
0x20d8 	f00000b7          	lui	ra,0xf0000
0x20dc 	f0000137          	lui	sp,0xf0000
0x20e0 	fff10113          	addi	sp,sp,-1 # efffffff <heap_memory_used+0xeffde227>
0x20e4 	2020e663          	bltu	ra,sp,12210 <fail>
0x20e8 	00120213          	addi	tp,tp,1 # 1 <_start+0x1>
0x20ec 	00200293          	li	t0,2
0x20f0 	fe5214e3          	bne	tp,t0,11ff8 <test_9+0x8>
0x20f4 	00a00e13          	li	t3,10
0x20f8 	00000213          	li	tp,0
0x20fc 	f00000b7          	lui	ra,0xf0000
0x2100 	f0000137          	lui	sp,0xf0000
0x2104 	fff10113          	addi	sp,sp,-1 # efffffff <heap_memory_used+0xeffde227>
0x2108 	00000013          	nop
0x210c 	1e20e263          	bltu	ra,sp,12210 <fail>
0x2110 	00120213          	addi	tp,tp,1 # 1 <_start+0x1>
0x2114 	00200293          	li	t0,2
0x2118 	fe5212e3          	bne	tp,t0,1201c <test_10+0x8>
0x211c 	00b00e13          	li	t3,11
0x2120 	00000213          	li	tp,0
0x2124 	f00000b7          	lui	ra,0xf0000
0x2128 	f0000137          	lui	sp,0xf0000
0x212c 	fff10113          	addi	sp,sp,-1 # efffffff <heap_memory_used+0xeffde227>
0x2130 	00000013          	nop
0x2134 	00000013          	nop
0x2138 	1a20ec63          	bltu	ra,sp,12210 <fail>
0x213c 	00120213          	addi	tp,tp,1 # 1 <_start+0x1>
0x2140 	00200293          	li	t0,2
0x2144 	fe5210e3          	bne	tp,t0,12044 <test_11+0x8>
0x2148 	00c00e13          	li	t3,12
0x214c 	00000213          	li	tp,0
0x2150 	f00000b7          	lui	ra,0xf0000
0x2154 	00000013          	nop
0x2158 	f0000137          	lui	sp,0xf0000
0x215c 	fff10113          	addi	sp,sp,-1 # efffffff <heap_memory_used+0xeffde227>
0x2160 	1820e863          	bltu	ra,sp,12210 <fail>
0x2164 	00120213          	addi	tp,tp,1 # 1 <_start+0x1>
0x2168 	00200293          	li	t0,2
0x216c 	fe5212e3          	bne	tp,t0,12070 <test_12+0x8>
0x2170 	00d00e13          	li	t3,13
0x2174 	00000213          	li	tp,0
0x2178 	f00000b7          	lui	ra,0xf0000
0x217c 	00000013          	nop
0x2180 	f0000137          	lui	sp,0xf0000
0x2184 	fff10113          	addi	sp,sp,-1 # efffffff <heap_memory_used+0xeffde227>
0x2188 	00000013          	nop
0x218c 	1620e263          	bltu	ra,sp,12210 <fail>
0x2190 	00120213          	addi	tp,tp,1 # 1 <_start+0x1>
0x2194 	00200293          	li	t0,2
0x2198 	fe5210e3          	bne	tp,t0,12098 <test_13+0x8>
0x219c 	00e00e13          	li	t3,14
0x21a0 	00000213          	li	tp,0
0x21a4 	f00000b7          	lui	ra,0xf0000
0x21a8 	00000013          	nop
0x21ac 	00000013          	nop
0x21b0 	f0000137          	lui	sp,0xf0000
0x21b4 	fff10113          	addi	sp,sp,-1 # efffffff <heap_memory_used+0xeffde227>
0x21b8 	1220ec63          	bltu	ra,sp,12210 <fail>
0x21bc 	00120213          	addi	tp,tp,1 # 1 <_start+0x1>
0x21c0 	00200293          	li	t0,2
0x21c4 	fe5210e3          	bne	tp,t0,120c4 <test_14+0x8>
0x21c8 	00f00e13          	li	t3,15
0x21cc 	00000213          	li	tp,0
0x21d0 	f00000b7          	lui	ra,0xf0000
0x21d4 	f0000137          	lui	sp,0xf0000
0x21d8 	fff10113          	addi	sp,sp,-1 # efffffff <heap_memory_used+0xeffde227>
0x21dc 	1020ea63          	bltu	ra,sp,12210 <fail>
0x21e0 	00120213          	addi	tp,tp,1 # 1 <_start+0x1>
0x21e4 	00200293          	li	t0,2
0x21e8 	fe5214e3          	bne	tp,t0,120f0 <test_15+0x8>
0x21ec 	01000e13          	li	t3,16
0x21f0 	00000213          	li	tp,0
0x21f4 	f00000b7          	lui	ra,0xf0000
0x21f8 	f0000137          	lui	sp,0xf0000
0x21fc 	fff10113          	addi	sp,sp,-1 # efffffff <heap_memory_used+0xeffde227>
0x2200 	00000013          	nop
0x2204 	0e20e663          	bltu	ra,sp,12210 <fail>
0x2208 	00120213          	addi	tp,tp,1 # 1 <_start+0x1>
0x220c 	00200293          	li	t0,2
0x2210 	fe5212e3          	bne	tp,t0,12114 <test_16+0x8>
0x2214 	01100e13          	li	t3,17
0x2218 	00000213          	li	tp,0
0x221c 	f00000b7          	lui	ra,0xf0000
0x2220 	f0000137          	lui	sp,0xf0000
0x2224 	fff10113          	addi	sp,sp,-1 # efffffff <heap_memory_used+0xeffde227>
0x2228 	00000013          	nop
0x222c 	00000013          	nop
0x2230 	0c20e063          	bltu	ra,sp,12210 <fail>
0x2234 	00120213          	addi	tp,tp,1 # 1 <_start+0x1>
0x2238 	00200293          	li	t0,2
0x223c 	fe5210e3          	bne	tp,t0,1213c <test_17+0x8>
0x2240 	01200e13          	li	t3,18
0x2244 	00000213          	li	tp,0
0x2248 	f00000b7          	lui	ra,0xf0000
0x224c 	00000013          	nop
0x2250 	f0000137          	lui	sp,0xf0000
0x2254 	fff10113          	addi	sp,sp,-1 # efffffff <heap_memory_used+0xeffde227>
0x2258 	0820ec63          	bltu	ra,sp,12210 <fail>
0x225c 	00120213          	addi	tp,tp,1 # 1 <_start+0x1>
0x2260 	00200293          	li	t0,2
0x2264 	fe5212e3          	bne	tp,t0,12168 <test_18+0x8>
0x2268 	01300e13          	li	t3,19
0x226c 	00000213          	li	tp,0
0x2270 	f00000b7          	lui	ra,0xf0000
0x2274 	00000013          	nop
0x2278 	f0000137          	lui	sp,0xf0000
0x227c 	fff10113          	addi	sp,sp,-1 # efffffff <heap_memory_used+0xeffde227>
0x2280 	00000013          	nop
0x2284 	0620e663          	bltu	ra,sp,12210 <fail>
0x2288 	00120213          	addi	tp,tp,1 # 1 <_start+0x1>
0x228c 	00200293          	li	t0,2
0x2290 	fe5210e3          	bne	tp,t0,12190 <test_19+0x8>
0x2294 	01400e13          	li	t3,20
0x2298 	00000213          	li	tp,0
0x229c 	f00000b7          	lui	ra,0xf0000
0x22a0 	00000013          	nop
0x22a4 	00000013          	nop
0x22a8 	f0000137          	lui	sp,0xf0000
0x22ac 	fff10113          	addi	sp,sp,-1 # efffffff <heap_memory_used+0xeffde227>
0x22b0 	0420e063          	bltu	ra,sp,12210 <fail>
0x22b4 	00120213          	addi	tp,tp,1 # 1 <_start+0x1>
0x22b8 	00200293          	li	t0,2
0x22bc 	fe5210e3          	bne	tp,t0,121bc <test_20+0x8>
0x22c0 	00100093          	li	ra,1
0x22c4 	00106a63          	bltu	zero,ra,121f8 <test_21+0x18>
0x22c8 	00108093          	addi	ra,ra,1 # f0000001 <heap_memory_used+0xeffde229>
0x22cc 	00108093          	addi	ra,ra,1
0x22d0 	00108093          	addi	ra,ra,1
0x22d4 	00108093          	addi	ra,ra,1
0x22d8 	00108093          	addi	ra,ra,1
0x22dc 	00108093          	addi	ra,ra,1
0x22e0 	00300e93          	li	t4,3
0x22e4 	01500e13          	li	t3,21
0x22e8 	01d09463          	bne	ra,t4,12210 <fail>
0x22ec 	05c01863          	bne	zero,t3,1225c <pass>
0x22f0 	04500513          	li	a0,69
0x22f4 	00004137          	lui	sp,0x4
0x22f8 	7700b0ef          	jal	ra,1d988 <printf_c>
0x22fc 	05200513          	li	a0,82
0x2300 	00004137          	lui	sp,0x4
0x2304 	7640b0ef          	jal	ra,1d988 <printf_c>
0x2308 	00004137          	lui	sp,0x4
0x230c 	75c0b0ef          	jal	ra,1d988 <printf_c>
0x2310 	04f00513          	li	a0,79
0x2314 	00004137          	lui	sp,0x4
0x2318 	7500b0ef          	jal	ra,1d988 <printf_c>
0x231c 	00004137          	lui	sp,0x4
0x2320 	05200513          	li	a0,82
0x2324 	00004137          	lui	sp,0x4
0x2328 	7400b0ef          	jal	ra,1d988 <printf_c>
0x232c 	00a00513          	li	a0,10
0x2330 	00004137          	lui	sp,0x4
0x2334 	7340b0ef          	jal	ra,1d988 <printf_c>
0x2338 	0340006f          	j	1228c <bne>
0x233c 	04f00513          	li	a0,79
0x2340 	00004137          	lui	sp,0x4
0x2344 	7240b0ef          	jal	ra,1d988 <printf_c>
0x2348 	04b00513          	li	a0,75
0x234c 	00004137          	lui	sp,0x4
0x2350 	7180b0ef          	jal	ra,1d988 <printf_c>
0x2354 	00a00513          	li	a0,10
0x2358 	00004137          	lui	sp,0x4
0x235c 	70c0b0ef          	jal	ra,1d988 <printf_c>
0x2360 	00c0006f          	j	1228c <bne>
0x2364 	6e62                	flw	ft8,24(sp)
0x2368 	2065                	jal	1232e <test_6+0x12>
0x236c 	0009                	c.addi	zero,2
0x2370 	00012537          	lui	a0,0x12
0x2374 	28450513          	addi	a0,a0,644 # 12284 <.test_name>
0x2378 	00004137          	lui	sp,0x4
0x237c 	7080b0ef          	jal	ra,1d9a0 <printf_s>
0x2380 	00200e13          	li	t3,2
0x2384 	00000093          	li	ra,0
0x2388 	00100113          	li	sp,1
0x238c 	00209663          	bne	ra,sp,122b4 <test_2+0x18>
0x2390 	2bc01a63          	bne	zero,t3,12560 <fail>
0x2394 	01c01663          	bne	zero,t3,122bc <test_3>
0x2398 	fe209ee3          	bne	ra,sp,122b0 <test_2+0x14>
0x239c 	2bc01463          	bne	zero,t3,12560 <fail>
0x23a0 	00300e13          	li	t3,3
0x23a4 	00100093          	li	ra,1
0x23a8 	00000113          	li	sp,0
0x23ac 	00209663          	bne	ra,sp,122d4 <test_3+0x18>
0x23b0 	29c01a63          	bne	zero,t3,12560 <fail>
0x23b4 	01c01663          	bne	zero,t3,122dc <test_4>
0x23b8 	fe209ee3          	bne	ra,sp,122d0 <test_3+0x14>
0x23bc 	29c01463          	bne	zero,t3,12560 <fail>
0x23c0 	00400e13          	li	t3,4
0x23c4 	fff00093          	li	ra,-1
0x23c8 	00100113          	li	sp,1
0x23cc 	00209663          	bne	ra,sp,122f4 <test_4+0x18>
0x23d0 	27c01a63          	bne	zero,t3,12560 <fail>
0x23d4 	01c01663          	bne	zero,t3,122fc <test_5>
0x23d8 	fe209ee3          	bne	ra,sp,122f0 <test_4+0x14>
0x23dc 	27c01463          	bne	zero,t3,12560 <fail>
0x23e0 	00500e13          	li	t3,5
0x23e4 	00100093          	li	ra,1
0x23e8 	fff00113          	li	sp,-1
0x23ec 	00209663          	bne	ra,sp,12314 <test_5+0x18>
0x23f0 	25c01a63          	bne	zero,t3,12560 <fail>
0x23f4 	01c01663          	bne	zero,t3,1231c <test_6>
0x23f8 	fe209ee3          	bne	ra,sp,12310 <test_5+0x14>
0x23fc 	25c01463          	bne	zero,t3,12560 <fail>
0x2400 	00600e13          	li	t3,6
0x2404 	00000093          	li	ra,0
0x2408 	00000113          	li	sp,0
0x240c 	00209463          	bne	ra,sp,12330 <test_6+0x14>
0x2410 	01c01463          	bne	zero,t3,12334 <test_6+0x18>
0x2414 	23c01863          	bne	zero,t3,12560 <fail>
0x2418 	fe209ee3          	bne	ra,sp,12330 <test_6+0x14>
0x241c 	00700e13          	li	t3,7
0x2420 	00100093          	li	ra,1
0x2424 	00100113          	li	sp,1
0x2428 	00209463          	bne	ra,sp,1234c <test_7+0x14>
0x242c 	01c01463          	bne	zero,t3,12350 <test_7+0x18>
0x2430 	21c01a63          	bne	zero,t3,12560 <fail>
0x2434 	fe209ee3          	bne	ra,sp,1234c <test_7+0x14>
0x2438 	00800e13          	li	t3,8
0x243c 	fff00093          	li	ra,-1
0x2440 	fff00113          	li	sp,-1
0x2444 	00209463          	bne	ra,sp,12368 <test_8+0x14>
0x2448 	01c01463          	bne	zero,t3,1236c <test_8+0x18>
0x244c 	1fc01c63          	bne	zero,t3,12560 <fail>
0x2450 	fe209ee3          	bne	ra,sp,12368 <test_8+0x14>
0x2454 	00900e13          	li	t3,9
0x2458 	00000213          	li	tp,0
0x245c 	00000093          	li	ra,0
0x2460 	00000113          	li	sp,0
0x2464 	1e209063          	bne	ra,sp,12560 <fail>
0x2468 	00120213          	addi	tp,tp,1 # 1 <_start+0x1>
0x246c 	00200293          	li	t0,2
0x2470 	fe5216e3          	bne	tp,t0,12378 <test_9+0x8>
0x2474 	00a00e13          	li	t3,10
0x2478 	00000213          	li	tp,0
0x247c 	00000093          	li	ra,0
0x2480 	00000113          	li	sp,0
0x2484 	00000013          	nop
0x2488 	1a209e63          	bne	ra,sp,12560 <fail>
0x248c 	00120213          	addi	tp,tp,1 # 1 <_start+0x1>
0x2490 	00200293          	li	t0,2
0x2494 	fe5214e3          	bne	tp,t0,12398 <test_10+0x8>
0x2498 	00b00e13          	li	t3,11
0x249c 	00000213          	li	tp,0
0x24a0 	00000093          	li	ra,0
0x24a4 	00000113          	li	sp,0
0x24a8 	00000013          	nop
0x24ac 	00000013          	nop
0x24b0 	18209a63          	bne	ra,sp,12560 <fail>
0x24b4 	00120213          	addi	tp,tp,1 # 1 <_start+0x1>
0x24b8 	00200293          	li	t0,2
0x24bc 	fe5212e3          	bne	tp,t0,123bc <test_11+0x8>
0x24c0 	00c00e13          	li	t3,12
0x24c4 	00000213          	li	tp,0
0x24c8 	00000093          	li	ra,0
0x24cc 	00000013          	nop
0x24d0 	00000113          	li	sp,0
0x24d4 	16209863          	bne	ra,sp,12560 <fail>
0x24d8 	00120213          	addi	tp,tp,1 # 1 <_start+0x1>
0x24dc 	00200293          	li	t0,2
0x24e0 	fe5214e3          	bne	tp,t0,123e4 <test_12+0x8>
0x24e4 	00d00e13          	li	t3,13
0x24e8 	00000213          	li	tp,0
0x24ec 	00000093          	li	ra,0
0x24f0 	00000013          	nop
0x24f4 	00000113          	li	sp,0
0x24f8 	00000013          	nop
0x24fc 	14209463          	bne	ra,sp,12560 <fail>
0x2500 	00120213          	addi	tp,tp,1 # 1 <_start+0x1>
0x2504 	00200293          	li	t0,2
0x2508 	fe5212e3          	bne	tp,t0,12408 <test_13+0x8>
0x250c 	00e00e13          	li	t3,14
0x2510 	00000213          	li	tp,0
0x2514 	00000093          	li	ra,0
0x2518 	00000013          	nop
0x251c 	00000013          	nop
0x2520 	00000113          	li	sp,0
0x2524 	12209063          	bne	ra,sp,12560 <fail>
0x2528 	00120213          	addi	tp,tp,1 # 1 <_start+0x1>
0x252c 	00200293          	li	t0,2
0x2530 	fe5212e3          	bne	tp,t0,12430 <test_14+0x8>
0x2534 	00f00e13          	li	t3,15
0x2538 	00000213          	li	tp,0
0x253c 	00000093          	li	ra,0
0x2540 	00000113          	li	sp,0
0x2544 	10209063          	bne	ra,sp,12560 <fail>
0x2548 	00120213          	addi	tp,tp,1 # 1 <_start+0x1>
0x254c 	00200293          	li	t0,2
0x2550 	fe5216e3          	bne	tp,t0,12458 <test_15+0x8>
0x2554 	01000e13          	li	t3,16
0x2558 	00000213          	li	tp,0
0x255c 	00000093          	li	ra,0
0x2560 	00000113          	li	sp,0
0x2564 	00000013          	nop
0x2568 	0c209e63          	bne	ra,sp,12560 <fail>
0x256c 	00120213          	addi	tp,tp,1 # 1 <_start+0x1>
0x2570 	00200293          	li	t0,2
0x2574 	fe5214e3          	bne	tp,t0,12478 <test_16+0x8>
0x2578 	01100e13          	li	t3,17
0x257c 	00000213          	li	tp,0
0x2580 	00000093          	li	ra,0
0x2584 	00000113          	li	sp,0
0x2588 	00000013          	nop
0x258c 	00000013          	nop
0x2590 	0a209a63          	bne	ra,sp,12560 <fail>
0x2594 	00120213          	addi	tp,tp,1 # 1 <_start+0x1>
0x2598 	00200293          	li	t0,2
0x259c 	fe5212e3          	bne	tp,t0,1249c <test_17+0x8>
0x25a0 	01200e13          	li	t3,18
0x25a4 	00000213          	li	tp,0
0x25a8 	00000093          	li	ra,0
0x25ac 	00000013          	nop
0x25b0 	00000113          	li	sp,0
0x25b4 	08209863          	bne	ra,sp,12560 <fail>
0x25b8 	00120213          	addi	tp,tp,1 # 1 <_start+0x1>
0x25bc 	00200293          	li	t0,2
0x25c0 	fe5214e3          	bne	tp,t0,124c4 <test_18+0x8>
0x25c4 	01300e13          	li	t3,19
0x25c8 	00000213          	li	tp,0
0x25cc 	00000093          	li	ra,0
0x25d0 	00000013          	nop
0x25d4 	00000113          	li	sp,0
0x25d8 	00000013          	nop
0x25dc 	06209463          	bne	ra,sp,12560 <fail>
0x25e0 	00120213          	addi	tp,tp,1 # 1 <_start+0x1>
0x25e4 	00200293          	li	t0,2
0x25e8 	fe5212e3          	bne	tp,t0,124e8 <test_19+0x8>
0x25ec 	01400e13          	li	t3,20
0x25f0 	00000213          	li	tp,0
0x25f4 	00000093          	li	ra,0
0x25f8 	00000013          	nop
0x25fc 	00000013          	nop
0x2600 	00000113          	li	sp,0
0x2604 	04209063          	bne	ra,sp,12560 <fail>
0x2608 	00120213          	addi	tp,tp,1 # 1 <_start+0x1>
0x260c 	00200293          	li	t0,2
0x2610 	fe5212e3          	bne	tp,t0,12510 <test_20+0x8>
0x2614 	00100093          	li	ra,1
0x2618 	00009a63          	bnez	ra,12548 <test_21+0x18>
0x261c 	00108093          	addi	ra,ra,1
0x2620 	00108093          	addi	ra,ra,1
0x2624 	00108093          	addi	ra,ra,1
0x2628 	00108093          	addi	ra,ra,1
0x262c 	00108093          	addi	ra,ra,1
0x2630 	00108093          	addi	ra,ra,1
0x2634 	00300e93          	li	t4,3
0x2638 	01500e13          	li	t3,21
0x263c 	01d09463          	bne	ra,t4,12560 <fail>
0x2640 	05c01863          	bne	zero,t3,125ac <pass>
0x2644 	04500513          	li	a0,69
0x2648 	00004137          	lui	sp,0x4
0x264c 	4200b0ef          	jal	ra,1d988 <printf_c>
0x2650 	05200513          	li	a0,82
0x2654 	00004137          	lui	sp,0x4
0x2658 	4140b0ef          	jal	ra,1d988 <printf_c>
0x265c 	00004137          	lui	sp,0x4
0x2660 	40c0b0ef          	jal	ra,1d988 <printf_c>
0x2664 	04f00513          	li	a0,79
0x2668 	00004137          	lui	sp,0x4
0x266c 	4000b0ef          	jal	ra,1d988 <printf_c>
0x2670 	00004137          	lui	sp,0x4
0x2674 	05200513          	li	a0,82
0x2678 	00004137          	lui	sp,0x4
0x267c 	3f00b0ef          	jal	ra,1d988 <printf_c>
0x2680 	00a00513          	li	a0,10
0x2684 	00004137          	lui	sp,0x4
0x2688 	3e40b0ef          	jal	ra,1d988 <printf_c>
0x268c 	5f80006f          	j	12ba0 <j>
0x2690 	04f00513          	li	a0,79
0x2694 	00004137          	lui	sp,0x4
0x2698 	3d40b0ef          	jal	ra,1d988 <printf_c>
0x269c 	04b00513          	li	a0,75
0x26a0 	00004137          	lui	sp,0x4
0x26a4 	3c80b0ef          	jal	ra,1d988 <printf_c>
0x26a8 	00a00513          	li	a0,10
0x26ac 	00004137          	lui	sp,0x4
0x26b0 	3bc0b0ef          	jal	ra,1d988 <printf_c>
0x26b4 	5d00006f          	j	12ba0 <j>
0x26b8 	20727363          	bleu	t2,tp,127da <mtvec_handler+0x36>
0x26bc 	0009                	c.addi	zero,2
0x26c0 	00012537          	lui	a0,0x12
0x26c4 	5d450513          	addi	a0,a0,1492 # 125d4 <.test_name>
0x26c8 	00004137          	lui	sp,0x4
0x26cc 	3b80b0ef          	jal	ra,1d9a0 <printf_s>
0x26d0 	3401d073          	csrwi	mscratch,3
0x26d4 	34002573          	csrr	a0,mscratch
0x26d8 	00300e93          	li	t4,3
0x26dc 	00200e13          	li	t3,2
0x26e0 	13d51a63          	bne	a0,t4,12730 <fail>
0x26e4 	3400f5f3          	csrrci	a1,mscratch,1
0x26e8 	00300e93          	li	t4,3
0x26ec 	00300e13          	li	t3,3
0x26f0 	13d59263          	bne	a1,t4,12730 <fail>
0x26f4 	34026673          	csrrsi	a2,mscratch,4
0x26f8 	00200e93          	li	t4,2
0x26fc 	00400e13          	li	t3,4
0x2700 	11d61a63          	bne	a2,t4,12730 <fail>
0x2704 	340156f3          	csrrwi	a3,mscratch,2
0x2708 	00600e93          	li	t4,6
0x270c 	00500e13          	li	t3,5
0x2710 	11d69263          	bne	a3,t4,12730 <fail>
0x2714 	0bad2537          	lui	a0,0xbad2
0x2718 	dea50513          	addi	a0,a0,-534 # bad1dea <heap_memory_used+0xbab0012>
0x271c 	340515f3          	csrrw	a1,mscratch,a0
0x2720 	00200e93          	li	t4,2
0x2724 	00600e13          	li	t3,6
0x2728 	0fd59663          	bne	a1,t4,12730 <fail>
0x272c 	00002537          	lui	a0,0x2
0x2730 	dea50513          	addi	a0,a0,-534 # 1dea <coremarkBenchmark+0x1d42>
0x2734 	34053573          	csrrc	a0,mscratch,a0
0x2738 	0bad2eb7          	lui	t4,0xbad2
0x273c 	deae8e93          	addi	t4,t4,-534 # bad1dea <heap_memory_used+0xbab0012>
0x2740 	00700e13          	li	t3,7
0x2744 	0dd51863          	bne	a0,t4,12730 <fail>
0x2748 	0000c537          	lui	a0,0xc
0x274c 	eef50513          	addi	a0,a0,-273 # beef <coremarkBenchmark+0xbe47>
0x2750 	34052573          	csrrs	a0,mscratch,a0
0x2754 	0bad0eb7          	lui	t4,0xbad0
0x2758 	00800e13          	li	t3,8
0x275c 	0bd51c63          	bne	a0,t4,12730 <fail>
0x2760 	34002573          	csrr	a0,mscratch
0x2764 	0badceb7          	lui	t4,0xbadc
0x2768 	eefe8e93          	addi	t4,t4,-273 # badbeef <heap_memory_used+0xbaba117>
0x276c 	00900e13          	li	t3,9
0x2770 	0bd51263          	bne	a0,t4,12730 <fail>
0x2774 	30102573          	csrr	a0,misa
0x2778 	02057513          	andi	a0,a0,32
0x277c 	00050c63          	beqz	a0,126b0 <test_10+0xc>
0x2780 	000065b7          	lui	a1,0x6
0x2784 	3005a073          	csrs	mstatus,a1
0x2788 	00100e93          	li	t4,1
0x278c 	00a00e13          	li	t3,10
0x2790 	09d01263          	bne	zero,t4,12730 <fail>
0x2794 	30102573          	csrr	a0,misa
0x2798 	01455513          	srli	a0,a0,0x14
0x279c 	00157513          	andi	a0,a0,1
0x27a0 	04050463          	beqz	a0,12704 <finish>
0x27a4 	000022b7          	lui	t0,0x2
0x27a8 	80028293          	addi	t0,t0,-2048 # 1800 <coremarkBenchmark+0x1758>
0x27ac 	3002b073          	csrc	mstatus,t0
0x27b0 	00000297          	auipc	t0,0x0
0x27b4 	01028293          	addi	t0,t0,16 # 126dc <test_11>
0x27b8 	34129073          	csrw	mepc,t0
0x27bc 	30200073          	mret
0x27c0 	0ff00513          	li	a0,255
0x27c4 	c0001573          	csrrw	a0,cycle,zero
0x27c8 	0ff00e93          	li	t4,255
0x27cc 	00b00e13          	li	t3,11
0x27d0 	05d51263          	bne	a0,t4,12730 <fail>
0x27d4 	0ff00513          	li	a0,255
0x27d8 	30002573          	csrr	a0,mstatus
0x27dc 	0ff00e93          	li	t4,255
0x27e0 	00c00e13          	li	t3,12
0x27e4 	03d51863          	bne	a0,t4,12730 <fail>
0x27e8 	04f00513          	li	a0,79
0x27ec 	00004137          	lui	sp,0x4
0x27f0 	27c0b0ef          	jal	ra,1d988 <printf_c>
0x27f4 	04b00513          	li	a0,75
0x27f8 	00004137          	lui	sp,0x4
0x27fc 	2700b0ef          	jal	ra,1d988 <printf_c>
0x2800 	00a00513          	li	a0,10
0x2804 	00004137          	lui	sp,0x4
0x2808 	2640b0ef          	jal	ra,1d988 <printf_c>
0x280c 	3b80006f          	j	12ae0 <ecall>
0x2810 	05c01863          	bne	zero,t3,1277c <pass>
0x2814 	04500513          	li	a0,69
0x2818 	00004137          	lui	sp,0x4
0x281c 	2500b0ef          	jal	ra,1d988 <printf_c>
0x2820 	05200513          	li	a0,82
0x2824 	00004137          	lui	sp,0x4
0x2828 	2440b0ef          	jal	ra,1d988 <printf_c>
0x282c 	00004137          	lui	sp,0x4
0x2830 	23c0b0ef          	jal	ra,1d988 <printf_c>
0x2834 	04f00513          	li	a0,79
0x2838 	00004137          	lui	sp,0x4
0x283c 	2300b0ef          	jal	ra,1d988 <printf_c>
0x2840 	00004137          	lui	sp,0x4
0x2844 	05200513          	li	a0,82
0x2848 	00004137          	lui	sp,0x4
0x284c 	2200b0ef          	jal	ra,1d988 <printf_c>
0x2850 	00a00513          	li	a0,10
0x2854 	00004137          	lui	sp,0x4
0x2858 	2140b0ef          	jal	ra,1d988 <printf_c>
0x285c 	3680006f          	j	12ae0 <ecall>
0x2860 	04f00513          	li	a0,79
0x2864 	00004137          	lui	sp,0x4
0x2868 	2040b0ef          	jal	ra,1d988 <printf_c>
0x286c 	04b00513          	li	a0,75
0x2870 	00004137          	lui	sp,0x4
0x2874 	1f80b0ef          	jal	ra,1d988 <printf_c>
0x2878 	00a00513          	li	a0,10
0x287c 	00004137          	lui	sp,0x4
0x2880 	1ec0b0ef          	jal	ra,1d988 <printf_c>
0x2884 	3400006f          	j	12ae0 <ecall>
0x2888 	00900293          	li	t0,9
0x288c 	005e6663          	bltu	t3,t0,127b4 <mtvec_handler+0x10>
0x2890 	00b00293          	li	t0,11
0x2894 	03c2fc63          	bleu	t3,t0,127e8 <privileged>
0x2898 	342022f3          	csrr	t0,mcause
0x289c 	00800313          	li	t1,8
0x28a0 	f6629ae3          	bne	t0,t1,12730 <fail>
0x28a4 	04f00513          	li	a0,79
0x28a8 	00004137          	lui	sp,0x4
0x28ac 	1c00b0ef          	jal	ra,1d988 <printf_c>
0x28b0 	04b00513          	li	a0,75
0x28b4 	00004137          	lui	sp,0x4
0x28b8 	1b40b0ef          	jal	ra,1d988 <printf_c>
0x28bc 	00a00513          	li	a0,10
0x28c0 	00004137          	lui	sp,0x4
0x28c4 	1a80b0ef          	jal	ra,1d988 <printf_c>
0x28c8 	2fc0006f          	j	12ae0 <ecall>
0x28cc 	342022f3          	csrr	t0,mcause
0x28d0 	00200313          	li	t1,2
0x28d4 	f46290e3          	bne	t0,t1,12730 <fail>
0x28d8 	341022f3          	csrr	t0,mepc
0x28dc 	00428293          	addi	t0,t0,4
0x28e0 	34129073          	csrw	mepc,t0
0x28e4 	30200073          	mret
0x28e8 	6964                	flw	fs1,84(a0)
0x28ec 	2076                	fld	ft0,344(sp)
0x28f0 	0009                	c.addi	zero,2
0x28f4 	00013537          	lui	a0,0x13
0x28f8 	80450513          	addi	a0,a0,-2044 # 12804 <.test_name>
0x28fc 	00004137          	lui	sp,0x4
0x2900 	1880b0ef          	jal	ra,1d9a0 <printf_s>
0x2904 	01400093          	li	ra,20
0x2908 	00600113          	li	sp,6
0x290c 	0220c1b3          	div	gp,ra,sp
0x2910 	00300e93          	li	t4,3
0x2914 	00200e13          	li	t3,2
0x2918 	0dd19463          	bne	gp,t4,128f8 <fail>
0x291c 	fec00093          	li	ra,-20
0x2920 	00600113          	li	sp,6
0x2924 	0220c1b3          	div	gp,ra,sp
0x2928 	ffd00e93          	li	t4,-3
0x292c 	00300e13          	li	t3,3
0x2930 	0bd19863          	bne	gp,t4,128f8 <fail>
0x2934 	01400093          	li	ra,20
0x2938 	ffa00113          	li	sp,-6
0x293c 	0220c1b3          	div	gp,ra,sp
0x2940 	ffd00e93          	li	t4,-3
0x2944 	00400e13          	li	t3,4
0x2948 	09d19c63          	bne	gp,t4,128f8 <fail>
0x294c 	fec00093          	li	ra,-20
0x2950 	ffa00113          	li	sp,-6
0x2954 	0220c1b3          	div	gp,ra,sp
0x2958 	00300e93          	li	t4,3
0x295c 	00500e13          	li	t3,5
0x2960 	09d19063          	bne	gp,t4,128f8 <fail>
0x2964 	800000b7          	lui	ra,0x80000
0x2968 	00100113          	li	sp,1
0x296c 	0220c1b3          	div	gp,ra,sp
0x2970 	80000eb7          	lui	t4,0x80000
0x2974 	00600e13          	li	t3,6
0x2978 	07d19463          	bne	gp,t4,128f8 <fail>
0x297c 	800000b7          	lui	ra,0x80000
0x2980 	fff00113          	li	sp,-1
0x2984 	0220c1b3          	div	gp,ra,sp
0x2988 	80000eb7          	lui	t4,0x80000
0x298c 	00700e13          	li	t3,7
0x2990 	05d19863          	bne	gp,t4,128f8 <fail>
0x2994 	800000b7          	lui	ra,0x80000
0x2998 	00000113          	li	sp,0
0x299c 	0220c1b3          	div	gp,ra,sp
0x29a0 	00100e93          	li	t4,1
0x29a4 	00800e13          	li	t3,8
0x29a8 	03d19c63          	bne	gp,t4,128f8 <fail>
0x29ac 	00100093          	li	ra,1
0x29b0 	00000113          	li	sp,0
0x29b4 	0220c1b3          	div	gp,ra,sp
0x29b8 	fff00e93          	li	t4,-1
0x29bc 	00900e13          	li	t3,9
0x29c0 	03d19063          	bne	gp,t4,128f8 <fail>
0x29c4 	00000093          	li	ra,0
0x29c8 	00000113          	li	sp,0
0x29cc 	0220c1b3          	div	gp,ra,sp
0x29d0 	fff00e93          	li	t4,-1
0x29d4 	00a00e13          	li	t3,10
0x29d8 	01d19463          	bne	gp,t4,128f8 <fail>
0x29dc 	05c01863          	bne	zero,t3,12944 <pass>
0x29e0 	04500513          	li	a0,69
0x29e4 	00004137          	lui	sp,0x4
0x29e8 	0880b0ef          	jal	ra,1d988 <printf_c>
0x29ec 	05200513          	li	a0,82
0x29f0 	00004137          	lui	sp,0x4
0x29f4 	07c0b0ef          	jal	ra,1d988 <printf_c>
0x29f8 	00004137          	lui	sp,0x4
0x29fc 	0740b0ef          	jal	ra,1d988 <printf_c>
0x2a00 	04f00513          	li	a0,79
0x2a04 	00004137          	lui	sp,0x4
0x2a08 	0680b0ef          	jal	ra,1d988 <printf_c>
0x2a0c 	00004137          	lui	sp,0x4
0x2a10 	05200513          	li	a0,82
0x2a14 	00004137          	lui	sp,0x4
0x2a18 	0580b0ef          	jal	ra,1d988 <printf_c>
0x2a1c 	00a00513          	li	a0,10
0x2a20 	00004137          	lui	sp,0x4
0x2a24 	04c0b0ef          	jal	ra,1d988 <printf_c>
0x2a28 	0340006f          	j	12974 <divu>
0x2a2c 	04f00513          	li	a0,79
0x2a30 	00004137          	lui	sp,0x4
0x2a34 	03c0b0ef          	jal	ra,1d988 <printf_c>
0x2a38 	04b00513          	li	a0,75
0x2a3c 	00004137          	lui	sp,0x4
0x2a40 	0300b0ef          	jal	ra,1d988 <printf_c>
0x2a44 	00a00513          	li	a0,10
0x2a48 	00004137          	lui	sp,0x4
0x2a4c 	0240b0ef          	jal	ra,1d988 <printf_c>
0x2a50 	00c0006f          	j	12974 <divu>
0x2a54 	6964                	flw	fs1,84(a0)
0x2a58 	7576                	flw	fa0,124(sp)
0x2a5c 	0009                	c.addi	zero,2
0x2a60 	00013537          	lui	a0,0x13
0x2a64 	96c50513          	addi	a0,a0,-1684 # 1296c <.test_name>
0x2a68 	00004137          	lui	sp,0x4
0x2a6c 	0200b0ef          	jal	ra,1d9a0 <printf_s>
0x2a70 	01400093          	li	ra,20
0x2a74 	00600113          	li	sp,6
0x2a78 	0220d1b3          	divu	gp,ra,sp
0x2a7c 	00300e93          	li	t4,3
0x2a80 	00200e13          	li	t3,2
0x2a84 	0dd19663          	bne	gp,t4,12a64 <fail>
0x2a88 	fec00093          	li	ra,-20
0x2a8c 	00600113          	li	sp,6
0x2a90 	0220d1b3          	divu	gp,ra,sp
0x2a94 	2aaabeb7          	lui	t4,0x2aaab
0x2a98 	aa7e8e93          	addi	t4,t4,-1369 # 2aaaaaa7 <heap_memory_used+0x2aa88ccf>
0x2a9c 	00300e13          	li	t3,3
0x2aa0 	0bd19863          	bne	gp,t4,12a64 <fail>
0x2aa4 	01400093          	li	ra,20
0x2aa8 	ffa00113          	li	sp,-6
0x2aac 	0220d1b3          	divu	gp,ra,sp
0x2ab0 	00000e93          	li	t4,0
0x2ab4 	00400e13          	li	t3,4
0x2ab8 	09d19c63          	bne	gp,t4,12a64 <fail>
0x2abc 	fec00093          	li	ra,-20
0x2ac0 	ffa00113          	li	sp,-6
0x2ac4 	0220d1b3          	divu	gp,ra,sp
0x2ac8 	00000e93          	li	t4,0
0x2acc 	00500e13          	li	t3,5
0x2ad0 	09d19063          	bne	gp,t4,12a64 <fail>
0x2ad4 	800000b7          	lui	ra,0x80000
0x2ad8 	00100113          	li	sp,1
0x2adc 	0220d1b3          	divu	gp,ra,sp
0x2ae0 	80000eb7          	lui	t4,0x80000
0x2ae4 	00600e13          	li	t3,6
0x2ae8 	07d19463          	bne	gp,t4,12a64 <fail>
0x2aec 	800000b7          	lui	ra,0x80000
0x2af0 	fff00113          	li	sp,-1
0x2af4 	0220d1b3          	divu	gp,ra,sp
0x2af8 	00000e93          	li	t4,0
0x2afc 	00700e13          	li	t3,7
0x2b00 	05d19863          	bne	gp,t4,12a64 <fail>
0x2b04 	800000b7          	lui	ra,0x80000
0x2b08 	00000113          	li	sp,0
0x2b0c 	0220d1b3          	divu	gp,ra,sp
0x2b10 	fff00e93          	li	t4,-1
0x2b14 	00800e13          	li	t3,8
0x2b18 	03d19c63          	bne	gp,t4,12a64 <fail>
0x2b1c 	00100093          	li	ra,1
0x2b20 	00000113          	li	sp,0
0x2b24 	0220d1b3          	divu	gp,ra,sp
0x2b28 	fff00e93          	li	t4,-1
0x2b2c 	00900e13          	li	t3,9
0x2b30 	03d19063          	bne	gp,t4,12a64 <fail>
0x2b34 	00000093          	li	ra,0
0x2b38 	00000113          	li	sp,0
0x2b3c 	0220d1b3          	divu	gp,ra,sp
0x2b40 	fff00e93          	li	t4,-1
0x2b44 	00a00e13          	li	t3,10
0x2b48 	01d19463          	bne	gp,t4,12a64 <fail>
0x2b4c 	05c01863          	bne	zero,t3,12ab0 <pass>
0x2b50 	04500513          	li	a0,69
0x2b54 	00004137          	lui	sp,0x4
0x2b58 	71d0a0ef          	jal	ra,1d988 <printf_c>
0x2b5c 	05200513          	li	a0,82
0x2b60 	00004137          	lui	sp,0x4
0x2b64 	7110a0ef          	jal	ra,1d988 <printf_c>
0x2b68 	00004137          	lui	sp,0x4
0x2b6c 	7090a0ef          	jal	ra,1d988 <printf_c>
0x2b70 	04f00513          	li	a0,79
0x2b74 	00004137          	lui	sp,0x4
0x2b78 	6fd0a0ef          	jal	ra,1d988 <printf_c>
0x2b7c 	00004137          	lui	sp,0x4
0x2b80 	05200513          	li	a0,82
0x2b84 	00004137          	lui	sp,0x4
0x2b88 	6ed0a0ef          	jal	ra,1d988 <printf_c>
0x2b8c 	00a00513          	li	a0,10
0x2b90 	00004137          	lui	sp,0x4
0x2b94 	6e10a0ef          	jal	ra,1d988 <printf_c>
0x2b98 	0dc0306f          	j	15b88 <rem>
0x2b9c 	04f00513          	li	a0,79
0x2ba0 	00004137          	lui	sp,0x4
0x2ba4 	6d10a0ef          	jal	ra,1d988 <printf_c>
0x2ba8 	04b00513          	li	a0,75
0x2bac 	00004137          	lui	sp,0x4
0x2bb0 	6c50a0ef          	jal	ra,1d988 <printf_c>
0x2bb4 	00a00513          	li	a0,10
0x2bb8 	00004137          	lui	sp,0x4
0x2bbc 	6b90a0ef          	jal	ra,1d988 <printf_c>
0x2bc0 	0b40306f          	j	15b88 <rem>
0x2bc4 	6365                	lui	t1,0x19
0x2bc8 	6c61                	lui	s8,0x18
0x2bcc 	206c                	fld	fa1,192(s0)
0x2bd0 	0009                	c.addi	zero,2
0x2bd4 	00013537          	lui	a0,0x13
0x2bd8 	ad850513          	addi	a0,a0,-1320 # 12ad8 <.test_name>
0x2bdc 	00004137          	lui	sp,0x4
0x2be0 	6b50a0ef          	jal	ra,1d9a0 <printf_s>
0x2be4 	000132b7          	lui	t0,0x13
0x2be8 	b7c28293          	addi	t0,t0,-1156 # 12b7c <Mtvec_handler>
0x2bec 	30529073          	csrw	mtvec,t0
0x2bf0 	00000073          	ecall
0x2bf4 	0080006f          	j	12b08 <fail>
0x2bf8 	05c01863          	bne	zero,t3,12b54 <pass>
0x2bfc 	04500513          	li	a0,69
0x2c00 	00004137          	lui	sp,0x4
0x2c04 	6790a0ef          	jal	ra,1d988 <printf_c>
0x2c08 	05200513          	li	a0,82
0x2c0c 	00004137          	lui	sp,0x4
0x2c10 	66d0a0ef          	jal	ra,1d988 <printf_c>
0x2c14 	00004137          	lui	sp,0x4
0x2c18 	6650a0ef          	jal	ra,1d988 <printf_c>
0x2c1c 	04f00513          	li	a0,79
0x2c20 	00004137          	lui	sp,0x4
0x2c24 	6590a0ef          	jal	ra,1d988 <printf_c>
0x2c28 	00004137          	lui	sp,0x4
0x2c2c 	05200513          	li	a0,82
0x2c30 	00004137          	lui	sp,0x4
0x2c34 	6490a0ef          	jal	ra,1d988 <printf_c>
0x2c38 	00a00513          	li	a0,10
0x2c3c 	00004137          	lui	sp,0x4
0x2c40 	63d0a0ef          	jal	ra,1d988 <printf_c>
0x2c44 	2ec0706f          	j	19e3c <amoaddw>
0x2c48 	04f00513          	li	a0,79
0x2c4c 	00004137          	lui	sp,0x4
0x2c50 	62d0a0ef          	jal	ra,1d988 <printf_c>
0x2c54 	04b00513          	li	a0,75
0x2c58 	00004137          	lui	sp,0x4
0x2c5c 	6210a0ef          	jal	ra,1d988 <printf_c>
0x2c60 	00a00513          	li	a0,10
0x2c64 	00004137          	lui	sp,0x4
0x2c68 	6150a0ef          	jal	ra,1d988 <printf_c>
0x2c6c 	2c40706f          	j	19e3c <amoaddw>
0x2c70 	342022f3          	csrr	t0,mcause
0x2c74 	00b00313          	li	t1,11
0x2c78 	f86292e3          	bne	t0,t1,12b08 <fail>
0x2c7c 	00000397          	auipc	t2,0x0
0x2c80 	f7438393          	addi	t2,t2,-140 # 12afc <do_ecall>
0x2c84 	341022f3          	csrr	t0,mepc
0x2c88 	f6729ae3          	bne	t0,t2,12b08 <fail>
0x2c8c 	fbdff06f          	j	12b54 <pass>
0x2c90 	206a                	fld	ft0,152(sp)
0x2c94 	0009                	c.addi	zero,2
0x2c98 	00013537          	lui	a0,0x13
0x2c9c 	b9c50513          	addi	a0,a0,-1124 # 12b9c <.test_name>
0x2ca0 	00004137          	lui	sp,0x4
0x2ca4 	5f50a0ef          	jal	ra,1d9a0 <printf_s>
0x2ca8 	00200e13          	li	t3,2
0x2cac 	0080006f          	j	12bbc <test_2>
0x2cb0 	0340006f          	j	12bec <fail>
0x2cb4 	00100093          	li	ra,1
0x2cb8 	0140006f          	j	12bd4 <test_2+0x18>
0x2cbc 	00108093          	addi	ra,ra,1 # 80000001 <heap_memory_used+0x7ffde229>
0x2cc0 	00108093          	addi	ra,ra,1
0x2cc4 	00108093          	addi	ra,ra,1
0x2cc8 	00108093          	addi	ra,ra,1
0x2ccc 	00108093          	addi	ra,ra,1
0x2cd0 	00108093          	addi	ra,ra,1
0x2cd4 	00300e93          	li	t4,3
0x2cd8 	00300e13          	li	t3,3
0x2cdc 	01d09463          	bne	ra,t4,12bec <fail>
0x2ce0 	05c01863          	bne	zero,t3,12c38 <pass>
0x2ce4 	04500513          	li	a0,69
0x2ce8 	00004137          	lui	sp,0x4
0x2cec 	5950a0ef          	jal	ra,1d988 <printf_c>
0x2cf0 	05200513          	li	a0,82
0x2cf4 	00004137          	lui	sp,0x4
0x2cf8 	5890a0ef          	jal	ra,1d988 <printf_c>
0x2cfc 	00004137          	lui	sp,0x4
0x2d00 	5810a0ef          	jal	ra,1d988 <printf_c>
0x2d04 	04f00513          	li	a0,79
0x2d08 	00004137          	lui	sp,0x4
0x2d0c 	5750a0ef          	jal	ra,1d988 <printf_c>
0x2d10 	00004137          	lui	sp,0x4
0x2d14 	05200513          	li	a0,82
0x2d18 	00004137          	lui	sp,0x4
0x2d1c 	5650a0ef          	jal	ra,1d988 <printf_c>
0x2d20 	00a00513          	li	a0,10
0x2d24 	00004137          	lui	sp,0x4
0x2d28 	5590a0ef          	jal	ra,1d988 <printf_c>
0x2d2c 	0340006f          	j	12c68 <jal>
0x2d30 	04f00513          	li	a0,79
0x2d34 	00004137          	lui	sp,0x4
0x2d38 	5490a0ef          	jal	ra,1d988 <printf_c>
0x2d3c 	04b00513          	li	a0,75
0x2d40 	00004137          	lui	sp,0x4
0x2d44 	53d0a0ef          	jal	ra,1d988 <printf_c>
0x2d48 	00a00513          	li	a0,10
0x2d4c 	00004137          	lui	sp,0x4
0x2d50 	5310a0ef          	jal	ra,1d988 <printf_c>
0x2d54 	00c0006f          	j	12c68 <jal>
0x2d58 	616a                	flw	ft2,152(sp)
0x2d5c 	206c                	fld	fa1,192(s0)
0x2d60 	0009                	c.addi	zero,2
0x2d64 	00013537          	lui	a0,0x13
0x2d68 	c6050513          	addi	a0,a0,-928 # 12c60 <.test_name>
0x2d6c 	00004137          	lui	sp,0x4
0x2d70 	52d0a0ef          	jal	ra,1d9a0 <printf_s>
0x2d74 	00200e13          	li	t3,2
0x2d78 	00000093          	li	ra,0
0x2d7c 	010000ef          	jal	ra,12c90 <target_2>
0x2d80 	00000013          	nop
0x2d84 	00000013          	nop
0x2d88 	0440006f          	j	12cd0 <fail>
0x2d8c 	00000117          	auipc	sp,0x0
0x2d90 	ff010113          	addi	sp,sp,-16 # 12c80 <linkaddr_2>
0x2d94 	00410113          	addi	sp,sp,4
0x2d98 	02111a63          	bne	sp,ra,12cd0 <fail>
0x2d9c 	00100113          	li	sp,1
0x2da0 	014000ef          	jal	ra,12cb8 <test_3+0x18>
0x2da4 	00110113          	addi	sp,sp,1
0x2da8 	00110113          	addi	sp,sp,1
0x2dac 	00110113          	addi	sp,sp,1
0x2db0 	00110113          	addi	sp,sp,1
0x2db4 	00110113          	addi	sp,sp,1
0x2db8 	00110113          	addi	sp,sp,1
0x2dbc 	00300e93          	li	t4,3
0x2dc0 	00300e13          	li	t3,3
0x2dc4 	01d11463          	bne	sp,t4,12cd0 <fail>
0x2dc8 	05c01863          	bne	zero,t3,12d1c <pass>
0x2dcc 	04500513          	li	a0,69
0x2dd0 	00004137          	lui	sp,0x4
0x2dd4 	4b10a0ef          	jal	ra,1d988 <printf_c>
0x2dd8 	05200513          	li	a0,82
0x2ddc 	00004137          	lui	sp,0x4
0x2de0 	4a50a0ef          	jal	ra,1d988 <printf_c>
0x2de4 	00004137          	lui	sp,0x4
0x2de8 	49d0a0ef          	jal	ra,1d988 <printf_c>
0x2dec 	04f00513          	li	a0,79
0x2df0 	00004137          	lui	sp,0x4
0x2df4 	4910a0ef          	jal	ra,1d988 <printf_c>
0x2df8 	00004137          	lui	sp,0x4
0x2dfc 	05200513          	li	a0,82
0x2e00 	00004137          	lui	sp,0x4
0x2e04 	4810a0ef          	jal	ra,1d988 <printf_c>
0x2e08 	00a00513          	li	a0,10
0x2e0c 	00004137          	lui	sp,0x4
0x2e10 	4750a0ef          	jal	ra,1d988 <printf_c>
0x2e14 	0340006f          	j	12d4c <jalr>
0x2e18 	04f00513          	li	a0,79
0x2e1c 	00004137          	lui	sp,0x4
0x2e20 	4650a0ef          	jal	ra,1d988 <printf_c>
0x2e24 	04b00513          	li	a0,75
0x2e28 	00004137          	lui	sp,0x4
0x2e2c 	4590a0ef          	jal	ra,1d988 <printf_c>
0x2e30 	00a00513          	li	a0,10
0x2e34 	00004137          	lui	sp,0x4
0x2e38 	44d0a0ef          	jal	ra,1d988 <printf_c>
0x2e3c 	00c0006f          	j	12d4c <jalr>
0x2e40 	616a                	flw	ft2,152(sp)
0x2e44 	726c                	flw	fa1,100(a2)
0x2e48 	0920                	addi	s0,sp,152
0x2e4c 	00013537          	lui	a0,0x13
0x2e50 	d4450513          	addi	a0,a0,-700 # 12d44 <.test_name>
0x2e54 	00004137          	lui	sp,0x4
0x2e58 	4490a0ef          	jal	ra,1d9a0 <printf_s>
0x2e5c 	00200e13          	li	t3,2
0x2e60 	00000f93          	li	t6,0
0x2e64 	00000117          	auipc	sp,0x0
0x2e68 	01810113          	addi	sp,sp,24 # 12d7c <target_2>
0x2e6c 	000109e7          	jalr	s3,sp
0x2e70 	00000013          	nop
0x2e74 	00000013          	nop
0x2e78 	0e40006f          	j	12e5c <fail>
0x2e7c 	00000097          	auipc	ra,0x0
0x2e80 	ff008093          	addi	ra,ra,-16 # 12d6c <linkaddr_2>
0x2e84 	00408093          	addi	ra,ra,4
0x2e88 	0d309a63          	bne	ra,s3,12e5c <fail>
0x2e8c 	00300e13          	li	t3,3
0x2e90 	00000f93          	li	t6,0
0x2e94 	00000197          	auipc	gp,0x0
0x2e98 	01418193          	addi	gp,gp,20 # 12da8 <target_3>
0x2e9c 	00018067          	jr	gp
0x2ea0 	00000013          	nop
0x2ea4 	0b80006f          	j	12e5c <fail>
0x2ea8 	0a0f9a63          	bnez	t6,12e5c <fail>
0x2eac 	00400e13          	li	t3,4
0x2eb0 	00000213          	li	tp,0
0x2eb4 	00000317          	auipc	t1,0x0
0x2eb8 	01030313          	addi	t1,t1,16 # 12dc4 <test_4+0x18>
0x2ebc 	000309e7          	jalr	s3,t1
0x2ec0 	09c01e63          	bne	zero,t3,12e5c <fail>
0x2ec4 	00120213          	addi	tp,tp,1 # 1 <_start+0x1>
0x2ec8 	00200293          	li	t0,2
0x2ecc 	fe5214e3          	bne	tp,t0,12db4 <test_4+0x8>
0x2ed0 	00500e13          	li	t3,5
0x2ed4 	00000213          	li	tp,0
0x2ed8 	00000317          	auipc	t1,0x0
0x2edc 	01430313          	addi	t1,t1,20 # 12dec <test_5+0x1c>
0x2ee0 	00000013          	nop
0x2ee4 	000309e7          	jalr	s3,t1
0x2ee8 	07c01a63          	bne	zero,t3,12e5c <fail>
0x2eec 	00120213          	addi	tp,tp,1 # 1 <_start+0x1>
0x2ef0 	00200293          	li	t0,2
0x2ef4 	fe5212e3          	bne	tp,t0,12dd8 <test_5+0x8>
0x2ef8 	00600e13          	li	t3,6
0x2efc 	00000213          	li	tp,0
0x2f00 	00000317          	auipc	t1,0x0
0x2f04 	01830313          	addi	t1,t1,24 # 12e18 <test_6+0x20>
0x2f08 	00000013          	nop
0x2f0c 	00000013          	nop
0x2f10 	000309e7          	jalr	s3,t1
0x2f14 	05c01463          	bne	zero,t3,12e5c <fail>
0x2f18 	00120213          	addi	tp,tp,1 # 1 <_start+0x1>
0x2f1c 	00200293          	li	t0,2
0x2f20 	fe5210e3          	bne	tp,t0,12e00 <test_6+0x8>
0x2f24 	00100093          	li	ra,1
0x2f28 	00000117          	auipc	sp,0x0
0x2f2c 	01c10113          	addi	sp,sp,28 # 12e44 <test_7+0x20>
0x2f30 	ffc109e7          	jalr	s3,-4(sp)
0x2f34 	00108093          	addi	ra,ra,1
0x2f38 	00108093          	addi	ra,ra,1
0x2f3c 	00108093          	addi	ra,ra,1
0x2f40 	00108093          	addi	ra,ra,1
0x2f44 	00108093          	addi	ra,ra,1
0x2f48 	00108093          	addi	ra,ra,1
0x2f4c 	00400e93          	li	t4,4
0x2f50 	00700e13          	li	t3,7
0x2f54 	01d09463          	bne	ra,t4,12e5c <fail>
0x2f58 	05c01863          	bne	zero,t3,12ea8 <pass>
0x2f5c 	04500513          	li	a0,69
0x2f60 	00004137          	lui	sp,0x4
0x2f64 	3250a0ef          	jal	ra,1d988 <printf_c>
0x2f68 	05200513          	li	a0,82
0x2f6c 	00004137          	lui	sp,0x4
0x2f70 	3190a0ef          	jal	ra,1d988 <printf_c>
0x2f74 	00004137          	lui	sp,0x4
0x2f78 	3110a0ef          	jal	ra,1d988 <printf_c>
0x2f7c 	04f00513          	li	a0,79
0x2f80 	00004137          	lui	sp,0x4
0x2f84 	3050a0ef          	jal	ra,1d988 <printf_c>
0x2f88 	00004137          	lui	sp,0x4
0x2f8c 	05200513          	li	a0,82
0x2f90 	00004137          	lui	sp,0x4
0x2f94 	2f50a0ef          	jal	ra,1d988 <printf_c>
0x2f98 	00a00513          	li	a0,10
0x2f9c 	00004137          	lui	sp,0x4
0x2fa0 	2e90a0ef          	jal	ra,1d988 <printf_c>
0x2fa4 	0300006f          	j	12ed4 <lb>
0x2fa8 	04f00513          	li	a0,79
0x2fac 	00004137          	lui	sp,0x4
0x2fb0 	2d90a0ef          	jal	ra,1d988 <printf_c>
0x2fb4 	04b00513          	li	a0,75
0x2fb8 	00004137          	lui	sp,0x4
0x2fbc 	2cd0a0ef          	jal	ra,1d988 <printf_c>
0x2fc0 	00a00513          	li	a0,10
0x2fc4 	00004137          	lui	sp,0x4
0x2fc8 	2c10a0ef          	jal	ra,1d988 <printf_c>
0x2fcc 	0080006f          	j	12ed4 <lb>
0x2fd0 	626c                	flw	fa1,68(a2)
0x2fd4 	0009                	c.addi	zero,2
0x2fd8 	00013537          	lui	a0,0x13
0x2fdc 	ed050513          	addi	a0,a0,-304 # 12ed0 <.test_name>
0x2fe0 	00004137          	lui	sp,0x4
0x2fe4 	2c10a0ef          	jal	ra,1d9a0 <printf_s>
0x2fe8 	0000c097          	auipc	ra,0xc
0x2fec 	dec08093          	addi	ra,ra,-532 # 1ecd0 <tdat>
0x2ff0 	00008183          	lb	gp,0(ra)
0x2ff4 	fff00e93          	li	t4,-1
0x2ff8 	00200e13          	li	t3,2
0x2ffc 	23d19c63          	bne	gp,t4,13130 <fail>
0x3000 	0000c097          	auipc	ra,0xc
0x3004 	dd408093          	addi	ra,ra,-556 # 1ecd0 <tdat>
0x3008 	00108183          	lb	gp,1(ra)
0x300c 	00000e93          	li	t4,0
0x3010 	00300e13          	li	t3,3
0x3014 	23d19063          	bne	gp,t4,13130 <fail>
0x3018 	0000c097          	auipc	ra,0xc
0x301c 	dbc08093          	addi	ra,ra,-580 # 1ecd0 <tdat>
0x3020 	00208183          	lb	gp,2(ra)
0x3024 	ff000e93          	li	t4,-16
0x3028 	00400e13          	li	t3,4
0x302c 	21d19463          	bne	gp,t4,13130 <fail>
0x3030 	0000c097          	auipc	ra,0xc
0x3034 	da408093          	addi	ra,ra,-604 # 1ecd0 <tdat>
0x3038 	00308183          	lb	gp,3(ra)
0x303c 	00f00e93          	li	t4,15
0x3040 	00500e13          	li	t3,5
0x3044 	1fd19863          	bne	gp,t4,13130 <fail>
0x3048 	0000c097          	auipc	ra,0xc
0x304c 	d8f08093          	addi	ra,ra,-625 # 1ecd3 <tdat4>
0x3050 	ffd08183          	lb	gp,-3(ra)
0x3054 	fff00e93          	li	t4,-1
0x3058 	00600e13          	li	t3,6
0x305c 	1dd19c63          	bne	gp,t4,13130 <fail>
0x3060 	0000c097          	auipc	ra,0xc
0x3064 	d7708093          	addi	ra,ra,-649 # 1ecd3 <tdat4>
0x3068 	ffe08183          	lb	gp,-2(ra)
0x306c 	00000e93          	li	t4,0
0x3070 	00700e13          	li	t3,7
0x3074 	1dd19063          	bne	gp,t4,13130 <fail>
0x3078 	0000c097          	auipc	ra,0xc
0x307c 	d5f08093          	addi	ra,ra,-673 # 1ecd3 <tdat4>
0x3080 	fff08183          	lb	gp,-1(ra)
0x3084 	ff000e93          	li	t4,-16
0x3088 	00800e13          	li	t3,8
0x308c 	1bd19463          	bne	gp,t4,13130 <fail>
0x3090 	0000c097          	auipc	ra,0xc
0x3094 	d4708093          	addi	ra,ra,-697 # 1ecd3 <tdat4>
0x3098 	00008183          	lb	gp,0(ra)
0x309c 	00f00e93          	li	t4,15
0x30a0 	00900e13          	li	t3,9
0x30a4 	19d19863          	bne	gp,t4,13130 <fail>
0x30a8 	0000c097          	auipc	ra,0xc
0x30ac 	d2c08093          	addi	ra,ra,-724 # 1ecd0 <tdat>
0x30b0 	fe008093          	addi	ra,ra,-32
0x30b4 	02008183          	lb	gp,32(ra)
0x30b8 	fff00e93          	li	t4,-1
0x30bc 	00a00e13          	li	t3,10
0x30c0 	17d19a63          	bne	gp,t4,13130 <fail>
0x30c4 	0000c097          	auipc	ra,0xc
0x30c8 	d1008093          	addi	ra,ra,-752 # 1ecd0 <tdat>
0x30cc 	ffa08093          	addi	ra,ra,-6
0x30d0 	00708183          	lb	gp,7(ra)
0x30d4 	00000e93          	li	t4,0
0x30d8 	00b00e13          	li	t3,11
0x30dc 	15d19c63          	bne	gp,t4,13130 <fail>
0x30e0 	00c00e13          	li	t3,12
0x30e4 	00000213          	li	tp,0
0x30e8 	0000c097          	auipc	ra,0xc
0x30ec 	ced08093          	addi	ra,ra,-787 # 1ecd1 <tdat2>
0x30f0 	00108183          	lb	gp,1(ra)
0x30f4 	00018313          	mv	t1,gp
0x30f8 	ff000e93          	li	t4,-16
0x30fc 	13d31c63          	bne	t1,t4,13130 <fail>
0x3100 	00120213          	addi	tp,tp,1 # 1 <_start+0x1>
0x3104 	00200293          	li	t0,2
0x3108 	fe5210e3          	bne	tp,t0,12fe4 <test_12+0x8>
0x310c 	00d00e13          	li	t3,13
0x3110 	00000213          	li	tp,0
0x3114 	0000c097          	auipc	ra,0xc
0x3118 	cc208093          	addi	ra,ra,-830 # 1ecd2 <tdat3>
0x311c 	00108183          	lb	gp,1(ra)
0x3120 	00000013          	nop
0x3124 	00018313          	mv	t1,gp
0x3128 	00f00e93          	li	t4,15
0x312c 	11d31463          	bne	t1,t4,13130 <fail>
0x3130 	00120213          	addi	tp,tp,1 # 1 <_start+0x1>
0x3134 	00200293          	li	t0,2
0x3138 	fc521ee3          	bne	tp,t0,13010 <test_13+0x8>
0x313c 	00e00e13          	li	t3,14
0x3140 	00000213          	li	tp,0
0x3144 	0000c097          	auipc	ra,0xc
0x3148 	c9008093          	addi	ra,ra,-880 # 1ecd0 <tdat>
0x314c 	00108183          	lb	gp,1(ra)
0x3150 	00000013          	nop
0x3154 	00000013          	nop
0x3158 	00018313          	mv	t1,gp
0x315c 	00000e93          	li	t4,0
0x3160 	0dd31a63          	bne	t1,t4,13130 <fail>
0x3164 	00120213          	addi	tp,tp,1 # 1 <_start+0x1>
0x3168 	00200293          	li	t0,2
0x316c 	fc521ce3          	bne	tp,t0,13040 <test_14+0x8>
0x3170 	00f00e13          	li	t3,15
0x3174 	00000213          	li	tp,0
0x3178 	0000c097          	auipc	ra,0xc
0x317c 	c5d08093          	addi	ra,ra,-931 # 1ecd1 <tdat2>
0x3180 	00108183          	lb	gp,1(ra)
0x3184 	ff000e93          	li	t4,-16
0x3188 	0bd19663          	bne	gp,t4,13130 <fail>
0x318c 	00120213          	addi	tp,tp,1 # 1 <_start+0x1>
0x3190 	00200293          	li	t0,2
0x3194 	fe5212e3          	bne	tp,t0,13074 <test_15+0x8>
0x3198 	01000e13          	li	t3,16
0x319c 	00000213          	li	tp,0
0x31a0 	0000c097          	auipc	ra,0xc
0x31a4 	c3608093          	addi	ra,ra,-970 # 1ecd2 <tdat3>
0x31a8 	00000013          	nop
0x31ac 	00108183          	lb	gp,1(ra)
0x31b0 	00f00e93          	li	t4,15
0x31b4 	09d19063          	bne	gp,t4,13130 <fail>
0x31b8 	00120213          	addi	tp,tp,1 # 1 <_start+0x1>
0x31bc 	00200293          	li	t0,2
0x31c0 	fe5210e3          	bne	tp,t0,1309c <test_16+0x8>
0x31c4 	01100e13          	li	t3,17
0x31c8 	00000213          	li	tp,0
0x31cc 	0000c097          	auipc	ra,0xc
0x31d0 	c0808093          	addi	ra,ra,-1016 # 1ecd0 <tdat>
0x31d4 	00000013          	nop
0x31d8 	00000013          	nop
0x31dc 	00108183          	lb	gp,1(ra)
0x31e0 	00000e93          	li	t4,0
0x31e4 	05d19863          	bne	gp,t4,13130 <fail>
0x31e8 	00120213          	addi	tp,tp,1 # 1 <_start+0x1>
0x31ec 	00200293          	li	t0,2
0x31f0 	fc521ee3          	bne	tp,t0,130c8 <test_17+0x8>
0x31f4 	0000c197          	auipc	gp,0xc
0x31f8 	be018193          	addi	gp,gp,-1056 # 1ecd0 <tdat>
0x31fc 	00018103          	lb	sp,0(gp)
0x3200 	00200113          	li	sp,2
0x3204 	00200e93          	li	t4,2
0x3208 	01200e13          	li	t3,18
0x320c 	03d11463          	bne	sp,t4,13130 <fail>
0x3210 	0000c197          	auipc	gp,0xc
0x3214 	bc418193          	addi	gp,gp,-1084 # 1ecd0 <tdat>
0x3218 	00018103          	lb	sp,0(gp)
0x321c 	00000013          	nop
0x3220 	00200113          	li	sp,2
0x3224 	00200e93          	li	t4,2
0x3228 	01300e13          	li	t3,19
0x322c 	01d11463          	bne	sp,t4,13130 <fail>
0x3230 	05c01863          	bne	zero,t3,1317c <pass>
0x3234 	04500513          	li	a0,69
0x3238 	00004137          	lui	sp,0x4
0x323c 	0510a0ef          	jal	ra,1d988 <printf_c>
0x3240 	05200513          	li	a0,82
0x3244 	00004137          	lui	sp,0x4
0x3248 	0450a0ef          	jal	ra,1d988 <printf_c>
0x324c 	00004137          	lui	sp,0x4
0x3250 	03d0a0ef          	jal	ra,1d988 <printf_c>
0x3254 	04f00513          	li	a0,79
0x3258 	00004137          	lui	sp,0x4
0x325c 	0310a0ef          	jal	ra,1d988 <printf_c>
0x3260 	00004137          	lui	sp,0x4
0x3264 	05200513          	li	a0,82
0x3268 	00004137          	lui	sp,0x4
0x326c 	0210a0ef          	jal	ra,1d988 <printf_c>
0x3270 	00a00513          	li	a0,10
0x3274 	00004137          	lui	sp,0x4
0x3278 	0150a0ef          	jal	ra,1d988 <printf_c>
0x327c 	0340006f          	j	131ac <lbu>
0x3280 	04f00513          	li	a0,79
0x3284 	00004137          	lui	sp,0x4
0x3288 	0050a0ef          	jal	ra,1d988 <printf_c>
0x328c 	04b00513          	li	a0,75
0x3290 	00004137          	lui	sp,0x4
0x3294 	7f80a0ef          	jal	ra,1d988 <printf_c>
0x3298 	00a00513          	li	a0,10
0x329c 	00004137          	lui	sp,0x4
0x32a0 	7ec0a0ef          	jal	ra,1d988 <printf_c>
0x32a4 	00c0006f          	j	131ac <lbu>
0x32a8 	626c                	flw	fa1,68(a2)
0x32ac 	2075                	jal	13252 <test_8+0x6>
0x32b0 	0009                	c.addi	zero,2
0x32b4 	00013537          	lui	a0,0x13
0x32b8 	1a450513          	addi	a0,a0,420 # 131a4 <.test_name>
0x32bc 	00004137          	lui	sp,0x4
0x32c0 	7e80a0ef          	jal	ra,1d9a0 <printf_s>
0x32c4 	0000c097          	auipc	ra,0xc
0x32c8 	b1808093          	addi	ra,ra,-1256 # 1ecd4 <tdat>
0x32cc 	0000c183          	lbu	gp,0(ra)
0x32d0 	0ff00e93          	li	t4,255
0x32d4 	00200e13          	li	t3,2
0x32d8 	23d19c63          	bne	gp,t4,13408 <fail>
0x32dc 	0000c097          	auipc	ra,0xc
0x32e0 	b0008093          	addi	ra,ra,-1280 # 1ecd4 <tdat>
0x32e4 	0010c183          	lbu	gp,1(ra)
0x32e8 	00000e93          	li	t4,0
0x32ec 	00300e13          	li	t3,3
0x32f0 	23d19063          	bne	gp,t4,13408 <fail>
0x32f4 	0000c097          	auipc	ra,0xc
0x32f8 	ae808093          	addi	ra,ra,-1304 # 1ecd4 <tdat>
0x32fc 	0020c183          	lbu	gp,2(ra)
0x3300 	0f000e93          	li	t4,240
0x3304 	00400e13          	li	t3,4
0x3308 	21d19463          	bne	gp,t4,13408 <fail>
0x330c 	0000c097          	auipc	ra,0xc
0x3310 	ad008093          	addi	ra,ra,-1328 # 1ecd4 <tdat>
0x3314 	0030c183          	lbu	gp,3(ra)
0x3318 	00f00e93          	li	t4,15
0x331c 	00500e13          	li	t3,5
0x3320 	1fd19863          	bne	gp,t4,13408 <fail>
0x3324 	0000c097          	auipc	ra,0xc
0x3328 	abb08093          	addi	ra,ra,-1349 # 1ecd7 <tdat4>
0x332c 	ffd0c183          	lbu	gp,-3(ra)
0x3330 	0ff00e93          	li	t4,255
0x3334 	00600e13          	li	t3,6
0x3338 	1dd19c63          	bne	gp,t4,13408 <fail>
0x333c 	0000c097          	auipc	ra,0xc
0x3340 	aa308093          	addi	ra,ra,-1373 # 1ecd7 <tdat4>
0x3344 	ffe0c183          	lbu	gp,-2(ra)
0x3348 	00000e93          	li	t4,0
0x334c 	00700e13          	li	t3,7
0x3350 	1dd19063          	bne	gp,t4,13408 <fail>
0x3354 	0000c097          	auipc	ra,0xc
0x3358 	a8b08093          	addi	ra,ra,-1397 # 1ecd7 <tdat4>
0x335c 	fff0c183          	lbu	gp,-1(ra)
0x3360 	0f000e93          	li	t4,240
0x3364 	00800e13          	li	t3,8
0x3368 	1bd19463          	bne	gp,t4,13408 <fail>
0x336c 	0000c097          	auipc	ra,0xc
0x3370 	a7308093          	addi	ra,ra,-1421 # 1ecd7 <tdat4>
0x3374 	0000c183          	lbu	gp,0(ra)
0x3378 	00f00e93          	li	t4,15
0x337c 	00900e13          	li	t3,9
0x3380 	19d19863          	bne	gp,t4,13408 <fail>
0x3384 	0000c097          	auipc	ra,0xc
0x3388 	a5808093          	addi	ra,ra,-1448 # 1ecd4 <tdat>
0x338c 	fe008093          	addi	ra,ra,-32
0x3390 	0200c183          	lbu	gp,32(ra)
0x3394 	0ff00e93          	li	t4,255
0x3398 	00a00e13          	li	t3,10
0x339c 	17d19a63          	bne	gp,t4,13408 <fail>
0x33a0 	0000c097          	auipc	ra,0xc
0x33a4 	a3c08093          	addi	ra,ra,-1476 # 1ecd4 <tdat>
0x33a8 	ffa08093          	addi	ra,ra,-6
0x33ac 	0070c183          	lbu	gp,7(ra)
0x33b0 	00000e93          	li	t4,0
0x33b4 	00b00e13          	li	t3,11
0x33b8 	15d19c63          	bne	gp,t4,13408 <fail>
0x33bc 	00c00e13          	li	t3,12
0x33c0 	00000213          	li	tp,0
0x33c4 	0000c097          	auipc	ra,0xc
0x33c8 	a1908093          	addi	ra,ra,-1511 # 1ecd5 <tdat2>
0x33cc 	0010c183          	lbu	gp,1(ra)
0x33d0 	00018313          	mv	t1,gp
0x33d4 	0f000e93          	li	t4,240
0x33d8 	13d31c63          	bne	t1,t4,13408 <fail>
0x33dc 	00120213          	addi	tp,tp,1 # 1 <_start+0x1>
0x33e0 	00200293          	li	t0,2
0x33e4 	fe5210e3          	bne	tp,t0,132bc <test_12+0x8>
0x33e8 	00d00e13          	li	t3,13
0x33ec 	00000213          	li	tp,0
0x33f0 	0000c097          	auipc	ra,0xc
0x33f4 	9ee08093          	addi	ra,ra,-1554 # 1ecd6 <tdat3>
0x33f8 	0010c183          	lbu	gp,1(ra)
0x33fc 	00000013          	nop
0x3400 	00018313          	mv	t1,gp
0x3404 	00f00e93          	li	t4,15
0x3408 	11d31463          	bne	t1,t4,13408 <fail>
0x340c 	00120213          	addi	tp,tp,1 # 1 <_start+0x1>
0x3410 	00200293          	li	t0,2
0x3414 	fc521ee3          	bne	tp,t0,132e8 <test_13+0x8>
0x3418 	00e00e13          	li	t3,14
0x341c 	00000213          	li	tp,0
0x3420 	0000c097          	auipc	ra,0xc
0x3424 	9bc08093          	addi	ra,ra,-1604 # 1ecd4 <tdat>
0x3428 	0010c183          	lbu	gp,1(ra)
0x342c 	00000013          	nop
0x3430 	00000013          	nop
0x3434 	00018313          	mv	t1,gp
0x3438 	00000e93          	li	t4,0
0x343c 	0dd31a63          	bne	t1,t4,13408 <fail>
0x3440 	00120213          	addi	tp,tp,1 # 1 <_start+0x1>
0x3444 	00200293          	li	t0,2
0x3448 	fc521ce3          	bne	tp,t0,13318 <test_14+0x8>
0x344c 	00f00e13          	li	t3,15
0x3450 	00000213          	li	tp,0
0x3454 	0000c097          	auipc	ra,0xc
0x3458 	98908093          	addi	ra,ra,-1655 # 1ecd5 <tdat2>
0x345c 	0010c183          	lbu	gp,1(ra)
0x3460 	0f000e93          	li	t4,240
0x3464 	0bd19663          	bne	gp,t4,13408 <fail>
0x3468 	00120213          	addi	tp,tp,1 # 1 <_start+0x1>
0x346c 	00200293          	li	t0,2
0x3470 	fe5212e3          	bne	tp,t0,1334c <test_15+0x8>
0x3474 	01000e13          	li	t3,16
0x3478 	00000213          	li	tp,0
0x347c 	0000c097          	auipc	ra,0xc
0x3480 	96208093          	addi	ra,ra,-1694 # 1ecd6 <tdat3>
0x3484 	00000013          	nop
0x3488 	0010c183          	lbu	gp,1(ra)
0x348c 	00f00e93          	li	t4,15
0x3490 	09d19063          	bne	gp,t4,13408 <fail>
0x3494 	00120213          	addi	tp,tp,1 # 1 <_start+0x1>
0x3498 	00200293          	li	t0,2
0x349c 	fe5210e3          	bne	tp,t0,13374 <test_16+0x8>
0x34a0 	01100e13          	li	t3,17
0x34a4 	00000213          	li	tp,0
0x34a8 	0000c097          	auipc	ra,0xc
0x34ac 	93408093          	addi	ra,ra,-1740 # 1ecd4 <tdat>
0x34b0 	00000013          	nop
0x34b4 	00000013          	nop
0x34b8 	0010c183          	lbu	gp,1(ra)
0x34bc 	00000e93          	li	t4,0
0x34c0 	05d19863          	bne	gp,t4,13408 <fail>
0x34c4 	00120213          	addi	tp,tp,1 # 1 <_start+0x1>
0x34c8 	00200293          	li	t0,2
0x34cc 	fc521ee3          	bne	tp,t0,133a0 <test_17+0x8>
0x34d0 	0000c197          	auipc	gp,0xc
0x34d4 	90c18193          	addi	gp,gp,-1780 # 1ecd4 <tdat>
0x34d8 	0001c103          	lbu	sp,0(gp)
0x34dc 	00200113          	li	sp,2
0x34e0 	00200e93          	li	t4,2
0x34e4 	01200e13          	li	t3,18
0x34e8 	03d11463          	bne	sp,t4,13408 <fail>
0x34ec 	0000c197          	auipc	gp,0xc
0x34f0 	8f018193          	addi	gp,gp,-1808 # 1ecd4 <tdat>
0x34f4 	0001c103          	lbu	sp,0(gp)
0x34f8 	00000013          	nop
0x34fc 	00200113          	li	sp,2
0x3500 	00200e93          	li	t4,2
0x3504 	01300e13          	li	t3,19
0x3508 	01d11463          	bne	sp,t4,13408 <fail>
0x350c 	05c01863          	bne	zero,t3,13454 <pass>
0x3510 	04500513          	li	a0,69
0x3514 	00004137          	lui	sp,0x4
0x3518 	5780a0ef          	jal	ra,1d988 <printf_c>
0x351c 	05200513          	li	a0,82
0x3520 	00004137          	lui	sp,0x4
0x3524 	56c0a0ef          	jal	ra,1d988 <printf_c>
0x3528 	00004137          	lui	sp,0x4
0x352c 	5640a0ef          	jal	ra,1d988 <printf_c>
0x3530 	04f00513          	li	a0,79
0x3534 	00004137          	lui	sp,0x4
0x3538 	5580a0ef          	jal	ra,1d988 <printf_c>
0x353c 	00004137          	lui	sp,0x4
0x3540 	05200513          	li	a0,82
0x3544 	00004137          	lui	sp,0x4
0x3548 	5480a0ef          	jal	ra,1d988 <printf_c>
0x354c 	00a00513          	li	a0,10
0x3550 	00004137          	lui	sp,0x4
0x3554 	53c0a0ef          	jal	ra,1d988 <printf_c>
0x3558 	0300006f          	j	13480 <lh>
0x355c 	04f00513          	li	a0,79
0x3560 	00004137          	lui	sp,0x4
0x3564 	52c0a0ef          	jal	ra,1d988 <printf_c>
0x3568 	04b00513          	li	a0,75
0x356c 	00004137          	lui	sp,0x4
0x3570 	5200a0ef          	jal	ra,1d988 <printf_c>
0x3574 	00a00513          	li	a0,10
0x3578 	00004137          	lui	sp,0x4
0x357c 	5140a0ef          	jal	ra,1d988 <printf_c>
0x3580 	0080006f          	j	13480 <lh>
0x3584 	686c                	flw	fa1,84(s0)
0x3588 	0009                	c.addi	zero,2
0x358c 	00013537          	lui	a0,0x13
0x3590 	47c50513          	addi	a0,a0,1148 # 1347c <.test_name>
0x3594 	00004137          	lui	sp,0x4
0x3598 	5140a0ef          	jal	ra,1d9a0 <printf_s>
0x359c 	0000c097          	auipc	ra,0xc
0x35a0 	84808093          	addi	ra,ra,-1976 # 1ecd8 <tdat>
0x35a4 	00009183          	lh	gp,0(ra)
0x35a8 	0ff00e93          	li	t4,255
0x35ac 	00200e13          	li	t3,2
0x35b0 	25d19c63          	bne	gp,t4,136fc <fail>
0x35b4 	0000c097          	auipc	ra,0xc
0x35b8 	83008093          	addi	ra,ra,-2000 # 1ecd8 <tdat>
0x35bc 	00209183          	lh	gp,2(ra)
0x35c0 	f0000e93          	li	t4,-256
0x35c4 	00300e13          	li	t3,3
0x35c8 	25d19063          	bne	gp,t4,136fc <fail>
0x35cc 	0000c097          	auipc	ra,0xc
0x35d0 	81808093          	addi	ra,ra,-2024 # 1ecd8 <tdat>
0x35d4 	00409183          	lh	gp,4(ra)
0x35d8 	00001eb7          	lui	t4,0x1
0x35dc 	ff0e8e93          	addi	t4,t4,-16 # ff0 <coremarkBenchmark+0xf48>
0x35e0 	00400e13          	li	t3,4
0x35e4 	23d19263          	bne	gp,t4,136fc <fail>
0x35e8 	0000b097          	auipc	ra,0xb
0x35ec 	7fc08093          	addi	ra,ra,2044 # 1ecd8 <tdat>
0x35f0 	00609183          	lh	gp,6(ra)
0x35f4 	fffffeb7          	lui	t4,0xfffff
0x35f8 	00fe8e93          	addi	t4,t4,15 # fffff00f <heap_memory_used+0xfffdd237>
0x35fc 	00500e13          	li	t3,5
0x3600 	21d19463          	bne	gp,t4,136fc <fail>
0x3604 	0000b097          	auipc	ra,0xb
0x3608 	7e608093          	addi	ra,ra,2022 # 1ecde <tdat4>
0x360c 	ffa09183          	lh	gp,-6(ra)
0x3610 	0ff00e93          	li	t4,255
0x3614 	00600e13          	li	t3,6
0x3618 	1fd19863          	bne	gp,t4,136fc <fail>
0x361c 	0000b097          	auipc	ra,0xb
0x3620 	7ce08093          	addi	ra,ra,1998 # 1ecde <tdat4>
0x3624 	ffc09183          	lh	gp,-4(ra)
0x3628 	f0000e93          	li	t4,-256
0x362c 	00700e13          	li	t3,7
0x3630 	1dd19c63          	bne	gp,t4,136fc <fail>
0x3634 	0000b097          	auipc	ra,0xb
0x3638 	7b608093          	addi	ra,ra,1974 # 1ecde <tdat4>
0x363c 	ffe09183          	lh	gp,-2(ra)
0x3640 	00001eb7          	lui	t4,0x1
0x3644 	ff0e8e93          	addi	t4,t4,-16 # ff0 <coremarkBenchmark+0xf48>
0x3648 	00800e13          	li	t3,8
0x364c 	1bd19e63          	bne	gp,t4,136fc <fail>
0x3650 	0000b097          	auipc	ra,0xb
0x3654 	79a08093          	addi	ra,ra,1946 # 1ecde <tdat4>
0x3658 	00009183          	lh	gp,0(ra)
0x365c 	fffffeb7          	lui	t4,0xfffff
0x3660 	00fe8e93          	addi	t4,t4,15 # fffff00f <heap_memory_used+0xfffdd237>
0x3664 	00900e13          	li	t3,9
0x3668 	1bd19063          	bne	gp,t4,136fc <fail>
0x366c 	0000b097          	auipc	ra,0xb
0x3670 	77808093          	addi	ra,ra,1912 # 1ecd8 <tdat>
0x3674 	fe008093          	addi	ra,ra,-32
0x3678 	02009183          	lh	gp,32(ra)
0x367c 	0ff00e93          	li	t4,255
0x3680 	00a00e13          	li	t3,10
0x3684 	19d19263          	bne	gp,t4,136fc <fail>
0x3688 	0000b097          	auipc	ra,0xb
0x368c 	75c08093          	addi	ra,ra,1884 # 1ecd8 <tdat>
0x3690 	ffb08093          	addi	ra,ra,-5
0x3694 	00709183          	lh	gp,7(ra)
0x3698 	f0000e93          	li	t4,-256
0x369c 	00b00e13          	li	t3,11
0x36a0 	17d19463          	bne	gp,t4,136fc <fail>
0x36a4 	00c00e13          	li	t3,12
0x36a8 	00000213          	li	tp,0
0x36ac 	0000b097          	auipc	ra,0xb
0x36b0 	73a08093          	addi	ra,ra,1850 # 1ecda <tdat2>
0x36b4 	00209183          	lh	gp,2(ra)
0x36b8 	00018313          	mv	t1,gp
0x36bc 	00001eb7          	lui	t4,0x1
0x36c0 	ff0e8e93          	addi	t4,t4,-16 # ff0 <coremarkBenchmark+0xf48>
0x36c4 	15d31263          	bne	t1,t4,136fc <fail>
0x36c8 	00120213          	addi	tp,tp,1 # 1 <_start+0x1>
0x36cc 	00200293          	li	t0,2
0x36d0 	fc521ee3          	bne	tp,t0,135a0 <test_12+0x8>
0x36d4 	00d00e13          	li	t3,13
0x36d8 	00000213          	li	tp,0
0x36dc 	0000b097          	auipc	ra,0xb
0x36e0 	70c08093          	addi	ra,ra,1804 # 1ecdc <tdat3>
0x36e4 	00209183          	lh	gp,2(ra)
0x36e8 	00000013          	nop
0x36ec 	00018313          	mv	t1,gp
0x36f0 	fffffeb7          	lui	t4,0xfffff
0x36f4 	00fe8e93          	addi	t4,t4,15 # fffff00f <heap_memory_used+0xfffdd237>
0x36f8 	11d31863          	bne	t1,t4,136fc <fail>
0x36fc 	00120213          	addi	tp,tp,1 # 1 <_start+0x1>
0x3700 	00200293          	li	t0,2
0x3704 	fc521ce3          	bne	tp,t0,135d0 <test_13+0x8>
0x3708 	00e00e13          	li	t3,14
0x370c 	00000213          	li	tp,0
0x3710 	0000b097          	auipc	ra,0xb
0x3714 	6d408093          	addi	ra,ra,1748 # 1ecd8 <tdat>
0x3718 	00209183          	lh	gp,2(ra)
0x371c 	00000013          	nop
0x3720 	00000013          	nop
0x3724 	00018313          	mv	t1,gp
0x3728 	f0000e93          	li	t4,-256
0x372c 	0dd31e63          	bne	t1,t4,136fc <fail>
0x3730 	00120213          	addi	tp,tp,1 # 1 <_start+0x1>
0x3734 	00200293          	li	t0,2
0x3738 	fc521ce3          	bne	tp,t0,13604 <test_14+0x8>
0x373c 	00f00e13          	li	t3,15
0x3740 	00000213          	li	tp,0
0x3744 	0000b097          	auipc	ra,0xb
0x3748 	6a208093          	addi	ra,ra,1698 # 1ecda <tdat2>
0x374c 	00209183          	lh	gp,2(ra)
0x3750 	00001eb7          	lui	t4,0x1
0x3754 	ff0e8e93          	addi	t4,t4,-16 # ff0 <coremarkBenchmark+0xf48>
0x3758 	0bd19863          	bne	gp,t4,136fc <fail>
0x375c 	00120213          	addi	tp,tp,1 # 1 <_start+0x1>
0x3760 	00200293          	li	t0,2
0x3764 	fe5210e3          	bne	tp,t0,13638 <test_15+0x8>
0x3768 	01000e13          	li	t3,16
0x376c 	00000213          	li	tp,0
0x3770 	0000b097          	auipc	ra,0xb
0x3774 	67808093          	addi	ra,ra,1656 # 1ecdc <tdat3>
0x3778 	00000013          	nop
0x377c 	00209183          	lh	gp,2(ra)
0x3780 	fffffeb7          	lui	t4,0xfffff
0x3784 	00fe8e93          	addi	t4,t4,15 # fffff00f <heap_memory_used+0xfffdd237>
0x3788 	09d19063          	bne	gp,t4,136fc <fail>
0x378c 	00120213          	addi	tp,tp,1 # 1 <_start+0x1>
0x3790 	00200293          	li	t0,2
0x3794 	fc521ee3          	bne	tp,t0,13664 <test_16+0x8>
0x3798 	01100e13          	li	t3,17
0x379c 	00000213          	li	tp,0
0x37a0 	0000b097          	auipc	ra,0xb
0x37a4 	64408093          	addi	ra,ra,1604 # 1ecd8 <tdat>
0x37a8 	00000013          	nop
0x37ac 	00000013          	nop
0x37b0 	00209183          	lh	gp,2(ra)
0x37b4 	f0000e93          	li	t4,-256
0x37b8 	05d19863          	bne	gp,t4,136fc <fail>
0x37bc 	00120213          	addi	tp,tp,1 # 1 <_start+0x1>
0x37c0 	00200293          	li	t0,2
0x37c4 	fc521ee3          	bne	tp,t0,13694 <test_17+0x8>
0x37c8 	0000b197          	auipc	gp,0xb
0x37cc 	61c18193          	addi	gp,gp,1564 # 1ecd8 <tdat>
0x37d0 	00019103          	lh	sp,0(gp)
0x37d4 	00200113          	li	sp,2
0x37d8 	00200e93          	li	t4,2
0x37dc 	01200e13          	li	t3,18
0x37e0 	03d11463          	bne	sp,t4,136fc <fail>
0x37e4 	0000b197          	auipc	gp,0xb
0x37e8 	60018193          	addi	gp,gp,1536 # 1ecd8 <tdat>
0x37ec 	00019103          	lh	sp,0(gp)
0x37f0 	00000013          	nop
0x37f4 	00200113          	li	sp,2
0x37f8 	00200e93          	li	t4,2
0x37fc 	01300e13          	li	t3,19
0x3800 	01d11463          	bne	sp,t4,136fc <fail>
0x3804 	05c01863          	bne	zero,t3,13748 <pass>
0x3808 	04500513          	li	a0,69
0x380c 	00004137          	lui	sp,0x4
0x3810 	2840a0ef          	jal	ra,1d988 <printf_c>
0x3814 	05200513          	li	a0,82
0x3818 	00004137          	lui	sp,0x4
0x381c 	2780a0ef          	jal	ra,1d988 <printf_c>
0x3820 	00004137          	lui	sp,0x4
0x3824 	2700a0ef          	jal	ra,1d988 <printf_c>
0x3828 	04f00513          	li	a0,79
0x382c 	00004137          	lui	sp,0x4
0x3830 	2640a0ef          	jal	ra,1d988 <printf_c>
0x3834 	00004137          	lui	sp,0x4
0x3838 	05200513          	li	a0,82
0x383c 	00004137          	lui	sp,0x4
0x3840 	2540a0ef          	jal	ra,1d988 <printf_c>
0x3844 	00a00513          	li	a0,10
0x3848 	00004137          	lui	sp,0x4
0x384c 	2480a0ef          	jal	ra,1d988 <printf_c>
0x3850 	0340006f          	j	13778 <lhu>
0x3854 	04f00513          	li	a0,79
0x3858 	00004137          	lui	sp,0x4
0x385c 	2380a0ef          	jal	ra,1d988 <printf_c>
0x3860 	04b00513          	li	a0,75
0x3864 	00004137          	lui	sp,0x4
0x3868 	22c0a0ef          	jal	ra,1d988 <printf_c>
0x386c 	00a00513          	li	a0,10
0x3870 	00004137          	lui	sp,0x4
0x3874 	2200a0ef          	jal	ra,1d988 <printf_c>
0x3878 	00c0006f          	j	13778 <lhu>
0x387c 	686c                	flw	fa1,84(s0)
0x3880 	2075                	jal	1381e <test_7+0x12>
0x3884 	0009                	c.addi	zero,2
0x3888 	00013537          	lui	a0,0x13
0x388c 	77050513          	addi	a0,a0,1904 # 13770 <.test_name>
0x3890 	00004137          	lui	sp,0x4
0x3894 	21c0a0ef          	jal	ra,1d9a0 <printf_s>
0x3898 	0000b097          	auipc	ra,0xb
0x389c 	55808093          	addi	ra,ra,1368 # 1ece0 <tdat>
0x38a0 	0000d183          	lhu	gp,0(ra)
0x38a4 	0ff00e93          	li	t4,255
0x38a8 	00200e13          	li	t3,2
0x38ac 	27d19663          	bne	gp,t4,13a08 <fail>
0x38b0 	0000b097          	auipc	ra,0xb
0x38b4 	54008093          	addi	ra,ra,1344 # 1ece0 <tdat>
0x38b8 	0020d183          	lhu	gp,2(ra)
0x38bc 	00010eb7          	lui	t4,0x10
0x38c0 	f00e8e93          	addi	t4,t4,-256 # ff00 <coremarkBenchmark+0xfe58>
0x38c4 	00300e13          	li	t3,3
0x38c8 	25d19863          	bne	gp,t4,13a08 <fail>
0x38cc 	0000b097          	auipc	ra,0xb
0x38d0 	52408093          	addi	ra,ra,1316 # 1ece0 <tdat>
0x38d4 	0040d183          	lhu	gp,4(ra)
0x38d8 	00001eb7          	lui	t4,0x1
0x38dc 	ff0e8e93          	addi	t4,t4,-16 # ff0 <coremarkBenchmark+0xf48>
0x38e0 	00400e13          	li	t3,4
0x38e4 	23d19a63          	bne	gp,t4,13a08 <fail>
0x38e8 	0000b097          	auipc	ra,0xb
0x38ec 	50808093          	addi	ra,ra,1288 # 1ece0 <tdat>
0x38f0 	0060d183          	lhu	gp,6(ra)
0x38f4 	0000feb7          	lui	t4,0xf
0x38f8 	00fe8e93          	addi	t4,t4,15 # f00f <coremarkBenchmark+0xef67>
0x38fc 	00500e13          	li	t3,5
0x3900 	21d19c63          	bne	gp,t4,13a08 <fail>
0x3904 	0000b097          	auipc	ra,0xb
0x3908 	4f208093          	addi	ra,ra,1266 # 1ece6 <tdat4>
0x390c 	ffa0d183          	lhu	gp,-6(ra)
0x3910 	0ff00e93          	li	t4,255
0x3914 	00600e13          	li	t3,6
0x3918 	21d19063          	bne	gp,t4,13a08 <fail>
0x391c 	0000b097          	auipc	ra,0xb
0x3920 	4da08093          	addi	ra,ra,1242 # 1ece6 <tdat4>
0x3924 	ffc0d183          	lhu	gp,-4(ra)
0x3928 	00010eb7          	lui	t4,0x10
0x392c 	f00e8e93          	addi	t4,t4,-256 # ff00 <coremarkBenchmark+0xfe58>
0x3930 	00700e13          	li	t3,7
0x3934 	1fd19263          	bne	gp,t4,13a08 <fail>
0x3938 	0000b097          	auipc	ra,0xb
0x393c 	4be08093          	addi	ra,ra,1214 # 1ece6 <tdat4>
0x3940 	ffe0d183          	lhu	gp,-2(ra)
0x3944 	00001eb7          	lui	t4,0x1
0x3948 	ff0e8e93          	addi	t4,t4,-16 # ff0 <coremarkBenchmark+0xf48>
0x394c 	00800e13          	li	t3,8
0x3950 	1dd19463          	bne	gp,t4,13a08 <fail>
0x3954 	0000b097          	auipc	ra,0xb
0x3958 	4a208093          	addi	ra,ra,1186 # 1ece6 <tdat4>
0x395c 	0000d183          	lhu	gp,0(ra)
0x3960 	0000feb7          	lui	t4,0xf
0x3964 	00fe8e93          	addi	t4,t4,15 # f00f <coremarkBenchmark+0xef67>
0x3968 	00900e13          	li	t3,9
0x396c 	1bd19663          	bne	gp,t4,13a08 <fail>
0x3970 	0000b097          	auipc	ra,0xb
0x3974 	48008093          	addi	ra,ra,1152 # 1ece0 <tdat>
0x3978 	fe008093          	addi	ra,ra,-32
0x397c 	0200d183          	lhu	gp,32(ra)
0x3980 	0ff00e93          	li	t4,255
0x3984 	00a00e13          	li	t3,10
0x3988 	19d19863          	bne	gp,t4,13a08 <fail>
0x398c 	0000b097          	auipc	ra,0xb
0x3990 	46408093          	addi	ra,ra,1124 # 1ece0 <tdat>
0x3994 	ffb08093          	addi	ra,ra,-5
0x3998 	0070d183          	lhu	gp,7(ra)
0x399c 	00010eb7          	lui	t4,0x10
0x39a0 	f00e8e93          	addi	t4,t4,-256 # ff00 <coremarkBenchmark+0xfe58>
0x39a4 	00b00e13          	li	t3,11
0x39a8 	17d19863          	bne	gp,t4,13a08 <fail>
0x39ac 	00c00e13          	li	t3,12
0x39b0 	00000213          	li	tp,0
0x39b4 	0000b097          	auipc	ra,0xb
0x39b8 	43e08093          	addi	ra,ra,1086 # 1ece2 <tdat2>
0x39bc 	0020d183          	lhu	gp,2(ra)
0x39c0 	00018313          	mv	t1,gp
0x39c4 	00001eb7          	lui	t4,0x1
0x39c8 	ff0e8e93          	addi	t4,t4,-16 # ff0 <coremarkBenchmark+0xf48>
0x39cc 	15d31663          	bne	t1,t4,13a08 <fail>
0x39d0 	00120213          	addi	tp,tp,1 # 1 <_start+0x1>
0x39d4 	00200293          	li	t0,2
0x39d8 	fc521ee3          	bne	tp,t0,138a4 <test_12+0x8>
0x39dc 	00d00e13          	li	t3,13
0x39e0 	00000213          	li	tp,0
0x39e4 	0000b097          	auipc	ra,0xb
0x39e8 	41008093          	addi	ra,ra,1040 # 1ece4 <tdat3>
0x39ec 	0020d183          	lhu	gp,2(ra)
0x39f0 	00000013          	nop
0x39f4 	00018313          	mv	t1,gp
0x39f8 	0000feb7          	lui	t4,0xf
0x39fc 	00fe8e93          	addi	t4,t4,15 # f00f <coremarkBenchmark+0xef67>
0x3a00 	11d31c63          	bne	t1,t4,13a08 <fail>
0x3a04 	00120213          	addi	tp,tp,1 # 1 <_start+0x1>
0x3a08 	00200293          	li	t0,2
0x3a0c 	fc521ce3          	bne	tp,t0,138d4 <test_13+0x8>
0x3a10 	00e00e13          	li	t3,14
0x3a14 	00000213          	li	tp,0
0x3a18 	0000b097          	auipc	ra,0xb
0x3a1c 	3d808093          	addi	ra,ra,984 # 1ece0 <tdat>
0x3a20 	0020d183          	lhu	gp,2(ra)
0x3a24 	00000013          	nop
0x3a28 	00000013          	nop
0x3a2c 	00018313          	mv	t1,gp
0x3a30 	00010eb7          	lui	t4,0x10
0x3a34 	f00e8e93          	addi	t4,t4,-256 # ff00 <coremarkBenchmark+0xfe58>
0x3a38 	0fd31063          	bne	t1,t4,13a08 <fail>
0x3a3c 	00120213          	addi	tp,tp,1 # 1 <_start+0x1>
0x3a40 	00200293          	li	t0,2
0x3a44 	fc521ae3          	bne	tp,t0,13908 <test_14+0x8>
0x3a48 	00f00e13          	li	t3,15
0x3a4c 	00000213          	li	tp,0
0x3a50 	0000b097          	auipc	ra,0xb
0x3a54 	3a208093          	addi	ra,ra,930 # 1ece2 <tdat2>
0x3a58 	0020d183          	lhu	gp,2(ra)
0x3a5c 	00001eb7          	lui	t4,0x1
0x3a60 	ff0e8e93          	addi	t4,t4,-16 # ff0 <coremarkBenchmark+0xf48>
0x3a64 	0bd19a63          	bne	gp,t4,13a08 <fail>
0x3a68 	00120213          	addi	tp,tp,1 # 1 <_start+0x1>
0x3a6c 	00200293          	li	t0,2
0x3a70 	fe5210e3          	bne	tp,t0,13940 <test_15+0x8>
0x3a74 	01000e13          	li	t3,16
0x3a78 	00000213          	li	tp,0
0x3a7c 	0000b097          	auipc	ra,0xb
0x3a80 	37808093          	addi	ra,ra,888 # 1ece4 <tdat3>
0x3a84 	00000013          	nop
0x3a88 	0020d183          	lhu	gp,2(ra)
0x3a8c 	0000feb7          	lui	t4,0xf
0x3a90 	00fe8e93          	addi	t4,t4,15 # f00f <coremarkBenchmark+0xef67>
0x3a94 	09d19263          	bne	gp,t4,13a08 <fail>
0x3a98 	00120213          	addi	tp,tp,1 # 1 <_start+0x1>
0x3a9c 	00200293          	li	t0,2
0x3aa0 	fc521ee3          	bne	tp,t0,1396c <test_16+0x8>
0x3aa4 	01100e13          	li	t3,17
0x3aa8 	00000213          	li	tp,0
0x3aac 	0000b097          	auipc	ra,0xb
0x3ab0 	34408093          	addi	ra,ra,836 # 1ece0 <tdat>
0x3ab4 	00000013          	nop
0x3ab8 	00000013          	nop
0x3abc 	0020d183          	lhu	gp,2(ra)
0x3ac0 	00010eb7          	lui	t4,0x10
0x3ac4 	f00e8e93          	addi	t4,t4,-256 # ff00 <coremarkBenchmark+0xfe58>
0x3ac8 	05d19863          	bne	gp,t4,13a08 <fail>
0x3acc 	00120213          	addi	tp,tp,1 # 1 <_start+0x1>
0x3ad0 	00200293          	li	t0,2
0x3ad4 	fc521ce3          	bne	tp,t0,1399c <test_17+0x8>
0x3ad8 	0000b197          	auipc	gp,0xb
0x3adc 	31818193          	addi	gp,gp,792 # 1ece0 <tdat>
0x3ae0 	0001d103          	lhu	sp,0(gp)
0x3ae4 	00200113          	li	sp,2
0x3ae8 	00200e93          	li	t4,2
0x3aec 	01200e13          	li	t3,18
0x3af0 	03d11463          	bne	sp,t4,13a08 <fail>
0x3af4 	0000b197          	auipc	gp,0xb
0x3af8 	2fc18193          	addi	gp,gp,764 # 1ece0 <tdat>
0x3afc 	0001d103          	lhu	sp,0(gp)
0x3b00 	00000013          	nop
0x3b04 	00200113          	li	sp,2
0x3b08 	00200e93          	li	t4,2
0x3b0c 	01300e13          	li	t3,19
0x3b10 	01d11463          	bne	sp,t4,13a08 <fail>
0x3b14 	05c01863          	bne	zero,t3,13a54 <pass>
0x3b18 	04500513          	li	a0,69
0x3b1c 	00004137          	lui	sp,0x4
0x3b20 	779090ef          	jal	ra,1d988 <printf_c>
0x3b24 	05200513          	li	a0,82
0x3b28 	00004137          	lui	sp,0x4
0x3b2c 	76d090ef          	jal	ra,1d988 <printf_c>
0x3b30 	00004137          	lui	sp,0x4
0x3b34 	765090ef          	jal	ra,1d988 <printf_c>
0x3b38 	04f00513          	li	a0,79
0x3b3c 	00004137          	lui	sp,0x4
0x3b40 	759090ef          	jal	ra,1d988 <printf_c>
0x3b44 	00004137          	lui	sp,0x4
0x3b48 	05200513          	li	a0,82
0x3b4c 	00004137          	lui	sp,0x4
0x3b50 	749090ef          	jal	ra,1d988 <printf_c>
0x3b54 	00a00513          	li	a0,10
0x3b58 	00004137          	lui	sp,0x4
0x3b5c 	73d090ef          	jal	ra,1d988 <printf_c>
0x3b60 	0340006f          	j	13a84 <lui>
0x3b64 	04f00513          	li	a0,79
0x3b68 	00004137          	lui	sp,0x4
0x3b6c 	72d090ef          	jal	ra,1d988 <printf_c>
0x3b70 	04b00513          	li	a0,75
0x3b74 	00004137          	lui	sp,0x4
0x3b78 	721090ef          	jal	ra,1d988 <printf_c>
0x3b7c 	00a00513          	li	a0,10
0x3b80 	00004137          	lui	sp,0x4
0x3b84 	715090ef          	jal	ra,1d988 <printf_c>
0x3b88 	00c0006f          	j	13a84 <lui>
0x3b8c 	756c                	flw	fa1,108(a0)
0x3b90 	2069                	jal	13b08 <fail+0x14>
0x3b94 	0009                	c.addi	zero,2
0x3b98 	00014537          	lui	a0,0x14
0x3b9c 	a7c50513          	addi	a0,a0,-1412 # 13a7c <.test_name>
0x3ba0 	00004137          	lui	sp,0x4
0x3ba4 	711090ef          	jal	ra,1d9a0 <printf_s>
0x3ba8 	000000b7          	lui	ra,0x0
0x3bac 	00000e93          	li	t4,0
0x3bb0 	00200e13          	li	t3,2
0x3bb4 	05d09a63          	bne	ra,t4,13af4 <fail>
0x3bb8 	fffff0b7          	lui	ra,0xfffff
0x3bbc 	4010d093          	srai	ra,ra,0x1
0x3bc0 	80000e93          	li	t4,-2048
0x3bc4 	00300e13          	li	t3,3
0x3bc8 	05d09063          	bne	ra,t4,13af4 <fail>
0x3bcc 	7ffff0b7          	lui	ra,0x7ffff
0x3bd0 	4140d093          	srai	ra,ra,0x14
0x3bd4 	7ff00e93          	li	t4,2047
0x3bd8 	00400e13          	li	t3,4
0x3bdc 	03d09663          	bne	ra,t4,13af4 <fail>
0x3be0 	800000b7          	lui	ra,0x80000
0x3be4 	4140d093          	srai	ra,ra,0x14
0x3be8 	80000e93          	li	t4,-2048
0x3bec 	00500e13          	li	t3,5
0x3bf0 	01d09c63          	bne	ra,t4,13af4 <fail>
0x3bf4 	80000037          	lui	zero,0x80000
0x3bf8 	00000e93          	li	t4,0
0x3bfc 	00600e13          	li	t3,6
0x3c00 	01d01463          	bne	zero,t4,13af4 <fail>
0x3c04 	05c01863          	bne	zero,t3,13b40 <pass>
0x3c08 	04500513          	li	a0,69
0x3c0c 	00004137          	lui	sp,0x4
0x3c10 	68d090ef          	jal	ra,1d988 <printf_c>
0x3c14 	05200513          	li	a0,82
0x3c18 	00004137          	lui	sp,0x4
0x3c1c 	681090ef          	jal	ra,1d988 <printf_c>
0x3c20 	00004137          	lui	sp,0x4
0x3c24 	679090ef          	jal	ra,1d988 <printf_c>
0x3c28 	04f00513          	li	a0,79
0x3c2c 	00004137          	lui	sp,0x4
0x3c30 	66d090ef          	jal	ra,1d988 <printf_c>
0x3c34 	00004137          	lui	sp,0x4
0x3c38 	05200513          	li	a0,82
0x3c3c 	00004137          	lui	sp,0x4
0x3c40 	65d090ef          	jal	ra,1d988 <printf_c>
0x3c44 	00a00513          	li	a0,10
0x3c48 	00004137          	lui	sp,0x4
0x3c4c 	651090ef          	jal	ra,1d988 <printf_c>
0x3c50 	0300006f          	j	13b6c <lw>
0x3c54 	04f00513          	li	a0,79
0x3c58 	00004137          	lui	sp,0x4
0x3c5c 	641090ef          	jal	ra,1d988 <printf_c>
0x3c60 	04b00513          	li	a0,75
0x3c64 	00004137          	lui	sp,0x4
0x3c68 	635090ef          	jal	ra,1d988 <printf_c>
0x3c6c 	00a00513          	li	a0,10
0x3c70 	00004137          	lui	sp,0x4
0x3c74 	629090ef          	jal	ra,1d988 <printf_c>
0x3c78 	0080006f          	j	13b6c <lw>
0x3c7c 	776c                	flw	fa1,108(a4)
0x3c80 	0009                	c.addi	zero,2
0x3c84 	00014537          	lui	a0,0x14
0x3c88 	b6850513          	addi	a0,a0,-1176 # 13b68 <.test_name>
0x3c8c 	00004137          	lui	sp,0x4
0x3c90 	629090ef          	jal	ra,1d9a0 <printf_s>
0x3c94 	0000b097          	auipc	ra,0xb
0x3c98 	16c08093          	addi	ra,ra,364 # 1ece8 <tdat>
0x3c9c 	0000a183          	lw	gp,0(ra)
0x3ca0 	00ff0eb7          	lui	t4,0xff0
0x3ca4 	0ffe8e93          	addi	t4,t4,255 # ff00ff <heap_memory_used+0xfce327>
0x3ca8 	00200e13          	li	t3,2
0x3cac 	27d19a63          	bne	gp,t4,13e08 <fail>
0x3cb0 	0000b097          	auipc	ra,0xb
0x3cb4 	15008093          	addi	ra,ra,336 # 1ece8 <tdat>
0x3cb8 	0040a183          	lw	gp,4(ra)
0x3cbc 	ff010eb7          	lui	t4,0xff010
0x3cc0 	f00e8e93          	addi	t4,t4,-256 # ff00ff00 <heap_memory_used+0xfefee128>
0x3cc4 	00300e13          	li	t3,3
0x3cc8 	25d19c63          	bne	gp,t4,13e08 <fail>
0x3ccc 	0000b097          	auipc	ra,0xb
0x3cd0 	13408093          	addi	ra,ra,308 # 1ece8 <tdat>
0x3cd4 	0080a183          	lw	gp,8(ra)
0x3cd8 	0ff01eb7          	lui	t4,0xff01
0x3cdc 	ff0e8e93          	addi	t4,t4,-16 # ff00ff0 <heap_memory_used+0xfedf218>
0x3ce0 	00400e13          	li	t3,4
0x3ce4 	23d19e63          	bne	gp,t4,13e08 <fail>
0x3ce8 	0000b097          	auipc	ra,0xb
0x3cec 	11808093          	addi	ra,ra,280 # 1ece8 <tdat>
0x3cf0 	00c0a183          	lw	gp,12(ra)
0x3cf4 	f00ffeb7          	lui	t4,0xf00ff
0x3cf8 	00fe8e93          	addi	t4,t4,15 # f00ff00f <heap_memory_used+0xf00dd237>
0x3cfc 	00500e13          	li	t3,5
0x3d00 	23d19063          	bne	gp,t4,13e08 <fail>
0x3d04 	0000b097          	auipc	ra,0xb
0x3d08 	10808093          	addi	ra,ra,264 # 1ecf4 <tdat4>
0x3d0c 	ff40a183          	lw	gp,-12(ra)
0x3d10 	00ff0eb7          	lui	t4,0xff0
0x3d14 	0ffe8e93          	addi	t4,t4,255 # ff00ff <heap_memory_used+0xfce327>
0x3d18 	00600e13          	li	t3,6
0x3d1c 	21d19263          	bne	gp,t4,13e08 <fail>
0x3d20 	0000b097          	auipc	ra,0xb
0x3d24 	0ec08093          	addi	ra,ra,236 # 1ecf4 <tdat4>
0x3d28 	ff80a183          	lw	gp,-8(ra)
0x3d2c 	ff010eb7          	lui	t4,0xff010
0x3d30 	f00e8e93          	addi	t4,t4,-256 # ff00ff00 <heap_memory_used+0xfefee128>
0x3d34 	00700e13          	li	t3,7
0x3d38 	1fd19463          	bne	gp,t4,13e08 <fail>
0x3d3c 	0000b097          	auipc	ra,0xb
0x3d40 	0d008093          	addi	ra,ra,208 # 1ecf4 <tdat4>
0x3d44 	ffc0a183          	lw	gp,-4(ra)
0x3d48 	0ff01eb7          	lui	t4,0xff01
0x3d4c 	ff0e8e93          	addi	t4,t4,-16 # ff00ff0 <heap_memory_used+0xfedf218>
0x3d50 	00800e13          	li	t3,8
0x3d54 	1dd19663          	bne	gp,t4,13e08 <fail>
0x3d58 	0000b097          	auipc	ra,0xb
0x3d5c 	0b408093          	addi	ra,ra,180 # 1ecf4 <tdat4>
0x3d60 	0000a183          	lw	gp,0(ra)
0x3d64 	f00ffeb7          	lui	t4,0xf00ff
0x3d68 	00fe8e93          	addi	t4,t4,15 # f00ff00f <heap_memory_used+0xf00dd237>
0x3d6c 	00900e13          	li	t3,9
0x3d70 	1bd19863          	bne	gp,t4,13e08 <fail>
0x3d74 	0000b097          	auipc	ra,0xb
0x3d78 	08c08093          	addi	ra,ra,140 # 1ece8 <tdat>
0x3d7c 	fe008093          	addi	ra,ra,-32
0x3d80 	0200a183          	lw	gp,32(ra)
0x3d84 	00ff0eb7          	lui	t4,0xff0
0x3d88 	0ffe8e93          	addi	t4,t4,255 # ff00ff <heap_memory_used+0xfce327>
0x3d8c 	00a00e13          	li	t3,10
0x3d90 	19d19863          	bne	gp,t4,13e08 <fail>
0x3d94 	0000b097          	auipc	ra,0xb
0x3d98 	06c08093          	addi	ra,ra,108 # 1ece8 <tdat>
0x3d9c 	ffd08093          	addi	ra,ra,-3
0x3da0 	0070a183          	lw	gp,7(ra)
0x3da4 	ff010eb7          	lui	t4,0xff010
0x3da8 	f00e8e93          	addi	t4,t4,-256 # ff00ff00 <heap_memory_used+0xfefee128>
0x3dac 	00b00e13          	li	t3,11
0x3db0 	17d19863          	bne	gp,t4,13e08 <fail>
0x3db4 	00c00e13          	li	t3,12
0x3db8 	00000213          	li	tp,0
0x3dbc 	0000b097          	auipc	ra,0xb
0x3dc0 	04808093          	addi	ra,ra,72 # 1ecec <tdat2>
0x3dc4 	0040a183          	lw	gp,4(ra)
0x3dc8 	00018313          	mv	t1,gp
0x3dcc 	0ff01eb7          	lui	t4,0xff01
0x3dd0 	ff0e8e93          	addi	t4,t4,-16 # ff00ff0 <heap_memory_used+0xfedf218>
0x3dd4 	15d31663          	bne	t1,t4,13e08 <fail>
0x3dd8 	00120213          	addi	tp,tp,1 # 1 <_start+0x1>
0x3ddc 	00200293          	li	t0,2
0x3de0 	fc521ee3          	bne	tp,t0,13ca4 <test_12+0x8>
0x3de4 	00d00e13          	li	t3,13
0x3de8 	00000213          	li	tp,0
0x3dec 	0000b097          	auipc	ra,0xb
0x3df0 	01c08093          	addi	ra,ra,28 # 1ecf0 <tdat3>
0x3df4 	0040a183          	lw	gp,4(ra)
0x3df8 	00000013          	nop
0x3dfc 	00018313          	mv	t1,gp
0x3e00 	f00ffeb7          	lui	t4,0xf00ff
0x3e04 	00fe8e93          	addi	t4,t4,15 # f00ff00f <heap_memory_used+0xf00dd237>
0x3e08 	11d31c63          	bne	t1,t4,13e08 <fail>
0x3e0c 	00120213          	addi	tp,tp,1 # 1 <_start+0x1>
0x3e10 	00200293          	li	t0,2
0x3e14 	fc521ce3          	bne	tp,t0,13cd4 <test_13+0x8>
0x3e18 	00e00e13          	li	t3,14
0x3e1c 	00000213          	li	tp,0
0x3e20 	0000b097          	auipc	ra,0xb
0x3e24 	fe008093          	addi	ra,ra,-32 # 1ece8 <tdat>
0x3e28 	0040a183          	lw	gp,4(ra)
0x3e2c 	00000013          	nop
0x3e30 	00000013          	nop
0x3e34 	00018313          	mv	t1,gp
0x3e38 	ff010eb7          	lui	t4,0xff010
0x3e3c 	f00e8e93          	addi	t4,t4,-256 # ff00ff00 <heap_memory_used+0xfefee128>
0x3e40 	0fd31063          	bne	t1,t4,13e08 <fail>
0x3e44 	00120213          	addi	tp,tp,1 # 1 <_start+0x1>
0x3e48 	00200293          	li	t0,2
0x3e4c 	fc521ae3          	bne	tp,t0,13d08 <test_14+0x8>
0x3e50 	00f00e13          	li	t3,15
0x3e54 	00000213          	li	tp,0
0x3e58 	0000b097          	auipc	ra,0xb
0x3e5c 	fac08093          	addi	ra,ra,-84 # 1ecec <tdat2>
0x3e60 	0040a183          	lw	gp,4(ra)
0x3e64 	0ff01eb7          	lui	t4,0xff01
0x3e68 	ff0e8e93          	addi	t4,t4,-16 # ff00ff0 <heap_memory_used+0xfedf218>
0x3e6c 	0bd19a63          	bne	gp,t4,13e08 <fail>
0x3e70 	00120213          	addi	tp,tp,1 # 1 <_start+0x1>
0x3e74 	00200293          	li	t0,2
0x3e78 	fe5210e3          	bne	tp,t0,13d40 <test_15+0x8>
0x3e7c 	01000e13          	li	t3,16
0x3e80 	00000213          	li	tp,0
0x3e84 	0000b097          	auipc	ra,0xb
0x3e88 	f8408093          	addi	ra,ra,-124 # 1ecf0 <tdat3>
0x3e8c 	00000013          	nop
0x3e90 	0040a183          	lw	gp,4(ra)
0x3e94 	f00ffeb7          	lui	t4,0xf00ff
0x3e98 	00fe8e93          	addi	t4,t4,15 # f00ff00f <heap_memory_used+0xf00dd237>
0x3e9c 	09d19263          	bne	gp,t4,13e08 <fail>
0x3ea0 	00120213          	addi	tp,tp,1 # 1 <_start+0x1>
0x3ea4 	00200293          	li	t0,2
0x3ea8 	fc521ee3          	bne	tp,t0,13d6c <test_16+0x8>
0x3eac 	01100e13          	li	t3,17
0x3eb0 	00000213          	li	tp,0
0x3eb4 	0000b097          	auipc	ra,0xb
0x3eb8 	f4c08093          	addi	ra,ra,-180 # 1ece8 <tdat>
0x3ebc 	00000013          	nop
0x3ec0 	00000013          	nop
0x3ec4 	0040a183          	lw	gp,4(ra)
0x3ec8 	ff010eb7          	lui	t4,0xff010
0x3ecc 	f00e8e93          	addi	t4,t4,-256 # ff00ff00 <heap_memory_used+0xfefee128>
0x3ed0 	05d19863          	bne	gp,t4,13e08 <fail>
0x3ed4 	00120213          	addi	tp,tp,1 # 1 <_start+0x1>
0x3ed8 	00200293          	li	t0,2
0x3edc 	fc521ce3          	bne	tp,t0,13d9c <test_17+0x8>
0x3ee0 	0000b197          	auipc	gp,0xb
0x3ee4 	f2018193          	addi	gp,gp,-224 # 1ece8 <tdat>
0x3ee8 	0001a103          	lw	sp,0(gp)
0x3eec 	00200113          	li	sp,2
0x3ef0 	00200e93          	li	t4,2
0x3ef4 	01200e13          	li	t3,18
0x3ef8 	03d11463          	bne	sp,t4,13e08 <fail>
0x3efc 	0000b197          	auipc	gp,0xb
0x3f00 	f0418193          	addi	gp,gp,-252 # 1ece8 <tdat>
0x3f04 	0001a103          	lw	sp,0(gp)
0x3f08 	00000013          	nop
0x3f0c 	00200113          	li	sp,2
0x3f10 	00200e93          	li	t4,2
0x3f14 	01300e13          	li	t3,19
0x3f18 	01d11463          	bne	sp,t4,13e08 <fail>
0x3f1c 	05c01863          	bne	zero,t3,13e54 <pass>
0x3f20 	04500513          	li	a0,69
0x3f24 	00004137          	lui	sp,0x4
0x3f28 	379090ef          	jal	ra,1d988 <printf_c>
0x3f2c 	05200513          	li	a0,82
0x3f30 	00004137          	lui	sp,0x4
0x3f34 	36d090ef          	jal	ra,1d988 <printf_c>
0x3f38 	00004137          	lui	sp,0x4
0x3f3c 	365090ef          	jal	ra,1d988 <printf_c>
0x3f40 	04f00513          	li	a0,79
0x3f44 	00004137          	lui	sp,0x4
0x3f48 	359090ef          	jal	ra,1d988 <printf_c>
0x3f4c 	00004137          	lui	sp,0x4
0x3f50 	05200513          	li	a0,82
0x3f54 	00004137          	lui	sp,0x4
0x3f58 	349090ef          	jal	ra,1d988 <printf_c>
0x3f5c 	00a00513          	li	a0,10
0x3f60 	00004137          	lui	sp,0x4
0x3f64 	33d090ef          	jal	ra,1d988 <printf_c>
0x3f68 	5800106f          	j	153d0 <or>
0x3f6c 	04f00513          	li	a0,79
0x3f70 	00004137          	lui	sp,0x4
0x3f74 	32d090ef          	jal	ra,1d988 <printf_c>
0x3f78 	04b00513          	li	a0,75
0x3f7c 	00004137          	lui	sp,0x4
0x3f80 	321090ef          	jal	ra,1d988 <printf_c>
0x3f84 	00a00513          	li	a0,10
0x3f88 	00004137          	lui	sp,0x4
0x3f8c 	315090ef          	jal	ra,1d988 <printf_c>
0x3f90 	5580106f          	j	153d0 <or>
0x3f94 	756d                	lui	a0,0xffffb
0x3f98 	206c                	fld	fa1,192(s0)
0x3f9c 	0009                	c.addi	zero,2
0x3fa0 	00014537          	lui	a0,0x14
0x3fa4 	e7c50513          	addi	a0,a0,-388 # 13e7c <.test_name>
0x3fa8 	00004137          	lui	sp,0x4
0x3fac 	311090ef          	jal	ra,1d9a0 <printf_s>
0x3fb0 	000080b7          	lui	ra,0x8
0x3fb4 	e0008093          	addi	ra,ra,-512 # 7e00 <coremarkBenchmark+0x7d58>
0x3fb8 	b6db7137          	lui	sp,0xb6db7
0x3fbc 	db710113          	addi	sp,sp,-585 # b6db6db7 <heap_memory_used+0xb6d94fdf>
0x3fc0 	022081b3          	mul	gp,ra,sp
0x3fc4 	00001eb7          	lui	t4,0x1
0x3fc8 	200e8e93          	addi	t4,t4,512 # 1200 <coremarkBenchmark+0x1158>
0x3fcc 	02000e13          	li	t3,32
0x3fd0 	4bd19463          	bne	gp,t4,1435c <fail>
0x3fd4 	000080b7          	lui	ra,0x8
0x3fd8 	fc008093          	addi	ra,ra,-64 # 7fc0 <coremarkBenchmark+0x7f18>
0x3fdc 	b6db7137          	lui	sp,0xb6db7
0x3fe0 	db710113          	addi	sp,sp,-585 # b6db6db7 <heap_memory_used+0xb6d94fdf>
0x3fe4 	022081b3          	mul	gp,ra,sp
0x3fe8 	00001eb7          	lui	t4,0x1
0x3fec 	240e8e93          	addi	t4,t4,576 # 1240 <coremarkBenchmark+0x1198>
0x3ff0 	02100e13          	li	t3,33
0x3ff4 	49d19263          	bne	gp,t4,1435c <fail>
0x3ff8 	00000093          	li	ra,0
0x3ffc 	00000113          	li	sp,0
0x4000 	022081b3          	mul	gp,ra,sp
0x4004 	00000e93          	li	t4,0
0x4008 	00200e13          	li	t3,2
0x400c 	47d19663          	bne	gp,t4,1435c <fail>
0x4010 	00100093          	li	ra,1
0x4014 	00100113          	li	sp,1
0x4018 	022081b3          	mul	gp,ra,sp
0x401c 	00100e93          	li	t4,1
0x4020 	00300e13          	li	t3,3
0x4024 	45d19a63          	bne	gp,t4,1435c <fail>
0x4028 	00300093          	li	ra,3
0x402c 	00700113          	li	sp,7
0x4030 	022081b3          	mul	gp,ra,sp
0x4034 	01500e93          	li	t4,21
0x4038 	00400e13          	li	t3,4
0x403c 	43d19e63          	bne	gp,t4,1435c <fail>
0x4040 	00000093          	li	ra,0
0x4044 	ffff8137          	lui	sp,0xffff8
0x4048 	022081b3          	mul	gp,ra,sp
0x404c 	00000e93          	li	t4,0
0x4050 	00500e13          	li	t3,5
0x4054 	43d19263          	bne	gp,t4,1435c <fail>
0x4058 	800000b7          	lui	ra,0x80000
0x405c 	00000113          	li	sp,0
0x4060 	022081b3          	mul	gp,ra,sp
0x4064 	00000e93          	li	t4,0
0x4068 	00600e13          	li	t3,6
0x406c 	41d19663          	bne	gp,t4,1435c <fail>
0x4070 	800000b7          	lui	ra,0x80000
0x4074 	ffff8137          	lui	sp,0xffff8
0x4078 	022081b3          	mul	gp,ra,sp
0x407c 	00000e93          	li	t4,0
0x4080 	00700e13          	li	t3,7
0x4084 	3fd19a63          	bne	gp,t4,1435c <fail>
0x4088 	aaaab0b7          	lui	ra,0xaaaab
0x408c 	aab08093          	addi	ra,ra,-1365 # aaaaaaab <heap_memory_used+0xaaa88cd3>
0x4090 	00030137          	lui	sp,0x30
0x4094 	e7d10113          	addi	sp,sp,-387 # 2fe7d <heap_memory_used+0xe0a5>
0x4098 	022081b3          	mul	gp,ra,sp
0x409c 	00010eb7          	lui	t4,0x10
0x40a0 	f7fe8e93          	addi	t4,t4,-129 # ff7f <coremarkBenchmark+0xfed7>
0x40a4 	01e00e13          	li	t3,30
0x40a8 	3dd19863          	bne	gp,t4,1435c <fail>
0x40ac 	000300b7          	lui	ra,0x30
0x40b0 	e7d08093          	addi	ra,ra,-387 # 2fe7d <heap_memory_used+0xe0a5>
0x40b4 	aaaab137          	lui	sp,0xaaaab
0x40b8 	aab10113          	addi	sp,sp,-1365 # aaaaaaab <heap_memory_used+0xaaa88cd3>
0x40bc 	022081b3          	mul	gp,ra,sp
0x40c0 	00010eb7          	lui	t4,0x10
0x40c4 	f7fe8e93          	addi	t4,t4,-129 # ff7f <coremarkBenchmark+0xfed7>
0x40c8 	01f00e13          	li	t3,31
0x40cc 	3bd19663          	bne	gp,t4,1435c <fail>
0x40d0 	ff0000b7          	lui	ra,0xff000
0x40d4 	ff000137          	lui	sp,0xff000
0x40d8 	022081b3          	mul	gp,ra,sp
0x40dc 	00000e93          	li	t4,0
0x40e0 	02200e13          	li	t3,34
0x40e4 	39d19a63          	bne	gp,t4,1435c <fail>
0x40e8 	fff00093          	li	ra,-1
0x40ec 	fff00113          	li	sp,-1
0x40f0 	022081b3          	mul	gp,ra,sp
0x40f4 	00100e93          	li	t4,1
0x40f8 	02300e13          	li	t3,35
0x40fc 	37d19e63          	bne	gp,t4,1435c <fail>
0x4100 	fff00093          	li	ra,-1
0x4104 	00100113          	li	sp,1
0x4108 	022081b3          	mul	gp,ra,sp
0x410c 	fff00e93          	li	t4,-1
0x4110 	02400e13          	li	t3,36
0x4114 	37d19263          	bne	gp,t4,1435c <fail>
0x4118 	00100093          	li	ra,1
0x411c 	fff00113          	li	sp,-1
0x4120 	022081b3          	mul	gp,ra,sp
0x4124 	fff00e93          	li	t4,-1
0x4128 	02500e13          	li	t3,37
0x412c 	35d19663          	bne	gp,t4,1435c <fail>
0x4130 	00d00093          	li	ra,13
0x4134 	00b00113          	li	sp,11
0x4138 	022080b3          	mul	ra,ra,sp
0x413c 	08f00e93          	li	t4,143
0x4140 	00800e13          	li	t3,8
0x4144 	33d09a63          	bne	ra,t4,1435c <fail>
0x4148 	00e00093          	li	ra,14
0x414c 	00b00113          	li	sp,11
0x4150 	02208133          	mul	sp,ra,sp
0x4154 	09a00e93          	li	t4,154
0x4158 	00900e13          	li	t3,9
0x415c 	31d11e63          	bne	sp,t4,1435c <fail>
0x4160 	00d00093          	li	ra,13
0x4164 	021080b3          	mul	ra,ra,ra
0x4168 	0a900e93          	li	t4,169
0x416c 	00a00e13          	li	t3,10
0x4170 	31d09463          	bne	ra,t4,1435c <fail>
0x4174 	00000213          	li	tp,0
0x4178 	00d00093          	li	ra,13
0x417c 	00b00113          	li	sp,11
0x4180 	022081b3          	mul	gp,ra,sp
0x4184 	00018313          	mv	t1,gp
0x4188 	00120213          	addi	tp,tp,1 # 1 <_start+0x1>
0x418c 	00200293          	li	t0,2
0x4190 	fe5214e3          	bne	tp,t0,1405c <test_11+0x4>
0x4194 	08f00e93          	li	t4,143
0x4198 	00b00e13          	li	t3,11
0x419c 	2dd31e63          	bne	t1,t4,1435c <fail>
0x41a0 	00000213          	li	tp,0
0x41a4 	00e00093          	li	ra,14
0x41a8 	00b00113          	li	sp,11
0x41ac 	022081b3          	mul	gp,ra,sp
0x41b0 	00000013          	nop
0x41b4 	00018313          	mv	t1,gp
0x41b8 	00120213          	addi	tp,tp,1 # 1 <_start+0x1>
0x41bc 	00200293          	li	t0,2
0x41c0 	fe5212e3          	bne	tp,t0,14088 <test_12+0x4>
0x41c4 	09a00e93          	li	t4,154
0x41c8 	00c00e13          	li	t3,12
0x41cc 	2bd31663          	bne	t1,t4,1435c <fail>
0x41d0 	00000213          	li	tp,0
0x41d4 	00f00093          	li	ra,15
0x41d8 	00b00113          	li	sp,11
0x41dc 	022081b3          	mul	gp,ra,sp
0x41e0 	00000013          	nop
0x41e4 	00000013          	nop
0x41e8 	00018313          	mv	t1,gp
0x41ec 	00120213          	addi	tp,tp,1 # 1 <_start+0x1>
0x41f0 	00200293          	li	t0,2
0x41f4 	fe5210e3          	bne	tp,t0,140b8 <test_13+0x4>
0x41f8 	0a500e93          	li	t4,165
0x41fc 	00d00e13          	li	t3,13
0x4200 	27d31c63          	bne	t1,t4,1435c <fail>
0x4204 	00000213          	li	tp,0
0x4208 	00d00093          	li	ra,13
0x420c 	00b00113          	li	sp,11
0x4210 	022081b3          	mul	gp,ra,sp
0x4214 	00120213          	addi	tp,tp,1 # 1 <_start+0x1>
0x4218 	00200293          	li	t0,2
0x421c 	fe5216e3          	bne	tp,t0,140ec <test_14+0x4>
0x4220 	08f00e93          	li	t4,143
0x4224 	00e00e13          	li	t3,14
0x4228 	25d19863          	bne	gp,t4,1435c <fail>
0x422c 	00000213          	li	tp,0
0x4230 	00e00093          	li	ra,14
0x4234 	00b00113          	li	sp,11
0x4238 	00000013          	nop
0x423c 	022081b3          	mul	gp,ra,sp
0x4240 	00120213          	addi	tp,tp,1 # 1 <_start+0x1>
0x4244 	00200293          	li	t0,2
0x4248 	fe5214e3          	bne	tp,t0,14114 <test_15+0x4>
0x424c 	09a00e93          	li	t4,154
0x4250 	00f00e13          	li	t3,15
0x4254 	23d19263          	bne	gp,t4,1435c <fail>
0x4258 	00000213          	li	tp,0
0x425c 	00f00093          	li	ra,15
0x4260 	00b00113          	li	sp,11
0x4264 	00000013          	nop
0x4268 	00000013          	nop
0x426c 	022081b3          	mul	gp,ra,sp
0x4270 	00120213          	addi	tp,tp,1 # 1 <_start+0x1>
0x4274 	00200293          	li	t0,2
0x4278 	fe5212e3          	bne	tp,t0,14140 <test_16+0x4>
0x427c 	0a500e93          	li	t4,165
0x4280 	01000e13          	li	t3,16
0x4284 	1fd19a63          	bne	gp,t4,1435c <fail>
0x4288 	00000213          	li	tp,0
0x428c 	00d00093          	li	ra,13
0x4290 	00000013          	nop
0x4294 	00b00113          	li	sp,11
0x4298 	022081b3          	mul	gp,ra,sp
0x429c 	00120213          	addi	tp,tp,1 # 1 <_start+0x1>
0x42a0 	00200293          	li	t0,2
0x42a4 	fe5214e3          	bne	tp,t0,14170 <test_17+0x4>
0x42a8 	08f00e93          	li	t4,143
0x42ac 	01100e13          	li	t3,17
0x42b0 	1dd19463          	bne	gp,t4,1435c <fail>
0x42b4 	00000213          	li	tp,0
0x42b8 	00e00093          	li	ra,14
0x42bc 	00000013          	nop
0x42c0 	00b00113          	li	sp,11
0x42c4 	00000013          	nop
0x42c8 	022081b3          	mul	gp,ra,sp
0x42cc 	00120213          	addi	tp,tp,1 # 1 <_start+0x1>
0x42d0 	00200293          	li	t0,2
0x42d4 	fe5212e3          	bne	tp,t0,1419c <test_18+0x4>
0x42d8 	09a00e93          	li	t4,154
0x42dc 	01200e13          	li	t3,18
0x42e0 	19d19c63          	bne	gp,t4,1435c <fail>
0x42e4 	00000213          	li	tp,0
0x42e8 	00f00093          	li	ra,15
0x42ec 	00000013          	nop
0x42f0 	00000013          	nop
0x42f4 	00b00113          	li	sp,11
0x42f8 	022081b3          	mul	gp,ra,sp
0x42fc 	00120213          	addi	tp,tp,1 # 1 <_start+0x1>
0x4300 	00200293          	li	t0,2
0x4304 	fe5212e3          	bne	tp,t0,141cc <test_19+0x4>
0x4308 	0a500e93          	li	t4,165
0x430c 	01300e13          	li	t3,19
0x4310 	17d19463          	bne	gp,t4,1435c <fail>
0x4314 	00000213          	li	tp,0
0x4318 	00b00113          	li	sp,11
0x431c 	00d00093          	li	ra,13
0x4320 	022081b3          	mul	gp,ra,sp
0x4324 	00120213          	addi	tp,tp,1 # 1 <_start+0x1>
0x4328 	00200293          	li	t0,2
0x432c 	fe5216e3          	bne	tp,t0,141fc <test_20+0x4>
0x4330 	08f00e93          	li	t4,143
0x4334 	01400e13          	li	t3,20
0x4338 	15d19063          	bne	gp,t4,1435c <fail>
0x433c 	00000213          	li	tp,0
0x4340 	00b00113          	li	sp,11
0x4344 	00e00093          	li	ra,14
0x4348 	00000013          	nop
0x434c 	022081b3          	mul	gp,ra,sp
0x4350 	00120213          	addi	tp,tp,1 # 1 <_start+0x1>
0x4354 	00200293          	li	t0,2
0x4358 	fe5214e3          	bne	tp,t0,14224 <test_21+0x4>
0x435c 	09a00e93          	li	t4,154
0x4360 	01500e13          	li	t3,21
0x4364 	11d19a63          	bne	gp,t4,1435c <fail>
0x4368 	00000213          	li	tp,0
0x436c 	00b00113          	li	sp,11
0x4370 	00f00093          	li	ra,15
0x4374 	00000013          	nop
0x4378 	00000013          	nop
0x437c 	022081b3          	mul	gp,ra,sp
0x4380 	00120213          	addi	tp,tp,1 # 1 <_start+0x1>
0x4384 	00200293          	li	t0,2
0x4388 	fe5212e3          	bne	tp,t0,14250 <test_22+0x4>
0x438c 	0a500e93          	li	t4,165
0x4390 	01600e13          	li	t3,22
0x4394 	0fd19263          	bne	gp,t4,1435c <fail>
0x4398 	00000213          	li	tp,0
0x439c 	00b00113          	li	sp,11
0x43a0 	00000013          	nop
0x43a4 	00d00093          	li	ra,13
0x43a8 	022081b3          	mul	gp,ra,sp
0x43ac 	00120213          	addi	tp,tp,1 # 1 <_start+0x1>
0x43b0 	00200293          	li	t0,2
0x43b4 	fe5214e3          	bne	tp,t0,14280 <test_23+0x4>
0x43b8 	08f00e93          	li	t4,143
0x43bc 	01700e13          	li	t3,23
0x43c0 	0bd19c63          	bne	gp,t4,1435c <fail>
0x43c4 	00000213          	li	tp,0
0x43c8 	00b00113          	li	sp,11
0x43cc 	00000013          	nop
0x43d0 	00e00093          	li	ra,14
0x43d4 	00000013          	nop
0x43d8 	022081b3          	mul	gp,ra,sp
0x43dc 	00120213          	addi	tp,tp,1 # 1 <_start+0x1>
0x43e0 	00200293          	li	t0,2
0x43e4 	fe5212e3          	bne	tp,t0,142ac <test_24+0x4>
0x43e8 	09a00e93          	li	t4,154
0x43ec 	01800e13          	li	t3,24
0x43f0 	09d19463          	bne	gp,t4,1435c <fail>
0x43f4 	00000213          	li	tp,0
0x43f8 	00b00113          	li	sp,11
0x43fc 	00000013          	nop
0x4400 	00000013          	nop
0x4404 	00f00093          	li	ra,15
0x4408 	022081b3          	mul	gp,ra,sp
0x440c 	00120213          	addi	tp,tp,1 # 1 <_start+0x1>
0x4410 	00200293          	li	t0,2
0x4414 	fe5212e3          	bne	tp,t0,142dc <test_25+0x4>
0x4418 	0a500e93          	li	t4,165
0x441c 	01900e13          	li	t3,25
0x4420 	05d19c63          	bne	gp,t4,1435c <fail>
0x4424 	01f00093          	li	ra,31
0x4428 	02100133          	mul	sp,zero,ra
0x442c 	00000e93          	li	t4,0
0x4430 	01a00e13          	li	t3,26
0x4434 	05d11263          	bne	sp,t4,1435c <fail>
0x4438 	02000093          	li	ra,32
0x443c 	02008133          	mul	sp,ra,zero
0x4440 	00000e93          	li	t4,0
0x4444 	01b00e13          	li	t3,27
0x4448 	03d11863          	bne	sp,t4,1435c <fail>
0x444c 	020000b3          	mul	ra,zero,zero
0x4450 	00000e93          	li	t4,0
0x4454 	01c00e13          	li	t3,28
0x4458 	03d09063          	bne	ra,t4,1435c <fail>
0x445c 	02100093          	li	ra,33
0x4460 	02200113          	li	sp,34
0x4464 	02208033          	mul	zero,ra,sp
0x4468 	00000e93          	li	t4,0
0x446c 	01d00e13          	li	t3,29
0x4470 	01d01463          	bne	zero,t4,1435c <fail>
0x4474 	05c01863          	bne	zero,t3,143a8 <pass>
0x4478 	04500513          	li	a0,69
0x447c 	00004137          	lui	sp,0x4
0x4480 	624090ef          	jal	ra,1d988 <printf_c>
0x4484 	05200513          	li	a0,82
0x4488 	00004137          	lui	sp,0x4
0x448c 	618090ef          	jal	ra,1d988 <printf_c>
0x4490 	00004137          	lui	sp,0x4
0x4494 	610090ef          	jal	ra,1d988 <printf_c>
0x4498 	04f00513          	li	a0,79
0x449c 	00004137          	lui	sp,0x4
0x44a0 	604090ef          	jal	ra,1d988 <printf_c>
0x44a4 	00004137          	lui	sp,0x4
0x44a8 	05200513          	li	a0,82
0x44ac 	00004137          	lui	sp,0x4
0x44b0 	5f4090ef          	jal	ra,1d988 <printf_c>
0x44b4 	00a00513          	li	a0,10
0x44b8 	00004137          	lui	sp,0x4
0x44bc 	5e8090ef          	jal	ra,1d988 <printf_c>
0x44c0 	0340006f          	j	143d8 <mulh>
0x44c4 	04f00513          	li	a0,79
0x44c8 	00004137          	lui	sp,0x4
0x44cc 	5d8090ef          	jal	ra,1d988 <printf_c>
0x44d0 	04b00513          	li	a0,75
0x44d4 	00004137          	lui	sp,0x4
0x44d8 	5cc090ef          	jal	ra,1d988 <printf_c>
0x44dc 	00a00513          	li	a0,10
0x44e0 	00004137          	lui	sp,0x4
0x44e4 	5c0090ef          	jal	ra,1d988 <printf_c>
0x44e8 	00c0006f          	j	143d8 <mulh>
0x44ec 	756d                	lui	a0,0xffffb
0x44f0 	686c                	flw	fa1,84(s0)
0x44f4 	0009                	c.addi	zero,2
0x44f8 	00014537          	lui	a0,0x14
0x44fc 	3d050513          	addi	a0,a0,976 # 143d0 <.test_name>
0x4500 	00004137          	lui	sp,0x4
0x4504 	5bc090ef          	jal	ra,1d9a0 <printf_s>
0x4508 	00000093          	li	ra,0
0x450c 	00000113          	li	sp,0
0x4510 	022091b3          	mulh	gp,ra,sp
0x4514 	00000e93          	li	t4,0
0x4518 	00200e13          	li	t3,2
0x451c 	4bd19a63          	bne	gp,t4,148b0 <fail>
0x4520 	00100093          	li	ra,1
0x4524 	00100113          	li	sp,1
0x4528 	022091b3          	mulh	gp,ra,sp
0x452c 	00000e93          	li	t4,0
0x4530 	00300e13          	li	t3,3
0x4534 	49d19e63          	bne	gp,t4,148b0 <fail>
0x4538 	00300093          	li	ra,3
0x453c 	00700113          	li	sp,7
0x4540 	022091b3          	mulh	gp,ra,sp
0x4544 	00000e93          	li	t4,0
0x4548 	00400e13          	li	t3,4
0x454c 	49d19263          	bne	gp,t4,148b0 <fail>
0x4550 	00000093          	li	ra,0
0x4554 	ffff8137          	lui	sp,0xffff8
0x4558 	022091b3          	mulh	gp,ra,sp
0x455c 	00000e93          	li	t4,0
0x4560 	00500e13          	li	t3,5
0x4564 	47d19663          	bne	gp,t4,148b0 <fail>
0x4568 	800000b7          	lui	ra,0x80000
0x456c 	00000113          	li	sp,0
0x4570 	022091b3          	mulh	gp,ra,sp
0x4574 	00000e93          	li	t4,0
0x4578 	00600e13          	li	t3,6
0x457c 	45d19a63          	bne	gp,t4,148b0 <fail>
0x4580 	800000b7          	lui	ra,0x80000
0x4584 	00000113          	li	sp,0
0x4588 	022091b3          	mulh	gp,ra,sp
0x458c 	00000e93          	li	t4,0
0x4590 	00700e13          	li	t3,7
0x4594 	43d19e63          	bne	gp,t4,148b0 <fail>
0x4598 	aaaab0b7          	lui	ra,0xaaaab
0x459c 	aab08093          	addi	ra,ra,-1365 # aaaaaaab <heap_memory_used+0xaaa88cd3>
0x45a0 	00030137          	lui	sp,0x30
0x45a4 	e7d10113          	addi	sp,sp,-387 # 2fe7d <heap_memory_used+0xe0a5>
0x45a8 	022091b3          	mulh	gp,ra,sp
0x45ac 	ffff0eb7          	lui	t4,0xffff0
0x45b0 	081e8e93          	addi	t4,t4,129 # ffff0081 <heap_memory_used+0xfffce2a9>
0x45b4 	01e00e13          	li	t3,30
0x45b8 	41d19c63          	bne	gp,t4,148b0 <fail>
0x45bc 	000300b7          	lui	ra,0x30
0x45c0 	e7d08093          	addi	ra,ra,-387 # 2fe7d <heap_memory_used+0xe0a5>
0x45c4 	aaaab137          	lui	sp,0xaaaab
0x45c8 	aab10113          	addi	sp,sp,-1365 # aaaaaaab <heap_memory_used+0xaaa88cd3>
0x45cc 	022091b3          	mulh	gp,ra,sp
0x45d0 	ffff0eb7          	lui	t4,0xffff0
0x45d4 	081e8e93          	addi	t4,t4,129 # ffff0081 <heap_memory_used+0xfffce2a9>
0x45d8 	01f00e13          	li	t3,31
0x45dc 	3fd19a63          	bne	gp,t4,148b0 <fail>
0x45e0 	ff0000b7          	lui	ra,0xff000
0x45e4 	ff000137          	lui	sp,0xff000
0x45e8 	022091b3          	mulh	gp,ra,sp
0x45ec 	00010eb7          	lui	t4,0x10
0x45f0 	02000e13          	li	t3,32
0x45f4 	3dd19e63          	bne	gp,t4,148b0 <fail>
0x45f8 	fff00093          	li	ra,-1
0x45fc 	fff00113          	li	sp,-1
0x4600 	022091b3          	mulh	gp,ra,sp
0x4604 	00000e93          	li	t4,0
0x4608 	02100e13          	li	t3,33
0x460c 	3dd19263          	bne	gp,t4,148b0 <fail>
0x4610 	fff00093          	li	ra,-1
0x4614 	00100113          	li	sp,1
0x4618 	022091b3          	mulh	gp,ra,sp
0x461c 	fff00e93          	li	t4,-1
0x4620 	02200e13          	li	t3,34
0x4624 	3bd19663          	bne	gp,t4,148b0 <fail>
0x4628 	00100093          	li	ra,1
0x462c 	fff00113          	li	sp,-1
0x4630 	022091b3          	mulh	gp,ra,sp
0x4634 	fff00e93          	li	t4,-1
0x4638 	02300e13          	li	t3,35
0x463c 	39d19a63          	bne	gp,t4,148b0 <fail>
0x4640 	00d000b7          	lui	ra,0xd00
0x4644 	00b00137          	lui	sp,0xb00
0x4648 	022090b3          	mulh	ra,ra,sp
0x464c 	00009eb7          	lui	t4,0x9
0x4650 	f00e8e93          	addi	t4,t4,-256 # 8f00 <coremarkBenchmark+0x8e58>
0x4654 	00800e13          	li	t3,8
0x4658 	37d09c63          	bne	ra,t4,148b0 <fail>
0x465c 	00e000b7          	lui	ra,0xe00
0x4660 	00b00137          	lui	sp,0xb00
0x4664 	02209133          	mulh	sp,ra,sp
0x4668 	0000aeb7          	lui	t4,0xa
0x466c 	a00e8e93          	addi	t4,t4,-1536 # 9a00 <coremarkBenchmark+0x9958>
0x4670 	00900e13          	li	t3,9
0x4674 	35d11e63          	bne	sp,t4,148b0 <fail>
0x4678 	00d000b7          	lui	ra,0xd00
0x467c 	021090b3          	mulh	ra,ra,ra
0x4680 	0000beb7          	lui	t4,0xb
0x4684 	900e8e93          	addi	t4,t4,-1792 # a900 <coremarkBenchmark+0xa858>
0x4688 	00a00e13          	li	t3,10
0x468c 	35d09263          	bne	ra,t4,148b0 <fail>
0x4690 	00000213          	li	tp,0
0x4694 	00d000b7          	lui	ra,0xd00
0x4698 	00b00137          	lui	sp,0xb00
0x469c 	022091b3          	mulh	gp,ra,sp
0x46a0 	00018313          	mv	t1,gp
0x46a4 	00120213          	addi	tp,tp,1 # 1 <_start+0x1>
0x46a8 	00200293          	li	t0,2
0x46ac 	fe5214e3          	bne	tp,t0,14574 <test_11+0x4>
0x46b0 	00009eb7          	lui	t4,0x9
0x46b4 	f00e8e93          	addi	t4,t4,-256 # 8f00 <coremarkBenchmark+0x8e58>
0x46b8 	00b00e13          	li	t3,11
0x46bc 	31d31a63          	bne	t1,t4,148b0 <fail>
0x46c0 	00000213          	li	tp,0
0x46c4 	00e000b7          	lui	ra,0xe00
0x46c8 	00b00137          	lui	sp,0xb00
0x46cc 	022091b3          	mulh	gp,ra,sp
0x46d0 	00000013          	nop
0x46d4 	00018313          	mv	t1,gp
0x46d8 	00120213          	addi	tp,tp,1 # 1 <_start+0x1>
0x46dc 	00200293          	li	t0,2
0x46e0 	fe5212e3          	bne	tp,t0,145a4 <test_12+0x4>
0x46e4 	0000aeb7          	lui	t4,0xa
0x46e8 	a00e8e93          	addi	t4,t4,-1536 # 9a00 <coremarkBenchmark+0x9958>
0x46ec 	00c00e13          	li	t3,12
0x46f0 	2fd31063          	bne	t1,t4,148b0 <fail>
0x46f4 	00000213          	li	tp,0
0x46f8 	00f000b7          	lui	ra,0xf00
0x46fc 	00b00137          	lui	sp,0xb00
0x4700 	022091b3          	mulh	gp,ra,sp
0x4704 	00000013          	nop
0x4708 	00000013          	nop
0x470c 	00018313          	mv	t1,gp
0x4710 	00120213          	addi	tp,tp,1 # 1 <_start+0x1>
0x4714 	00200293          	li	t0,2
0x4718 	fe5210e3          	bne	tp,t0,145d8 <test_13+0x4>
0x471c 	0000aeb7          	lui	t4,0xa
0x4720 	500e8e93          	addi	t4,t4,1280 # a500 <coremarkBenchmark+0xa458>
0x4724 	00d00e13          	li	t3,13
0x4728 	2bd31463          	bne	t1,t4,148b0 <fail>
0x472c 	00000213          	li	tp,0
0x4730 	00d000b7          	lui	ra,0xd00
0x4734 	00b00137          	lui	sp,0xb00
0x4738 	022091b3          	mulh	gp,ra,sp
0x473c 	00120213          	addi	tp,tp,1 # 1 <_start+0x1>
0x4740 	00200293          	li	t0,2
0x4744 	fe5216e3          	bne	tp,t0,14610 <test_14+0x4>
0x4748 	00009eb7          	lui	t4,0x9
0x474c 	f00e8e93          	addi	t4,t4,-256 # 8f00 <coremarkBenchmark+0x8e58>
0x4750 	00e00e13          	li	t3,14
0x4754 	27d19e63          	bne	gp,t4,148b0 <fail>
0x4758 	00000213          	li	tp,0
0x475c 	00e000b7          	lui	ra,0xe00
0x4760 	00b00137          	lui	sp,0xb00
0x4764 	00000013          	nop
0x4768 	022091b3          	mulh	gp,ra,sp
0x476c 	00120213          	addi	tp,tp,1 # 1 <_start+0x1>
0x4770 	00200293          	li	t0,2
0x4774 	fe5214e3          	bne	tp,t0,1463c <test_15+0x4>
0x4778 	0000aeb7          	lui	t4,0xa
0x477c 	a00e8e93          	addi	t4,t4,-1536 # 9a00 <coremarkBenchmark+0x9958>
0x4780 	00f00e13          	li	t3,15
0x4784 	25d19663          	bne	gp,t4,148b0 <fail>
0x4788 	00000213          	li	tp,0
0x478c 	00f000b7          	lui	ra,0xf00
0x4790 	00b00137          	lui	sp,0xb00
0x4794 	00000013          	nop
0x4798 	00000013          	nop
0x479c 	022091b3          	mulh	gp,ra,sp
0x47a0 	00120213          	addi	tp,tp,1 # 1 <_start+0x1>
0x47a4 	00200293          	li	t0,2
0x47a8 	fe5212e3          	bne	tp,t0,1466c <test_16+0x4>
0x47ac 	0000aeb7          	lui	t4,0xa
0x47b0 	500e8e93          	addi	t4,t4,1280 # a500 <coremarkBenchmark+0xa458>
0x47b4 	01000e13          	li	t3,16
0x47b8 	21d19c63          	bne	gp,t4,148b0 <fail>
0x47bc 	00000213          	li	tp,0
0x47c0 	00d000b7          	lui	ra,0xd00
0x47c4 	00000013          	nop
0x47c8 	00b00137          	lui	sp,0xb00
0x47cc 	022091b3          	mulh	gp,ra,sp
0x47d0 	00120213          	addi	tp,tp,1 # 1 <_start+0x1>
0x47d4 	00200293          	li	t0,2
0x47d8 	fe5214e3          	bne	tp,t0,146a0 <test_17+0x4>
0x47dc 	00009eb7          	lui	t4,0x9
0x47e0 	f00e8e93          	addi	t4,t4,-256 # 8f00 <coremarkBenchmark+0x8e58>
0x47e4 	01100e13          	li	t3,17
0x47e8 	1fd19463          	bne	gp,t4,148b0 <fail>
0x47ec 	00000213          	li	tp,0
0x47f0 	00e000b7          	lui	ra,0xe00
0x47f4 	00000013          	nop
0x47f8 	00b00137          	lui	sp,0xb00
0x47fc 	00000013          	nop
0x4800 	022091b3          	mulh	gp,ra,sp
0x4804 	00120213          	addi	tp,tp,1 # 1 <_start+0x1>
0x4808 	00200293          	li	t0,2
0x480c 	fe5212e3          	bne	tp,t0,146d0 <test_18+0x4>
0x4810 	0000aeb7          	lui	t4,0xa
0x4814 	a00e8e93          	addi	t4,t4,-1536 # 9a00 <coremarkBenchmark+0x9958>
0x4818 	01200e13          	li	t3,18
0x481c 	1bd19a63          	bne	gp,t4,148b0 <fail>
0x4820 	00000213          	li	tp,0
0x4824 	00f000b7          	lui	ra,0xf00
0x4828 	00000013          	nop
0x482c 	00000013          	nop
0x4830 	00b00137          	lui	sp,0xb00
0x4834 	022091b3          	mulh	gp,ra,sp
0x4838 	00120213          	addi	tp,tp,1 # 1 <_start+0x1>
0x483c 	00200293          	li	t0,2
0x4840 	fe5212e3          	bne	tp,t0,14704 <test_19+0x4>
0x4844 	0000aeb7          	lui	t4,0xa
0x4848 	500e8e93          	addi	t4,t4,1280 # a500 <coremarkBenchmark+0xa458>
0x484c 	01300e13          	li	t3,19
0x4850 	19d19063          	bne	gp,t4,148b0 <fail>
0x4854 	00000213          	li	tp,0
0x4858 	00b00137          	lui	sp,0xb00
0x485c 	00d000b7          	lui	ra,0xd00
0x4860 	022091b3          	mulh	gp,ra,sp
0x4864 	00120213          	addi	tp,tp,1 # 1 <_start+0x1>
0x4868 	00200293          	li	t0,2
0x486c 	fe5216e3          	bne	tp,t0,14738 <test_20+0x4>
0x4870 	00009eb7          	lui	t4,0x9
0x4874 	f00e8e93          	addi	t4,t4,-256 # 8f00 <coremarkBenchmark+0x8e58>
0x4878 	01400e13          	li	t3,20
0x487c 	15d19a63          	bne	gp,t4,148b0 <fail>
0x4880 	00000213          	li	tp,0
0x4884 	00b00137          	lui	sp,0xb00
0x4888 	00e000b7          	lui	ra,0xe00
0x488c 	00000013          	nop
0x4890 	022091b3          	mulh	gp,ra,sp
0x4894 	00120213          	addi	tp,tp,1 # 1 <_start+0x1>
0x4898 	00200293          	li	t0,2
0x489c 	fe5214e3          	bne	tp,t0,14764 <test_21+0x4>
0x48a0 	0000aeb7          	lui	t4,0xa
0x48a4 	a00e8e93          	addi	t4,t4,-1536 # 9a00 <coremarkBenchmark+0x9958>
0x48a8 	01500e13          	li	t3,21
0x48ac 	13d19263          	bne	gp,t4,148b0 <fail>
0x48b0 	00000213          	li	tp,0
0x48b4 	00b00137          	lui	sp,0xb00
0x48b8 	00f000b7          	lui	ra,0xf00
0x48bc 	00000013          	nop
0x48c0 	00000013          	nop
0x48c4 	022091b3          	mulh	gp,ra,sp
0x48c8 	00120213          	addi	tp,tp,1 # 1 <_start+0x1>
0x48cc 	00200293          	li	t0,2
0x48d0 	fe5212e3          	bne	tp,t0,14794 <test_22+0x4>
0x48d4 	0000aeb7          	lui	t4,0xa
0x48d8 	500e8e93          	addi	t4,t4,1280 # a500 <coremarkBenchmark+0xa458>
0x48dc 	01600e13          	li	t3,22
0x48e0 	0fd19863          	bne	gp,t4,148b0 <fail>
0x48e4 	00000213          	li	tp,0
0x48e8 	00b00137          	lui	sp,0xb00
0x48ec 	00000013          	nop
0x48f0 	00d000b7          	lui	ra,0xd00
0x48f4 	022091b3          	mulh	gp,ra,sp
0x48f8 	00120213          	addi	tp,tp,1 # 1 <_start+0x1>
0x48fc 	00200293          	li	t0,2
0x4900 	fe5214e3          	bne	tp,t0,147c8 <test_23+0x4>
0x4904 	00009eb7          	lui	t4,0x9
0x4908 	f00e8e93          	addi	t4,t4,-256 # 8f00 <coremarkBenchmark+0x8e58>
0x490c 	01700e13          	li	t3,23
0x4910 	0dd19063          	bne	gp,t4,148b0 <fail>
0x4914 	00000213          	li	tp,0
0x4918 	00b00137          	lui	sp,0xb00
0x491c 	00000013          	nop
0x4920 	00e000b7          	lui	ra,0xe00
0x4924 	00000013          	nop
0x4928 	022091b3          	mulh	gp,ra,sp
0x492c 	00120213          	addi	tp,tp,1 # 1 <_start+0x1>
0x4930 	00200293          	li	t0,2
0x4934 	fe5212e3          	bne	tp,t0,147f8 <test_24+0x4>
0x4938 	0000aeb7          	lui	t4,0xa
0x493c 	a00e8e93          	addi	t4,t4,-1536 # 9a00 <coremarkBenchmark+0x9958>
0x4940 	01800e13          	li	t3,24
0x4944 	09d19663          	bne	gp,t4,148b0 <fail>
0x4948 	00000213          	li	tp,0
0x494c 	00b00137          	lui	sp,0xb00
0x4950 	00000013          	nop
0x4954 	00000013          	nop
0x4958 	00f000b7          	lui	ra,0xf00
0x495c 	022091b3          	mulh	gp,ra,sp
0x4960 	00120213          	addi	tp,tp,1 # 1 <_start+0x1>
0x4964 	00200293          	li	t0,2
0x4968 	fe5212e3          	bne	tp,t0,1482c <test_25+0x4>
0x496c 	0000aeb7          	lui	t4,0xa
0x4970 	500e8e93          	addi	t4,t4,1280 # a500 <coremarkBenchmark+0xa458>
0x4974 	01900e13          	li	t3,25
0x4978 	05d19c63          	bne	gp,t4,148b0 <fail>
0x497c 	7c0000b7          	lui	ra,0x7c000
0x4980 	02101133          	mulh	sp,zero,ra
0x4984 	00000e93          	li	t4,0
0x4988 	01a00e13          	li	t3,26
0x498c 	05d11263          	bne	sp,t4,148b0 <fail>
0x4990 	800000b7          	lui	ra,0x80000
0x4994 	02009133          	mulh	sp,ra,zero
0x4998 	00000e93          	li	t4,0
0x499c 	01b00e13          	li	t3,27
0x49a0 	03d11863          	bne	sp,t4,148b0 <fail>
0x49a4 	020010b3          	mulh	ra,zero,zero
0x49a8 	00000e93          	li	t4,0
0x49ac 	01c00e13          	li	t3,28
0x49b0 	03d09063          	bne	ra,t4,148b0 <fail>
0x49b4 	021000b7          	lui	ra,0x2100
0x49b8 	02200137          	lui	sp,0x2200
0x49bc 	02209033          	mulh	zero,ra,sp
0x49c0 	00000e93          	li	t4,0
0x49c4 	01d00e13          	li	t3,29
0x49c8 	01d01463          	bne	zero,t4,148b0 <fail>
0x49cc 	05c01863          	bne	zero,t3,148fc <pass>
0x49d0 	04500513          	li	a0,69
0x49d4 	00004137          	lui	sp,0x4
0x49d8 	0d0090ef          	jal	ra,1d988 <printf_c>
0x49dc 	05200513          	li	a0,82
0x49e0 	00004137          	lui	sp,0x4
0x49e4 	0c4090ef          	jal	ra,1d988 <printf_c>
0x49e8 	00004137          	lui	sp,0x4
0x49ec 	0bc090ef          	jal	ra,1d988 <printf_c>
0x49f0 	04f00513          	li	a0,79
0x49f4 	00004137          	lui	sp,0x4
0x49f8 	0b0090ef          	jal	ra,1d988 <printf_c>
0x49fc 	00004137          	lui	sp,0x4
0x4a00 	05200513          	li	a0,82
0x4a04 	00004137          	lui	sp,0x4
0x4a08 	0a0090ef          	jal	ra,1d988 <printf_c>
0x4a0c 	00a00513          	li	a0,10
0x4a10 	00004137          	lui	sp,0x4
0x4a14 	094090ef          	jal	ra,1d988 <printf_c>
0x4a18 	0340006f          	j	1492c <mulhsu>
0x4a1c 	04f00513          	li	a0,79
0x4a20 	00004137          	lui	sp,0x4
0x4a24 	084090ef          	jal	ra,1d988 <printf_c>
0x4a28 	04b00513          	li	a0,75
0x4a2c 	00004137          	lui	sp,0x4
0x4a30 	078090ef          	jal	ra,1d988 <printf_c>
0x4a34 	00a00513          	li	a0,10
0x4a38 	00004137          	lui	sp,0x4
0x4a3c 	06c090ef          	jal	ra,1d988 <printf_c>
0x4a40 	00c0006f          	j	1492c <mulhsu>
0x4a44 	756d                	lui	a0,0xffffb
0x4a48 	686c                	flw	fa1,84(s0)
0x4a4c 	00097573          	csrrci	a0,0x0,18
0x4a50 	00015537          	lui	a0,0x15
0x4a54 	92450513          	addi	a0,a0,-1756 # 14924 <.test_name>
0x4a58 	00004137          	lui	sp,0x4
0x4a5c 	068090ef          	jal	ra,1d9a0 <printf_s>
0x4a60 	00000093          	li	ra,0
0x4a64 	00000113          	li	sp,0
0x4a68 	0220a1b3          	mulhsu	gp,ra,sp
0x4a6c 	00000e93          	li	t4,0
0x4a70 	00200e13          	li	t3,2
0x4a74 	4bd19a63          	bne	gp,t4,14e04 <fail>
0x4a78 	00100093          	li	ra,1
0x4a7c 	00100113          	li	sp,1
0x4a80 	0220a1b3          	mulhsu	gp,ra,sp
0x4a84 	00000e93          	li	t4,0
0x4a88 	00300e13          	li	t3,3
0x4a8c 	49d19e63          	bne	gp,t4,14e04 <fail>
0x4a90 	00300093          	li	ra,3
0x4a94 	00700113          	li	sp,7
0x4a98 	0220a1b3          	mulhsu	gp,ra,sp
0x4a9c 	00000e93          	li	t4,0
0x4aa0 	00400e13          	li	t3,4
0x4aa4 	49d19263          	bne	gp,t4,14e04 <fail>
0x4aa8 	00000093          	li	ra,0
0x4aac 	ffff8137          	lui	sp,0xffff8
0x4ab0 	0220a1b3          	mulhsu	gp,ra,sp
0x4ab4 	00000e93          	li	t4,0
0x4ab8 	00500e13          	li	t3,5
0x4abc 	47d19663          	bne	gp,t4,14e04 <fail>
0x4ac0 	800000b7          	lui	ra,0x80000
0x4ac4 	00000113          	li	sp,0
0x4ac8 	0220a1b3          	mulhsu	gp,ra,sp
0x4acc 	00000e93          	li	t4,0
0x4ad0 	00600e13          	li	t3,6
0x4ad4 	45d19a63          	bne	gp,t4,14e04 <fail>
0x4ad8 	800000b7          	lui	ra,0x80000
0x4adc 	ffff8137          	lui	sp,0xffff8
0x4ae0 	0220a1b3          	mulhsu	gp,ra,sp
0x4ae4 	80004eb7          	lui	t4,0x80004
0x4ae8 	00700e13          	li	t3,7
0x4aec 	43d19e63          	bne	gp,t4,14e04 <fail>
0x4af0 	aaaab0b7          	lui	ra,0xaaaab
0x4af4 	aab08093          	addi	ra,ra,-1365 # aaaaaaab <heap_memory_used+0xaaa88cd3>
0x4af8 	00030137          	lui	sp,0x30
0x4afc 	e7d10113          	addi	sp,sp,-387 # 2fe7d <heap_memory_used+0xe0a5>
0x4b00 	0220a1b3          	mulhsu	gp,ra,sp
0x4b04 	ffff0eb7          	lui	t4,0xffff0
0x4b08 	081e8e93          	addi	t4,t4,129 # ffff0081 <heap_memory_used+0xfffce2a9>
0x4b0c 	01e00e13          	li	t3,30
0x4b10 	41d19c63          	bne	gp,t4,14e04 <fail>
0x4b14 	000300b7          	lui	ra,0x30
0x4b18 	e7d08093          	addi	ra,ra,-387 # 2fe7d <heap_memory_used+0xe0a5>
0x4b1c 	aaaab137          	lui	sp,0xaaaab
0x4b20 	aab10113          	addi	sp,sp,-1365 # aaaaaaab <heap_memory_used+0xaaa88cd3>
0x4b24 	0220a1b3          	mulhsu	gp,ra,sp
0x4b28 	00020eb7          	lui	t4,0x20
0x4b2c 	efee8e93          	addi	t4,t4,-258 # 1fefe <Arr_2_Glob+0xd3a>
0x4b30 	01f00e13          	li	t3,31
0x4b34 	3fd19a63          	bne	gp,t4,14e04 <fail>
0x4b38 	ff0000b7          	lui	ra,0xff000
0x4b3c 	ff000137          	lui	sp,0xff000
0x4b40 	0220a1b3          	mulhsu	gp,ra,sp
0x4b44 	ff010eb7          	lui	t4,0xff010
0x4b48 	02000e13          	li	t3,32
0x4b4c 	3dd19e63          	bne	gp,t4,14e04 <fail>
0x4b50 	fff00093          	li	ra,-1
0x4b54 	fff00113          	li	sp,-1
0x4b58 	0220a1b3          	mulhsu	gp,ra,sp
0x4b5c 	fff00e93          	li	t4,-1
0x4b60 	02100e13          	li	t3,33
0x4b64 	3dd19263          	bne	gp,t4,14e04 <fail>
0x4b68 	fff00093          	li	ra,-1
0x4b6c 	00100113          	li	sp,1
0x4b70 	0220a1b3          	mulhsu	gp,ra,sp
0x4b74 	fff00e93          	li	t4,-1
0x4b78 	02200e13          	li	t3,34
0x4b7c 	3bd19663          	bne	gp,t4,14e04 <fail>
0x4b80 	00100093          	li	ra,1
0x4b84 	fff00113          	li	sp,-1
0x4b88 	0220a1b3          	mulhsu	gp,ra,sp
0x4b8c 	00000e93          	li	t4,0
0x4b90 	02300e13          	li	t3,35
0x4b94 	39d19a63          	bne	gp,t4,14e04 <fail>
0x4b98 	00d000b7          	lui	ra,0xd00
0x4b9c 	00b00137          	lui	sp,0xb00
0x4ba0 	0220a0b3          	mulhsu	ra,ra,sp
0x4ba4 	00009eb7          	lui	t4,0x9
0x4ba8 	f00e8e93          	addi	t4,t4,-256 # 8f00 <coremarkBenchmark+0x8e58>
0x4bac 	00800e13          	li	t3,8
0x4bb0 	37d09c63          	bne	ra,t4,14e04 <fail>
0x4bb4 	00e000b7          	lui	ra,0xe00
0x4bb8 	00b00137          	lui	sp,0xb00
0x4bbc 	0220a133          	mulhsu	sp,ra,sp
0x4bc0 	0000aeb7          	lui	t4,0xa
0x4bc4 	a00e8e93          	addi	t4,t4,-1536 # 9a00 <coremarkBenchmark+0x9958>
0x4bc8 	00900e13          	li	t3,9
0x4bcc 	35d11e63          	bne	sp,t4,14e04 <fail>
0x4bd0 	00d000b7          	lui	ra,0xd00
0x4bd4 	0210a0b3          	mulhsu	ra,ra,ra
0x4bd8 	0000beb7          	lui	t4,0xb
0x4bdc 	900e8e93          	addi	t4,t4,-1792 # a900 <coremarkBenchmark+0xa858>
0x4be0 	00a00e13          	li	t3,10
0x4be4 	35d09263          	bne	ra,t4,14e04 <fail>
0x4be8 	00000213          	li	tp,0
0x4bec 	00d000b7          	lui	ra,0xd00
0x4bf0 	00b00137          	lui	sp,0xb00
0x4bf4 	0220a1b3          	mulhsu	gp,ra,sp
0x4bf8 	00018313          	mv	t1,gp
0x4bfc 	00120213          	addi	tp,tp,1 # 1 <_start+0x1>
0x4c00 	00200293          	li	t0,2
0x4c04 	fe5214e3          	bne	tp,t0,14ac8 <test_11+0x4>
0x4c08 	00009eb7          	lui	t4,0x9
0x4c0c 	f00e8e93          	addi	t4,t4,-256 # 8f00 <coremarkBenchmark+0x8e58>
0x4c10 	00b00e13          	li	t3,11
0x4c14 	31d31a63          	bne	t1,t4,14e04 <fail>
0x4c18 	00000213          	li	tp,0
0x4c1c 	00e000b7          	lui	ra,0xe00
0x4c20 	00b00137          	lui	sp,0xb00
0x4c24 	0220a1b3          	mulhsu	gp,ra,sp
0x4c28 	00000013          	nop
0x4c2c 	00018313          	mv	t1,gp
0x4c30 	00120213          	addi	tp,tp,1 # 1 <_start+0x1>
0x4c34 	00200293          	li	t0,2
0x4c38 	fe5212e3          	bne	tp,t0,14af8 <test_12+0x4>
0x4c3c 	0000aeb7          	lui	t4,0xa
0x4c40 	a00e8e93          	addi	t4,t4,-1536 # 9a00 <coremarkBenchmark+0x9958>
0x4c44 	00c00e13          	li	t3,12
0x4c48 	2fd31063          	bne	t1,t4,14e04 <fail>
0x4c4c 	00000213          	li	tp,0
0x4c50 	00f000b7          	lui	ra,0xf00
0x4c54 	00b00137          	lui	sp,0xb00
0x4c58 	0220a1b3          	mulhsu	gp,ra,sp
0x4c5c 	00000013          	nop
0x4c60 	00000013          	nop
0x4c64 	00018313          	mv	t1,gp
0x4c68 	00120213          	addi	tp,tp,1 # 1 <_start+0x1>
0x4c6c 	00200293          	li	t0,2
0x4c70 	fe5210e3          	bne	tp,t0,14b2c <test_13+0x4>
0x4c74 	0000aeb7          	lui	t4,0xa
0x4c78 	500e8e93          	addi	t4,t4,1280 # a500 <coremarkBenchmark+0xa458>
0x4c7c 	00d00e13          	li	t3,13
0x4c80 	2bd31463          	bne	t1,t4,14e04 <fail>
0x4c84 	00000213          	li	tp,0
0x4c88 	00d000b7          	lui	ra,0xd00
0x4c8c 	00b00137          	lui	sp,0xb00
0x4c90 	0220a1b3          	mulhsu	gp,ra,sp
0x4c94 	00120213          	addi	tp,tp,1 # 1 <_start+0x1>
0x4c98 	00200293          	li	t0,2
0x4c9c 	fe5216e3          	bne	tp,t0,14b64 <test_14+0x4>
0x4ca0 	00009eb7          	lui	t4,0x9
0x4ca4 	f00e8e93          	addi	t4,t4,-256 # 8f00 <coremarkBenchmark+0x8e58>
0x4ca8 	00e00e13          	li	t3,14
0x4cac 	27d19e63          	bne	gp,t4,14e04 <fail>
0x4cb0 	00000213          	li	tp,0
0x4cb4 	00e000b7          	lui	ra,0xe00
0x4cb8 	00b00137          	lui	sp,0xb00
0x4cbc 	00000013          	nop
0x4cc0 	0220a1b3          	mulhsu	gp,ra,sp
0x4cc4 	00120213          	addi	tp,tp,1 # 1 <_start+0x1>
0x4cc8 	00200293          	li	t0,2
0x4ccc 	fe5214e3          	bne	tp,t0,14b90 <test_15+0x4>
0x4cd0 	0000aeb7          	lui	t4,0xa
0x4cd4 	a00e8e93          	addi	t4,t4,-1536 # 9a00 <coremarkBenchmark+0x9958>
0x4cd8 	00f00e13          	li	t3,15
0x4cdc 	25d19663          	bne	gp,t4,14e04 <fail>
0x4ce0 	00000213          	li	tp,0
0x4ce4 	00f000b7          	lui	ra,0xf00
0x4ce8 	00b00137          	lui	sp,0xb00
0x4cec 	00000013          	nop
0x4cf0 	00000013          	nop
0x4cf4 	0220a1b3          	mulhsu	gp,ra,sp
0x4cf8 	00120213          	addi	tp,tp,1 # 1 <_start+0x1>
0x4cfc 	00200293          	li	t0,2
0x4d00 	fe5212e3          	bne	tp,t0,14bc0 <test_16+0x4>
0x4d04 	0000aeb7          	lui	t4,0xa
0x4d08 	500e8e93          	addi	t4,t4,1280 # a500 <coremarkBenchmark+0xa458>
0x4d0c 	01000e13          	li	t3,16
0x4d10 	21d19c63          	bne	gp,t4,14e04 <fail>
0x4d14 	00000213          	li	tp,0
0x4d18 	00d000b7          	lui	ra,0xd00
0x4d1c 	00000013          	nop
0x4d20 	00b00137          	lui	sp,0xb00
0x4d24 	0220a1b3          	mulhsu	gp,ra,sp
0x4d28 	00120213          	addi	tp,tp,1 # 1 <_start+0x1>
0x4d2c 	00200293          	li	t0,2
0x4d30 	fe5214e3          	bne	tp,t0,14bf4 <test_17+0x4>
0x4d34 	00009eb7          	lui	t4,0x9
0x4d38 	f00e8e93          	addi	t4,t4,-256 # 8f00 <coremarkBenchmark+0x8e58>
0x4d3c 	01100e13          	li	t3,17
0x4d40 	1fd19463          	bne	gp,t4,14e04 <fail>
0x4d44 	00000213          	li	tp,0
0x4d48 	00e000b7          	lui	ra,0xe00
0x4d4c 	00000013          	nop
0x4d50 	00b00137          	lui	sp,0xb00
0x4d54 	00000013          	nop
0x4d58 	0220a1b3          	mulhsu	gp,ra,sp
0x4d5c 	00120213          	addi	tp,tp,1 # 1 <_start+0x1>
0x4d60 	00200293          	li	t0,2
0x4d64 	fe5212e3          	bne	tp,t0,14c24 <test_18+0x4>
0x4d68 	0000aeb7          	lui	t4,0xa
0x4d6c 	a00e8e93          	addi	t4,t4,-1536 # 9a00 <coremarkBenchmark+0x9958>
0x4d70 	01200e13          	li	t3,18
0x4d74 	1bd19a63          	bne	gp,t4,14e04 <fail>
0x4d78 	00000213          	li	tp,0
0x4d7c 	00f000b7          	lui	ra,0xf00
0x4d80 	00000013          	nop
0x4d84 	00000013          	nop
0x4d88 	00b00137          	lui	sp,0xb00
0x4d8c 	0220a1b3          	mulhsu	gp,ra,sp
0x4d90 	00120213          	addi	tp,tp,1 # 1 <_start+0x1>
0x4d94 	00200293          	li	t0,2
0x4d98 	fe5212e3          	bne	tp,t0,14c58 <test_19+0x4>
0x4d9c 	0000aeb7          	lui	t4,0xa
0x4da0 	500e8e93          	addi	t4,t4,1280 # a500 <coremarkBenchmark+0xa458>
0x4da4 	01300e13          	li	t3,19
0x4da8 	19d19063          	bne	gp,t4,14e04 <fail>
0x4dac 	00000213          	li	tp,0
0x4db0 	00b00137          	lui	sp,0xb00
0x4db4 	00d000b7          	lui	ra,0xd00
0x4db8 	0220a1b3          	mulhsu	gp,ra,sp
0x4dbc 	00120213          	addi	tp,tp,1 # 1 <_start+0x1>
0x4dc0 	00200293          	li	t0,2
0x4dc4 	fe5216e3          	bne	tp,t0,14c8c <test_20+0x4>
0x4dc8 	00009eb7          	lui	t4,0x9
0x4dcc 	f00e8e93          	addi	t4,t4,-256 # 8f00 <coremarkBenchmark+0x8e58>
0x4dd0 	01400e13          	li	t3,20
0x4dd4 	15d19a63          	bne	gp,t4,14e04 <fail>
0x4dd8 	00000213          	li	tp,0
0x4ddc 	00b00137          	lui	sp,0xb00
0x4de0 	00e000b7          	lui	ra,0xe00
0x4de4 	00000013          	nop
0x4de8 	0220a1b3          	mulhsu	gp,ra,sp
0x4dec 	00120213          	addi	tp,tp,1 # 1 <_start+0x1>
0x4df0 	00200293          	li	t0,2
0x4df4 	fe5214e3          	bne	tp,t0,14cb8 <test_21+0x4>
0x4df8 	0000aeb7          	lui	t4,0xa
0x4dfc 	a00e8e93          	addi	t4,t4,-1536 # 9a00 <coremarkBenchmark+0x9958>
0x4e00 	01500e13          	li	t3,21
0x4e04 	13d19263          	bne	gp,t4,14e04 <fail>
0x4e08 	00000213          	li	tp,0
0x4e0c 	00b00137          	lui	sp,0xb00
0x4e10 	00f000b7          	lui	ra,0xf00
0x4e14 	00000013          	nop
0x4e18 	00000013          	nop
0x4e1c 	0220a1b3          	mulhsu	gp,ra,sp
0x4e20 	00120213          	addi	tp,tp,1 # 1 <_start+0x1>
0x4e24 	00200293          	li	t0,2
0x4e28 	fe5212e3          	bne	tp,t0,14ce8 <test_22+0x4>
0x4e2c 	0000aeb7          	lui	t4,0xa
0x4e30 	500e8e93          	addi	t4,t4,1280 # a500 <coremarkBenchmark+0xa458>
0x4e34 	01600e13          	li	t3,22
0x4e38 	0fd19863          	bne	gp,t4,14e04 <fail>
0x4e3c 	00000213          	li	tp,0
0x4e40 	00b00137          	lui	sp,0xb00
0x4e44 	00000013          	nop
0x4e48 	00d000b7          	lui	ra,0xd00
0x4e4c 	0220a1b3          	mulhsu	gp,ra,sp
0x4e50 	00120213          	addi	tp,tp,1 # 1 <_start+0x1>
0x4e54 	00200293          	li	t0,2
0x4e58 	fe5214e3          	bne	tp,t0,14d1c <test_23+0x4>
0x4e5c 	00009eb7          	lui	t4,0x9
0x4e60 	f00e8e93          	addi	t4,t4,-256 # 8f00 <coremarkBenchmark+0x8e58>
0x4e64 	01700e13          	li	t3,23
0x4e68 	0dd19063          	bne	gp,t4,14e04 <fail>
0x4e6c 	00000213          	li	tp,0
0x4e70 	00b00137          	lui	sp,0xb00
0x4e74 	00000013          	nop
0x4e78 	00e000b7          	lui	ra,0xe00
0x4e7c 	00000013          	nop
0x4e80 	0220a1b3          	mulhsu	gp,ra,sp
0x4e84 	00120213          	addi	tp,tp,1 # 1 <_start+0x1>
0x4e88 	00200293          	li	t0,2
0x4e8c 	fe5212e3          	bne	tp,t0,14d4c <test_24+0x4>
0x4e90 	0000aeb7          	lui	t4,0xa
0x4e94 	a00e8e93          	addi	t4,t4,-1536 # 9a00 <coremarkBenchmark+0x9958>
0x4e98 	01800e13          	li	t3,24
0x4e9c 	09d19663          	bne	gp,t4,14e04 <fail>
0x4ea0 	00000213          	li	tp,0
0x4ea4 	00b00137          	lui	sp,0xb00
0x4ea8 	00000013          	nop
0x4eac 	00000013          	nop
0x4eb0 	00f000b7          	lui	ra,0xf00
0x4eb4 	0220a1b3          	mulhsu	gp,ra,sp
0x4eb8 	00120213          	addi	tp,tp,1 # 1 <_start+0x1>
0x4ebc 	00200293          	li	t0,2
0x4ec0 	fe5212e3          	bne	tp,t0,14d80 <test_25+0x4>
0x4ec4 	0000aeb7          	lui	t4,0xa
0x4ec8 	500e8e93          	addi	t4,t4,1280 # a500 <coremarkBenchmark+0xa458>
0x4ecc 	01900e13          	li	t3,25
0x4ed0 	05d19c63          	bne	gp,t4,14e04 <fail>
0x4ed4 	7c0000b7          	lui	ra,0x7c000
0x4ed8 	02102133          	mulhsu	sp,zero,ra
0x4edc 	00000e93          	li	t4,0
0x4ee0 	01a00e13          	li	t3,26
0x4ee4 	05d11263          	bne	sp,t4,14e04 <fail>
0x4ee8 	800000b7          	lui	ra,0x80000
0x4eec 	0200a133          	mulhsu	sp,ra,zero
0x4ef0 	00000e93          	li	t4,0
0x4ef4 	01b00e13          	li	t3,27
0x4ef8 	03d11863          	bne	sp,t4,14e04 <fail>
0x4efc 	020020b3          	mulhsu	ra,zero,zero
0x4f00 	00000e93          	li	t4,0
0x4f04 	01c00e13          	li	t3,28
0x4f08 	03d09063          	bne	ra,t4,14e04 <fail>
0x4f0c 	021000b7          	lui	ra,0x2100
0x4f10 	02200137          	lui	sp,0x2200
0x4f14 	0220a033          	mulhsu	zero,ra,sp
0x4f18 	00000e93          	li	t4,0
0x4f1c 	01d00e13          	li	t3,29
0x4f20 	01d01463          	bne	zero,t4,14e04 <fail>
0x4f24 	05c01863          	bne	zero,t3,14e50 <pass>
0x4f28 	04500513          	li	a0,69
0x4f2c 	00004137          	lui	sp,0x4
0x4f30 	37d080ef          	jal	ra,1d988 <printf_c>
0x4f34 	05200513          	li	a0,82
0x4f38 	00004137          	lui	sp,0x4
0x4f3c 	371080ef          	jal	ra,1d988 <printf_c>
0x4f40 	00004137          	lui	sp,0x4
0x4f44 	369080ef          	jal	ra,1d988 <printf_c>
0x4f48 	04f00513          	li	a0,79
0x4f4c 	00004137          	lui	sp,0x4
0x4f50 	35d080ef          	jal	ra,1d988 <printf_c>
0x4f54 	00004137          	lui	sp,0x4
0x4f58 	05200513          	li	a0,82
0x4f5c 	00004137          	lui	sp,0x4
0x4f60 	34d080ef          	jal	ra,1d988 <printf_c>
0x4f64 	00a00513          	li	a0,10
0x4f68 	00004137          	lui	sp,0x4
0x4f6c 	341080ef          	jal	ra,1d988 <printf_c>
0x4f70 	0340006f          	j	14e80 <mulhu>
0x4f74 	04f00513          	li	a0,79
0x4f78 	00004137          	lui	sp,0x4
0x4f7c 	331080ef          	jal	ra,1d988 <printf_c>
0x4f80 	04b00513          	li	a0,75
0x4f84 	00004137          	lui	sp,0x4
0x4f88 	325080ef          	jal	ra,1d988 <printf_c>
0x4f8c 	00a00513          	li	a0,10
0x4f90 	00004137          	lui	sp,0x4
0x4f94 	319080ef          	jal	ra,1d988 <printf_c>
0x4f98 	00c0006f          	j	14e80 <mulhu>
0x4f9c 	756d                	lui	a0,0xffffb
0x4fa0 	686c                	flw	fa1,84(s0)
0x4fa4 	0975                	addi	s2,s2,29
0x4fa8 	00015537          	lui	a0,0x15
0x4fac 	e7850513          	addi	a0,a0,-392 # 14e78 <.test_name>
0x4fb0 	00004137          	lui	sp,0x4
0x4fb4 	315080ef          	jal	ra,1d9a0 <printf_s>
0x4fb8 	00000093          	li	ra,0
0x4fbc 	00000113          	li	sp,0
0x4fc0 	0220b1b3          	mulhu	gp,ra,sp
0x4fc4 	00000e93          	li	t4,0
0x4fc8 	00200e13          	li	t3,2
0x4fcc 	4bd19a63          	bne	gp,t4,15358 <fail>
0x4fd0 	00100093          	li	ra,1
0x4fd4 	00100113          	li	sp,1
0x4fd8 	0220b1b3          	mulhu	gp,ra,sp
0x4fdc 	00000e93          	li	t4,0
0x4fe0 	00300e13          	li	t3,3
0x4fe4 	49d19e63          	bne	gp,t4,15358 <fail>
0x4fe8 	00300093          	li	ra,3
0x4fec 	00700113          	li	sp,7
0x4ff0 	0220b1b3          	mulhu	gp,ra,sp
0x4ff4 	00000e93          	li	t4,0
0x4ff8 	00400e13          	li	t3,4
0x4ffc 	49d19263          	bne	gp,t4,15358 <fail>
0x5000 	00000093          	li	ra,0
0x5004 	ffff8137          	lui	sp,0xffff8
0x5008 	0220b1b3          	mulhu	gp,ra,sp
0x500c 	00000e93          	li	t4,0
0x5010 	00500e13          	li	t3,5
0x5014 	47d19663          	bne	gp,t4,15358 <fail>
0x5018 	800000b7          	lui	ra,0x80000
0x501c 	00000113          	li	sp,0
0x5020 	0220b1b3          	mulhu	gp,ra,sp
0x5024 	00000e93          	li	t4,0
0x5028 	00600e13          	li	t3,6
0x502c 	45d19a63          	bne	gp,t4,15358 <fail>
0x5030 	800000b7          	lui	ra,0x80000
0x5034 	ffff8137          	lui	sp,0xffff8
0x5038 	0220b1b3          	mulhu	gp,ra,sp
0x503c 	7fffceb7          	lui	t4,0x7fffc
0x5040 	00700e13          	li	t3,7
0x5044 	43d19e63          	bne	gp,t4,15358 <fail>
0x5048 	aaaab0b7          	lui	ra,0xaaaab
0x504c 	aab08093          	addi	ra,ra,-1365 # aaaaaaab <heap_memory_used+0xaaa88cd3>
0x5050 	00030137          	lui	sp,0x30
0x5054 	e7d10113          	addi	sp,sp,-387 # 2fe7d <heap_memory_used+0xe0a5>
0x5058 	0220b1b3          	mulhu	gp,ra,sp
0x505c 	00020eb7          	lui	t4,0x20
0x5060 	efee8e93          	addi	t4,t4,-258 # 1fefe <Arr_2_Glob+0xd3a>
0x5064 	01e00e13          	li	t3,30
0x5068 	41d19c63          	bne	gp,t4,15358 <fail>
0x506c 	000300b7          	lui	ra,0x30
0x5070 	e7d08093          	addi	ra,ra,-387 # 2fe7d <heap_memory_used+0xe0a5>
0x5074 	aaaab137          	lui	sp,0xaaaab
0x5078 	aab10113          	addi	sp,sp,-1365 # aaaaaaab <heap_memory_used+0xaaa88cd3>
0x507c 	0220b1b3          	mulhu	gp,ra,sp
0x5080 	00020eb7          	lui	t4,0x20
0x5084 	efee8e93          	addi	t4,t4,-258 # 1fefe <Arr_2_Glob+0xd3a>
0x5088 	01f00e13          	li	t3,31
0x508c 	3fd19a63          	bne	gp,t4,15358 <fail>
0x5090 	ff0000b7          	lui	ra,0xff000
0x5094 	ff000137          	lui	sp,0xff000
0x5098 	0220b1b3          	mulhu	gp,ra,sp
0x509c 	fe010eb7          	lui	t4,0xfe010
0x50a0 	02000e13          	li	t3,32
0x50a4 	3dd19e63          	bne	gp,t4,15358 <fail>
0x50a8 	fff00093          	li	ra,-1
0x50ac 	fff00113          	li	sp,-1
0x50b0 	0220b1b3          	mulhu	gp,ra,sp
0x50b4 	ffe00e93          	li	t4,-2
0x50b8 	02100e13          	li	t3,33
0x50bc 	3dd19263          	bne	gp,t4,15358 <fail>
0x50c0 	fff00093          	li	ra,-1
0x50c4 	00100113          	li	sp,1
0x50c8 	0220b1b3          	mulhu	gp,ra,sp
0x50cc 	00000e93          	li	t4,0
0x50d0 	02200e13          	li	t3,34
0x50d4 	3bd19663          	bne	gp,t4,15358 <fail>
0x50d8 	00100093          	li	ra,1
0x50dc 	fff00113          	li	sp,-1
0x50e0 	0220b1b3          	mulhu	gp,ra,sp
0x50e4 	00000e93          	li	t4,0
0x50e8 	02300e13          	li	t3,35
0x50ec 	39d19a63          	bne	gp,t4,15358 <fail>
0x50f0 	00d000b7          	lui	ra,0xd00
0x50f4 	00b00137          	lui	sp,0xb00
0x50f8 	0220b0b3          	mulhu	ra,ra,sp
0x50fc 	00009eb7          	lui	t4,0x9
0x5100 	f00e8e93          	addi	t4,t4,-256 # 8f00 <coremarkBenchmark+0x8e58>
0x5104 	00800e13          	li	t3,8
0x5108 	37d09c63          	bne	ra,t4,15358 <fail>
0x510c 	00e000b7          	lui	ra,0xe00
0x5110 	00b00137          	lui	sp,0xb00
0x5114 	0220b133          	mulhu	sp,ra,sp
0x5118 	0000aeb7          	lui	t4,0xa
0x511c 	a00e8e93          	addi	t4,t4,-1536 # 9a00 <coremarkBenchmark+0x9958>
0x5120 	00900e13          	li	t3,9
0x5124 	35d11e63          	bne	sp,t4,15358 <fail>
0x5128 	00d000b7          	lui	ra,0xd00
0x512c 	0210b0b3          	mulhu	ra,ra,ra
0x5130 	0000beb7          	lui	t4,0xb
0x5134 	900e8e93          	addi	t4,t4,-1792 # a900 <coremarkBenchmark+0xa858>
0x5138 	00a00e13          	li	t3,10
0x513c 	35d09263          	bne	ra,t4,15358 <fail>
0x5140 	00000213          	li	tp,0
0x5144 	00d000b7          	lui	ra,0xd00
0x5148 	00b00137          	lui	sp,0xb00
0x514c 	0220b1b3          	mulhu	gp,ra,sp
0x5150 	00018313          	mv	t1,gp
0x5154 	00120213          	addi	tp,tp,1 # 1 <_start+0x1>
0x5158 	00200293          	li	t0,2
0x515c 	fe5214e3          	bne	tp,t0,1501c <test_11+0x4>
0x5160 	00009eb7          	lui	t4,0x9
0x5164 	f00e8e93          	addi	t4,t4,-256 # 8f00 <coremarkBenchmark+0x8e58>
0x5168 	00b00e13          	li	t3,11
0x516c 	31d31a63          	bne	t1,t4,15358 <fail>
0x5170 	00000213          	li	tp,0
0x5174 	00e000b7          	lui	ra,0xe00
0x5178 	00b00137          	lui	sp,0xb00
0x517c 	0220b1b3          	mulhu	gp,ra,sp
0x5180 	00000013          	nop
0x5184 	00018313          	mv	t1,gp
0x5188 	00120213          	addi	tp,tp,1 # 1 <_start+0x1>
0x518c 	00200293          	li	t0,2
0x5190 	fe5212e3          	bne	tp,t0,1504c <test_12+0x4>
0x5194 	0000aeb7          	lui	t4,0xa
0x5198 	a00e8e93          	addi	t4,t4,-1536 # 9a00 <coremarkBenchmark+0x9958>
0x519c 	00c00e13          	li	t3,12
0x51a0 	2fd31063          	bne	t1,t4,15358 <fail>
0x51a4 	00000213          	li	tp,0
0x51a8 	00f000b7          	lui	ra,0xf00
0x51ac 	00b00137          	lui	sp,0xb00
0x51b0 	0220b1b3          	mulhu	gp,ra,sp
0x51b4 	00000013          	nop
0x51b8 	00000013          	nop
0x51bc 	00018313          	mv	t1,gp
0x51c0 	00120213          	addi	tp,tp,1 # 1 <_start+0x1>
0x51c4 	00200293          	li	t0,2
0x51c8 	fe5210e3          	bne	tp,t0,15080 <test_13+0x4>
0x51cc 	0000aeb7          	lui	t4,0xa
0x51d0 	500e8e93          	addi	t4,t4,1280 # a500 <coremarkBenchmark+0xa458>
0x51d4 	00d00e13          	li	t3,13
0x51d8 	2bd31463          	bne	t1,t4,15358 <fail>
0x51dc 	00000213          	li	tp,0
0x51e0 	00d000b7          	lui	ra,0xd00
0x51e4 	00b00137          	lui	sp,0xb00
0x51e8 	0220b1b3          	mulhu	gp,ra,sp
0x51ec 	00120213          	addi	tp,tp,1 # 1 <_start+0x1>
0x51f0 	00200293          	li	t0,2
0x51f4 	fe5216e3          	bne	tp,t0,150b8 <test_14+0x4>
0x51f8 	00009eb7          	lui	t4,0x9
0x51fc 	f00e8e93          	addi	t4,t4,-256 # 8f00 <coremarkBenchmark+0x8e58>
0x5200 	00e00e13          	li	t3,14
0x5204 	27d19e63          	bne	gp,t4,15358 <fail>
0x5208 	00000213          	li	tp,0
0x520c 	00e000b7          	lui	ra,0xe00
0x5210 	00b00137          	lui	sp,0xb00
0x5214 	00000013          	nop
0x5218 	0220b1b3          	mulhu	gp,ra,sp
0x521c 	00120213          	addi	tp,tp,1 # 1 <_start+0x1>
0x5220 	00200293          	li	t0,2
0x5224 	fe5214e3          	bne	tp,t0,150e4 <test_15+0x4>
0x5228 	0000aeb7          	lui	t4,0xa
0x522c 	a00e8e93          	addi	t4,t4,-1536 # 9a00 <coremarkBenchmark+0x9958>
0x5230 	00f00e13          	li	t3,15
0x5234 	25d19663          	bne	gp,t4,15358 <fail>
0x5238 	00000213          	li	tp,0
0x523c 	00f000b7          	lui	ra,0xf00
0x5240 	00b00137          	lui	sp,0xb00
0x5244 	00000013          	nop
0x5248 	00000013          	nop
0x524c 	0220b1b3          	mulhu	gp,ra,sp
0x5250 	00120213          	addi	tp,tp,1 # 1 <_start+0x1>
0x5254 	00200293          	li	t0,2
0x5258 	fe5212e3          	bne	tp,t0,15114 <test_16+0x4>
0x525c 	0000aeb7          	lui	t4,0xa
0x5260 	500e8e93          	addi	t4,t4,1280 # a500 <coremarkBenchmark+0xa458>
0x5264 	01000e13          	li	t3,16
0x5268 	21d19c63          	bne	gp,t4,15358 <fail>
0x526c 	00000213          	li	tp,0
0x5270 	00d000b7          	lui	ra,0xd00
0x5274 	00000013          	nop
0x5278 	00b00137          	lui	sp,0xb00
0x527c 	0220b1b3          	mulhu	gp,ra,sp
0x5280 	00120213          	addi	tp,tp,1 # 1 <_start+0x1>
0x5284 	00200293          	li	t0,2
0x5288 	fe5214e3          	bne	tp,t0,15148 <test_17+0x4>
0x528c 	00009eb7          	lui	t4,0x9
0x5290 	f00e8e93          	addi	t4,t4,-256 # 8f00 <coremarkBenchmark+0x8e58>
0x5294 	01100e13          	li	t3,17
0x5298 	1fd19463          	bne	gp,t4,15358 <fail>
0x529c 	00000213          	li	tp,0
0x52a0 	00e000b7          	lui	ra,0xe00
0x52a4 	00000013          	nop
0x52a8 	00b00137          	lui	sp,0xb00
0x52ac 	00000013          	nop
0x52b0 	0220b1b3          	mulhu	gp,ra,sp
0x52b4 	00120213          	addi	tp,tp,1 # 1 <_start+0x1>
0x52b8 	00200293          	li	t0,2
0x52bc 	fe5212e3          	bne	tp,t0,15178 <test_18+0x4>
0x52c0 	0000aeb7          	lui	t4,0xa
0x52c4 	a00e8e93          	addi	t4,t4,-1536 # 9a00 <coremarkBenchmark+0x9958>
0x52c8 	01200e13          	li	t3,18
0x52cc 	1bd19a63          	bne	gp,t4,15358 <fail>
0x52d0 	00000213          	li	tp,0
0x52d4 	00f000b7          	lui	ra,0xf00
0x52d8 	00000013          	nop
0x52dc 	00000013          	nop
0x52e0 	00b00137          	lui	sp,0xb00
0x52e4 	0220b1b3          	mulhu	gp,ra,sp
0x52e8 	00120213          	addi	tp,tp,1 # 1 <_start+0x1>
0x52ec 	00200293          	li	t0,2
0x52f0 	fe5212e3          	bne	tp,t0,151ac <test_19+0x4>
0x52f4 	0000aeb7          	lui	t4,0xa
0x52f8 	500e8e93          	addi	t4,t4,1280 # a500 <coremarkBenchmark+0xa458>
0x52fc 	01300e13          	li	t3,19
0x5300 	19d19063          	bne	gp,t4,15358 <fail>
0x5304 	00000213          	li	tp,0
0x5308 	00b00137          	lui	sp,0xb00
0x530c 	00d000b7          	lui	ra,0xd00
0x5310 	0220b1b3          	mulhu	gp,ra,sp
0x5314 	00120213          	addi	tp,tp,1 # 1 <_start+0x1>
0x5318 	00200293          	li	t0,2
0x531c 	fe5216e3          	bne	tp,t0,151e0 <test_20+0x4>
0x5320 	00009eb7          	lui	t4,0x9
0x5324 	f00e8e93          	addi	t4,t4,-256 # 8f00 <coremarkBenchmark+0x8e58>
0x5328 	01400e13          	li	t3,20
0x532c 	15d19a63          	bne	gp,t4,15358 <fail>
0x5330 	00000213          	li	tp,0
0x5334 	00b00137          	lui	sp,0xb00
0x5338 	00e000b7          	lui	ra,0xe00
0x533c 	00000013          	nop
0x5340 	0220b1b3          	mulhu	gp,ra,sp
0x5344 	00120213          	addi	tp,tp,1 # 1 <_start+0x1>
0x5348 	00200293          	li	t0,2
0x534c 	fe5214e3          	bne	tp,t0,1520c <test_21+0x4>
0x5350 	0000aeb7          	lui	t4,0xa
0x5354 	a00e8e93          	addi	t4,t4,-1536 # 9a00 <coremarkBenchmark+0x9958>
0x5358 	01500e13          	li	t3,21
0x535c 	13d19263          	bne	gp,t4,15358 <fail>
0x5360 	00000213          	li	tp,0
0x5364 	00b00137          	lui	sp,0xb00
0x5368 	00f000b7          	lui	ra,0xf00
0x536c 	00000013          	nop
0x5370 	00000013          	nop
0x5374 	0220b1b3          	mulhu	gp,ra,sp
0x5378 	00120213          	addi	tp,tp,1 # 1 <_start+0x1>
0x537c 	00200293          	li	t0,2
0x5380 	fe5212e3          	bne	tp,t0,1523c <test_22+0x4>
0x5384 	0000aeb7          	lui	t4,0xa
0x5388 	500e8e93          	addi	t4,t4,1280 # a500 <coremarkBenchmark+0xa458>
0x538c 	01600e13          	li	t3,22
0x5390 	0fd19863          	bne	gp,t4,15358 <fail>
0x5394 	00000213          	li	tp,0
0x5398 	00b00137          	lui	sp,0xb00
0x539c 	00000013          	nop
0x53a0 	00d000b7          	lui	ra,0xd00
0x53a4 	0220b1b3          	mulhu	gp,ra,sp
0x53a8 	00120213          	addi	tp,tp,1 # 1 <_start+0x1>
0x53ac 	00200293          	li	t0,2
0x53b0 	fe5214e3          	bne	tp,t0,15270 <test_23+0x4>
0x53b4 	00009eb7          	lui	t4,0x9
0x53b8 	f00e8e93          	addi	t4,t4,-256 # 8f00 <coremarkBenchmark+0x8e58>
0x53bc 	01700e13          	li	t3,23
0x53c0 	0dd19063          	bne	gp,t4,15358 <fail>
0x53c4 	00000213          	li	tp,0
0x53c8 	00b00137          	lui	sp,0xb00
0x53cc 	00000013          	nop
0x53d0 	00e000b7          	lui	ra,0xe00
0x53d4 	00000013          	nop
0x53d8 	0220b1b3          	mulhu	gp,ra,sp
0x53dc 	00120213          	addi	tp,tp,1 # 1 <_start+0x1>
0x53e0 	00200293          	li	t0,2
0x53e4 	fe5212e3          	bne	tp,t0,152a0 <test_24+0x4>
0x53e8 	0000aeb7          	lui	t4,0xa
0x53ec 	a00e8e93          	addi	t4,t4,-1536 # 9a00 <coremarkBenchmark+0x9958>
0x53f0 	01800e13          	li	t3,24
0x53f4 	09d19663          	bne	gp,t4,15358 <fail>
0x53f8 	00000213          	li	tp,0
0x53fc 	00b00137          	lui	sp,0xb00
0x5400 	00000013          	nop
0x5404 	00000013          	nop
0x5408 	00f000b7          	lui	ra,0xf00
0x540c 	0220b1b3          	mulhu	gp,ra,sp
0x5410 	00120213          	addi	tp,tp,1 # 1 <_start+0x1>
0x5414 	00200293          	li	t0,2
0x5418 	fe5212e3          	bne	tp,t0,152d4 <test_25+0x4>
0x541c 	0000aeb7          	lui	t4,0xa
0x5420 	500e8e93          	addi	t4,t4,1280 # a500 <coremarkBenchmark+0xa458>
0x5424 	01900e13          	li	t3,25
0x5428 	05d19c63          	bne	gp,t4,15358 <fail>
0x542c 	7c0000b7          	lui	ra,0x7c000
0x5430 	02103133          	mulhu	sp,zero,ra
0x5434 	00000e93          	li	t4,0
0x5438 	01a00e13          	li	t3,26
0x543c 	05d11263          	bne	sp,t4,15358 <fail>
0x5440 	800000b7          	lui	ra,0x80000
0x5444 	0200b133          	mulhu	sp,ra,zero
0x5448 	00000e93          	li	t4,0
0x544c 	01b00e13          	li	t3,27
0x5450 	03d11863          	bne	sp,t4,15358 <fail>
0x5454 	020030b3          	mulhu	ra,zero,zero
0x5458 	00000e93          	li	t4,0
0x545c 	01c00e13          	li	t3,28
0x5460 	03d09063          	bne	ra,t4,15358 <fail>
0x5464 	021000b7          	lui	ra,0x2100
0x5468 	02200137          	lui	sp,0x2200
0x546c 	0220b033          	mulhu	zero,ra,sp
0x5470 	00000e93          	li	t4,0
0x5474 	01d00e13          	li	t3,29
0x5478 	01d01463          	bne	zero,t4,15358 <fail>
0x547c 	05c01863          	bne	zero,t3,153a4 <pass>
0x5480 	04500513          	li	a0,69
0x5484 	00004137          	lui	sp,0x4
0x5488 	628080ef          	jal	ra,1d988 <printf_c>
0x548c 	05200513          	li	a0,82
0x5490 	00004137          	lui	sp,0x4
0x5494 	61c080ef          	jal	ra,1d988 <printf_c>
0x5498 	00004137          	lui	sp,0x4
0x549c 	614080ef          	jal	ra,1d988 <printf_c>
0x54a0 	04f00513          	li	a0,79
0x54a4 	00004137          	lui	sp,0x4
0x54a8 	608080ef          	jal	ra,1d988 <printf_c>
0x54ac 	00004137          	lui	sp,0x4
0x54b0 	05200513          	li	a0,82
0x54b4 	00004137          	lui	sp,0x4
0x54b8 	5f8080ef          	jal	ra,1d988 <printf_c>
0x54bc 	00a00513          	li	a0,10
0x54c0 	00004137          	lui	sp,0x4
0x54c4 	5ec080ef          	jal	ra,1d988 <printf_c>
0x54c8 	c6cfd06f          	j	1280c <div>
0x54cc 	04f00513          	li	a0,79
0x54d0 	00004137          	lui	sp,0x4
0x54d4 	5dc080ef          	jal	ra,1d988 <printf_c>
0x54d8 	04b00513          	li	a0,75
0x54dc 	00004137          	lui	sp,0x4
0x54e0 	5d0080ef          	jal	ra,1d988 <printf_c>
0x54e4 	00a00513          	li	a0,10
0x54e8 	00004137          	lui	sp,0x4
0x54ec 	5c4080ef          	jal	ra,1d988 <printf_c>
0x54f0 	c44fd06f          	j	1280c <div>
0x54f4 	0009726f          	jal	tp,ac3cc <heap_memory_used+0x8a5f4>
0x54f8 	00015537          	lui	a0,0x15
0x54fc 	3cc50513          	addi	a0,a0,972 # 153cc <.test_name>
0x5500 	00004137          	lui	sp,0x4
0x5504 	5c4080ef          	jal	ra,1d9a0 <printf_s>
0x5508 	ff0100b7          	lui	ra,0xff010
0x550c 	f0008093          	addi	ra,ra,-256 # ff00ff00 <heap_memory_used+0xfefee128>
0x5510 	0f0f1137          	lui	sp,0xf0f1
0x5514 	f0f10113          	addi	sp,sp,-241 # f0f0f0f <heap_memory_used+0xf0cf137>
0x5518 	0020e1b3          	or	gp,ra,sp
0x551c 	ff100eb7          	lui	t4,0xff100
0x5520 	f0fe8e93          	addi	t4,t4,-241 # ff0fff0f <heap_memory_used+0xff0de137>
0x5524 	00200e13          	li	t3,2
0x5528 	4bd19263          	bne	gp,t4,158a4 <fail>
0x552c 	0ff010b7          	lui	ra,0xff01
0x5530 	ff008093          	addi	ra,ra,-16 # ff00ff0 <heap_memory_used+0xfedf218>
0x5534 	f0f0f137          	lui	sp,0xf0f0f
0x5538 	0f010113          	addi	sp,sp,240 # f0f0f0f0 <heap_memory_used+0xf0eed318>
0x553c 	0020e1b3          	or	gp,ra,sp
0x5540 	fff10eb7          	lui	t4,0xfff10
0x5544 	ff0e8e93          	addi	t4,t4,-16 # fff0fff0 <heap_memory_used+0xffeee218>
0x5548 	00300e13          	li	t3,3
0x554c 	49d19063          	bne	gp,t4,158a4 <fail>
0x5550 	00ff00b7          	lui	ra,0xff0
0x5554 	0ff08093          	addi	ra,ra,255 # ff00ff <heap_memory_used+0xfce327>
0x5558 	0f0f1137          	lui	sp,0xf0f1
0x555c 	f0f10113          	addi	sp,sp,-241 # f0f0f0f <heap_memory_used+0xf0cf137>
0x5560 	0020e1b3          	or	gp,ra,sp
0x5564 	0fff1eb7          	lui	t4,0xfff1
0x5568 	fffe8e93          	addi	t4,t4,-1 # fff0fff <heap_memory_used+0xffcf227>
0x556c 	00400e13          	li	t3,4
0x5570 	45d19e63          	bne	gp,t4,158a4 <fail>
0x5574 	f00ff0b7          	lui	ra,0xf00ff
0x5578 	00f08093          	addi	ra,ra,15 # f00ff00f <heap_memory_used+0xf00dd237>
0x557c 	f0f0f137          	lui	sp,0xf0f0f
0x5580 	0f010113          	addi	sp,sp,240 # f0f0f0f0 <heap_memory_used+0xf0eed318>
0x5584 	0020e1b3          	or	gp,ra,sp
0x5588 	f0fffeb7          	lui	t4,0xf0fff
0x558c 	0ffe8e93          	addi	t4,t4,255 # f0fff0ff <heap_memory_used+0xf0fdd327>
0x5590 	00500e13          	li	t3,5
0x5594 	43d19c63          	bne	gp,t4,158a4 <fail>
0x5598 	ff0100b7          	lui	ra,0xff010
0x559c 	f0008093          	addi	ra,ra,-256 # ff00ff00 <heap_memory_used+0xfefee128>
0x55a0 	0f0f1137          	lui	sp,0xf0f1
0x55a4 	f0f10113          	addi	sp,sp,-241 # f0f0f0f <heap_memory_used+0xf0cf137>
0x55a8 	0020e0b3          	or	ra,ra,sp
0x55ac 	ff100eb7          	lui	t4,0xff100
0x55b0 	f0fe8e93          	addi	t4,t4,-241 # ff0fff0f <heap_memory_used+0xff0de137>
0x55b4 	00600e13          	li	t3,6
0x55b8 	41d09a63          	bne	ra,t4,158a4 <fail>
0x55bc 	ff0100b7          	lui	ra,0xff010
0x55c0 	f0008093          	addi	ra,ra,-256 # ff00ff00 <heap_memory_used+0xfefee128>
0x55c4 	0f0f1137          	lui	sp,0xf0f1
0x55c8 	f0f10113          	addi	sp,sp,-241 # f0f0f0f <heap_memory_used+0xf0cf137>
0x55cc 	0020e133          	or	sp,ra,sp
0x55d0 	ff100eb7          	lui	t4,0xff100
0x55d4 	f0fe8e93          	addi	t4,t4,-241 # ff0fff0f <heap_memory_used+0xff0de137>
0x55d8 	00700e13          	li	t3,7
0x55dc 	3fd11863          	bne	sp,t4,158a4 <fail>
0x55e0 	ff0100b7          	lui	ra,0xff010
0x55e4 	f0008093          	addi	ra,ra,-256 # ff00ff00 <heap_memory_used+0xfefee128>
0x55e8 	0010e0b3          	or	ra,ra,ra
0x55ec 	ff010eb7          	lui	t4,0xff010
0x55f0 	f00e8e93          	addi	t4,t4,-256 # ff00ff00 <heap_memory_used+0xfefee128>
0x55f4 	00800e13          	li	t3,8
0x55f8 	3dd09a63          	bne	ra,t4,158a4 <fail>
0x55fc 	00000213          	li	tp,0
0x5600 	ff0100b7          	lui	ra,0xff010
0x5604 	f0008093          	addi	ra,ra,-256 # ff00ff00 <heap_memory_used+0xfefee128>
0x5608 	0f0f1137          	lui	sp,0xf0f1
0x560c 	f0f10113          	addi	sp,sp,-241 # f0f0f0f <heap_memory_used+0xf0cf137>
0x5610 	0020e1b3          	or	gp,ra,sp
0x5614 	00018313          	mv	t1,gp
0x5618 	00120213          	addi	tp,tp,1 # 1 <_start+0x1>
0x561c 	00200293          	li	t0,2
0x5620 	fe5210e3          	bne	tp,t0,154d8 <test_9+0x4>
0x5624 	ff100eb7          	lui	t4,0xff100
0x5628 	f0fe8e93          	addi	t4,t4,-241 # ff0fff0f <heap_memory_used+0xff0de137>
0x562c 	00900e13          	li	t3,9
0x5630 	39d31e63          	bne	t1,t4,158a4 <fail>
0x5634 	00000213          	li	tp,0
0x5638 	0ff010b7          	lui	ra,0xff01
0x563c 	ff008093          	addi	ra,ra,-16 # ff00ff0 <heap_memory_used+0xfedf218>
0x5640 	f0f0f137          	lui	sp,0xf0f0f
0x5644 	0f010113          	addi	sp,sp,240 # f0f0f0f0 <heap_memory_used+0xf0eed318>
0x5648 	0020e1b3          	or	gp,ra,sp
0x564c 	00000013          	nop
0x5650 	00018313          	mv	t1,gp
0x5654 	00120213          	addi	tp,tp,1 # 1 <_start+0x1>
0x5658 	00200293          	li	t0,2
0x565c 	fc521ee3          	bne	tp,t0,15510 <test_10+0x4>
0x5660 	fff10eb7          	lui	t4,0xfff10
0x5664 	ff0e8e93          	addi	t4,t4,-16 # fff0fff0 <heap_memory_used+0xffeee218>
0x5668 	00a00e13          	li	t3,10
0x566c 	37d31063          	bne	t1,t4,158a4 <fail>
0x5670 	00000213          	li	tp,0
0x5674 	00ff00b7          	lui	ra,0xff0
0x5678 	0ff08093          	addi	ra,ra,255 # ff00ff <heap_memory_used+0xfce327>
0x567c 	0f0f1137          	lui	sp,0xf0f1
0x5680 	f0f10113          	addi	sp,sp,-241 # f0f0f0f <heap_memory_used+0xf0cf137>
0x5684 	0020e1b3          	or	gp,ra,sp
0x5688 	00000013          	nop
0x568c 	00000013          	nop
0x5690 	00018313          	mv	t1,gp
0x5694 	00120213          	addi	tp,tp,1 # 1 <_start+0x1>
0x5698 	00200293          	li	t0,2
0x569c 	fc521ce3          	bne	tp,t0,1554c <test_11+0x4>
0x56a0 	0fff1eb7          	lui	t4,0xfff1
0x56a4 	fffe8e93          	addi	t4,t4,-1 # fff0fff <heap_memory_used+0xffcf227>
0x56a8 	00b00e13          	li	t3,11
0x56ac 	33d31063          	bne	t1,t4,158a4 <fail>
0x56b0 	00000213          	li	tp,0
0x56b4 	ff0100b7          	lui	ra,0xff010
0x56b8 	f0008093          	addi	ra,ra,-256 # ff00ff00 <heap_memory_used+0xfefee128>
0x56bc 	0f0f1137          	lui	sp,0xf0f1
0x56c0 	f0f10113          	addi	sp,sp,-241 # f0f0f0f <heap_memory_used+0xf0cf137>
0x56c4 	0020e1b3          	or	gp,ra,sp
0x56c8 	00120213          	addi	tp,tp,1 # 1 <_start+0x1>
0x56cc 	00200293          	li	t0,2
0x56d0 	fe5212e3          	bne	tp,t0,1558c <test_12+0x4>
0x56d4 	ff100eb7          	lui	t4,0xff100
0x56d8 	f0fe8e93          	addi	t4,t4,-241 # ff0fff0f <heap_memory_used+0xff0de137>
0x56dc 	00c00e13          	li	t3,12
0x56e0 	2fd19663          	bne	gp,t4,158a4 <fail>
0x56e4 	00000213          	li	tp,0
0x56e8 	0ff010b7          	lui	ra,0xff01
0x56ec 	ff008093          	addi	ra,ra,-16 # ff00ff0 <heap_memory_used+0xfedf218>
0x56f0 	f0f0f137          	lui	sp,0xf0f0f
0x56f4 	0f010113          	addi	sp,sp,240 # f0f0f0f0 <heap_memory_used+0xf0eed318>
0x56f8 	00000013          	nop
0x56fc 	0020e1b3          	or	gp,ra,sp
0x5700 	00120213          	addi	tp,tp,1 # 1 <_start+0x1>
0x5704 	00200293          	li	t0,2
0x5708 	fe5210e3          	bne	tp,t0,155c0 <test_13+0x4>
0x570c 	fff10eb7          	lui	t4,0xfff10
0x5710 	ff0e8e93          	addi	t4,t4,-16 # fff0fff0 <heap_memory_used+0xffeee218>
0x5714 	00d00e13          	li	t3,13
0x5718 	2bd19a63          	bne	gp,t4,158a4 <fail>
0x571c 	00000213          	li	tp,0
0x5720 	00ff00b7          	lui	ra,0xff0
0x5724 	0ff08093          	addi	ra,ra,255 # ff00ff <heap_memory_used+0xfce327>
0x5728 	0f0f1137          	lui	sp,0xf0f1
0x572c 	f0f10113          	addi	sp,sp,-241 # f0f0f0f <heap_memory_used+0xf0cf137>
0x5730 	00000013          	nop
0x5734 	00000013          	nop
0x5738 	0020e1b3          	or	gp,ra,sp
0x573c 	00120213          	addi	tp,tp,1 # 1 <_start+0x1>
0x5740 	00200293          	li	t0,2
0x5744 	fc521ee3          	bne	tp,t0,155f8 <test_14+0x4>
0x5748 	0fff1eb7          	lui	t4,0xfff1
0x574c 	fffe8e93          	addi	t4,t4,-1 # fff0fff <heap_memory_used+0xffcf227>
0x5750 	00e00e13          	li	t3,14
0x5754 	27d19c63          	bne	gp,t4,158a4 <fail>
0x5758 	00000213          	li	tp,0
0x575c 	ff0100b7          	lui	ra,0xff010
0x5760 	f0008093          	addi	ra,ra,-256 # ff00ff00 <heap_memory_used+0xfefee128>
0x5764 	00000013          	nop
0x5768 	0f0f1137          	lui	sp,0xf0f1
0x576c 	f0f10113          	addi	sp,sp,-241 # f0f0f0f <heap_memory_used+0xf0cf137>
0x5770 	0020e1b3          	or	gp,ra,sp
0x5774 	00120213          	addi	tp,tp,1 # 1 <_start+0x1>
0x5778 	00200293          	li	t0,2
0x577c 	fe5210e3          	bne	tp,t0,15634 <test_15+0x4>
0x5780 	ff100eb7          	lui	t4,0xff100
0x5784 	f0fe8e93          	addi	t4,t4,-241 # ff0fff0f <heap_memory_used+0xff0de137>
0x5788 	00f00e13          	li	t3,15
0x578c 	25d19063          	bne	gp,t4,158a4 <fail>
0x5790 	00000213          	li	tp,0
0x5794 	0ff010b7          	lui	ra,0xff01
0x5798 	ff008093          	addi	ra,ra,-16 # ff00ff0 <heap_memory_used+0xfedf218>
0x579c 	00000013          	nop
0x57a0 	f0f0f137          	lui	sp,0xf0f0f
0x57a4 	0f010113          	addi	sp,sp,240 # f0f0f0f0 <heap_memory_used+0xf0eed318>
0x57a8 	00000013          	nop
0x57ac 	0020e1b3          	or	gp,ra,sp
0x57b0 	00120213          	addi	tp,tp,1 # 1 <_start+0x1>
0x57b4 	00200293          	li	t0,2
0x57b8 	fc521ee3          	bne	tp,t0,1566c <test_16+0x4>
0x57bc 	fff10eb7          	lui	t4,0xfff10
0x57c0 	ff0e8e93          	addi	t4,t4,-16 # fff0fff0 <heap_memory_used+0xffeee218>
0x57c4 	01000e13          	li	t3,16
0x57c8 	21d19263          	bne	gp,t4,158a4 <fail>
0x57cc 	00000213          	li	tp,0
0x57d0 	00ff00b7          	lui	ra,0xff0
0x57d4 	0ff08093          	addi	ra,ra,255 # ff00ff <heap_memory_used+0xfce327>
0x57d8 	00000013          	nop
0x57dc 	00000013          	nop
0x57e0 	0f0f1137          	lui	sp,0xf0f1
0x57e4 	f0f10113          	addi	sp,sp,-241 # f0f0f0f <heap_memory_used+0xf0cf137>
0x57e8 	0020e1b3          	or	gp,ra,sp
0x57ec 	00120213          	addi	tp,tp,1 # 1 <_start+0x1>
0x57f0 	00200293          	li	t0,2
0x57f4 	fc521ee3          	bne	tp,t0,156a8 <test_17+0x4>
0x57f8 	0fff1eb7          	lui	t4,0xfff1
0x57fc 	fffe8e93          	addi	t4,t4,-1 # fff0fff <heap_memory_used+0xffcf227>
0x5800 	01100e13          	li	t3,17
0x5804 	1dd19463          	bne	gp,t4,158a4 <fail>
0x5808 	00000213          	li	tp,0
0x580c 	0f0f1137          	lui	sp,0xf0f1
0x5810 	f0f10113          	addi	sp,sp,-241 # f0f0f0f <heap_memory_used+0xf0cf137>
0x5814 	ff0100b7          	lui	ra,0xff010
0x5818 	f0008093          	addi	ra,ra,-256 # ff00ff00 <heap_memory_used+0xfefee128>
0x581c 	0020e1b3          	or	gp,ra,sp
0x5820 	00120213          	addi	tp,tp,1 # 1 <_start+0x1>
0x5824 	00200293          	li	t0,2
0x5828 	fe5212e3          	bne	tp,t0,156e4 <test_18+0x4>
0x582c 	ff100eb7          	lui	t4,0xff100
0x5830 	f0fe8e93          	addi	t4,t4,-241 # ff0fff0f <heap_memory_used+0xff0de137>
0x5834 	01200e13          	li	t3,18
0x5838 	19d19a63          	bne	gp,t4,158a4 <fail>
0x583c 	00000213          	li	tp,0
0x5840 	f0f0f137          	lui	sp,0xf0f0f
0x5844 	0f010113          	addi	sp,sp,240 # f0f0f0f0 <heap_memory_used+0xf0eed318>
0x5848 	0ff010b7          	lui	ra,0xff01
0x584c 	ff008093          	addi	ra,ra,-16 # ff00ff0 <heap_memory_used+0xfedf218>
0x5850 	00000013          	nop
0x5854 	0020e1b3          	or	gp,ra,sp
0x5858 	00120213          	addi	tp,tp,1 # 1 <_start+0x1>
0x585c 	00200293          	li	t0,2
0x5860 	fe5210e3          	bne	tp,t0,15718 <test_19+0x4>
0x5864 	fff10eb7          	lui	t4,0xfff10
0x5868 	ff0e8e93          	addi	t4,t4,-16 # fff0fff0 <heap_memory_used+0xffeee218>
0x586c 	01300e13          	li	t3,19
0x5870 	15d19e63          	bne	gp,t4,158a4 <fail>
0x5874 	00000213          	li	tp,0
0x5878 	0f0f1137          	lui	sp,0xf0f1
0x587c 	f0f10113          	addi	sp,sp,-241 # f0f0f0f <heap_memory_used+0xf0cf137>
0x5880 	00ff00b7          	lui	ra,0xff0
0x5884 	0ff08093          	addi	ra,ra,255 # ff00ff <heap_memory_used+0xfce327>
0x5888 	00000013          	nop
0x588c 	00000013          	nop
0x5890 	0020e1b3          	or	gp,ra,sp
0x5894 	00120213          	addi	tp,tp,1 # 1 <_start+0x1>
0x5898 	00200293          	li	t0,2
0x589c 	fc521ee3          	bne	tp,t0,15750 <test_20+0x4>
0x58a0 	0fff1eb7          	lui	t4,0xfff1
0x58a4 	fffe8e93          	addi	t4,t4,-1 # fff0fff <heap_memory_used+0xffcf227>
0x58a8 	01400e13          	li	t3,20
0x58ac 	13d19063          	bne	gp,t4,158a4 <fail>
0x58b0 	00000213          	li	tp,0
0x58b4 	0f0f1137          	lui	sp,0xf0f1
0x58b8 	f0f10113          	addi	sp,sp,-241 # f0f0f0f <heap_memory_used+0xf0cf137>
0x58bc 	00000013          	nop
0x58c0 	ff0100b7          	lui	ra,0xff010
0x58c4 	f0008093          	addi	ra,ra,-256 # ff00ff00 <heap_memory_used+0xfefee128>
0x58c8 	0020e1b3          	or	gp,ra,sp
0x58cc 	00120213          	addi	tp,tp,1 # 1 <_start+0x1>
0x58d0 	00200293          	li	t0,2
0x58d4 	fe5210e3          	bne	tp,t0,1578c <test_21+0x4>
0x58d8 	ff100eb7          	lui	t4,0xff100
0x58dc 	f0fe8e93          	addi	t4,t4,-241 # ff0fff0f <heap_memory_used+0xff0de137>
0x58e0 	01500e13          	li	t3,21
0x58e4 	0fd19463          	bne	gp,t4,158a4 <fail>
0x58e8 	00000213          	li	tp,0
0x58ec 	f0f0f137          	lui	sp,0xf0f0f
0x58f0 	0f010113          	addi	sp,sp,240 # f0f0f0f0 <heap_memory_used+0xf0eed318>
0x58f4 	00000013          	nop
0x58f8 	0ff010b7          	lui	ra,0xff01
0x58fc 	ff008093          	addi	ra,ra,-16 # ff00ff0 <heap_memory_used+0xfedf218>
0x5900 	00000013          	nop
0x5904 	0020e1b3          	or	gp,ra,sp
0x5908 	00120213          	addi	tp,tp,1 # 1 <_start+0x1>
0x590c 	00200293          	li	t0,2
0x5910 	fc521ee3          	bne	tp,t0,157c4 <test_22+0x4>
0x5914 	fff10eb7          	lui	t4,0xfff10
0x5918 	ff0e8e93          	addi	t4,t4,-16 # fff0fff0 <heap_memory_used+0xffeee218>
0x591c 	01600e13          	li	t3,22
0x5920 	0bd19663          	bne	gp,t4,158a4 <fail>
0x5924 	00000213          	li	tp,0
0x5928 	0f0f1137          	lui	sp,0xf0f1
0x592c 	f0f10113          	addi	sp,sp,-241 # f0f0f0f <heap_memory_used+0xf0cf137>
0x5930 	00000013          	nop
0x5934 	00000013          	nop
0x5938 	00ff00b7          	lui	ra,0xff0
0x593c 	0ff08093          	addi	ra,ra,255 # ff00ff <heap_memory_used+0xfce327>
0x5940 	0020e1b3          	or	gp,ra,sp
0x5944 	00120213          	addi	tp,tp,1 # 1 <_start+0x1>
0x5948 	00200293          	li	t0,2
0x594c 	fc521ee3          	bne	tp,t0,15800 <test_23+0x4>
0x5950 	0fff1eb7          	lui	t4,0xfff1
0x5954 	fffe8e93          	addi	t4,t4,-1 # fff0fff <heap_memory_used+0xffcf227>
0x5958 	01700e13          	li	t3,23
0x595c 	07d19863          	bne	gp,t4,158a4 <fail>
0x5960 	ff0100b7          	lui	ra,0xff010
0x5964 	f0008093          	addi	ra,ra,-256 # ff00ff00 <heap_memory_used+0xfefee128>
0x5968 	00106133          	or	sp,zero,ra
0x596c 	ff010eb7          	lui	t4,0xff010
0x5970 	f00e8e93          	addi	t4,t4,-256 # ff00ff00 <heap_memory_used+0xfefee128>
0x5974 	01800e13          	li	t3,24
0x5978 	05d11a63          	bne	sp,t4,158a4 <fail>
0x597c 	00ff00b7          	lui	ra,0xff0
0x5980 	0ff08093          	addi	ra,ra,255 # ff00ff <heap_memory_used+0xfce327>
0x5984 	0000e133          	or	sp,ra,zero
0x5988 	00ff0eb7          	lui	t4,0xff0
0x598c 	0ffe8e93          	addi	t4,t4,255 # ff00ff <heap_memory_used+0xfce327>
0x5990 	01900e13          	li	t3,25
0x5994 	03d11c63          	bne	sp,t4,158a4 <fail>
0x5998 	000060b3          	or	ra,zero,zero
0x599c 	00000e93          	li	t4,0
0x59a0 	01a00e13          	li	t3,26
0x59a4 	03d09463          	bne	ra,t4,158a4 <fail>
0x59a8 	111110b7          	lui	ra,0x11111
0x59ac 	11108093          	addi	ra,ra,273 # 11111111 <heap_memory_used+0x110ef339>
0x59b0 	22222137          	lui	sp,0x22222
0x59b4 	22210113          	addi	sp,sp,546 # 22222222 <heap_memory_used+0x2220044a>
0x59b8 	0020e033          	or	zero,ra,sp
0x59bc 	00000e93          	li	t4,0
0x59c0 	01b00e13          	li	t3,27
0x59c4 	01d01463          	bne	zero,t4,158a4 <fail>
0x59c8 	05c01863          	bne	zero,t3,158f0 <pass>
0x59cc 	04500513          	li	a0,69
0x59d0 	00004137          	lui	sp,0x4
0x59d4 	0dc080ef          	jal	ra,1d988 <printf_c>
0x59d8 	05200513          	li	a0,82
0x59dc 	00004137          	lui	sp,0x4
0x59e0 	0d0080ef          	jal	ra,1d988 <printf_c>
0x59e4 	00004137          	lui	sp,0x4
0x59e8 	0c8080ef          	jal	ra,1d988 <printf_c>
0x59ec 	04f00513          	li	a0,79
0x59f0 	00004137          	lui	sp,0x4
0x59f4 	0bc080ef          	jal	ra,1d988 <printf_c>
0x59f8 	00004137          	lui	sp,0x4
0x59fc 	05200513          	li	a0,82
0x5a00 	00004137          	lui	sp,0x4
0x5a04 	0ac080ef          	jal	ra,1d988 <printf_c>
0x5a08 	00a00513          	li	a0,10
0x5a0c 	00004137          	lui	sp,0x4
0x5a10 	0a0080ef          	jal	ra,1d988 <printf_c>
0x5a14 	0340006f          	j	15920 <ori>
0x5a18 	04f00513          	li	a0,79
0x5a1c 	00004137          	lui	sp,0x4
0x5a20 	090080ef          	jal	ra,1d988 <printf_c>
0x5a24 	04b00513          	li	a0,75
0x5a28 	00004137          	lui	sp,0x4
0x5a2c 	084080ef          	jal	ra,1d988 <printf_c>
0x5a30 	00a00513          	li	a0,10
0x5a34 	00004137          	lui	sp,0x4
0x5a38 	078080ef          	jal	ra,1d988 <printf_c>
0x5a3c 	00c0006f          	j	15920 <ori>
0x5a40 	2069726f          	jal	tp,acb1e <heap_memory_used+0x8ad46>
0x5a44 	0009                	c.addi	zero,2
0x5a48 	00016537          	lui	a0,0x16
0x5a4c 	91850513          	addi	a0,a0,-1768 # 15918 <.test_name>
0x5a50 	00004137          	lui	sp,0x4
0x5a54 	074080ef          	jal	ra,1d9a0 <printf_s>
0x5a58 	ff0100b7          	lui	ra,0xff010
0x5a5c 	f0008093          	addi	ra,ra,-256 # ff00ff00 <heap_memory_used+0xfefee128>
0x5a60 	f0f0e193          	ori	gp,ra,-241
0x5a64 	f0f00e93          	li	t4,-241
0x5a68 	00200e13          	li	t3,2
0x5a6c 	1dd19463          	bne	gp,t4,15b0c <fail>
0x5a70 	0ff010b7          	lui	ra,0xff01
0x5a74 	ff008093          	addi	ra,ra,-16 # ff00ff0 <heap_memory_used+0xfedf218>
0x5a78 	0f00e193          	ori	gp,ra,240
0x5a7c 	0ff01eb7          	lui	t4,0xff01
0x5a80 	ff0e8e93          	addi	t4,t4,-16 # ff00ff0 <heap_memory_used+0xfedf218>
0x5a84 	00300e13          	li	t3,3
0x5a88 	1bd19663          	bne	gp,t4,15b0c <fail>
0x5a8c 	00ff00b7          	lui	ra,0xff0
0x5a90 	0ff08093          	addi	ra,ra,255 # ff00ff <heap_memory_used+0xfce327>
0x5a94 	70f0e193          	ori	gp,ra,1807
0x5a98 	00ff0eb7          	lui	t4,0xff0
0x5a9c 	7ffe8e93          	addi	t4,t4,2047 # ff07ff <heap_memory_used+0xfcea27>
0x5aa0 	00400e13          	li	t3,4
0x5aa4 	19d19863          	bne	gp,t4,15b0c <fail>
0x5aa8 	f00ff0b7          	lui	ra,0xf00ff
0x5aac 	00f08093          	addi	ra,ra,15 # f00ff00f <heap_memory_used+0xf00dd237>
0x5ab0 	0f00e193          	ori	gp,ra,240
0x5ab4 	f00ffeb7          	lui	t4,0xf00ff
0x5ab8 	0ffe8e93          	addi	t4,t4,255 # f00ff0ff <heap_memory_used+0xf00dd327>
0x5abc 	00500e13          	li	t3,5
0x5ac0 	17d19a63          	bne	gp,t4,15b0c <fail>
0x5ac4 	ff0100b7          	lui	ra,0xff010
0x5ac8 	f0008093          	addi	ra,ra,-256 # ff00ff00 <heap_memory_used+0xfefee128>
0x5acc 	0f00e093          	ori	ra,ra,240
0x5ad0 	ff010eb7          	lui	t4,0xff010
0x5ad4 	ff0e8e93          	addi	t4,t4,-16 # ff00fff0 <heap_memory_used+0xfefee218>
0x5ad8 	00600e13          	li	t3,6
0x5adc 	15d09c63          	bne	ra,t4,15b0c <fail>
0x5ae0 	00000213          	li	tp,0
0x5ae4 	0ff010b7          	lui	ra,0xff01
0x5ae8 	ff008093          	addi	ra,ra,-16 # ff00ff0 <heap_memory_used+0xfedf218>
0x5aec 	0f00e193          	ori	gp,ra,240
0x5af0 	00018313          	mv	t1,gp
0x5af4 	00120213          	addi	tp,tp,1 # 1 <_start+0x1>
0x5af8 	00200293          	li	t0,2
0x5afc 	fe5214e3          	bne	tp,t0,159bc <test_7+0x4>
0x5b00 	0ff01eb7          	lui	t4,0xff01
0x5b04 	ff0e8e93          	addi	t4,t4,-16 # ff00ff0 <heap_memory_used+0xfedf218>
0x5b08 	00700e13          	li	t3,7
0x5b0c 	13d31463          	bne	t1,t4,15b0c <fail>
0x5b10 	00000213          	li	tp,0
0x5b14 	00ff00b7          	lui	ra,0xff0
0x5b18 	0ff08093          	addi	ra,ra,255 # ff00ff <heap_memory_used+0xfce327>
0x5b1c 	70f0e193          	ori	gp,ra,1807
0x5b20 	00000013          	nop
0x5b24 	00018313          	mv	t1,gp
0x5b28 	00120213          	addi	tp,tp,1 # 1 <_start+0x1>
0x5b2c 	00200293          	li	t0,2
0x5b30 	fe5212e3          	bne	tp,t0,159ec <test_8+0x4>
0x5b34 	00ff0eb7          	lui	t4,0xff0
0x5b38 	7ffe8e93          	addi	t4,t4,2047 # ff07ff <heap_memory_used+0xfcea27>
0x5b3c 	00800e13          	li	t3,8
0x5b40 	0fd31a63          	bne	t1,t4,15b0c <fail>
0x5b44 	00000213          	li	tp,0
0x5b48 	f00ff0b7          	lui	ra,0xf00ff
0x5b4c 	00f08093          	addi	ra,ra,15 # f00ff00f <heap_memory_used+0xf00dd237>
0x5b50 	0f00e193          	ori	gp,ra,240
0x5b54 	00000013          	nop
0x5b58 	00000013          	nop
0x5b5c 	00018313          	mv	t1,gp
0x5b60 	00120213          	addi	tp,tp,1 # 1 <_start+0x1>
0x5b64 	00200293          	li	t0,2
0x5b68 	fe5210e3          	bne	tp,t0,15a20 <test_9+0x4>
0x5b6c 	f00ffeb7          	lui	t4,0xf00ff
0x5b70 	0ffe8e93          	addi	t4,t4,255 # f00ff0ff <heap_memory_used+0xf00dd327>
0x5b74 	00900e13          	li	t3,9
0x5b78 	0bd31e63          	bne	t1,t4,15b0c <fail>
0x5b7c 	00000213          	li	tp,0
0x5b80 	0ff010b7          	lui	ra,0xff01
0x5b84 	ff008093          	addi	ra,ra,-16 # ff00ff0 <heap_memory_used+0xfedf218>
0x5b88 	0f00e193          	ori	gp,ra,240
0x5b8c 	00120213          	addi	tp,tp,1 # 1 <_start+0x1>
0x5b90 	00200293          	li	t0,2
0x5b94 	fe5216e3          	bne	tp,t0,15a58 <test_10+0x4>
0x5b98 	0ff01eb7          	lui	t4,0xff01
0x5b9c 	ff0e8e93          	addi	t4,t4,-16 # ff00ff0 <heap_memory_used+0xfedf218>
0x5ba0 	00a00e13          	li	t3,10
0x5ba4 	09d19863          	bne	gp,t4,15b0c <fail>
0x5ba8 	00000213          	li	tp,0
0x5bac 	00ff00b7          	lui	ra,0xff0
0x5bb0 	0ff08093          	addi	ra,ra,255 # ff00ff <heap_memory_used+0xfce327>
0x5bb4 	00000013          	nop
0x5bb8 	f0f0e193          	ori	gp,ra,-241
0x5bbc 	00120213          	addi	tp,tp,1 # 1 <_start+0x1>
0x5bc0 	00200293          	li	t0,2
0x5bc4 	fe5214e3          	bne	tp,t0,15a84 <test_11+0x4>
0x5bc8 	fff00e93          	li	t4,-1
0x5bcc 	00b00e13          	li	t3,11
0x5bd0 	07d19263          	bne	gp,t4,15b0c <fail>
0x5bd4 	00000213          	li	tp,0
0x5bd8 	f00ff0b7          	lui	ra,0xf00ff
0x5bdc 	00f08093          	addi	ra,ra,15 # f00ff00f <heap_memory_used+0xf00dd237>
0x5be0 	00000013          	nop
0x5be4 	00000013          	nop
0x5be8 	0f00e193          	ori	gp,ra,240
0x5bec 	00120213          	addi	tp,tp,1 # 1 <_start+0x1>
0x5bf0 	00200293          	li	t0,2
0x5bf4 	fe5212e3          	bne	tp,t0,15ab0 <test_12+0x4>
0x5bf8 	f00ffeb7          	lui	t4,0xf00ff
0x5bfc 	0ffe8e93          	addi	t4,t4,255 # f00ff0ff <heap_memory_used+0xf00dd327>
0x5c00 	00c00e13          	li	t3,12
0x5c04 	03d19863          	bne	gp,t4,15b0c <fail>
0x5c08 	0f006093          	ori	ra,zero,240
0x5c0c 	0f000e93          	li	t4,240
0x5c10 	00d00e13          	li	t3,13
0x5c14 	03d09063          	bne	ra,t4,15b0c <fail>
0x5c18 	00ff00b7          	lui	ra,0xff0
0x5c1c 	0ff08093          	addi	ra,ra,255 # ff00ff <heap_memory_used+0xfce327>
0x5c20 	70f0e013          	ori	zero,ra,1807
0x5c24 	00000e93          	li	t4,0
0x5c28 	00e00e13          	li	t3,14
0x5c2c 	01d01463          	bne	zero,t4,15b0c <fail>
0x5c30 	05c01863          	bne	zero,t3,15b58 <pass>
0x5c34 	04500513          	li	a0,69
0x5c38 	00004137          	lui	sp,0x4
0x5c3c 	675070ef          	jal	ra,1d988 <printf_c>
0x5c40 	05200513          	li	a0,82
0x5c44 	00004137          	lui	sp,0x4
0x5c48 	669070ef          	jal	ra,1d988 <printf_c>
0x5c4c 	00004137          	lui	sp,0x4
0x5c50 	661070ef          	jal	ra,1d988 <printf_c>
0x5c54 	04f00513          	li	a0,79
0x5c58 	00004137          	lui	sp,0x4
0x5c5c 	655070ef          	jal	ra,1d988 <printf_c>
0x5c60 	00004137          	lui	sp,0x4
0x5c64 	05200513          	li	a0,82
0x5c68 	00004137          	lui	sp,0x4
0x5c6c 	645070ef          	jal	ra,1d988 <printf_c>
0x5c70 	00a00513          	li	a0,10
0x5c74 	00004137          	lui	sp,0x4
0x5c78 	639070ef          	jal	ra,1d988 <printf_c>
0x5c7c 	3000006f          	j	15e54 <sb>
0x5c80 	04f00513          	li	a0,79
0x5c84 	00004137          	lui	sp,0x4
0x5c88 	629070ef          	jal	ra,1d988 <printf_c>
0x5c8c 	04b00513          	li	a0,75
0x5c90 	00004137          	lui	sp,0x4
0x5c94 	61d070ef          	jal	ra,1d988 <printf_c>
0x5c98 	00a00513          	li	a0,10
0x5c9c 	00004137          	lui	sp,0x4
0x5ca0 	611070ef          	jal	ra,1d988 <printf_c>
0x5ca4 	2d80006f          	j	15e54 <sb>
0x5ca8 	6572                	flw	fa0,28(sp)
0x5cac 	206d                	jal	15c2c <test_8+0x4>
0x5cb0 	0009                	c.addi	zero,2
0x5cb4 	00016537          	lui	a0,0x16
0x5cb8 	b8050513          	addi	a0,a0,-1152 # 15b80 <.test_name>
0x5cbc 	00004137          	lui	sp,0x4
0x5cc0 	60d070ef          	jal	ra,1d9a0 <printf_s>
0x5cc4 	01400093          	li	ra,20
0x5cc8 	00600113          	li	sp,6
0x5ccc 	0220e1b3          	rem	gp,ra,sp
0x5cd0 	00200e93          	li	t4,2
0x5cd4 	00200e13          	li	t3,2
0x5cd8 	0dd19463          	bne	gp,t4,15c74 <fail>
0x5cdc 	fec00093          	li	ra,-20
0x5ce0 	00600113          	li	sp,6
0x5ce4 	0220e1b3          	rem	gp,ra,sp
0x5ce8 	ffe00e93          	li	t4,-2
0x5cec 	00300e13          	li	t3,3
0x5cf0 	0bd19863          	bne	gp,t4,15c74 <fail>
0x5cf4 	01400093          	li	ra,20
0x5cf8 	ffa00113          	li	sp,-6
0x5cfc 	0220e1b3          	rem	gp,ra,sp
0x5d00 	00200e93          	li	t4,2
0x5d04 	00400e13          	li	t3,4
0x5d08 	09d19c63          	bne	gp,t4,15c74 <fail>
0x5d0c 	fec00093          	li	ra,-20
0x5d10 	ffa00113          	li	sp,-6
0x5d14 	0220e1b3          	rem	gp,ra,sp
0x5d18 	ffe00e93          	li	t4,-2
0x5d1c 	00500e13          	li	t3,5
0x5d20 	09d19063          	bne	gp,t4,15c74 <fail>
0x5d24 	800000b7          	lui	ra,0x80000
0x5d28 	00100113          	li	sp,1
0x5d2c 	0220e1b3          	rem	gp,ra,sp
0x5d30 	00000e93          	li	t4,0
0x5d34 	00600e13          	li	t3,6
0x5d38 	07d19463          	bne	gp,t4,15c74 <fail>
0x5d3c 	800000b7          	lui	ra,0x80000
0x5d40 	fff00113          	li	sp,-1
0x5d44 	0220e1b3          	rem	gp,ra,sp
0x5d48 	00000e93          	li	t4,0
0x5d4c 	00700e13          	li	t3,7
0x5d50 	05d19863          	bne	gp,t4,15c74 <fail>
0x5d54 	800000b7          	lui	ra,0x80000
0x5d58 	00000113          	li	sp,0
0x5d5c 	0220e1b3          	rem	gp,ra,sp
0x5d60 	80000eb7          	lui	t4,0x80000
0x5d64 	00800e13          	li	t3,8
0x5d68 	03d19c63          	bne	gp,t4,15c74 <fail>
0x5d6c 	00100093          	li	ra,1
0x5d70 	00000113          	li	sp,0
0x5d74 	0220e1b3          	rem	gp,ra,sp
0x5d78 	00100e93          	li	t4,1
0x5d7c 	00900e13          	li	t3,9
0x5d80 	03d19063          	bne	gp,t4,15c74 <fail>
0x5d84 	00000093          	li	ra,0
0x5d88 	00000113          	li	sp,0
0x5d8c 	0220e1b3          	rem	gp,ra,sp
0x5d90 	00000e93          	li	t4,0
0x5d94 	00a00e13          	li	t3,10
0x5d98 	01d19463          	bne	gp,t4,15c74 <fail>
0x5d9c 	05c01863          	bne	zero,t3,15cc0 <pass>
0x5da0 	04500513          	li	a0,69
0x5da4 	00004137          	lui	sp,0x4
0x5da8 	50d070ef          	jal	ra,1d988 <printf_c>
0x5dac 	05200513          	li	a0,82
0x5db0 	00004137          	lui	sp,0x4
0x5db4 	501070ef          	jal	ra,1d988 <printf_c>
0x5db8 	00004137          	lui	sp,0x4
0x5dbc 	4f9070ef          	jal	ra,1d988 <printf_c>
0x5dc0 	04f00513          	li	a0,79
0x5dc4 	00004137          	lui	sp,0x4
0x5dc8 	4ed070ef          	jal	ra,1d988 <printf_c>
0x5dcc 	00004137          	lui	sp,0x4
0x5dd0 	05200513          	li	a0,82
0x5dd4 	00004137          	lui	sp,0x4
0x5dd8 	4dd070ef          	jal	ra,1d988 <printf_c>
0x5ddc 	00a00513          	li	a0,10
0x5de0 	00004137          	lui	sp,0x4
0x5de4 	4d1070ef          	jal	ra,1d988 <printf_c>
0x5de8 	0340006f          	j	15cf0 <remu>
0x5dec 	04f00513          	li	a0,79
0x5df0 	00004137          	lui	sp,0x4
0x5df4 	4c1070ef          	jal	ra,1d988 <printf_c>
0x5df8 	04b00513          	li	a0,75
0x5dfc 	00004137          	lui	sp,0x4
0x5e00 	4b5070ef          	jal	ra,1d988 <printf_c>
0x5e04 	00a00513          	li	a0,10
0x5e08 	00004137          	lui	sp,0x4
0x5e0c 	4a9070ef          	jal	ra,1d988 <printf_c>
0x5e10 	00c0006f          	j	15cf0 <remu>
0x5e14 	6572                	flw	fa0,28(sp)
0x5e18 	756d                	lui	a0,0xffffb
0x5e1c 	0009                	c.addi	zero,2
0x5e20 	00016537          	lui	a0,0x16
0x5e24 	ce850513          	addi	a0,a0,-792 # 15ce8 <.test_name>
0x5e28 	00004137          	lui	sp,0x4
0x5e2c 	4a5070ef          	jal	ra,1d9a0 <printf_s>
0x5e30 	01400093          	li	ra,20
0x5e34 	00600113          	li	sp,6
0x5e38 	0220f1b3          	remu	gp,ra,sp
0x5e3c 	00200e93          	li	t4,2
0x5e40 	00200e13          	li	t3,2
0x5e44 	0dd19463          	bne	gp,t4,15ddc <fail>
0x5e48 	fec00093          	li	ra,-20
0x5e4c 	00600113          	li	sp,6
0x5e50 	0220f1b3          	remu	gp,ra,sp
0x5e54 	00200e93          	li	t4,2
0x5e58 	00300e13          	li	t3,3
0x5e5c 	0bd19863          	bne	gp,t4,15ddc <fail>
0x5e60 	01400093          	li	ra,20
0x5e64 	ffa00113          	li	sp,-6
0x5e68 	0220f1b3          	remu	gp,ra,sp
0x5e6c 	01400e93          	li	t4,20
0x5e70 	00400e13          	li	t3,4
0x5e74 	09d19c63          	bne	gp,t4,15ddc <fail>
0x5e78 	fec00093          	li	ra,-20
0x5e7c 	ffa00113          	li	sp,-6
0x5e80 	0220f1b3          	remu	gp,ra,sp
0x5e84 	fec00e93          	li	t4,-20
0x5e88 	00500e13          	li	t3,5
0x5e8c 	09d19063          	bne	gp,t4,15ddc <fail>
0x5e90 	800000b7          	lui	ra,0x80000
0x5e94 	00100113          	li	sp,1
0x5e98 	0220f1b3          	remu	gp,ra,sp
0x5e9c 	00000e93          	li	t4,0
0x5ea0 	00600e13          	li	t3,6
0x5ea4 	07d19463          	bne	gp,t4,15ddc <fail>
0x5ea8 	800000b7          	lui	ra,0x80000
0x5eac 	fff00113          	li	sp,-1
0x5eb0 	0220f1b3          	remu	gp,ra,sp
0x5eb4 	80000eb7          	lui	t4,0x80000
0x5eb8 	00700e13          	li	t3,7
0x5ebc 	05d19863          	bne	gp,t4,15ddc <fail>
0x5ec0 	800000b7          	lui	ra,0x80000
0x5ec4 	00000113          	li	sp,0
0x5ec8 	0220f1b3          	remu	gp,ra,sp
0x5ecc 	80000eb7          	lui	t4,0x80000
0x5ed0 	00800e13          	li	t3,8
0x5ed4 	03d19c63          	bne	gp,t4,15ddc <fail>
0x5ed8 	00100093          	li	ra,1
0x5edc 	00000113          	li	sp,0
0x5ee0 	0220f1b3          	remu	gp,ra,sp
0x5ee4 	00100e93          	li	t4,1
0x5ee8 	00900e13          	li	t3,9
0x5eec 	03d19063          	bne	gp,t4,15ddc <fail>
0x5ef0 	00000093          	li	ra,0
0x5ef4 	00000113          	li	sp,0
0x5ef8 	0220f1b3          	remu	gp,ra,sp
0x5efc 	00000e93          	li	t4,0
0x5f00 	00a00e13          	li	t3,10
0x5f04 	01d19463          	bne	gp,t4,15ddc <fail>
0x5f08 	05c01863          	bne	zero,t3,15e28 <pass>
0x5f0c 	04500513          	li	a0,69
0x5f10 	00004137          	lui	sp,0x4
0x5f14 	3a5070ef          	jal	ra,1d988 <printf_c>
0x5f18 	05200513          	li	a0,82
0x5f1c 	00004137          	lui	sp,0x4
0x5f20 	399070ef          	jal	ra,1d988 <printf_c>
0x5f24 	00004137          	lui	sp,0x4
0x5f28 	391070ef          	jal	ra,1d988 <printf_c>
0x5f2c 	04f00513          	li	a0,79
0x5f30 	00004137          	lui	sp,0x4
0x5f34 	385070ef          	jal	ra,1d988 <printf_c>
0x5f38 	00004137          	lui	sp,0x4
0x5f3c 	05200513          	li	a0,82
0x5f40 	00004137          	lui	sp,0x4
0x5f44 	375070ef          	jal	ra,1d988 <printf_c>
0x5f48 	00a00513          	li	a0,10
0x5f4c 	00004137          	lui	sp,0x4
0x5f50 	369070ef          	jal	ra,1d988 <printf_c>
0x5f54 	fb8fc06f          	j	125dc <csr>
0x5f58 	04f00513          	li	a0,79
0x5f5c 	00004137          	lui	sp,0x4
0x5f60 	359070ef          	jal	ra,1d988 <printf_c>
0x5f64 	04b00513          	li	a0,75
0x5f68 	00004137          	lui	sp,0x4
0x5f6c 	34d070ef          	jal	ra,1d988 <printf_c>
0x5f70 	00a00513          	li	a0,10
0x5f74 	00004137          	lui	sp,0x4
0x5f78 	341070ef          	jal	ra,1d988 <printf_c>
0x5f7c 	f90fc06f          	j	125dc <csr>
0x5f80 	00096273          	csrrsi	tp,0x0,18
0x5f84 	00016537          	lui	a0,0x16
0x5f88 	e5050513          	addi	a0,a0,-432 # 15e50 <.test_name>
0x5f8c 	00004137          	lui	sp,0x4
0x5f90 	341070ef          	jal	ra,1d9a0 <printf_s>
0x5f94 	00009097          	auipc	ra,0x9
0x5f98 	e9408093          	addi	ra,ra,-364 # 1ecf8 <tdat>
0x5f9c 	faa00113          	li	sp,-86
0x5fa0 	00208023          	sb	sp,0(ra)
0x5fa4 	00008183          	lb	gp,0(ra)
0x5fa8 	faa00e93          	li	t4,-86
0x5fac 	00200e13          	li	t3,2
0x5fb0 	3dd19c63          	bne	gp,t4,16258 <fail>
0x5fb4 	00009097          	auipc	ra,0x9
0x5fb8 	e7408093          	addi	ra,ra,-396 # 1ecf8 <tdat>
0x5fbc 	00000113          	li	sp,0
0x5fc0 	002080a3          	sb	sp,1(ra)
0x5fc4 	00108183          	lb	gp,1(ra)
0x5fc8 	00000e93          	li	t4,0
0x5fcc 	00300e13          	li	t3,3
0x5fd0 	3bd19c63          	bne	gp,t4,16258 <fail>
0x5fd4 	00009097          	auipc	ra,0x9
0x5fd8 	e5408093          	addi	ra,ra,-428 # 1ecf8 <tdat>
0x5fdc 	fffff137          	lui	sp,0xfffff
0x5fe0 	fa010113          	addi	sp,sp,-96 # ffffefa0 <heap_memory_used+0xfffdd1c8>
0x5fe4 	00208123          	sb	sp,2(ra)
0x5fe8 	00209183          	lh	gp,2(ra)
0x5fec 	fffffeb7          	lui	t4,0xfffff
0x5ff0 	fa0e8e93          	addi	t4,t4,-96 # ffffefa0 <heap_memory_used+0xfffdd1c8>
0x5ff4 	00400e13          	li	t3,4
0x5ff8 	39d19863          	bne	gp,t4,16258 <fail>
0x5ffc 	00009097          	auipc	ra,0x9
0x6000 	e2c08093          	addi	ra,ra,-468 # 1ecf8 <tdat>
0x6004 	00a00113          	li	sp,10
0x6008 	002081a3          	sb	sp,3(ra)
0x600c 	00308183          	lb	gp,3(ra)
0x6010 	00a00e93          	li	t4,10
0x6014 	00500e13          	li	t3,5
0x6018 	37d19863          	bne	gp,t4,16258 <fail>
0x601c 	00009097          	auipc	ra,0x9
0x6020 	e1308093          	addi	ra,ra,-493 # 1ecff <tdat8>
0x6024 	faa00113          	li	sp,-86
0x6028 	fe208ea3          	sb	sp,-3(ra)
0x602c 	ffd08183          	lb	gp,-3(ra)
0x6030 	faa00e93          	li	t4,-86
0x6034 	00600e13          	li	t3,6
0x6038 	35d19863          	bne	gp,t4,16258 <fail>
0x603c 	00009097          	auipc	ra,0x9
0x6040 	df308093          	addi	ra,ra,-525 # 1ecff <tdat8>
0x6044 	00000113          	li	sp,0
0x6048 	fe208f23          	sb	sp,-2(ra)
0x604c 	ffe08183          	lb	gp,-2(ra)
0x6050 	00000e93          	li	t4,0
0x6054 	00700e13          	li	t3,7
0x6058 	33d19863          	bne	gp,t4,16258 <fail>
0x605c 	00009097          	auipc	ra,0x9
0x6060 	dd308093          	addi	ra,ra,-557 # 1ecff <tdat8>
0x6064 	fa000113          	li	sp,-96
0x6068 	fe208fa3          	sb	sp,-1(ra)
0x606c 	fff08183          	lb	gp,-1(ra)
0x6070 	fa000e93          	li	t4,-96
0x6074 	00800e13          	li	t3,8
0x6078 	31d19863          	bne	gp,t4,16258 <fail>
0x607c 	00009097          	auipc	ra,0x9
0x6080 	db308093          	addi	ra,ra,-589 # 1ecff <tdat8>
0x6084 	00a00113          	li	sp,10
0x6088 	00208023          	sb	sp,0(ra)
0x608c 	00008183          	lb	gp,0(ra)
0x6090 	00a00e93          	li	t4,10
0x6094 	00900e13          	li	t3,9
0x6098 	2fd19863          	bne	gp,t4,16258 <fail>
0x609c 	00009097          	auipc	ra,0x9
0x60a0 	d9408093          	addi	ra,ra,-620 # 1ed00 <tdat9>
0x60a4 	12345137          	lui	sp,0x12345
0x60a8 	67810113          	addi	sp,sp,1656 # 12345678 <heap_memory_used+0x123238a0>
0x60ac 	fe008213          	addi	tp,ra,-32
0x60b0 	02220023          	sb	sp,32(tp) # 20 <initReg+0x18>
0x60b4 	00008183          	lb	gp,0(ra)
0x60b8 	07800e93          	li	t4,120
0x60bc 	00a00e13          	li	t3,10
0x60c0 	2dd19463          	bne	gp,t4,16258 <fail>
0x60c4 	00009097          	auipc	ra,0x9
0x60c8 	d6c08093          	addi	ra,ra,-660 # 1ed00 <tdat9>
0x60cc 	00003137          	lui	sp,0x3
0x60d0 	09810113          	addi	sp,sp,152 # 3098 <coremarkBenchmark+0x2ff0>
0x60d4 	ffa08093          	addi	ra,ra,-6
0x60d8 	002083a3          	sb	sp,7(ra)
0x60dc 	00009217          	auipc	tp,0x9
0x60e0 	d5520213          	addi	tp,tp,-683 # 1ed01 <tdat10>
0x60e4 	00020183          	lb	gp,0(tp) # 0 <_start>
0x60e8 	f9800e93          	li	t4,-104
0x60ec 	00b00e13          	li	t3,11
0x60f0 	29d19c63          	bne	gp,t4,16258 <fail>
0x60f4 	00c00e13          	li	t3,12
0x60f8 	00000213          	li	tp,0
0x60fc 	fdd00093          	li	ra,-35
0x6100 	00009117          	auipc	sp,0x9
0x6104 	d2810113          	addi	sp,sp,-728 # 1ecf8 <tdat>
0x6108 	00110023          	sb	ra,0(sp)
0x610c 	00010183          	lb	gp,0(sp)
0x6110 	fdd00e93          	li	t4,-35
0x6114 	27d19a63          	bne	gp,t4,16258 <fail>
0x6118 	00120213          	addi	tp,tp,1 # 1 <_start+0x1>
0x611c 	00200293          	li	t0,2
0x6120 	fc521ee3          	bne	tp,t0,15fcc <test_12+0x8>
0x6124 	00d00e13          	li	t3,13
0x6128 	00000213          	li	tp,0
0x612c 	fcd00093          	li	ra,-51
0x6130 	00009117          	auipc	sp,0x9
0x6134 	cf810113          	addi	sp,sp,-776 # 1ecf8 <tdat>
0x6138 	00000013          	nop
0x613c 	001100a3          	sb	ra,1(sp)
0x6140 	00110183          	lb	gp,1(sp)
0x6144 	fcd00e93          	li	t4,-51
0x6148 	25d19063          	bne	gp,t4,16258 <fail>
0x614c 	00120213          	addi	tp,tp,1 # 1 <_start+0x1>
0x6150 	00200293          	li	t0,2
0x6154 	fc521ce3          	bne	tp,t0,15ffc <test_13+0x8>
0x6158 	00e00e13          	li	t3,14
0x615c 	00000213          	li	tp,0
0x6160 	fcc00093          	li	ra,-52
0x6164 	00009117          	auipc	sp,0x9
0x6168 	cc410113          	addi	sp,sp,-828 # 1ecf8 <tdat>
0x616c 	00000013          	nop
0x6170 	00000013          	nop
0x6174 	00110123          	sb	ra,2(sp)
0x6178 	00210183          	lb	gp,2(sp)
0x617c 	fcc00e93          	li	t4,-52
0x6180 	21d19463          	bne	gp,t4,16258 <fail>
0x6184 	00120213          	addi	tp,tp,1 # 1 <_start+0x1>
0x6188 	00200293          	li	t0,2
0x618c 	fc521ae3          	bne	tp,t0,16030 <test_14+0x8>
0x6190 	00f00e13          	li	t3,15
0x6194 	00000213          	li	tp,0
0x6198 	fbc00093          	li	ra,-68
0x619c 	00000013          	nop
0x61a0 	00009117          	auipc	sp,0x9
0x61a4 	c8810113          	addi	sp,sp,-888 # 1ecf8 <tdat>
0x61a8 	001101a3          	sb	ra,3(sp)
0x61ac 	00310183          	lb	gp,3(sp)
0x61b0 	fbc00e93          	li	t4,-68
0x61b4 	1dd19a63          	bne	gp,t4,16258 <fail>
0x61b8 	00120213          	addi	tp,tp,1 # 1 <_start+0x1>
0x61bc 	00200293          	li	t0,2
0x61c0 	fc521ce3          	bne	tp,t0,16068 <test_15+0x8>
0x61c4 	01000e13          	li	t3,16
0x61c8 	00000213          	li	tp,0
0x61cc 	fbb00093          	li	ra,-69
0x61d0 	00000013          	nop
0x61d4 	00009117          	auipc	sp,0x9
0x61d8 	c5410113          	addi	sp,sp,-940 # 1ecf8 <tdat>
0x61dc 	00000013          	nop
0x61e0 	00110223          	sb	ra,4(sp)
0x61e4 	00410183          	lb	gp,4(sp)
0x61e8 	fbb00e93          	li	t4,-69
0x61ec 	19d19e63          	bne	gp,t4,16258 <fail>
0x61f0 	00120213          	addi	tp,tp,1 # 1 <_start+0x1>
0x61f4 	00200293          	li	t0,2
0x61f8 	fc521ae3          	bne	tp,t0,1609c <test_16+0x8>
0x61fc 	01100e13          	li	t3,17
0x6200 	00000213          	li	tp,0
0x6204 	fab00093          	li	ra,-85
0x6208 	00000013          	nop
0x620c 	00000013          	nop
0x6210 	00009117          	auipc	sp,0x9
0x6214 	c1810113          	addi	sp,sp,-1000 # 1ecf8 <tdat>
0x6218 	001102a3          	sb	ra,5(sp)
0x621c 	00510183          	lb	gp,5(sp)
0x6220 	fab00e93          	li	t4,-85
0x6224 	17d19263          	bne	gp,t4,16258 <fail>
0x6228 	00120213          	addi	tp,tp,1 # 1 <_start+0x1>
0x622c 	00200293          	li	t0,2
0x6230 	fc521ae3          	bne	tp,t0,160d4 <test_17+0x8>
0x6234 	01200e13          	li	t3,18
0x6238 	00000213          	li	tp,0
0x623c 	00009117          	auipc	sp,0x9
0x6240 	bec10113          	addi	sp,sp,-1044 # 1ecf8 <tdat>
0x6244 	03300093          	li	ra,51
0x6248 	00110023          	sb	ra,0(sp)
0x624c 	00010183          	lb	gp,0(sp)
0x6250 	03300e93          	li	t4,51
0x6254 	13d19a63          	bne	gp,t4,16258 <fail>
0x6258 	00120213          	addi	tp,tp,1 # 1 <_start+0x1>
0x625c 	00200293          	li	t0,2
0x6260 	fc521ee3          	bne	tp,t0,1610c <test_18+0x8>
0x6264 	01300e13          	li	t3,19
0x6268 	00000213          	li	tp,0
0x626c 	00009117          	auipc	sp,0x9
0x6270 	bbc10113          	addi	sp,sp,-1092 # 1ecf8 <tdat>
0x6274 	02300093          	li	ra,35
0x6278 	00000013          	nop
0x627c 	001100a3          	sb	ra,1(sp)
0x6280 	00110183          	lb	gp,1(sp)
0x6284 	02300e93          	li	t4,35
0x6288 	11d19063          	bne	gp,t4,16258 <fail>
0x628c 	00120213          	addi	tp,tp,1 # 1 <_start+0x1>
0x6290 	00200293          	li	t0,2
0x6294 	fc521ce3          	bne	tp,t0,1613c <test_19+0x8>
0x6298 	01400e13          	li	t3,20
0x629c 	00000213          	li	tp,0
0x62a0 	00009117          	auipc	sp,0x9
0x62a4 	b8810113          	addi	sp,sp,-1144 # 1ecf8 <tdat>
0x62a8 	02200093          	li	ra,34
0x62ac 	00000013          	nop
0x62b0 	00000013          	nop
0x62b4 	00110123          	sb	ra,2(sp)
0x62b8 	00210183          	lb	gp,2(sp)
0x62bc 	02200e93          	li	t4,34
0x62c0 	0dd19463          	bne	gp,t4,16258 <fail>
0x62c4 	00120213          	addi	tp,tp,1 # 1 <_start+0x1>
0x62c8 	00200293          	li	t0,2
0x62cc 	fc521ae3          	bne	tp,t0,16170 <test_20+0x8>
0x62d0 	01500e13          	li	t3,21
0x62d4 	00000213          	li	tp,0
0x62d8 	00009117          	auipc	sp,0x9
0x62dc 	b5010113          	addi	sp,sp,-1200 # 1ecf8 <tdat>
0x62e0 	00000013          	nop
0x62e4 	01200093          	li	ra,18
0x62e8 	001101a3          	sb	ra,3(sp)
0x62ec 	00310183          	lb	gp,3(sp)
0x62f0 	01200e93          	li	t4,18
0x62f4 	09d19a63          	bne	gp,t4,16258 <fail>
0x62f8 	00120213          	addi	tp,tp,1 # 1 <_start+0x1>
0x62fc 	00200293          	li	t0,2
0x6300 	fc521ce3          	bne	tp,t0,161a8 <test_21+0x8>
0x6304 	01600e13          	li	t3,22
0x6308 	00000213          	li	tp,0
0x630c 	00009117          	auipc	sp,0x9
0x6310 	b1c10113          	addi	sp,sp,-1252 # 1ecf8 <tdat>
0x6314 	00000013          	nop
0x6318 	01100093          	li	ra,17
0x631c 	00000013          	nop
0x6320 	00110223          	sb	ra,4(sp)
0x6324 	00410183          	lb	gp,4(sp)
0x6328 	01100e93          	li	t4,17
0x632c 	05d19e63          	bne	gp,t4,16258 <fail>
0x6330 	00120213          	addi	tp,tp,1 # 1 <_start+0x1>
0x6334 	00200293          	li	t0,2
0x6338 	fc521ae3          	bne	tp,t0,161dc <test_22+0x8>
0x633c 	01700e13          	li	t3,23
0x6340 	00000213          	li	tp,0
0x6344 	00009117          	auipc	sp,0x9
0x6348 	ae410113          	addi	sp,sp,-1308 # 1ecf8 <tdat>
0x634c 	00000013          	nop
0x6350 	00000013          	nop
0x6354 	00100093          	li	ra,1
0x6358 	001102a3          	sb	ra,5(sp)
0x635c 	00510183          	lb	gp,5(sp)
0x6360 	00100e93          	li	t4,1
0x6364 	03d19263          	bne	gp,t4,16258 <fail>
0x6368 	00120213          	addi	tp,tp,1 # 1 <_start+0x1>
0x636c 	00200293          	li	t0,2
0x6370 	fc521ae3          	bne	tp,t0,16214 <test_23+0x8>
0x6374 	0ef00513          	li	a0,239
0x6378 	00009597          	auipc	a1,0x9
0x637c 	ab058593          	addi	a1,a1,-1360 # 1ecf8 <tdat>
0x6380 	00a581a3          	sb	a0,3(a1)
0x6384 	05c01863          	bne	zero,t3,162a4 <pass>
0x6388 	04500513          	li	a0,69
0x638c 	00004137          	lui	sp,0x4
0x6390 	728070ef          	jal	ra,1d988 <printf_c>
0x6394 	05200513          	li	a0,82
0x6398 	00004137          	lui	sp,0x4
0x639c 	71c070ef          	jal	ra,1d988 <printf_c>
0x63a0 	00004137          	lui	sp,0x4
0x63a4 	714070ef          	jal	ra,1d988 <printf_c>
0x63a8 	04f00513          	li	a0,79
0x63ac 	00004137          	lui	sp,0x4
0x63b0 	708070ef          	jal	ra,1d988 <printf_c>
0x63b4 	00004137          	lui	sp,0x4
0x63b8 	05200513          	li	a0,82
0x63bc 	00004137          	lui	sp,0x4
0x63c0 	6f8070ef          	jal	ra,1d988 <printf_c>
0x63c4 	00a00513          	li	a0,10
0x63c8 	00004137          	lui	sp,0x4
0x63cc 	6ec070ef          	jal	ra,1d988 <printf_c>
0x63d0 	0300006f          	j	162d0 <sh>
0x63d4 	04f00513          	li	a0,79
0x63d8 	00004137          	lui	sp,0x4
0x63dc 	6dc070ef          	jal	ra,1d988 <printf_c>
0x63e0 	04b00513          	li	a0,75
0x63e4 	00004137          	lui	sp,0x4
0x63e8 	6d0070ef          	jal	ra,1d988 <printf_c>
0x63ec 	00a00513          	li	a0,10
0x63f0 	00004137          	lui	sp,0x4
0x63f4 	6c4070ef          	jal	ra,1d988 <printf_c>
0x63f8 	0080006f          	j	162d0 <sh>
0x63fc 	00096873          	csrrsi	a6,0x0,18
0x6400 	00016537          	lui	a0,0x16
0x6404 	2cc50513          	addi	a0,a0,716 # 162cc <.test_name>
0x6408 	00004137          	lui	sp,0x4
0x640c 	6c4070ef          	jal	ra,1d9a0 <printf_s>
0x6410 	00009097          	auipc	ra,0x9
0x6414 	a2408093          	addi	ra,ra,-1500 # 1ed04 <tdat>
0x6418 	0aa00113          	li	sp,170
0x641c 	00209023          	sh	sp,0(ra)
0x6420 	00009183          	lh	gp,0(ra)
0x6424 	0aa00e93          	li	t4,170
0x6428 	00200e13          	li	t3,2
0x642c 	45d19e63          	bne	gp,t4,16758 <fail>
0x6430 	00009097          	auipc	ra,0x9
0x6434 	a0408093          	addi	ra,ra,-1532 # 1ed04 <tdat>
0x6438 	ffffb137          	lui	sp,0xffffb
0x643c 	a0010113          	addi	sp,sp,-1536 # ffffaa00 <heap_memory_used+0xfffd8c28>
0x6440 	00209123          	sh	sp,2(ra)
0x6444 	00209183          	lh	gp,2(ra)
0x6448 	ffffbeb7          	lui	t4,0xffffb
0x644c 	a00e8e93          	addi	t4,t4,-1536 # ffffaa00 <heap_memory_used+0xfffd8c28>
0x6450 	00300e13          	li	t3,3
0x6454 	43d19a63          	bne	gp,t4,16758 <fail>
0x6458 	00009097          	auipc	ra,0x9
0x645c 	9dc08093          	addi	ra,ra,-1572 # 1ed04 <tdat>
0x6460 	beef1137          	lui	sp,0xbeef1
0x6464 	aa010113          	addi	sp,sp,-1376 # beef0aa0 <heap_memory_used+0xbeececc8>
0x6468 	00209223          	sh	sp,4(ra)
0x646c 	0040a183          	lw	gp,4(ra)
0x6470 	beef1eb7          	lui	t4,0xbeef1
0x6474 	aa0e8e93          	addi	t4,t4,-1376 # beef0aa0 <heap_memory_used+0xbeececc8>
0x6478 	00400e13          	li	t3,4
0x647c 	41d19663          	bne	gp,t4,16758 <fail>
0x6480 	00009097          	auipc	ra,0x9
0x6484 	9b408093          	addi	ra,ra,-1612 # 1ed04 <tdat>
0x6488 	ffffa137          	lui	sp,0xffffa
0x648c 	00a10113          	addi	sp,sp,10 # ffffa00a <heap_memory_used+0xfffd8232>
0x6490 	00209323          	sh	sp,6(ra)
0x6494 	00609183          	lh	gp,6(ra)
0x6498 	ffffaeb7          	lui	t4,0xffffa
0x649c 	00ae8e93          	addi	t4,t4,10 # ffffa00a <heap_memory_used+0xfffd8232>
0x64a0 	00500e13          	li	t3,5
0x64a4 	3fd19263          	bne	gp,t4,16758 <fail>
0x64a8 	00009097          	auipc	ra,0x9
0x64ac 	99a08093          	addi	ra,ra,-1638 # 1ed12 <tdat8>
0x64b0 	0aa00113          	li	sp,170
0x64b4 	fe209d23          	sh	sp,-6(ra)
0x64b8 	ffa09183          	lh	gp,-6(ra)
0x64bc 	0aa00e93          	li	t4,170
0x64c0 	00600e13          	li	t3,6
0x64c4 	3dd19263          	bne	gp,t4,16758 <fail>
0x64c8 	00009097          	auipc	ra,0x9
0x64cc 	97a08093          	addi	ra,ra,-1670 # 1ed12 <tdat8>
0x64d0 	ffffb137          	lui	sp,0xffffb
0x64d4 	a0010113          	addi	sp,sp,-1536 # ffffaa00 <heap_memory_used+0xfffd8c28>
0x64d8 	fe209e23          	sh	sp,-4(ra)
0x64dc 	ffc09183          	lh	gp,-4(ra)
0x64e0 	ffffbeb7          	lui	t4,0xffffb
0x64e4 	a00e8e93          	addi	t4,t4,-1536 # ffffaa00 <heap_memory_used+0xfffd8c28>
0x64e8 	00700e13          	li	t3,7
0x64ec 	39d19e63          	bne	gp,t4,16758 <fail>
0x64f0 	00009097          	auipc	ra,0x9
0x64f4 	95208093          	addi	ra,ra,-1710 # 1ed12 <tdat8>
0x64f8 	00001137          	lui	sp,0x1
0x64fc 	aa010113          	addi	sp,sp,-1376 # aa0 <coremarkBenchmark+0x9f8>
0x6500 	fe209f23          	sh	sp,-2(ra)
0x6504 	ffe09183          	lh	gp,-2(ra)
0x6508 	00001eb7          	lui	t4,0x1
0x650c 	aa0e8e93          	addi	t4,t4,-1376 # aa0 <coremarkBenchmark+0x9f8>
0x6510 	00800e13          	li	t3,8
0x6514 	37d19a63          	bne	gp,t4,16758 <fail>
0x6518 	00009097          	auipc	ra,0x9
0x651c 	92a08093          	addi	ra,ra,-1750 # 1ed12 <tdat8>
0x6520 	ffffa137          	lui	sp,0xffffa
0x6524 	00a10113          	addi	sp,sp,10 # ffffa00a <heap_memory_used+0xfffd8232>
0x6528 	00209023          	sh	sp,0(ra)
0x652c 	00009183          	lh	gp,0(ra)
0x6530 	ffffaeb7          	lui	t4,0xffffa
0x6534 	00ae8e93          	addi	t4,t4,10 # ffffa00a <heap_memory_used+0xfffd8232>
0x6538 	00900e13          	li	t3,9
0x653c 	35d19663          	bne	gp,t4,16758 <fail>
0x6540 	00009097          	auipc	ra,0x9
0x6544 	90408093          	addi	ra,ra,-1788 # 1ed14 <tdat9>
0x6548 	12345137          	lui	sp,0x12345
0x654c 	67810113          	addi	sp,sp,1656 # 12345678 <heap_memory_used+0x123238a0>
0x6550 	fe008213          	addi	tp,ra,-32
0x6554 	02221023          	sh	sp,32(tp) # 20 <initReg+0x18>
0x6558 	00009183          	lh	gp,0(ra)
0x655c 	00005eb7          	lui	t4,0x5
0x6560 	678e8e93          	addi	t4,t4,1656 # 5678 <coremarkBenchmark+0x55d0>
0x6564 	00a00e13          	li	t3,10
0x6568 	33d19063          	bne	gp,t4,16758 <fail>
0x656c 	00009097          	auipc	ra,0x9
0x6570 	8d808093          	addi	ra,ra,-1832 # 1ed14 <tdat9>
0x6574 	00003137          	lui	sp,0x3
0x6578 	09810113          	addi	sp,sp,152 # 3098 <coremarkBenchmark+0x2ff0>
0x657c 	ffb08093          	addi	ra,ra,-5
0x6580 	002093a3          	sh	sp,7(ra)
0x6584 	00009217          	auipc	tp,0x9
0x6588 	8c220213          	addi	tp,tp,-1854 # 1ed16 <tdat10>
0x658c 	00021183          	lh	gp,0(tp) # 0 <_start>
0x6590 	00003eb7          	lui	t4,0x3
0x6594 	098e8e93          	addi	t4,t4,152 # 3098 <coremarkBenchmark+0x2ff0>
0x6598 	00b00e13          	li	t3,11
0x659c 	2fd19663          	bne	gp,t4,16758 <fail>
0x65a0 	00c00e13          	li	t3,12
0x65a4 	00000213          	li	tp,0
0x65a8 	ffffd0b7          	lui	ra,0xffffd
0x65ac 	cdd08093          	addi	ra,ra,-803 # ffffccdd <heap_memory_used+0xfffdaf05>
0x65b0 	00009117          	auipc	sp,0x9
0x65b4 	88410113          	addi	sp,sp,-1916 # 1ed04 <tdat>
0x65b8 	00111023          	sh	ra,0(sp)
0x65bc 	00011183          	lh	gp,0(sp)
0x65c0 	ffffdeb7          	lui	t4,0xffffd
0x65c4 	cdde8e93          	addi	t4,t4,-803 # ffffccdd <heap_memory_used+0xfffdaf05>
0x65c8 	2dd19063          	bne	gp,t4,16758 <fail>
0x65cc 	00120213          	addi	tp,tp,1 # 1 <_start+0x1>
0x65d0 	00200293          	li	t0,2
0x65d4 	fc521ae3          	bne	tp,t0,16478 <test_12+0x8>
0x65d8 	00d00e13          	li	t3,13
0x65dc 	00000213          	li	tp,0
0x65e0 	ffffc0b7          	lui	ra,0xffffc
0x65e4 	ccd08093          	addi	ra,ra,-819 # ffffbccd <heap_memory_used+0xfffd9ef5>
0x65e8 	00009117          	auipc	sp,0x9
0x65ec 	84c10113          	addi	sp,sp,-1972 # 1ed04 <tdat>
0x65f0 	00000013          	nop
0x65f4 	00111123          	sh	ra,2(sp)
0x65f8 	00211183          	lh	gp,2(sp)
0x65fc 	ffffceb7          	lui	t4,0xffffc
0x6600 	ccde8e93          	addi	t4,t4,-819 # ffffbccd <heap_memory_used+0xfffd9ef5>
0x6604 	29d19263          	bne	gp,t4,16758 <fail>
0x6608 	00120213          	addi	tp,tp,1 # 1 <_start+0x1>
0x660c 	00200293          	li	t0,2
0x6610 	fc5218e3          	bne	tp,t0,164b0 <test_13+0x8>
0x6614 	00e00e13          	li	t3,14
0x6618 	00000213          	li	tp,0
0x661c 	ffffc0b7          	lui	ra,0xffffc
0x6620 	bcc08093          	addi	ra,ra,-1076 # ffffbbcc <heap_memory_used+0xfffd9df4>
0x6624 	00009117          	auipc	sp,0x9
0x6628 	81010113          	addi	sp,sp,-2032 # 1ed04 <tdat>
0x662c 	00000013          	nop
0x6630 	00000013          	nop
0x6634 	00111223          	sh	ra,4(sp)
0x6638 	00411183          	lh	gp,4(sp)
0x663c 	ffffceb7          	lui	t4,0xffffc
0x6640 	bcce8e93          	addi	t4,t4,-1076 # ffffbbcc <heap_memory_used+0xfffd9df4>
0x6644 	25d19263          	bne	gp,t4,16758 <fail>
0x6648 	00120213          	addi	tp,tp,1 # 1 <_start+0x1>
0x664c 	00200293          	li	t0,2
0x6650 	fc5216e3          	bne	tp,t0,164ec <test_14+0x8>
0x6654 	00f00e13          	li	t3,15
0x6658 	00000213          	li	tp,0
0x665c 	ffffb0b7          	lui	ra,0xffffb
0x6660 	bbc08093          	addi	ra,ra,-1092 # ffffabbc <heap_memory_used+0xfffd8de4>
0x6664 	00000013          	nop
0x6668 	00008117          	auipc	sp,0x8
0x666c 	7cc10113          	addi	sp,sp,1996 # 1ed04 <tdat>
0x6670 	00111323          	sh	ra,6(sp)
0x6674 	00611183          	lh	gp,6(sp)
0x6678 	ffffbeb7          	lui	t4,0xffffb
0x667c 	bbce8e93          	addi	t4,t4,-1092 # ffffabbc <heap_memory_used+0xfffd8de4>
0x6680 	21d19463          	bne	gp,t4,16758 <fail>
0x6684 	00120213          	addi	tp,tp,1 # 1 <_start+0x1>
0x6688 	00200293          	li	t0,2
0x668c 	fc5218e3          	bne	tp,t0,1652c <test_15+0x8>
0x6690 	01000e13          	li	t3,16
0x6694 	00000213          	li	tp,0
0x6698 	ffffb0b7          	lui	ra,0xffffb
0x669c 	abb08093          	addi	ra,ra,-1349 # ffffaabb <heap_memory_used+0xfffd8ce3>
0x66a0 	00000013          	nop
0x66a4 	00008117          	auipc	sp,0x8
0x66a8 	79010113          	addi	sp,sp,1936 # 1ed04 <tdat>
0x66ac 	00000013          	nop
0x66b0 	00111423          	sh	ra,8(sp)
0x66b4 	00811183          	lh	gp,8(sp)
0x66b8 	ffffbeb7          	lui	t4,0xffffb
0x66bc 	abbe8e93          	addi	t4,t4,-1349 # ffffaabb <heap_memory_used+0xfffd8ce3>
0x66c0 	1dd19463          	bne	gp,t4,16758 <fail>
0x66c4 	00120213          	addi	tp,tp,1 # 1 <_start+0x1>
0x66c8 	00200293          	li	t0,2
0x66cc 	fc5216e3          	bne	tp,t0,16568 <test_16+0x8>
0x66d0 	01100e13          	li	t3,17
0x66d4 	00000213          	li	tp,0
0x66d8 	ffffe0b7          	lui	ra,0xffffe
0x66dc 	aab08093          	addi	ra,ra,-1365 # ffffdaab <heap_memory_used+0xfffdbcd3>
0x66e0 	00000013          	nop
0x66e4 	00000013          	nop
0x66e8 	00008117          	auipc	sp,0x8
0x66ec 	74c10113          	addi	sp,sp,1868 # 1ed04 <tdat>
0x66f0 	00111523          	sh	ra,10(sp)
0x66f4 	00a11183          	lh	gp,10(sp)
0x66f8 	ffffeeb7          	lui	t4,0xffffe
0x66fc 	aabe8e93          	addi	t4,t4,-1365 # ffffdaab <heap_memory_used+0xfffdbcd3>
0x6700 	19d19463          	bne	gp,t4,16758 <fail>
0x6704 	00120213          	addi	tp,tp,1 # 1 <_start+0x1>
0x6708 	00200293          	li	t0,2
0x670c 	fc5216e3          	bne	tp,t0,165a8 <test_17+0x8>
0x6710 	01200e13          	li	t3,18
0x6714 	00000213          	li	tp,0
0x6718 	00008117          	auipc	sp,0x8
0x671c 	71c10113          	addi	sp,sp,1820 # 1ed04 <tdat>
0x6720 	000020b7          	lui	ra,0x2
0x6724 	23308093          	addi	ra,ra,563 # 2233 <coremarkBenchmark+0x218b>
0x6728 	00111023          	sh	ra,0(sp)
0x672c 	00011183          	lh	gp,0(sp)
0x6730 	00002eb7          	lui	t4,0x2
0x6734 	233e8e93          	addi	t4,t4,563 # 2233 <coremarkBenchmark+0x218b>
0x6738 	15d19863          	bne	gp,t4,16758 <fail>
0x673c 	00120213          	addi	tp,tp,1 # 1 <_start+0x1>
0x6740 	00200293          	li	t0,2
0x6744 	fc521ae3          	bne	tp,t0,165e8 <test_18+0x8>
0x6748 	01300e13          	li	t3,19
0x674c 	00000213          	li	tp,0
0x6750 	00008117          	auipc	sp,0x8
0x6754 	6e410113          	addi	sp,sp,1764 # 1ed04 <tdat>
0x6758 	000010b7          	lui	ra,0x1
0x675c 	22308093          	addi	ra,ra,547 # 1223 <coremarkBenchmark+0x117b>
0x6760 	00000013          	nop
0x6764 	00111123          	sh	ra,2(sp)
0x6768 	00211183          	lh	gp,2(sp)
0x676c 	00001eb7          	lui	t4,0x1
0x6770 	223e8e93          	addi	t4,t4,547 # 1223 <coremarkBenchmark+0x117b>
0x6774 	11d19a63          	bne	gp,t4,16758 <fail>
0x6778 	00120213          	addi	tp,tp,1 # 1 <_start+0x1>
0x677c 	00200293          	li	t0,2
0x6780 	fc5218e3          	bne	tp,t0,16620 <test_19+0x8>
0x6784 	01400e13          	li	t3,20
0x6788 	00000213          	li	tp,0
0x678c 	00008117          	auipc	sp,0x8
0x6790 	6a810113          	addi	sp,sp,1704 # 1ed04 <tdat>
0x6794 	000010b7          	lui	ra,0x1
0x6798 	12208093          	addi	ra,ra,290 # 1122 <coremarkBenchmark+0x107a>
0x679c 	00000013          	nop
0x67a0 	00000013          	nop
0x67a4 	00111223          	sh	ra,4(sp)
0x67a8 	00411183          	lh	gp,4(sp)
0x67ac 	00001eb7          	lui	t4,0x1
0x67b0 	122e8e93          	addi	t4,t4,290 # 1122 <coremarkBenchmark+0x107a>
0x67b4 	0dd19a63          	bne	gp,t4,16758 <fail>
0x67b8 	00120213          	addi	tp,tp,1 # 1 <_start+0x1>
0x67bc 	00200293          	li	t0,2
0x67c0 	fc5216e3          	bne	tp,t0,1665c <test_20+0x8>
0x67c4 	01500e13          	li	t3,21
0x67c8 	00000213          	li	tp,0
0x67cc 	00008117          	auipc	sp,0x8
0x67d0 	66810113          	addi	sp,sp,1640 # 1ed04 <tdat>
0x67d4 	00000013          	nop
0x67d8 	11200093          	li	ra,274
0x67dc 	00111323          	sh	ra,6(sp)
0x67e0 	00611183          	lh	gp,6(sp)
0x67e4 	11200e93          	li	t4,274
0x67e8 	0bd19063          	bne	gp,t4,16758 <fail>
0x67ec 	00120213          	addi	tp,tp,1 # 1 <_start+0x1>
0x67f0 	00200293          	li	t0,2
0x67f4 	fc521ce3          	bne	tp,t0,1669c <test_21+0x8>
0x67f8 	01600e13          	li	t3,22
0x67fc 	00000213          	li	tp,0
0x6800 	00008117          	auipc	sp,0x8
0x6804 	63410113          	addi	sp,sp,1588 # 1ed04 <tdat>
0x6808 	00000013          	nop
0x680c 	01100093          	li	ra,17
0x6810 	00000013          	nop
0x6814 	00111423          	sh	ra,8(sp)
0x6818 	00811183          	lh	gp,8(sp)
0x681c 	01100e93          	li	t4,17
0x6820 	07d19463          	bne	gp,t4,16758 <fail>
0x6824 	00120213          	addi	tp,tp,1 # 1 <_start+0x1>
0x6828 	00200293          	li	t0,2
0x682c 	fc521ae3          	bne	tp,t0,166d0 <test_22+0x8>
0x6830 	01700e13          	li	t3,23
0x6834 	00000213          	li	tp,0
0x6838 	00008117          	auipc	sp,0x8
0x683c 	5fc10113          	addi	sp,sp,1532 # 1ed04 <tdat>
0x6840 	00000013          	nop
0x6844 	00000013          	nop
0x6848 	000030b7          	lui	ra,0x3
0x684c 	00108093          	addi	ra,ra,1 # 3001 <coremarkBenchmark+0x2f59>
0x6850 	00111523          	sh	ra,10(sp)
0x6854 	00a11183          	lh	gp,10(sp)
0x6858 	00003eb7          	lui	t4,0x3
0x685c 	001e8e93          	addi	t4,t4,1 # 3001 <coremarkBenchmark+0x2f59>
0x6860 	03d19463          	bne	gp,t4,16758 <fail>
0x6864 	00120213          	addi	tp,tp,1 # 1 <_start+0x1>
0x6868 	00200293          	li	t0,2
0x686c 	fc5216e3          	bne	tp,t0,16708 <test_23+0x8>
0x6870 	0000c537          	lui	a0,0xc
0x6874 	eef50513          	addi	a0,a0,-273 # beef <coremarkBenchmark+0xbe47>
0x6878 	00008597          	auipc	a1,0x8
0x687c 	5bc58593          	addi	a1,a1,1468 # 1ed04 <tdat>
0x6880 	00a59323          	sh	a0,6(a1)
0x6884 	05c01863          	bne	zero,t3,167a4 <pass>
0x6888 	04500513          	li	a0,69
0x688c 	00004137          	lui	sp,0x4
0x6890 	228070ef          	jal	ra,1d988 <printf_c>
0x6894 	05200513          	li	a0,82
0x6898 	00004137          	lui	sp,0x4
0x689c 	21c070ef          	jal	ra,1d988 <printf_c>
0x68a0 	00004137          	lui	sp,0x4
0x68a4 	214070ef          	jal	ra,1d988 <printf_c>
0x68a8 	04f00513          	li	a0,79
0x68ac 	00004137          	lui	sp,0x4
0x68b0 	208070ef          	jal	ra,1d988 <printf_c>
0x68b4 	00004137          	lui	sp,0x4
0x68b8 	05200513          	li	a0,82
0x68bc 	00004137          	lui	sp,0x4
0x68c0 	1f8070ef          	jal	ra,1d988 <printf_c>
0x68c4 	00a00513          	li	a0,10
0x68c8 	00004137          	lui	sp,0x4
0x68cc 	1ec070ef          	jal	ra,1d988 <printf_c>
0x68d0 	0340006f          	j	167d4 <sll>
0x68d4 	04f00513          	li	a0,79
0x68d8 	00004137          	lui	sp,0x4
0x68dc 	1dc070ef          	jal	ra,1d988 <printf_c>
0x68e0 	04b00513          	li	a0,75
0x68e4 	00004137          	lui	sp,0x4
0x68e8 	1d0070ef          	jal	ra,1d988 <printf_c>
0x68ec 	00a00513          	li	a0,10
0x68f0 	00004137          	lui	sp,0x4
0x68f4 	1c4070ef          	jal	ra,1d988 <printf_c>
0x68f8 	00c0006f          	j	167d4 <sll>
0x68fc 	206c6c73          	csrrsi	s8,0x206,24
0x6900 	0009                	c.addi	zero,2
0x6904 	00016537          	lui	a0,0x16
0x6908 	7cc50513          	addi	a0,a0,1996 # 167cc <.test_name>
0x690c 	00004137          	lui	sp,0x4
0x6910 	1c0070ef          	jal	ra,1d9a0 <printf_s>
0x6914 	00100093          	li	ra,1
0x6918 	00000113          	li	sp,0
0x691c 	002091b3          	sll	gp,ra,sp
0x6920 	00100e93          	li	t4,1
0x6924 	00200e13          	li	t3,2
0x6928 	55d19c63          	bne	gp,t4,16d50 <fail>
0x692c 	00100093          	li	ra,1
0x6930 	00100113          	li	sp,1
0x6934 	002091b3          	sll	gp,ra,sp
0x6938 	00200e93          	li	t4,2
0x693c 	00300e13          	li	t3,3
0x6940 	55d19063          	bne	gp,t4,16d50 <fail>
0x6944 	00100093          	li	ra,1
0x6948 	00700113          	li	sp,7
0x694c 	002091b3          	sll	gp,ra,sp
0x6950 	08000e93          	li	t4,128
0x6954 	00400e13          	li	t3,4
0x6958 	53d19463          	bne	gp,t4,16d50 <fail>
0x695c 	00100093          	li	ra,1
0x6960 	00e00113          	li	sp,14
0x6964 	002091b3          	sll	gp,ra,sp
0x6968 	00004eb7          	lui	t4,0x4
0x696c 	00500e13          	li	t3,5
0x6970 	51d19863          	bne	gp,t4,16d50 <fail>
0x6974 	00100093          	li	ra,1
0x6978 	01f00113          	li	sp,31
0x697c 	002091b3          	sll	gp,ra,sp
0x6980 	80000eb7          	lui	t4,0x80000
0x6984 	00600e13          	li	t3,6
0x6988 	4fd19c63          	bne	gp,t4,16d50 <fail>
0x698c 	fff00093          	li	ra,-1
0x6990 	00000113          	li	sp,0
0x6994 	002091b3          	sll	gp,ra,sp
0x6998 	fff00e93          	li	t4,-1
0x699c 	00700e13          	li	t3,7
0x69a0 	4fd19063          	bne	gp,t4,16d50 <fail>
0x69a4 	fff00093          	li	ra,-1
0x69a8 	00100113          	li	sp,1
0x69ac 	002091b3          	sll	gp,ra,sp
0x69b0 	ffe00e93          	li	t4,-2
0x69b4 	00800e13          	li	t3,8
0x69b8 	4dd19463          	bne	gp,t4,16d50 <fail>
0x69bc 	fff00093          	li	ra,-1
0x69c0 	00700113          	li	sp,7
0x69c4 	002091b3          	sll	gp,ra,sp
0x69c8 	f8000e93          	li	t4,-128
0x69cc 	00900e13          	li	t3,9
0x69d0 	4bd19863          	bne	gp,t4,16d50 <fail>
0x69d4 	fff00093          	li	ra,-1
0x69d8 	00e00113          	li	sp,14
0x69dc 	002091b3          	sll	gp,ra,sp
0x69e0 	ffffceb7          	lui	t4,0xffffc
0x69e4 	00a00e13          	li	t3,10
0x69e8 	49d19c63          	bne	gp,t4,16d50 <fail>
0x69ec 	fff00093          	li	ra,-1
0x69f0 	01f00113          	li	sp,31
0x69f4 	002091b3          	sll	gp,ra,sp
0x69f8 	80000eb7          	lui	t4,0x80000
0x69fc 	00b00e13          	li	t3,11
0x6a00 	49d19063          	bne	gp,t4,16d50 <fail>
0x6a04 	212120b7          	lui	ra,0x21212
0x6a08 	12108093          	addi	ra,ra,289 # 21212121 <heap_memory_used+0x211f0349>
0x6a0c 	00000113          	li	sp,0
0x6a10 	002091b3          	sll	gp,ra,sp
0x6a14 	21212eb7          	lui	t4,0x21212
0x6a18 	121e8e93          	addi	t4,t4,289 # 21212121 <heap_memory_used+0x211f0349>
0x6a1c 	00c00e13          	li	t3,12
0x6a20 	47d19063          	bne	gp,t4,16d50 <fail>
0x6a24 	212120b7          	lui	ra,0x21212
0x6a28 	12108093          	addi	ra,ra,289 # 21212121 <heap_memory_used+0x211f0349>
0x6a2c 	00100113          	li	sp,1
0x6a30 	002091b3          	sll	gp,ra,sp
0x6a34 	42424eb7          	lui	t4,0x42424
0x6a38 	242e8e93          	addi	t4,t4,578 # 42424242 <heap_memory_used+0x4240246a>
0x6a3c 	00d00e13          	li	t3,13
0x6a40 	45d19063          	bne	gp,t4,16d50 <fail>
0x6a44 	212120b7          	lui	ra,0x21212
0x6a48 	12108093          	addi	ra,ra,289 # 21212121 <heap_memory_used+0x211f0349>
0x6a4c 	00700113          	li	sp,7
0x6a50 	002091b3          	sll	gp,ra,sp
0x6a54 	90909eb7          	lui	t4,0x90909
0x6a58 	080e8e93          	addi	t4,t4,128 # 90909080 <heap_memory_used+0x908e72a8>
0x6a5c 	00e00e13          	li	t3,14
0x6a60 	43d19063          	bne	gp,t4,16d50 <fail>
0x6a64 	212120b7          	lui	ra,0x21212
0x6a68 	12108093          	addi	ra,ra,289 # 21212121 <heap_memory_used+0x211f0349>
0x6a6c 	00e00113          	li	sp,14
0x6a70 	002091b3          	sll	gp,ra,sp
0x6a74 	48484eb7          	lui	t4,0x48484
0x6a78 	00f00e13          	li	t3,15
0x6a7c 	41d19263          	bne	gp,t4,16d50 <fail>
0x6a80 	212120b7          	lui	ra,0x21212
0x6a84 	12108093          	addi	ra,ra,289 # 21212121 <heap_memory_used+0x211f0349>
0x6a88 	01f00113          	li	sp,31
0x6a8c 	002091b3          	sll	gp,ra,sp
0x6a90 	80000eb7          	lui	t4,0x80000
0x6a94 	01000e13          	li	t3,16
0x6a98 	3fd19463          	bne	gp,t4,16d50 <fail>
0x6a9c 	212120b7          	lui	ra,0x21212
0x6aa0 	12108093          	addi	ra,ra,289 # 21212121 <heap_memory_used+0x211f0349>
0x6aa4 	fe000113          	li	sp,-32
0x6aa8 	002091b3          	sll	gp,ra,sp
0x6aac 	21212eb7          	lui	t4,0x21212
0x6ab0 	121e8e93          	addi	t4,t4,289 # 21212121 <heap_memory_used+0x211f0349>
0x6ab4 	01100e13          	li	t3,17
0x6ab8 	3dd19463          	bne	gp,t4,16d50 <fail>
0x6abc 	212120b7          	lui	ra,0x21212
0x6ac0 	12108093          	addi	ra,ra,289 # 21212121 <heap_memory_used+0x211f0349>
0x6ac4 	fe100113          	li	sp,-31
0x6ac8 	002091b3          	sll	gp,ra,sp
0x6acc 	42424eb7          	lui	t4,0x42424
0x6ad0 	242e8e93          	addi	t4,t4,578 # 42424242 <heap_memory_used+0x4240246a>
0x6ad4 	01200e13          	li	t3,18
0x6ad8 	3bd19463          	bne	gp,t4,16d50 <fail>
0x6adc 	212120b7          	lui	ra,0x21212
0x6ae0 	12108093          	addi	ra,ra,289 # 21212121 <heap_memory_used+0x211f0349>
0x6ae4 	fe700113          	li	sp,-25
0x6ae8 	002091b3          	sll	gp,ra,sp
0x6aec 	90909eb7          	lui	t4,0x90909
0x6af0 	080e8e93          	addi	t4,t4,128 # 90909080 <heap_memory_used+0x908e72a8>
0x6af4 	01300e13          	li	t3,19
0x6af8 	39d19463          	bne	gp,t4,16d50 <fail>
0x6afc 	212120b7          	lui	ra,0x21212
0x6b00 	12108093          	addi	ra,ra,289 # 21212121 <heap_memory_used+0x211f0349>
0x6b04 	fee00113          	li	sp,-18
0x6b08 	002091b3          	sll	gp,ra,sp
0x6b0c 	48484eb7          	lui	t4,0x48484
0x6b10 	01400e13          	li	t3,20
0x6b14 	37d19663          	bne	gp,t4,16d50 <fail>
0x6b18 	212120b7          	lui	ra,0x21212
0x6b1c 	12008093          	addi	ra,ra,288 # 21212120 <heap_memory_used+0x211f0348>
0x6b20 	fff00113          	li	sp,-1
0x6b24 	002091b3          	sll	gp,ra,sp
0x6b28 	00000e93          	li	t4,0
0x6b2c 	01500e13          	li	t3,21
0x6b30 	35d19863          	bne	gp,t4,16d50 <fail>
0x6b34 	00100093          	li	ra,1
0x6b38 	00700113          	li	sp,7
0x6b3c 	002090b3          	sll	ra,ra,sp
0x6b40 	08000e93          	li	t4,128
0x6b44 	01600e13          	li	t3,22
0x6b48 	33d09c63          	bne	ra,t4,16d50 <fail>
0x6b4c 	00100093          	li	ra,1
0x6b50 	00e00113          	li	sp,14
0x6b54 	00209133          	sll	sp,ra,sp
0x6b58 	00004eb7          	lui	t4,0x4
0x6b5c 	01700e13          	li	t3,23
0x6b60 	33d11063          	bne	sp,t4,16d50 <fail>
0x6b64 	00300093          	li	ra,3
0x6b68 	001090b3          	sll	ra,ra,ra
0x6b6c 	01800e93          	li	t4,24
0x6b70 	01800e13          	li	t3,24
0x6b74 	31d09663          	bne	ra,t4,16d50 <fail>
0x6b78 	00000213          	li	tp,0
0x6b7c 	00100093          	li	ra,1
0x6b80 	00700113          	li	sp,7
0x6b84 	002091b3          	sll	gp,ra,sp
0x6b88 	00018313          	mv	t1,gp
0x6b8c 	00120213          	addi	tp,tp,1 # 1 <_start+0x1>
0x6b90 	00200293          	li	t0,2
0x6b94 	fe5214e3          	bne	tp,t0,16a4c <test_25+0x4>
0x6b98 	08000e93          	li	t4,128
0x6b9c 	01900e13          	li	t3,25
0x6ba0 	2fd31063          	bne	t1,t4,16d50 <fail>
0x6ba4 	00000213          	li	tp,0
0x6ba8 	00100093          	li	ra,1
0x6bac 	00e00113          	li	sp,14
0x6bb0 	002091b3          	sll	gp,ra,sp
0x6bb4 	00000013          	nop
0x6bb8 	00018313          	mv	t1,gp
0x6bbc 	00120213          	addi	tp,tp,1 # 1 <_start+0x1>
0x6bc0 	00200293          	li	t0,2
0x6bc4 	fe5212e3          	bne	tp,t0,16a78 <test_26+0x4>
0x6bc8 	00004eb7          	lui	t4,0x4
0x6bcc 	01a00e13          	li	t3,26
0x6bd0 	2bd31863          	bne	t1,t4,16d50 <fail>
0x6bd4 	00000213          	li	tp,0
0x6bd8 	00100093          	li	ra,1
0x6bdc 	01f00113          	li	sp,31
0x6be0 	002091b3          	sll	gp,ra,sp
0x6be4 	00000013          	nop
0x6be8 	00000013          	nop
0x6bec 	00018313          	mv	t1,gp
0x6bf0 	00120213          	addi	tp,tp,1 # 1 <_start+0x1>
0x6bf4 	00200293          	li	t0,2
0x6bf8 	fe5210e3          	bne	tp,t0,16aa8 <test_27+0x4>
0x6bfc 	80000eb7          	lui	t4,0x80000
0x6c00 	01b00e13          	li	t3,27
0x6c04 	27d31e63          	bne	t1,t4,16d50 <fail>
0x6c08 	00000213          	li	tp,0
0x6c0c 	00100093          	li	ra,1
0x6c10 	00700113          	li	sp,7
0x6c14 	002091b3          	sll	gp,ra,sp
0x6c18 	00120213          	addi	tp,tp,1 # 1 <_start+0x1>
0x6c1c 	00200293          	li	t0,2
0x6c20 	fe5216e3          	bne	tp,t0,16adc <test_28+0x4>
0x6c24 	08000e93          	li	t4,128
0x6c28 	01c00e13          	li	t3,28
0x6c2c 	25d19a63          	bne	gp,t4,16d50 <fail>
0x6c30 	00000213          	li	tp,0
0x6c34 	00100093          	li	ra,1
0x6c38 	00e00113          	li	sp,14
0x6c3c 	00000013          	nop
0x6c40 	002091b3          	sll	gp,ra,sp
0x6c44 	00120213          	addi	tp,tp,1 # 1 <_start+0x1>
0x6c48 	00200293          	li	t0,2
0x6c4c 	fe5214e3          	bne	tp,t0,16b04 <test_29+0x4>
0x6c50 	00004eb7          	lui	t4,0x4
0x6c54 	01d00e13          	li	t3,29
0x6c58 	23d19463          	bne	gp,t4,16d50 <fail>
0x6c5c 	00000213          	li	tp,0
0x6c60 	00100093          	li	ra,1
0x6c64 	01f00113          	li	sp,31
0x6c68 	00000013          	nop
0x6c6c 	00000013          	nop
0x6c70 	002091b3          	sll	gp,ra,sp
0x6c74 	00120213          	addi	tp,tp,1 # 1 <_start+0x1>
0x6c78 	00200293          	li	t0,2
0x6c7c 	fe5212e3          	bne	tp,t0,16b30 <test_30+0x4>
0x6c80 	80000eb7          	lui	t4,0x80000
0x6c84 	01e00e13          	li	t3,30
0x6c88 	1fd19c63          	bne	gp,t4,16d50 <fail>
0x6c8c 	00000213          	li	tp,0
0x6c90 	00100093          	li	ra,1
0x6c94 	00000013          	nop
0x6c98 	00700113          	li	sp,7
0x6c9c 	002091b3          	sll	gp,ra,sp
0x6ca0 	00120213          	addi	tp,tp,1 # 1 <_start+0x1>
0x6ca4 	00200293          	li	t0,2
0x6ca8 	fe5214e3          	bne	tp,t0,16b60 <test_31+0x4>
0x6cac 	08000e93          	li	t4,128
0x6cb0 	01f00e13          	li	t3,31
0x6cb4 	1dd19663          	bne	gp,t4,16d50 <fail>
0x6cb8 	00000213          	li	tp,0
0x6cbc 	00100093          	li	ra,1
0x6cc0 	00000013          	nop
0x6cc4 	00e00113          	li	sp,14
0x6cc8 	00000013          	nop
0x6ccc 	002091b3          	sll	gp,ra,sp
0x6cd0 	00120213          	addi	tp,tp,1 # 1 <_start+0x1>
0x6cd4 	00200293          	li	t0,2
0x6cd8 	fe5212e3          	bne	tp,t0,16b8c <test_32+0x4>
0x6cdc 	00004eb7          	lui	t4,0x4
0x6ce0 	02000e13          	li	t3,32
0x6ce4 	19d19e63          	bne	gp,t4,16d50 <fail>
0x6ce8 	00000213          	li	tp,0
0x6cec 	00100093          	li	ra,1
0x6cf0 	00000013          	nop
0x6cf4 	00000013          	nop
0x6cf8 	01f00113          	li	sp,31
0x6cfc 	002091b3          	sll	gp,ra,sp
0x6d00 	00120213          	addi	tp,tp,1 # 1 <_start+0x1>
0x6d04 	00200293          	li	t0,2
0x6d08 	fe5212e3          	bne	tp,t0,16bbc <test_33+0x4>
0x6d0c 	80000eb7          	lui	t4,0x80000
0x6d10 	02100e13          	li	t3,33
0x6d14 	17d19663          	bne	gp,t4,16d50 <fail>
0x6d18 	00000213          	li	tp,0
0x6d1c 	00700113          	li	sp,7
0x6d20 	00100093          	li	ra,1
0x6d24 	002091b3          	sll	gp,ra,sp
0x6d28 	00120213          	addi	tp,tp,1 # 1 <_start+0x1>
0x6d2c 	00200293          	li	t0,2
0x6d30 	fe5216e3          	bne	tp,t0,16bec <test_34+0x4>
0x6d34 	08000e93          	li	t4,128
0x6d38 	02200e13          	li	t3,34
0x6d3c 	15d19263          	bne	gp,t4,16d50 <fail>
0x6d40 	00000213          	li	tp,0
0x6d44 	00e00113          	li	sp,14
0x6d48 	00100093          	li	ra,1
0x6d4c 	00000013          	nop
0x6d50 	002091b3          	sll	gp,ra,sp
0x6d54 	00120213          	addi	tp,tp,1 # 1 <_start+0x1>
0x6d58 	00200293          	li	t0,2
0x6d5c 	fe5214e3          	bne	tp,t0,16c14 <test_35+0x4>
0x6d60 	00004eb7          	lui	t4,0x4
0x6d64 	02300e13          	li	t3,35
0x6d68 	11d19c63          	bne	gp,t4,16d50 <fail>
0x6d6c 	00000213          	li	tp,0
0x6d70 	01f00113          	li	sp,31
0x6d74 	00100093          	li	ra,1
0x6d78 	00000013          	nop
0x6d7c 	00000013          	nop
0x6d80 	002091b3          	sll	gp,ra,sp
0x6d84 	00120213          	addi	tp,tp,1 # 1 <_start+0x1>
0x6d88 	00200293          	li	t0,2
0x6d8c 	fe5212e3          	bne	tp,t0,16c40 <test_36+0x4>
0x6d90 	80000eb7          	lui	t4,0x80000
0x6d94 	02400e13          	li	t3,36
0x6d98 	0fd19463          	bne	gp,t4,16d50 <fail>
0x6d9c 	00000213          	li	tp,0
0x6da0 	00700113          	li	sp,7
0x6da4 	00000013          	nop
0x6da8 	00100093          	li	ra,1
0x6dac 	002091b3          	sll	gp,ra,sp
0x6db0 	00120213          	addi	tp,tp,1 # 1 <_start+0x1>
0x6db4 	00200293          	li	t0,2
0x6db8 	fe5214e3          	bne	tp,t0,16c70 <test_37+0x4>
0x6dbc 	08000e93          	li	t4,128
0x6dc0 	02500e13          	li	t3,37
0x6dc4 	0bd19e63          	bne	gp,t4,16d50 <fail>
0x6dc8 	00000213          	li	tp,0
0x6dcc 	00e00113          	li	sp,14
0x6dd0 	00000013          	nop
0x6dd4 	00100093          	li	ra,1
0x6dd8 	00000013          	nop
0x6ddc 	002091b3          	sll	gp,ra,sp
0x6de0 	00120213          	addi	tp,tp,1 # 1 <_start+0x1>
0x6de4 	00200293          	li	t0,2
0x6de8 	fe5212e3          	bne	tp,t0,16c9c <test_38+0x4>
0x6dec 	00004eb7          	lui	t4,0x4
0x6df0 	02600e13          	li	t3,38
0x6df4 	09d19663          	bne	gp,t4,16d50 <fail>
0x6df8 	00000213          	li	tp,0
0x6dfc 	01f00113          	li	sp,31
0x6e00 	00000013          	nop
0x6e04 	00000013          	nop
0x6e08 	00100093          	li	ra,1
0x6e0c 	002091b3          	sll	gp,ra,sp
0x6e10 	00120213          	addi	tp,tp,1 # 1 <_start+0x1>
0x6e14 	00200293          	li	t0,2
0x6e18 	fe5212e3          	bne	tp,t0,16ccc <test_39+0x4>
0x6e1c 	80000eb7          	lui	t4,0x80000
0x6e20 	02700e13          	li	t3,39
0x6e24 	05d19e63          	bne	gp,t4,16d50 <fail>
0x6e28 	00f00093          	li	ra,15
0x6e2c 	00101133          	sll	sp,zero,ra
0x6e30 	00000e93          	li	t4,0
0x6e34 	02800e13          	li	t3,40
0x6e38 	05d11463          	bne	sp,t4,16d50 <fail>
0x6e3c 	02000093          	li	ra,32
0x6e40 	00009133          	sll	sp,ra,zero
0x6e44 	02000e93          	li	t4,32
0x6e48 	02900e13          	li	t3,41
0x6e4c 	03d11a63          	bne	sp,t4,16d50 <fail>
0x6e50 	000010b3          	sll	ra,zero,zero
0x6e54 	00000e93          	li	t4,0
0x6e58 	02a00e13          	li	t3,42
0x6e5c 	03d09263          	bne	ra,t4,16d50 <fail>
0x6e60 	40000093          	li	ra,1024
0x6e64 	00001137          	lui	sp,0x1
0x6e68 	80010113          	addi	sp,sp,-2048 # 800 <coremarkBenchmark+0x758>
0x6e6c 	00209033          	sll	zero,ra,sp
0x6e70 	00000e93          	li	t4,0
0x6e74 	02b00e13          	li	t3,43
0x6e78 	01d01463          	bne	zero,t4,16d50 <fail>
0x6e7c 	05c01863          	bne	zero,t3,16d9c <pass>
0x6e80 	04500513          	li	a0,69
0x6e84 	00004137          	lui	sp,0x4
0x6e88 	431060ef          	jal	ra,1d988 <printf_c>
0x6e8c 	05200513          	li	a0,82
0x6e90 	00004137          	lui	sp,0x4
0x6e94 	425060ef          	jal	ra,1d988 <printf_c>
0x6e98 	00004137          	lui	sp,0x4
0x6e9c 	41d060ef          	jal	ra,1d988 <printf_c>
0x6ea0 	04f00513          	li	a0,79
0x6ea4 	00004137          	lui	sp,0x4
0x6ea8 	411060ef          	jal	ra,1d988 <printf_c>
0x6eac 	00004137          	lui	sp,0x4
0x6eb0 	05200513          	li	a0,82
0x6eb4 	00004137          	lui	sp,0x4
0x6eb8 	401060ef          	jal	ra,1d988 <printf_c>
0x6ebc 	00a00513          	li	a0,10
0x6ec0 	00004137          	lui	sp,0x4
0x6ec4 	3f5060ef          	jal	ra,1d988 <printf_c>
0x6ec8 	0340006f          	j	16dcc <slli>
0x6ecc 	04f00513          	li	a0,79
0x6ed0 	00004137          	lui	sp,0x4
0x6ed4 	3e5060ef          	jal	ra,1d988 <printf_c>
0x6ed8 	04b00513          	li	a0,75
0x6edc 	00004137          	lui	sp,0x4
0x6ee0 	3d9060ef          	jal	ra,1d988 <printf_c>
0x6ee4 	00a00513          	li	a0,10
0x6ee8 	00004137          	lui	sp,0x4
0x6eec 	3cd060ef          	jal	ra,1d988 <printf_c>
0x6ef0 	00c0006f          	j	16dcc <slli>
0x6ef4 	696c6c73          	csrrsi	s8,0x696,24
0x6ef8 	0920                	addi	s0,sp,152
0x6efc 	00017537          	lui	a0,0x17
0x6f00 	dc450513          	addi	a0,a0,-572 # 16dc4 <.test_name>
0x6f04 	00004137          	lui	sp,0x4
0x6f08 	3c9060ef          	jal	ra,1d9a0 <printf_s>
0x6f0c 	00100093          	li	ra,1
0x6f10 	00009193          	slli	gp,ra,0x0
0x6f14 	00100e93          	li	t4,1
0x6f18 	00200e13          	li	t3,2
0x6f1c 	27d19a63          	bne	gp,t4,17060 <fail>
0x6f20 	00100093          	li	ra,1
0x6f24 	00109193          	slli	gp,ra,0x1
0x6f28 	00200e93          	li	t4,2
0x6f2c 	00300e13          	li	t3,3
0x6f30 	27d19063          	bne	gp,t4,17060 <fail>
0x6f34 	00100093          	li	ra,1
0x6f38 	00709193          	slli	gp,ra,0x7
0x6f3c 	08000e93          	li	t4,128
0x6f40 	00400e13          	li	t3,4
0x6f44 	25d19663          	bne	gp,t4,17060 <fail>
0x6f48 	00100093          	li	ra,1
0x6f4c 	00e09193          	slli	gp,ra,0xe
0x6f50 	00004eb7          	lui	t4,0x4
0x6f54 	00500e13          	li	t3,5
0x6f58 	23d19c63          	bne	gp,t4,17060 <fail>
0x6f5c 	00100093          	li	ra,1
0x6f60 	01f09193          	slli	gp,ra,0x1f
0x6f64 	80000eb7          	lui	t4,0x80000
0x6f68 	00600e13          	li	t3,6
0x6f6c 	23d19263          	bne	gp,t4,17060 <fail>
0x6f70 	fff00093          	li	ra,-1
0x6f74 	00009193          	slli	gp,ra,0x0
0x6f78 	fff00e93          	li	t4,-1
0x6f7c 	00700e13          	li	t3,7
0x6f80 	21d19863          	bne	gp,t4,17060 <fail>
0x6f84 	fff00093          	li	ra,-1
0x6f88 	00109193          	slli	gp,ra,0x1
0x6f8c 	ffe00e93          	li	t4,-2
0x6f90 	00800e13          	li	t3,8
0x6f94 	1fd19e63          	bne	gp,t4,17060 <fail>
0x6f98 	fff00093          	li	ra,-1
0x6f9c 	00709193          	slli	gp,ra,0x7
0x6fa0 	f8000e93          	li	t4,-128
0x6fa4 	00900e13          	li	t3,9
0x6fa8 	1fd19463          	bne	gp,t4,17060 <fail>
0x6fac 	fff00093          	li	ra,-1
0x6fb0 	00e09193          	slli	gp,ra,0xe
0x6fb4 	ffffceb7          	lui	t4,0xffffc
0x6fb8 	00a00e13          	li	t3,10
0x6fbc 	1dd19a63          	bne	gp,t4,17060 <fail>
0x6fc0 	fff00093          	li	ra,-1
0x6fc4 	01f09193          	slli	gp,ra,0x1f
0x6fc8 	80000eb7          	lui	t4,0x80000
0x6fcc 	00b00e13          	li	t3,11
0x6fd0 	1dd19063          	bne	gp,t4,17060 <fail>
0x6fd4 	212120b7          	lui	ra,0x21212
0x6fd8 	12108093          	addi	ra,ra,289 # 21212121 <heap_memory_used+0x211f0349>
0x6fdc 	00009193          	slli	gp,ra,0x0
0x6fe0 	21212eb7          	lui	t4,0x21212
0x6fe4 	121e8e93          	addi	t4,t4,289 # 21212121 <heap_memory_used+0x211f0349>
0x6fe8 	00c00e13          	li	t3,12
0x6fec 	1bd19263          	bne	gp,t4,17060 <fail>
0x6ff0 	212120b7          	lui	ra,0x21212
0x6ff4 	12108093          	addi	ra,ra,289 # 21212121 <heap_memory_used+0x211f0349>
0x6ff8 	00109193          	slli	gp,ra,0x1
0x6ffc 	42424eb7          	lui	t4,0x42424
0x7000 	242e8e93          	addi	t4,t4,578 # 42424242 <heap_memory_used+0x4240246a>
0x7004 	00d00e13          	li	t3,13
0x7008 	19d19463          	bne	gp,t4,17060 <fail>
0x700c 	212120b7          	lui	ra,0x21212
0x7010 	12108093          	addi	ra,ra,289 # 21212121 <heap_memory_used+0x211f0349>
0x7014 	00709193          	slli	gp,ra,0x7
0x7018 	90909eb7          	lui	t4,0x90909
0x701c 	080e8e93          	addi	t4,t4,128 # 90909080 <heap_memory_used+0x908e72a8>
0x7020 	00e00e13          	li	t3,14
0x7024 	17d19663          	bne	gp,t4,17060 <fail>
0x7028 	212120b7          	lui	ra,0x21212
0x702c 	12108093          	addi	ra,ra,289 # 21212121 <heap_memory_used+0x211f0349>
0x7030 	00e09193          	slli	gp,ra,0xe
0x7034 	48484eb7          	lui	t4,0x48484
0x7038 	00f00e13          	li	t3,15
0x703c 	15d19a63          	bne	gp,t4,17060 <fail>
0x7040 	212120b7          	lui	ra,0x21212
0x7044 	12108093          	addi	ra,ra,289 # 21212121 <heap_memory_used+0x211f0349>
0x7048 	01f09193          	slli	gp,ra,0x1f
0x704c 	80000eb7          	lui	t4,0x80000
0x7050 	01000e13          	li	t3,16
0x7054 	13d19e63          	bne	gp,t4,17060 <fail>
0x7058 	00100093          	li	ra,1
0x705c 	00709093          	slli	ra,ra,0x7
0x7060 	08000e93          	li	t4,128
0x7064 	01100e13          	li	t3,17
0x7068 	13d09463          	bne	ra,t4,17060 <fail>
0x706c 	00000213          	li	tp,0
0x7070 	00100093          	li	ra,1
0x7074 	00709193          	slli	gp,ra,0x7
0x7078 	00018313          	mv	t1,gp
0x707c 	00120213          	addi	tp,tp,1 # 1 <_start+0x1>
0x7080 	00200293          	li	t0,2
0x7084 	fe5216e3          	bne	tp,t0,16f40 <test_18+0x4>
0x7088 	08000e93          	li	t4,128
0x708c 	01200e13          	li	t3,18
0x7090 	11d31063          	bne	t1,t4,17060 <fail>
0x7094 	00000213          	li	tp,0
0x7098 	00100093          	li	ra,1
0x709c 	00e09193          	slli	gp,ra,0xe
0x70a0 	00000013          	nop
0x70a4 	00018313          	mv	t1,gp
0x70a8 	00120213          	addi	tp,tp,1 # 1 <_start+0x1>
0x70ac 	00200293          	li	t0,2
0x70b0 	fe5214e3          	bne	tp,t0,16f68 <test_19+0x4>
0x70b4 	00004eb7          	lui	t4,0x4
0x70b8 	01300e13          	li	t3,19
0x70bc 	0dd31a63          	bne	t1,t4,17060 <fail>
0x70c0 	00000213          	li	tp,0
0x70c4 	00100093          	li	ra,1
0x70c8 	01f09193          	slli	gp,ra,0x1f
0x70cc 	00000013          	nop
0x70d0 	00000013          	nop
0x70d4 	00018313          	mv	t1,gp
0x70d8 	00120213          	addi	tp,tp,1 # 1 <_start+0x1>
0x70dc 	00200293          	li	t0,2
0x70e0 	fe5212e3          	bne	tp,t0,16f94 <test_20+0x4>
0x70e4 	80000eb7          	lui	t4,0x80000
0x70e8 	01400e13          	li	t3,20
0x70ec 	0bd31263          	bne	t1,t4,17060 <fail>
0x70f0 	00000213          	li	tp,0
0x70f4 	00100093          	li	ra,1
0x70f8 	00709193          	slli	gp,ra,0x7
0x70fc 	00120213          	addi	tp,tp,1 # 1 <_start+0x1>
0x7100 	00200293          	li	t0,2
0x7104 	fe5218e3          	bne	tp,t0,16fc4 <test_21+0x4>
0x7108 	08000e93          	li	t4,128
0x710c 	01500e13          	li	t3,21
0x7110 	09d19063          	bne	gp,t4,17060 <fail>
0x7114 	00000213          	li	tp,0
0x7118 	00100093          	li	ra,1
0x711c 	00000013          	nop
0x7120 	00e09193          	slli	gp,ra,0xe
0x7124 	00120213          	addi	tp,tp,1 # 1 <_start+0x1>
0x7128 	00200293          	li	t0,2
0x712c 	fe5216e3          	bne	tp,t0,16fe8 <test_22+0x4>
0x7130 	00004eb7          	lui	t4,0x4
0x7134 	01600e13          	li	t3,22
0x7138 	05d19c63          	bne	gp,t4,17060 <fail>
0x713c 	00000213          	li	tp,0
0x7140 	00100093          	li	ra,1
0x7144 	00000013          	nop
0x7148 	00000013          	nop
0x714c 	01f09193          	slli	gp,ra,0x1f
0x7150 	00120213          	addi	tp,tp,1 # 1 <_start+0x1>
0x7154 	00200293          	li	t0,2
0x7158 	fe5214e3          	bne	tp,t0,17010 <test_23+0x4>
0x715c 	80000eb7          	lui	t4,0x80000
0x7160 	01700e13          	li	t3,23
0x7164 	03d19663          	bne	gp,t4,17060 <fail>
0x7168 	01f01093          	slli	ra,zero,0x1f
0x716c 	00000e93          	li	t4,0
0x7170 	01800e13          	li	t3,24
0x7174 	01d09e63          	bne	ra,t4,17060 <fail>
0x7178 	02100093          	li	ra,33
0x717c 	01409013          	slli	zero,ra,0x14
0x7180 	00000e93          	li	t4,0
0x7184 	01900e13          	li	t3,25
0x7188 	01d01463          	bne	zero,t4,17060 <fail>
0x718c 	05c01863          	bne	zero,t3,170ac <pass>
0x7190 	04500513          	li	a0,69
0x7194 	00004137          	lui	sp,0x4
0x7198 	121060ef          	jal	ra,1d988 <printf_c>
0x719c 	05200513          	li	a0,82
0x71a0 	00004137          	lui	sp,0x4
0x71a4 	115060ef          	jal	ra,1d988 <printf_c>
0x71a8 	00004137          	lui	sp,0x4
0x71ac 	10d060ef          	jal	ra,1d988 <printf_c>
0x71b0 	04f00513          	li	a0,79
0x71b4 	00004137          	lui	sp,0x4
0x71b8 	101060ef          	jal	ra,1d988 <printf_c>
0x71bc 	00004137          	lui	sp,0x4
0x71c0 	05200513          	li	a0,82
0x71c4 	00004137          	lui	sp,0x4
0x71c8 	0f1060ef          	jal	ra,1d988 <printf_c>
0x71cc 	00a00513          	li	a0,10
0x71d0 	00004137          	lui	sp,0x4
0x71d4 	0e5060ef          	jal	ra,1d988 <printf_c>
0x71d8 	0340006f          	j	170dc <slt>
0x71dc 	04f00513          	li	a0,79
0x71e0 	00004137          	lui	sp,0x4
0x71e4 	0d5060ef          	jal	ra,1d988 <printf_c>
0x71e8 	04b00513          	li	a0,75
0x71ec 	00004137          	lui	sp,0x4
0x71f0 	0c9060ef          	jal	ra,1d988 <printf_c>
0x71f4 	00a00513          	li	a0,10
0x71f8 	00004137          	lui	sp,0x4
0x71fc 	0bd060ef          	jal	ra,1d988 <printf_c>
0x7200 	00c0006f          	j	170dc <slt>
0x7204 	20746c73          	csrrsi	s8,0x207,8
0x7208 	0009                	c.addi	zero,2
0x720c 	00017537          	lui	a0,0x17
0x7210 	0d450513          	addi	a0,a0,212 # 170d4 <.test_name>
0x7214 	00004137          	lui	sp,0x4
0x7218 	0b9060ef          	jal	ra,1d9a0 <printf_s>
0x721c 	00000093          	li	ra,0
0x7220 	00000113          	li	sp,0
0x7224 	0020a1b3          	slt	gp,ra,sp
0x7228 	00000e93          	li	t4,0
0x722c 	00200e13          	li	t3,2
0x7230 	4bd19a63          	bne	gp,t4,175b4 <fail>
0x7234 	00100093          	li	ra,1
0x7238 	00100113          	li	sp,1
0x723c 	0020a1b3          	slt	gp,ra,sp
0x7240 	00000e93          	li	t4,0
0x7244 	00300e13          	li	t3,3
0x7248 	49d19e63          	bne	gp,t4,175b4 <fail>
0x724c 	00300093          	li	ra,3
0x7250 	00700113          	li	sp,7
0x7254 	0020a1b3          	slt	gp,ra,sp
0x7258 	00100e93          	li	t4,1
0x725c 	00400e13          	li	t3,4
0x7260 	49d19263          	bne	gp,t4,175b4 <fail>
0x7264 	00700093          	li	ra,7
0x7268 	00300113          	li	sp,3
0x726c 	0020a1b3          	slt	gp,ra,sp
0x7270 	00000e93          	li	t4,0
0x7274 	00500e13          	li	t3,5
0x7278 	47d19663          	bne	gp,t4,175b4 <fail>
0x727c 	00000093          	li	ra,0
0x7280 	ffff8137          	lui	sp,0xffff8
0x7284 	0020a1b3          	slt	gp,ra,sp
0x7288 	00000e93          	li	t4,0
0x728c 	00600e13          	li	t3,6
0x7290 	45d19a63          	bne	gp,t4,175b4 <fail>
0x7294 	800000b7          	lui	ra,0x80000
0x7298 	00000113          	li	sp,0
0x729c 	0020a1b3          	slt	gp,ra,sp
0x72a0 	00100e93          	li	t4,1
0x72a4 	00700e13          	li	t3,7
0x72a8 	43d19e63          	bne	gp,t4,175b4 <fail>
0x72ac 	800000b7          	lui	ra,0x80000
0x72b0 	ffff8137          	lui	sp,0xffff8
0x72b4 	0020a1b3          	slt	gp,ra,sp
0x72b8 	00100e93          	li	t4,1
0x72bc 	00800e13          	li	t3,8
0x72c0 	43d19263          	bne	gp,t4,175b4 <fail>
0x72c4 	00000093          	li	ra,0
0x72c8 	00008137          	lui	sp,0x8
0x72cc 	fff10113          	addi	sp,sp,-1 # 7fff <coremarkBenchmark+0x7f57>
0x72d0 	0020a1b3          	slt	gp,ra,sp
0x72d4 	00100e93          	li	t4,1
0x72d8 	00900e13          	li	t3,9
0x72dc 	41d19463          	bne	gp,t4,175b4 <fail>
0x72e0 	800000b7          	lui	ra,0x80000
0x72e4 	fff08093          	addi	ra,ra,-1 # 7fffffff <heap_memory_used+0x7ffde227>
0x72e8 	00000113          	li	sp,0
0x72ec 	0020a1b3          	slt	gp,ra,sp
0x72f0 	00000e93          	li	t4,0
0x72f4 	00a00e13          	li	t3,10
0x72f8 	3fd19663          	bne	gp,t4,175b4 <fail>
0x72fc 	800000b7          	lui	ra,0x80000
0x7300 	fff08093          	addi	ra,ra,-1 # 7fffffff <heap_memory_used+0x7ffde227>
0x7304 	00008137          	lui	sp,0x8
0x7308 	fff10113          	addi	sp,sp,-1 # 7fff <coremarkBenchmark+0x7f57>
0x730c 	0020a1b3          	slt	gp,ra,sp
0x7310 	00000e93          	li	t4,0
0x7314 	00b00e13          	li	t3,11
0x7318 	3dd19663          	bne	gp,t4,175b4 <fail>
0x731c 	800000b7          	lui	ra,0x80000
0x7320 	00008137          	lui	sp,0x8
0x7324 	fff10113          	addi	sp,sp,-1 # 7fff <coremarkBenchmark+0x7f57>
0x7328 	0020a1b3          	slt	gp,ra,sp
0x732c 	00100e93          	li	t4,1
0x7330 	00c00e13          	li	t3,12
0x7334 	3bd19863          	bne	gp,t4,175b4 <fail>
0x7338 	800000b7          	lui	ra,0x80000
0x733c 	fff08093          	addi	ra,ra,-1 # 7fffffff <heap_memory_used+0x7ffde227>
0x7340 	ffff8137          	lui	sp,0xffff8
0x7344 	0020a1b3          	slt	gp,ra,sp
0x7348 	00000e93          	li	t4,0
0x734c 	00d00e13          	li	t3,13
0x7350 	39d19a63          	bne	gp,t4,175b4 <fail>
0x7354 	00000093          	li	ra,0
0x7358 	fff00113          	li	sp,-1
0x735c 	0020a1b3          	slt	gp,ra,sp
0x7360 	00000e93          	li	t4,0
0x7364 	00e00e13          	li	t3,14
0x7368 	37d19e63          	bne	gp,t4,175b4 <fail>
0x736c 	fff00093          	li	ra,-1
0x7370 	00100113          	li	sp,1
0x7374 	0020a1b3          	slt	gp,ra,sp
0x7378 	00100e93          	li	t4,1
0x737c 	00f00e13          	li	t3,15
0x7380 	37d19263          	bne	gp,t4,175b4 <fail>
0x7384 	fff00093          	li	ra,-1
0x7388 	fff00113          	li	sp,-1
0x738c 	0020a1b3          	slt	gp,ra,sp
0x7390 	00000e93          	li	t4,0
0x7394 	01000e13          	li	t3,16
0x7398 	35d19663          	bne	gp,t4,175b4 <fail>
0x739c 	00e00093          	li	ra,14
0x73a0 	00d00113          	li	sp,13
0x73a4 	0020a0b3          	slt	ra,ra,sp
0x73a8 	00000e93          	li	t4,0
0x73ac 	01100e13          	li	t3,17
0x73b0 	33d09a63          	bne	ra,t4,175b4 <fail>
0x73b4 	00b00093          	li	ra,11
0x73b8 	00d00113          	li	sp,13
0x73bc 	0020a133          	slt	sp,ra,sp
0x73c0 	00100e93          	li	t4,1
0x73c4 	01200e13          	li	t3,18
0x73c8 	31d11e63          	bne	sp,t4,175b4 <fail>
0x73cc 	00d00093          	li	ra,13
0x73d0 	0010a0b3          	slt	ra,ra,ra
0x73d4 	00000e93          	li	t4,0
0x73d8 	01300e13          	li	t3,19
0x73dc 	31d09463          	bne	ra,t4,175b4 <fail>
0x73e0 	00000213          	li	tp,0
0x73e4 	00b00093          	li	ra,11
0x73e8 	00d00113          	li	sp,13
0x73ec 	0020a1b3          	slt	gp,ra,sp
0x73f0 	00018313          	mv	t1,gp
0x73f4 	00120213          	addi	tp,tp,1 # 1 <_start+0x1>
0x73f8 	00200293          	li	t0,2
0x73fc 	fe5214e3          	bne	tp,t0,172b4 <test_20+0x4>
0x7400 	00100e93          	li	t4,1
0x7404 	01400e13          	li	t3,20
0x7408 	2dd31e63          	bne	t1,t4,175b4 <fail>
0x740c 	00000213          	li	tp,0
0x7410 	00e00093          	li	ra,14
0x7414 	00d00113          	li	sp,13
0x7418 	0020a1b3          	slt	gp,ra,sp
0x741c 	00000013          	nop
0x7420 	00018313          	mv	t1,gp
0x7424 	00120213          	addi	tp,tp,1 # 1 <_start+0x1>
0x7428 	00200293          	li	t0,2
0x742c 	fe5212e3          	bne	tp,t0,172e0 <test_21+0x4>
0x7430 	00000e93          	li	t4,0
0x7434 	01500e13          	li	t3,21
0x7438 	2bd31663          	bne	t1,t4,175b4 <fail>
0x743c 	00000213          	li	tp,0
0x7440 	00c00093          	li	ra,12
0x7444 	00d00113          	li	sp,13
0x7448 	0020a1b3          	slt	gp,ra,sp
0x744c 	00000013          	nop
0x7450 	00000013          	nop
0x7454 	00018313          	mv	t1,gp
0x7458 	00120213          	addi	tp,tp,1 # 1 <_start+0x1>
0x745c 	00200293          	li	t0,2
0x7460 	fe5210e3          	bne	tp,t0,17310 <test_22+0x4>
0x7464 	00100e93          	li	t4,1
0x7468 	01600e13          	li	t3,22
0x746c 	27d31c63          	bne	t1,t4,175b4 <fail>
0x7470 	00000213          	li	tp,0
0x7474 	00e00093          	li	ra,14
0x7478 	00d00113          	li	sp,13
0x747c 	0020a1b3          	slt	gp,ra,sp
0x7480 	00120213          	addi	tp,tp,1 # 1 <_start+0x1>
0x7484 	00200293          	li	t0,2
0x7488 	fe5216e3          	bne	tp,t0,17344 <test_23+0x4>
0x748c 	00000e93          	li	t4,0
0x7490 	01700e13          	li	t3,23
0x7494 	25d19863          	bne	gp,t4,175b4 <fail>
0x7498 	00000213          	li	tp,0
0x749c 	00b00093          	li	ra,11
0x74a0 	00d00113          	li	sp,13
0x74a4 	00000013          	nop
0x74a8 	0020a1b3          	slt	gp,ra,sp
0x74ac 	00120213          	addi	tp,tp,1 # 1 <_start+0x1>
0x74b0 	00200293          	li	t0,2
0x74b4 	fe5214e3          	bne	tp,t0,1736c <test_24+0x4>
0x74b8 	00100e93          	li	t4,1
0x74bc 	01800e13          	li	t3,24
0x74c0 	23d19263          	bne	gp,t4,175b4 <fail>
0x74c4 	00000213          	li	tp,0
0x74c8 	00f00093          	li	ra,15
0x74cc 	00d00113          	li	sp,13
0x74d0 	00000013          	nop
0x74d4 	00000013          	nop
0x74d8 	0020a1b3          	slt	gp,ra,sp
0x74dc 	00120213          	addi	tp,tp,1 # 1 <_start+0x1>
0x74e0 	00200293          	li	t0,2
0x74e4 	fe5212e3          	bne	tp,t0,17398 <test_25+0x4>
0x74e8 	00000e93          	li	t4,0
0x74ec 	01900e13          	li	t3,25
0x74f0 	1fd19a63          	bne	gp,t4,175b4 <fail>
0x74f4 	00000213          	li	tp,0
0x74f8 	00a00093          	li	ra,10
0x74fc 	00000013          	nop
0x7500 	00d00113          	li	sp,13
0x7504 	0020a1b3          	slt	gp,ra,sp
0x7508 	00120213          	addi	tp,tp,1 # 1 <_start+0x1>
0x750c 	00200293          	li	t0,2
0x7510 	fe5214e3          	bne	tp,t0,173c8 <test_26+0x4>
0x7514 	00100e93          	li	t4,1
0x7518 	01a00e13          	li	t3,26
0x751c 	1dd19463          	bne	gp,t4,175b4 <fail>
0x7520 	00000213          	li	tp,0
0x7524 	01000093          	li	ra,16
0x7528 	00000013          	nop
0x752c 	00d00113          	li	sp,13
0x7530 	00000013          	nop
0x7534 	0020a1b3          	slt	gp,ra,sp
0x7538 	00120213          	addi	tp,tp,1 # 1 <_start+0x1>
0x753c 	00200293          	li	t0,2
0x7540 	fe5212e3          	bne	tp,t0,173f4 <test_27+0x4>
0x7544 	00000e93          	li	t4,0
0x7548 	01b00e13          	li	t3,27
0x754c 	19d19c63          	bne	gp,t4,175b4 <fail>
0x7550 	00000213          	li	tp,0
0x7554 	00900093          	li	ra,9
0x7558 	00000013          	nop
0x755c 	00000013          	nop
0x7560 	00d00113          	li	sp,13
0x7564 	0020a1b3          	slt	gp,ra,sp
0x7568 	00120213          	addi	tp,tp,1 # 1 <_start+0x1>
0x756c 	00200293          	li	t0,2
0x7570 	fe5212e3          	bne	tp,t0,17424 <test_28+0x4>
0x7574 	00100e93          	li	t4,1
0x7578 	01c00e13          	li	t3,28
0x757c 	17d19463          	bne	gp,t4,175b4 <fail>
0x7580 	00000213          	li	tp,0
0x7584 	00d00113          	li	sp,13
0x7588 	01100093          	li	ra,17
0x758c 	0020a1b3          	slt	gp,ra,sp
0x7590 	00120213          	addi	tp,tp,1 # 1 <_start+0x1>
0x7594 	00200293          	li	t0,2
0x7598 	fe5216e3          	bne	tp,t0,17454 <test_29+0x4>
0x759c 	00000e93          	li	t4,0
0x75a0 	01d00e13          	li	t3,29
0x75a4 	15d19063          	bne	gp,t4,175b4 <fail>
0x75a8 	00000213          	li	tp,0
0x75ac 	00d00113          	li	sp,13
0x75b0 	00800093          	li	ra,8
0x75b4 	00000013          	nop
0x75b8 	0020a1b3          	slt	gp,ra,sp
0x75bc 	00120213          	addi	tp,tp,1 # 1 <_start+0x1>
0x75c0 	00200293          	li	t0,2
0x75c4 	fe5214e3          	bne	tp,t0,1747c <test_30+0x4>
0x75c8 	00100e93          	li	t4,1
0x75cc 	01e00e13          	li	t3,30
0x75d0 	11d19a63          	bne	gp,t4,175b4 <fail>
0x75d4 	00000213          	li	tp,0
0x75d8 	00d00113          	li	sp,13
0x75dc 	01200093          	li	ra,18
0x75e0 	00000013          	nop
0x75e4 	00000013          	nop
0x75e8 	0020a1b3          	slt	gp,ra,sp
0x75ec 	00120213          	addi	tp,tp,1 # 1 <_start+0x1>
0x75f0 	00200293          	li	t0,2
0x75f4 	fe5212e3          	bne	tp,t0,174a8 <test_31+0x4>
0x75f8 	00000e93          	li	t4,0
0x75fc 	01f00e13          	li	t3,31
0x7600 	0fd19263          	bne	gp,t4,175b4 <fail>
0x7604 	00000213          	li	tp,0
0x7608 	00d00113          	li	sp,13
0x760c 	00000013          	nop
0x7610 	00700093          	li	ra,7
0x7614 	0020a1b3          	slt	gp,ra,sp
0x7618 	00120213          	addi	tp,tp,1 # 1 <_start+0x1>
0x761c 	00200293          	li	t0,2
0x7620 	fe5214e3          	bne	tp,t0,174d8 <test_32+0x4>
0x7624 	00100e93          	li	t4,1
0x7628 	02000e13          	li	t3,32
0x762c 	0bd19c63          	bne	gp,t4,175b4 <fail>
0x7630 	00000213          	li	tp,0
0x7634 	00d00113          	li	sp,13
0x7638 	00000013          	nop
0x763c 	01300093          	li	ra,19
0x7640 	00000013          	nop
0x7644 	0020a1b3          	slt	gp,ra,sp
0x7648 	00120213          	addi	tp,tp,1 # 1 <_start+0x1>
0x764c 	00200293          	li	t0,2
0x7650 	fe5212e3          	bne	tp,t0,17504 <test_33+0x4>
0x7654 	00000e93          	li	t4,0
0x7658 	02100e13          	li	t3,33
0x765c 	09d19463          	bne	gp,t4,175b4 <fail>
0x7660 	00000213          	li	tp,0
0x7664 	00d00113          	li	sp,13
0x7668 	00000013          	nop
0x766c 	00000013          	nop
0x7670 	00600093          	li	ra,6
0x7674 	0020a1b3          	slt	gp,ra,sp
0x7678 	00120213          	addi	tp,tp,1 # 1 <_start+0x1>
0x767c 	00200293          	li	t0,2
0x7680 	fe5212e3          	bne	tp,t0,17534 <test_34+0x4>
0x7684 	00100e93          	li	t4,1
0x7688 	02200e13          	li	t3,34
0x768c 	05d19c63          	bne	gp,t4,175b4 <fail>
0x7690 	fff00093          	li	ra,-1
0x7694 	00102133          	sgtz	sp,ra
0x7698 	00000e93          	li	t4,0
0x769c 	02300e13          	li	t3,35
0x76a0 	05d11263          	bne	sp,t4,175b4 <fail>
0x76a4 	fff00093          	li	ra,-1
0x76a8 	0000a133          	sltz	sp,ra
0x76ac 	00100e93          	li	t4,1
0x76b0 	02400e13          	li	t3,36
0x76b4 	03d11863          	bne	sp,t4,175b4 <fail>
0x76b8 	000020b3          	sltz	ra,zero
0x76bc 	00000e93          	li	t4,0
0x76c0 	02500e13          	li	t3,37
0x76c4 	03d09063          	bne	ra,t4,175b4 <fail>
0x76c8 	01000093          	li	ra,16
0x76cc 	01e00113          	li	sp,30
0x76d0 	0020a033          	slt	zero,ra,sp
0x76d4 	00000e93          	li	t4,0
0x76d8 	02600e13          	li	t3,38
0x76dc 	01d01463          	bne	zero,t4,175b4 <fail>
0x76e0 	05c01863          	bne	zero,t3,17600 <pass>
0x76e4 	04500513          	li	a0,69
0x76e8 	00004137          	lui	sp,0x4
0x76ec 	3cc060ef          	jal	ra,1d988 <printf_c>
0x76f0 	05200513          	li	a0,82
0x76f4 	00004137          	lui	sp,0x4
0x76f8 	3c0060ef          	jal	ra,1d988 <printf_c>
0x76fc 	00004137          	lui	sp,0x4
0x7700 	3b8060ef          	jal	ra,1d988 <printf_c>
0x7704 	04f00513          	li	a0,79
0x7708 	00004137          	lui	sp,0x4
0x770c 	3ac060ef          	jal	ra,1d988 <printf_c>
0x7710 	00004137          	lui	sp,0x4
0x7714 	05200513          	li	a0,82
0x7718 	00004137          	lui	sp,0x4
0x771c 	39c060ef          	jal	ra,1d988 <printf_c>
0x7720 	00a00513          	li	a0,10
0x7724 	00004137          	lui	sp,0x4
0x7728 	390060ef          	jal	ra,1d988 <printf_c>
0x772c 	0340006f          	j	17630 <slti>
0x7730 	04f00513          	li	a0,79
0x7734 	00004137          	lui	sp,0x4
0x7738 	380060ef          	jal	ra,1d988 <printf_c>
0x773c 	04b00513          	li	a0,75
0x7740 	00004137          	lui	sp,0x4
0x7744 	374060ef          	jal	ra,1d988 <printf_c>
0x7748 	00a00513          	li	a0,10
0x774c 	00004137          	lui	sp,0x4
0x7750 	368060ef          	jal	ra,1d988 <printf_c>
0x7754 	00c0006f          	j	17630 <slti>
0x7758 	69746c73          	csrrsi	s8,0x697,8
0x775c 	0920                	addi	s0,sp,152
0x7760 	00017537          	lui	a0,0x17
0x7764 	62850513          	addi	a0,a0,1576 # 17628 <.test_name>
0x7768 	00004137          	lui	sp,0x4
0x776c 	364060ef          	jal	ra,1d9a0 <printf_s>
0x7770 	00000093          	li	ra,0
0x7774 	0000a193          	slti	gp,ra,0
0x7778 	00000e93          	li	t4,0
0x777c 	00200e13          	li	t3,2
0x7780 	27d19263          	bne	gp,t4,178b4 <fail>
0x7784 	00100093          	li	ra,1
0x7788 	0010a193          	slti	gp,ra,1
0x778c 	00000e93          	li	t4,0
0x7790 	00300e13          	li	t3,3
0x7794 	25d19863          	bne	gp,t4,178b4 <fail>
0x7798 	00300093          	li	ra,3
0x779c 	0070a193          	slti	gp,ra,7
0x77a0 	00100e93          	li	t4,1
0x77a4 	00400e13          	li	t3,4
0x77a8 	23d19e63          	bne	gp,t4,178b4 <fail>
0x77ac 	00700093          	li	ra,7
0x77b0 	0030a193          	slti	gp,ra,3
0x77b4 	00000e93          	li	t4,0
0x77b8 	00500e13          	li	t3,5
0x77bc 	23d19463          	bne	gp,t4,178b4 <fail>
0x77c0 	00000093          	li	ra,0
0x77c4 	8000a193          	slti	gp,ra,-2048
0x77c8 	00000e93          	li	t4,0
0x77cc 	00600e13          	li	t3,6
0x77d0 	21d19a63          	bne	gp,t4,178b4 <fail>
0x77d4 	800000b7          	lui	ra,0x80000
0x77d8 	0000a193          	slti	gp,ra,0
0x77dc 	00100e93          	li	t4,1
0x77e0 	00700e13          	li	t3,7
0x77e4 	21d19063          	bne	gp,t4,178b4 <fail>
0x77e8 	800000b7          	lui	ra,0x80000
0x77ec 	8000a193          	slti	gp,ra,-2048
0x77f0 	00100e93          	li	t4,1
0x77f4 	00800e13          	li	t3,8
0x77f8 	1fd19663          	bne	gp,t4,178b4 <fail>
0x77fc 	00000093          	li	ra,0
0x7800 	7ff0a193          	slti	gp,ra,2047
0x7804 	00100e93          	li	t4,1
0x7808 	00900e13          	li	t3,9
0x780c 	1dd19c63          	bne	gp,t4,178b4 <fail>
0x7810 	800000b7          	lui	ra,0x80000
0x7814 	fff08093          	addi	ra,ra,-1 # 7fffffff <heap_memory_used+0x7ffde227>
0x7818 	0000a193          	slti	gp,ra,0
0x781c 	00000e93          	li	t4,0
0x7820 	00a00e13          	li	t3,10
0x7824 	1dd19063          	bne	gp,t4,178b4 <fail>
0x7828 	800000b7          	lui	ra,0x80000
0x782c 	fff08093          	addi	ra,ra,-1 # 7fffffff <heap_memory_used+0x7ffde227>
0x7830 	7ff0a193          	slti	gp,ra,2047
0x7834 	00000e93          	li	t4,0
0x7838 	00b00e13          	li	t3,11
0x783c 	1bd19463          	bne	gp,t4,178b4 <fail>
0x7840 	800000b7          	lui	ra,0x80000
0x7844 	7ff0a193          	slti	gp,ra,2047
0x7848 	00100e93          	li	t4,1
0x784c 	00c00e13          	li	t3,12
0x7850 	19d19a63          	bne	gp,t4,178b4 <fail>
0x7854 	800000b7          	lui	ra,0x80000
0x7858 	fff08093          	addi	ra,ra,-1 # 7fffffff <heap_memory_used+0x7ffde227>
0x785c 	8000a193          	slti	gp,ra,-2048
0x7860 	00000e93          	li	t4,0
0x7864 	00d00e13          	li	t3,13
0x7868 	17d19e63          	bne	gp,t4,178b4 <fail>
0x786c 	00000093          	li	ra,0
0x7870 	fff0a193          	slti	gp,ra,-1
0x7874 	00000e93          	li	t4,0
0x7878 	00e00e13          	li	t3,14
0x787c 	17d19463          	bne	gp,t4,178b4 <fail>
0x7880 	fff00093          	li	ra,-1
0x7884 	0010a193          	slti	gp,ra,1
0x7888 	00100e93          	li	t4,1
0x788c 	00f00e13          	li	t3,15
0x7890 	15d19a63          	bne	gp,t4,178b4 <fail>
0x7894 	fff00093          	li	ra,-1
0x7898 	fff0a193          	slti	gp,ra,-1
0x789c 	00000e93          	li	t4,0
0x78a0 	01000e13          	li	t3,16
0x78a4 	15d19063          	bne	gp,t4,178b4 <fail>
0x78a8 	00b00093          	li	ra,11
0x78ac 	00d0b093          	sltiu	ra,ra,13
0x78b0 	00100e93          	li	t4,1
0x78b4 	01100e13          	li	t3,17
0x78b8 	13d09663          	bne	ra,t4,178b4 <fail>
0x78bc 	00000213          	li	tp,0
0x78c0 	00f00093          	li	ra,15
0x78c4 	00a0a193          	slti	gp,ra,10
0x78c8 	00018313          	mv	t1,gp
0x78cc 	00120213          	addi	tp,tp,1 # 1 <_start+0x1>
0x78d0 	00200293          	li	t0,2
0x78d4 	fe5216e3          	bne	tp,t0,17790 <test_18+0x4>
0x78d8 	00000e93          	li	t4,0
0x78dc 	01200e13          	li	t3,18
0x78e0 	11d31263          	bne	t1,t4,178b4 <fail>
0x78e4 	00000213          	li	tp,0
0x78e8 	00a00093          	li	ra,10
0x78ec 	0100a193          	slti	gp,ra,16
0x78f0 	00000013          	nop
0x78f4 	00018313          	mv	t1,gp
0x78f8 	00120213          	addi	tp,tp,1 # 1 <_start+0x1>
0x78fc 	00200293          	li	t0,2
0x7900 	fe5214e3          	bne	tp,t0,177b8 <test_19+0x4>
0x7904 	00100e93          	li	t4,1
0x7908 	01300e13          	li	t3,19
0x790c 	0dd31c63          	bne	t1,t4,178b4 <fail>
0x7910 	00000213          	li	tp,0
0x7914 	01000093          	li	ra,16
0x7918 	0090a193          	slti	gp,ra,9
0x791c 	00000013          	nop
0x7920 	00000013          	nop
0x7924 	00018313          	mv	t1,gp
0x7928 	00120213          	addi	tp,tp,1 # 1 <_start+0x1>
0x792c 	00200293          	li	t0,2
0x7930 	fe5212e3          	bne	tp,t0,177e4 <test_20+0x4>
0x7934 	00000e93          	li	t4,0
0x7938 	01400e13          	li	t3,20
0x793c 	0bd31463          	bne	t1,t4,178b4 <fail>
0x7940 	00000213          	li	tp,0
0x7944 	00b00093          	li	ra,11
0x7948 	00f0a193          	slti	gp,ra,15
0x794c 	00120213          	addi	tp,tp,1 # 1 <_start+0x1>
0x7950 	00200293          	li	t0,2
0x7954 	fe5218e3          	bne	tp,t0,17814 <test_21+0x4>
0x7958 	00100e93          	li	t4,1
0x795c 	01500e13          	li	t3,21
0x7960 	09d19263          	bne	gp,t4,178b4 <fail>
0x7964 	00000213          	li	tp,0
0x7968 	01100093          	li	ra,17
0x796c 	00000013          	nop
0x7970 	0080a193          	slti	gp,ra,8
0x7974 	00120213          	addi	tp,tp,1 # 1 <_start+0x1>
0x7978 	00200293          	li	t0,2
0x797c 	fe5216e3          	bne	tp,t0,17838 <test_22+0x4>
0x7980 	00000e93          	li	t4,0
0x7984 	01600e13          	li	t3,22
0x7988 	05d19e63          	bne	gp,t4,178b4 <fail>
0x798c 	00000213          	li	tp,0
0x7990 	00c00093          	li	ra,12
0x7994 	00000013          	nop
0x7998 	00000013          	nop
0x799c 	00e0a193          	slti	gp,ra,14
0x79a0 	00120213          	addi	tp,tp,1 # 1 <_start+0x1>
0x79a4 	00200293          	li	t0,2
0x79a8 	fe5214e3          	bne	tp,t0,17860 <test_23+0x4>
0x79ac 	00100e93          	li	t4,1
0x79b0 	01700e13          	li	t3,23
0x79b4 	03d19863          	bne	gp,t4,178b4 <fail>
0x79b8 	fff02093          	slti	ra,zero,-1
0x79bc 	00000e93          	li	t4,0
0x79c0 	01800e13          	li	t3,24
0x79c4 	03d09063          	bne	ra,t4,178b4 <fail>
0x79c8 	00ff00b7          	lui	ra,0xff0
0x79cc 	0ff08093          	addi	ra,ra,255 # ff00ff <heap_memory_used+0xfce327>
0x79d0 	fff0a013          	slti	zero,ra,-1
0x79d4 	00000e93          	li	t4,0
0x79d8 	01900e13          	li	t3,25
0x79dc 	01d01463          	bne	zero,t4,178b4 <fail>
0x79e0 	05c01863          	bne	zero,t3,17900 <pass>
0x79e4 	04500513          	li	a0,69
0x79e8 	00004137          	lui	sp,0x4
0x79ec 	0cc060ef          	jal	ra,1d988 <printf_c>
0x79f0 	05200513          	li	a0,82
0x79f4 	00004137          	lui	sp,0x4
0x79f8 	0c0060ef          	jal	ra,1d988 <printf_c>
0x79fc 	00004137          	lui	sp,0x4
0x7a00 	0b8060ef          	jal	ra,1d988 <printf_c>
0x7a04 	04f00513          	li	a0,79
0x7a08 	00004137          	lui	sp,0x4
0x7a0c 	0ac060ef          	jal	ra,1d988 <printf_c>
0x7a10 	00004137          	lui	sp,0x4
0x7a14 	05200513          	li	a0,82
0x7a18 	00004137          	lui	sp,0x4
0x7a1c 	09c060ef          	jal	ra,1d988 <printf_c>
0x7a20 	00a00513          	li	a0,10
0x7a24 	00004137          	lui	sp,0x4
0x7a28 	090060ef          	jal	ra,1d988 <printf_c>
0x7a2c 	0340006f          	j	17930 <sra>
0x7a30 	04f00513          	li	a0,79
0x7a34 	00004137          	lui	sp,0x4
0x7a38 	080060ef          	jal	ra,1d988 <printf_c>
0x7a3c 	04b00513          	li	a0,75
0x7a40 	00004137          	lui	sp,0x4
0x7a44 	074060ef          	jal	ra,1d988 <printf_c>
0x7a48 	00a00513          	li	a0,10
0x7a4c 	00004137          	lui	sp,0x4
0x7a50 	068060ef          	jal	ra,1d988 <printf_c>
0x7a54 	00c0006f          	j	17930 <sra>
0x7a58 	20617273          	csrrci	tp,0x206,2
0x7a5c 	0009                	c.addi	zero,2
0x7a60 	00018537          	lui	a0,0x18
0x7a64 	92850513          	addi	a0,a0,-1752 # 17928 <.test_name>
0x7a68 	00004137          	lui	sp,0x4
0x7a6c 	064060ef          	jal	ra,1d9a0 <printf_s>
0x7a70 	800000b7          	lui	ra,0x80000
0x7a74 	00000113          	li	sp,0
0x7a78 	4020d1b3          	sra	gp,ra,sp
0x7a7c 	80000eb7          	lui	t4,0x80000
0x7a80 	00200e13          	li	t3,2
0x7a84 	59d19463          	bne	gp,t4,17edc <fail>
0x7a88 	800000b7          	lui	ra,0x80000
0x7a8c 	00100113          	li	sp,1
0x7a90 	4020d1b3          	sra	gp,ra,sp
0x7a94 	c0000eb7          	lui	t4,0xc0000
0x7a98 	00300e13          	li	t3,3
0x7a9c 	57d19863          	bne	gp,t4,17edc <fail>
0x7aa0 	800000b7          	lui	ra,0x80000
0x7aa4 	00700113          	li	sp,7
0x7aa8 	4020d1b3          	sra	gp,ra,sp
0x7aac 	ff000eb7          	lui	t4,0xff000
0x7ab0 	00400e13          	li	t3,4
0x7ab4 	55d19c63          	bne	gp,t4,17edc <fail>
0x7ab8 	800000b7          	lui	ra,0x80000
0x7abc 	00e00113          	li	sp,14
0x7ac0 	4020d1b3          	sra	gp,ra,sp
0x7ac4 	fffe0eb7          	lui	t4,0xfffe0
0x7ac8 	00500e13          	li	t3,5
0x7acc 	55d19063          	bne	gp,t4,17edc <fail>
0x7ad0 	800000b7          	lui	ra,0x80000
0x7ad4 	00108093          	addi	ra,ra,1 # 80000001 <heap_memory_used+0x7ffde229>
0x7ad8 	01f00113          	li	sp,31
0x7adc 	4020d1b3          	sra	gp,ra,sp
0x7ae0 	fff00e93          	li	t4,-1
0x7ae4 	00600e13          	li	t3,6
0x7ae8 	53d19263          	bne	gp,t4,17edc <fail>
0x7aec 	800000b7          	lui	ra,0x80000
0x7af0 	fff08093          	addi	ra,ra,-1 # 7fffffff <heap_memory_used+0x7ffde227>
0x7af4 	00000113          	li	sp,0
0x7af8 	4020d1b3          	sra	gp,ra,sp
0x7afc 	80000eb7          	lui	t4,0x80000
0x7b00 	fffe8e93          	addi	t4,t4,-1 # 7fffffff <heap_memory_used+0x7ffde227>
0x7b04 	00700e13          	li	t3,7
0x7b08 	51d19263          	bne	gp,t4,17edc <fail>
0x7b0c 	800000b7          	lui	ra,0x80000
0x7b10 	fff08093          	addi	ra,ra,-1 # 7fffffff <heap_memory_used+0x7ffde227>
0x7b14 	00100113          	li	sp,1
0x7b18 	4020d1b3          	sra	gp,ra,sp
0x7b1c 	40000eb7          	lui	t4,0x40000
0x7b20 	fffe8e93          	addi	t4,t4,-1 # 3fffffff <heap_memory_used+0x3ffde227>
0x7b24 	00800e13          	li	t3,8
0x7b28 	4fd19263          	bne	gp,t4,17edc <fail>
0x7b2c 	800000b7          	lui	ra,0x80000
0x7b30 	fff08093          	addi	ra,ra,-1 # 7fffffff <heap_memory_used+0x7ffde227>
0x7b34 	00700113          	li	sp,7
0x7b38 	4020d1b3          	sra	gp,ra,sp
0x7b3c 	01000eb7          	lui	t4,0x1000
0x7b40 	fffe8e93          	addi	t4,t4,-1 # ffffff <heap_memory_used+0xfde227>
0x7b44 	00900e13          	li	t3,9
0x7b48 	4dd19263          	bne	gp,t4,17edc <fail>
0x7b4c 	800000b7          	lui	ra,0x80000
0x7b50 	fff08093          	addi	ra,ra,-1 # 7fffffff <heap_memory_used+0x7ffde227>
0x7b54 	00e00113          	li	sp,14
0x7b58 	4020d1b3          	sra	gp,ra,sp
0x7b5c 	00020eb7          	lui	t4,0x20
0x7b60 	fffe8e93          	addi	t4,t4,-1 # 1ffff <Arr_2_Glob+0xe3b>
0x7b64 	00a00e13          	li	t3,10
0x7b68 	4bd19263          	bne	gp,t4,17edc <fail>
0x7b6c 	800000b7          	lui	ra,0x80000
0x7b70 	fff08093          	addi	ra,ra,-1 # 7fffffff <heap_memory_used+0x7ffde227>
0x7b74 	01f00113          	li	sp,31
0x7b78 	4020d1b3          	sra	gp,ra,sp
0x7b7c 	00000e93          	li	t4,0
0x7b80 	00b00e13          	li	t3,11
0x7b84 	49d19463          	bne	gp,t4,17edc <fail>
0x7b88 	818180b7          	lui	ra,0x81818
0x7b8c 	18108093          	addi	ra,ra,385 # 81818181 <heap_memory_used+0x817f63a9>
0x7b90 	00000113          	li	sp,0
0x7b94 	4020d1b3          	sra	gp,ra,sp
0x7b98 	81818eb7          	lui	t4,0x81818
0x7b9c 	181e8e93          	addi	t4,t4,385 # 81818181 <heap_memory_used+0x817f63a9>
0x7ba0 	00c00e13          	li	t3,12
0x7ba4 	47d19463          	bne	gp,t4,17edc <fail>
0x7ba8 	818180b7          	lui	ra,0x81818
0x7bac 	18108093          	addi	ra,ra,385 # 81818181 <heap_memory_used+0x817f63a9>
0x7bb0 	00100113          	li	sp,1
0x7bb4 	4020d1b3          	sra	gp,ra,sp
0x7bb8 	c0c0ceb7          	lui	t4,0xc0c0c
0x7bbc 	0c0e8e93          	addi	t4,t4,192 # c0c0c0c0 <heap_memory_used+0xc0bea2e8>
0x7bc0 	00d00e13          	li	t3,13
0x7bc4 	45d19463          	bne	gp,t4,17edc <fail>
0x7bc8 	818180b7          	lui	ra,0x81818
0x7bcc 	18108093          	addi	ra,ra,385 # 81818181 <heap_memory_used+0x817f63a9>
0x7bd0 	00700113          	li	sp,7
0x7bd4 	4020d1b3          	sra	gp,ra,sp
0x7bd8 	ff030eb7          	lui	t4,0xff030
0x7bdc 	303e8e93          	addi	t4,t4,771 # ff030303 <heap_memory_used+0xff00e52b>
0x7be0 	00e00e13          	li	t3,14
0x7be4 	43d19463          	bne	gp,t4,17edc <fail>
0x7be8 	818180b7          	lui	ra,0x81818
0x7bec 	18108093          	addi	ra,ra,385 # 81818181 <heap_memory_used+0x817f63a9>
0x7bf0 	00e00113          	li	sp,14
0x7bf4 	4020d1b3          	sra	gp,ra,sp
0x7bf8 	fffe0eb7          	lui	t4,0xfffe0
0x7bfc 	606e8e93          	addi	t4,t4,1542 # fffe0606 <heap_memory_used+0xfffbe82e>
0x7c00 	00f00e13          	li	t3,15
0x7c04 	41d19463          	bne	gp,t4,17edc <fail>
0x7c08 	818180b7          	lui	ra,0x81818
0x7c0c 	18108093          	addi	ra,ra,385 # 81818181 <heap_memory_used+0x817f63a9>
0x7c10 	01f00113          	li	sp,31
0x7c14 	4020d1b3          	sra	gp,ra,sp
0x7c18 	fff00e93          	li	t4,-1
0x7c1c 	01000e13          	li	t3,16
0x7c20 	3fd19663          	bne	gp,t4,17edc <fail>
0x7c24 	818180b7          	lui	ra,0x81818
0x7c28 	18108093          	addi	ra,ra,385 # 81818181 <heap_memory_used+0x817f63a9>
0x7c2c 	fc000113          	li	sp,-64
0x7c30 	4020d1b3          	sra	gp,ra,sp
0x7c34 	81818eb7          	lui	t4,0x81818
0x7c38 	181e8e93          	addi	t4,t4,385 # 81818181 <heap_memory_used+0x817f63a9>
0x7c3c 	01100e13          	li	t3,17
0x7c40 	3dd19663          	bne	gp,t4,17edc <fail>
0x7c44 	818180b7          	lui	ra,0x81818
0x7c48 	18108093          	addi	ra,ra,385 # 81818181 <heap_memory_used+0x817f63a9>
0x7c4c 	fc100113          	li	sp,-63
0x7c50 	4020d1b3          	sra	gp,ra,sp
0x7c54 	c0c0ceb7          	lui	t4,0xc0c0c
0x7c58 	0c0e8e93          	addi	t4,t4,192 # c0c0c0c0 <heap_memory_used+0xc0bea2e8>
0x7c5c 	01200e13          	li	t3,18
0x7c60 	3bd19663          	bne	gp,t4,17edc <fail>
0x7c64 	818180b7          	lui	ra,0x81818
0x7c68 	18108093          	addi	ra,ra,385 # 81818181 <heap_memory_used+0x817f63a9>
0x7c6c 	fc700113          	li	sp,-57
0x7c70 	4020d1b3          	sra	gp,ra,sp
0x7c74 	ff030eb7          	lui	t4,0xff030
0x7c78 	303e8e93          	addi	t4,t4,771 # ff030303 <heap_memory_used+0xff00e52b>
0x7c7c 	01300e13          	li	t3,19
0x7c80 	39d19663          	bne	gp,t4,17edc <fail>
0x7c84 	818180b7          	lui	ra,0x81818
0x7c88 	18108093          	addi	ra,ra,385 # 81818181 <heap_memory_used+0x817f63a9>
0x7c8c 	fce00113          	li	sp,-50
0x7c90 	4020d1b3          	sra	gp,ra,sp
0x7c94 	fffe0eb7          	lui	t4,0xfffe0
0x7c98 	606e8e93          	addi	t4,t4,1542 # fffe0606 <heap_memory_used+0xfffbe82e>
0x7c9c 	01400e13          	li	t3,20
0x7ca0 	37d19663          	bne	gp,t4,17edc <fail>
0x7ca4 	818180b7          	lui	ra,0x81818
0x7ca8 	18108093          	addi	ra,ra,385 # 81818181 <heap_memory_used+0x817f63a9>
0x7cac 	fff00113          	li	sp,-1
0x7cb0 	4020d1b3          	sra	gp,ra,sp
0x7cb4 	fff00e93          	li	t4,-1
0x7cb8 	01500e13          	li	t3,21
0x7cbc 	35d19863          	bne	gp,t4,17edc <fail>
0x7cc0 	800000b7          	lui	ra,0x80000
0x7cc4 	00700113          	li	sp,7
0x7cc8 	4020d0b3          	sra	ra,ra,sp
0x7ccc 	ff000eb7          	lui	t4,0xff000
0x7cd0 	01600e13          	li	t3,22
0x7cd4 	33d09c63          	bne	ra,t4,17edc <fail>
0x7cd8 	800000b7          	lui	ra,0x80000
0x7cdc 	00e00113          	li	sp,14
0x7ce0 	4020d133          	sra	sp,ra,sp
0x7ce4 	fffe0eb7          	lui	t4,0xfffe0
0x7ce8 	01700e13          	li	t3,23
0x7cec 	33d11063          	bne	sp,t4,17edc <fail>
0x7cf0 	00700093          	li	ra,7
0x7cf4 	4010d0b3          	sra	ra,ra,ra
0x7cf8 	00000e93          	li	t4,0
0x7cfc 	01800e13          	li	t3,24
0x7d00 	31d09663          	bne	ra,t4,17edc <fail>
0x7d04 	00000213          	li	tp,0
0x7d08 	800000b7          	lui	ra,0x80000
0x7d0c 	00700113          	li	sp,7
0x7d10 	4020d1b3          	sra	gp,ra,sp
0x7d14 	00018313          	mv	t1,gp
0x7d18 	00120213          	addi	tp,tp,1 # 1 <_start+0x1>
0x7d1c 	00200293          	li	t0,2
0x7d20 	fe5214e3          	bne	tp,t0,17bd8 <test_25+0x4>
0x7d24 	ff000eb7          	lui	t4,0xff000
0x7d28 	01900e13          	li	t3,25
0x7d2c 	2fd31063          	bne	t1,t4,17edc <fail>
0x7d30 	00000213          	li	tp,0
0x7d34 	800000b7          	lui	ra,0x80000
0x7d38 	00e00113          	li	sp,14
0x7d3c 	4020d1b3          	sra	gp,ra,sp
0x7d40 	00000013          	nop
0x7d44 	00018313          	mv	t1,gp
0x7d48 	00120213          	addi	tp,tp,1 # 1 <_start+0x1>
0x7d4c 	00200293          	li	t0,2
0x7d50 	fe5212e3          	bne	tp,t0,17c04 <test_26+0x4>
0x7d54 	fffe0eb7          	lui	t4,0xfffe0
0x7d58 	01a00e13          	li	t3,26
0x7d5c 	2bd31863          	bne	t1,t4,17edc <fail>
0x7d60 	00000213          	li	tp,0
0x7d64 	800000b7          	lui	ra,0x80000
0x7d68 	01f00113          	li	sp,31
0x7d6c 	4020d1b3          	sra	gp,ra,sp
0x7d70 	00000013          	nop
0x7d74 	00000013          	nop
0x7d78 	00018313          	mv	t1,gp
0x7d7c 	00120213          	addi	tp,tp,1 # 1 <_start+0x1>
0x7d80 	00200293          	li	t0,2
0x7d84 	fe5210e3          	bne	tp,t0,17c34 <test_27+0x4>
0x7d88 	fff00e93          	li	t4,-1
0x7d8c 	01b00e13          	li	t3,27
0x7d90 	27d31e63          	bne	t1,t4,17edc <fail>
0x7d94 	00000213          	li	tp,0
0x7d98 	800000b7          	lui	ra,0x80000
0x7d9c 	00700113          	li	sp,7
0x7da0 	4020d1b3          	sra	gp,ra,sp
0x7da4 	00120213          	addi	tp,tp,1 # 1 <_start+0x1>
0x7da8 	00200293          	li	t0,2
0x7dac 	fe5216e3          	bne	tp,t0,17c68 <test_28+0x4>
0x7db0 	ff000eb7          	lui	t4,0xff000
0x7db4 	01c00e13          	li	t3,28
0x7db8 	25d19a63          	bne	gp,t4,17edc <fail>
0x7dbc 	00000213          	li	tp,0
0x7dc0 	800000b7          	lui	ra,0x80000
0x7dc4 	00e00113          	li	sp,14
0x7dc8 	00000013          	nop
0x7dcc 	4020d1b3          	sra	gp,ra,sp
0x7dd0 	00120213          	addi	tp,tp,1 # 1 <_start+0x1>
0x7dd4 	00200293          	li	t0,2
0x7dd8 	fe5214e3          	bne	tp,t0,17c90 <test_29+0x4>
0x7ddc 	fffe0eb7          	lui	t4,0xfffe0
0x7de0 	01d00e13          	li	t3,29
0x7de4 	23d19463          	bne	gp,t4,17edc <fail>
0x7de8 	00000213          	li	tp,0
0x7dec 	800000b7          	lui	ra,0x80000
0x7df0 	01f00113          	li	sp,31
0x7df4 	00000013          	nop
0x7df8 	00000013          	nop
0x7dfc 	4020d1b3          	sra	gp,ra,sp
0x7e00 	00120213          	addi	tp,tp,1 # 1 <_start+0x1>
0x7e04 	00200293          	li	t0,2
0x7e08 	fe5212e3          	bne	tp,t0,17cbc <test_30+0x4>
0x7e0c 	fff00e93          	li	t4,-1
0x7e10 	01e00e13          	li	t3,30
0x7e14 	1fd19c63          	bne	gp,t4,17edc <fail>
0x7e18 	00000213          	li	tp,0
0x7e1c 	800000b7          	lui	ra,0x80000
0x7e20 	00000013          	nop
0x7e24 	00700113          	li	sp,7
0x7e28 	4020d1b3          	sra	gp,ra,sp
0x7e2c 	00120213          	addi	tp,tp,1 # 1 <_start+0x1>
0x7e30 	00200293          	li	t0,2
0x7e34 	fe5214e3          	bne	tp,t0,17cec <test_31+0x4>
0x7e38 	ff000eb7          	lui	t4,0xff000
0x7e3c 	01f00e13          	li	t3,31
0x7e40 	1dd19663          	bne	gp,t4,17edc <fail>
0x7e44 	00000213          	li	tp,0
0x7e48 	800000b7          	lui	ra,0x80000
0x7e4c 	00000013          	nop
0x7e50 	00e00113          	li	sp,14
0x7e54 	00000013          	nop
0x7e58 	4020d1b3          	sra	gp,ra,sp
0x7e5c 	00120213          	addi	tp,tp,1 # 1 <_start+0x1>
0x7e60 	00200293          	li	t0,2
0x7e64 	fe5212e3          	bne	tp,t0,17d18 <test_32+0x4>
0x7e68 	fffe0eb7          	lui	t4,0xfffe0
0x7e6c 	02000e13          	li	t3,32
0x7e70 	19d19e63          	bne	gp,t4,17edc <fail>
0x7e74 	00000213          	li	tp,0
0x7e78 	800000b7          	lui	ra,0x80000
0x7e7c 	00000013          	nop
0x7e80 	00000013          	nop
0x7e84 	01f00113          	li	sp,31
0x7e88 	4020d1b3          	sra	gp,ra,sp
0x7e8c 	00120213          	addi	tp,tp,1 # 1 <_start+0x1>
0x7e90 	00200293          	li	t0,2
0x7e94 	fe5212e3          	bne	tp,t0,17d48 <test_33+0x4>
0x7e98 	fff00e93          	li	t4,-1
0x7e9c 	02100e13          	li	t3,33
0x7ea0 	17d19663          	bne	gp,t4,17edc <fail>
0x7ea4 	00000213          	li	tp,0
0x7ea8 	00700113          	li	sp,7
0x7eac 	800000b7          	lui	ra,0x80000
0x7eb0 	4020d1b3          	sra	gp,ra,sp
0x7eb4 	00120213          	addi	tp,tp,1 # 1 <_start+0x1>
0x7eb8 	00200293          	li	t0,2
0x7ebc 	fe5216e3          	bne	tp,t0,17d78 <test_34+0x4>
0x7ec0 	ff000eb7          	lui	t4,0xff000
0x7ec4 	02200e13          	li	t3,34
0x7ec8 	15d19263          	bne	gp,t4,17edc <fail>
0x7ecc 	00000213          	li	tp,0
0x7ed0 	00e00113          	li	sp,14
0x7ed4 	800000b7          	lui	ra,0x80000
0x7ed8 	00000013          	nop
0x7edc 	4020d1b3          	sra	gp,ra,sp
0x7ee0 	00120213          	addi	tp,tp,1 # 1 <_start+0x1>
0x7ee4 	00200293          	li	t0,2
0x7ee8 	fe5214e3          	bne	tp,t0,17da0 <test_35+0x4>
0x7eec 	fffe0eb7          	lui	t4,0xfffe0
0x7ef0 	02300e13          	li	t3,35
0x7ef4 	11d19c63          	bne	gp,t4,17edc <fail>
0x7ef8 	00000213          	li	tp,0
0x7efc 	01f00113          	li	sp,31
0x7f00 	800000b7          	lui	ra,0x80000
0x7f04 	00000013          	nop
0x7f08 	00000013          	nop
0x7f0c 	4020d1b3          	sra	gp,ra,sp
0x7f10 	00120213          	addi	tp,tp,1 # 1 <_start+0x1>
0x7f14 	00200293          	li	t0,2
0x7f18 	fe5212e3          	bne	tp,t0,17dcc <test_36+0x4>
0x7f1c 	fff00e93          	li	t4,-1
0x7f20 	02400e13          	li	t3,36
0x7f24 	0fd19463          	bne	gp,t4,17edc <fail>
0x7f28 	00000213          	li	tp,0
0x7f2c 	00700113          	li	sp,7
0x7f30 	00000013          	nop
0x7f34 	800000b7          	lui	ra,0x80000
0x7f38 	4020d1b3          	sra	gp,ra,sp
0x7f3c 	00120213          	addi	tp,tp,1 # 1 <_start+0x1>
0x7f40 	00200293          	li	t0,2
0x7f44 	fe5214e3          	bne	tp,t0,17dfc <test_37+0x4>
0x7f48 	ff000eb7          	lui	t4,0xff000
0x7f4c 	02500e13          	li	t3,37
0x7f50 	0bd19e63          	bne	gp,t4,17edc <fail>
0x7f54 	00000213          	li	tp,0
0x7f58 	00e00113          	li	sp,14
0x7f5c 	00000013          	nop
0x7f60 	800000b7          	lui	ra,0x80000
0x7f64 	00000013          	nop
0x7f68 	4020d1b3          	sra	gp,ra,sp
0x7f6c 	00120213          	addi	tp,tp,1 # 1 <_start+0x1>
0x7f70 	00200293          	li	t0,2
0x7f74 	fe5212e3          	bne	tp,t0,17e28 <test_38+0x4>
0x7f78 	fffe0eb7          	lui	t4,0xfffe0
0x7f7c 	02600e13          	li	t3,38
0x7f80 	09d19663          	bne	gp,t4,17edc <fail>
0x7f84 	00000213          	li	tp,0
0x7f88 	01f00113          	li	sp,31
0x7f8c 	00000013          	nop
0x7f90 	00000013          	nop
0x7f94 	800000b7          	lui	ra,0x80000
0x7f98 	4020d1b3          	sra	gp,ra,sp
0x7f9c 	00120213          	addi	tp,tp,1 # 1 <_start+0x1>
0x7fa0 	00200293          	li	t0,2
0x7fa4 	fe5212e3          	bne	tp,t0,17e58 <test_39+0x4>
0x7fa8 	fff00e93          	li	t4,-1
0x7fac 	02700e13          	li	t3,39
0x7fb0 	05d19e63          	bne	gp,t4,17edc <fail>
0x7fb4 	00f00093          	li	ra,15
0x7fb8 	40105133          	sra	sp,zero,ra
0x7fbc 	00000e93          	li	t4,0
0x7fc0 	02800e13          	li	t3,40
0x7fc4 	05d11463          	bne	sp,t4,17edc <fail>
0x7fc8 	02000093          	li	ra,32
0x7fcc 	4000d133          	sra	sp,ra,zero
0x7fd0 	02000e93          	li	t4,32
0x7fd4 	02900e13          	li	t3,41
0x7fd8 	03d11a63          	bne	sp,t4,17edc <fail>
0x7fdc 	400050b3          	sra	ra,zero,zero
0x7fe0 	00000e93          	li	t4,0
0x7fe4 	02a00e13          	li	t3,42
0x7fe8 	03d09263          	bne	ra,t4,17edc <fail>
0x7fec 	40000093          	li	ra,1024
0x7ff0 	00001137          	lui	sp,0x1
0x7ff4 	80010113          	addi	sp,sp,-2048 # 800 <coremarkBenchmark+0x758>
0x7ff8 	4020d033          	sra	zero,ra,sp
0x7ffc 	00000e93          	li	t4,0
0x8000 	02b00e13          	li	t3,43
0x8004 	01d01463          	bne	zero,t4,17edc <fail>
0x8008 	05c01863          	bne	zero,t3,17f28 <pass>
0x800c 	04500513          	li	a0,69
0x8010 	00004137          	lui	sp,0x4
0x8014 	2a5050ef          	jal	ra,1d988 <printf_c>
0x8018 	05200513          	li	a0,82
0x801c 	00004137          	lui	sp,0x4
0x8020 	299050ef          	jal	ra,1d988 <printf_c>
0x8024 	00004137          	lui	sp,0x4
0x8028 	291050ef          	jal	ra,1d988 <printf_c>
0x802c 	04f00513          	li	a0,79
0x8030 	00004137          	lui	sp,0x4
0x8034 	285050ef          	jal	ra,1d988 <printf_c>
0x8038 	00004137          	lui	sp,0x4
0x803c 	05200513          	li	a0,82
0x8040 	00004137          	lui	sp,0x4
0x8044 	275050ef          	jal	ra,1d988 <printf_c>
0x8048 	00a00513          	li	a0,10
0x804c 	00004137          	lui	sp,0x4
0x8050 	269050ef          	jal	ra,1d988 <printf_c>
0x8054 	0340006f          	j	17f58 <srai>
0x8058 	04f00513          	li	a0,79
0x805c 	00004137          	lui	sp,0x4
0x8060 	259050ef          	jal	ra,1d988 <printf_c>
0x8064 	04b00513          	li	a0,75
0x8068 	00004137          	lui	sp,0x4
0x806c 	24d050ef          	jal	ra,1d988 <printf_c>
0x8070 	00a00513          	li	a0,10
0x8074 	00004137          	lui	sp,0x4
0x8078 	241050ef          	jal	ra,1d988 <printf_c>
0x807c 	00c0006f          	j	17f58 <srai>
0x8080 	69617273          	csrrci	tp,0x696,2
0x8084 	0009                	c.addi	zero,2
0x8088 	00018537          	lui	a0,0x18
0x808c 	f5050513          	addi	a0,a0,-176 # 17f50 <.test_name>
0x8090 	00004137          	lui	sp,0x4
0x8094 	23d050ef          	jal	ra,1d9a0 <printf_s>
0x8098 	00000093          	li	ra,0
0x809c 	4000d193          	srai	gp,ra,0x0
0x80a0 	00000e93          	li	t4,0
0x80a4 	00200e13          	li	t3,2
0x80a8 	2bd19463          	bne	gp,t4,18220 <fail>
0x80ac 	800000b7          	lui	ra,0x80000
0x80b0 	4010d193          	srai	gp,ra,0x1
0x80b4 	c0000eb7          	lui	t4,0xc0000
0x80b8 	00300e13          	li	t3,3
0x80bc 	29d19a63          	bne	gp,t4,18220 <fail>
0x80c0 	800000b7          	lui	ra,0x80000
0x80c4 	4070d193          	srai	gp,ra,0x7
0x80c8 	ff000eb7          	lui	t4,0xff000
0x80cc 	00400e13          	li	t3,4
0x80d0 	29d19063          	bne	gp,t4,18220 <fail>
0x80d4 	800000b7          	lui	ra,0x80000
0x80d8 	40e0d193          	srai	gp,ra,0xe
0x80dc 	fffe0eb7          	lui	t4,0xfffe0
0x80e0 	00500e13          	li	t3,5
0x80e4 	27d19663          	bne	gp,t4,18220 <fail>
0x80e8 	800000b7          	lui	ra,0x80000
0x80ec 	00108093          	addi	ra,ra,1 # 80000001 <heap_memory_used+0x7ffde229>
0x80f0 	41f0d193          	srai	gp,ra,0x1f
0x80f4 	fff00e93          	li	t4,-1
0x80f8 	00600e13          	li	t3,6
0x80fc 	25d19a63          	bne	gp,t4,18220 <fail>
0x8100 	800000b7          	lui	ra,0x80000
0x8104 	fff08093          	addi	ra,ra,-1 # 7fffffff <heap_memory_used+0x7ffde227>
0x8108 	4000d193          	srai	gp,ra,0x0
0x810c 	80000eb7          	lui	t4,0x80000
0x8110 	fffe8e93          	addi	t4,t4,-1 # 7fffffff <heap_memory_used+0x7ffde227>
0x8114 	00700e13          	li	t3,7
0x8118 	23d19c63          	bne	gp,t4,18220 <fail>
0x811c 	800000b7          	lui	ra,0x80000
0x8120 	fff08093          	addi	ra,ra,-1 # 7fffffff <heap_memory_used+0x7ffde227>
0x8124 	4010d193          	srai	gp,ra,0x1
0x8128 	40000eb7          	lui	t4,0x40000
0x812c 	fffe8e93          	addi	t4,t4,-1 # 3fffffff <heap_memory_used+0x3ffde227>
0x8130 	00800e13          	li	t3,8
0x8134 	21d19e63          	bne	gp,t4,18220 <fail>
0x8138 	800000b7          	lui	ra,0x80000
0x813c 	fff08093          	addi	ra,ra,-1 # 7fffffff <heap_memory_used+0x7ffde227>
0x8140 	4070d193          	srai	gp,ra,0x7
0x8144 	01000eb7          	lui	t4,0x1000
0x8148 	fffe8e93          	addi	t4,t4,-1 # ffffff <heap_memory_used+0xfde227>
0x814c 	00900e13          	li	t3,9
0x8150 	21d19063          	bne	gp,t4,18220 <fail>
0x8154 	800000b7          	lui	ra,0x80000
0x8158 	fff08093          	addi	ra,ra,-1 # 7fffffff <heap_memory_used+0x7ffde227>
0x815c 	40e0d193          	srai	gp,ra,0xe
0x8160 	00020eb7          	lui	t4,0x20
0x8164 	fffe8e93          	addi	t4,t4,-1 # 1ffff <Arr_2_Glob+0xe3b>
0x8168 	00a00e13          	li	t3,10
0x816c 	1fd19263          	bne	gp,t4,18220 <fail>
0x8170 	800000b7          	lui	ra,0x80000
0x8174 	fff08093          	addi	ra,ra,-1 # 7fffffff <heap_memory_used+0x7ffde227>
0x8178 	41f0d193          	srai	gp,ra,0x1f
0x817c 	00000e93          	li	t4,0
0x8180 	00b00e13          	li	t3,11
0x8184 	1dd19663          	bne	gp,t4,18220 <fail>
0x8188 	818180b7          	lui	ra,0x81818
0x818c 	18108093          	addi	ra,ra,385 # 81818181 <heap_memory_used+0x817f63a9>
0x8190 	4000d193          	srai	gp,ra,0x0
0x8194 	81818eb7          	lui	t4,0x81818
0x8198 	181e8e93          	addi	t4,t4,385 # 81818181 <heap_memory_used+0x817f63a9>
0x819c 	00c00e13          	li	t3,12
0x81a0 	1bd19863          	bne	gp,t4,18220 <fail>
0x81a4 	818180b7          	lui	ra,0x81818
0x81a8 	18108093          	addi	ra,ra,385 # 81818181 <heap_memory_used+0x817f63a9>
0x81ac 	4010d193          	srai	gp,ra,0x1
0x81b0 	c0c0ceb7          	lui	t4,0xc0c0c
0x81b4 	0c0e8e93          	addi	t4,t4,192 # c0c0c0c0 <heap_memory_used+0xc0bea2e8>
0x81b8 	00d00e13          	li	t3,13
0x81bc 	19d19a63          	bne	gp,t4,18220 <fail>
0x81c0 	818180b7          	lui	ra,0x81818
0x81c4 	18108093          	addi	ra,ra,385 # 81818181 <heap_memory_used+0x817f63a9>
0x81c8 	4070d193          	srai	gp,ra,0x7
0x81cc 	ff030eb7          	lui	t4,0xff030
0x81d0 	303e8e93          	addi	t4,t4,771 # ff030303 <heap_memory_used+0xff00e52b>
0x81d4 	00e00e13          	li	t3,14
0x81d8 	17d19c63          	bne	gp,t4,18220 <fail>
0x81dc 	818180b7          	lui	ra,0x81818
0x81e0 	18108093          	addi	ra,ra,385 # 81818181 <heap_memory_used+0x817f63a9>
0x81e4 	40e0d193          	srai	gp,ra,0xe
0x81e8 	fffe0eb7          	lui	t4,0xfffe0
0x81ec 	606e8e93          	addi	t4,t4,1542 # fffe0606 <heap_memory_used+0xfffbe82e>
0x81f0 	00f00e13          	li	t3,15
0x81f4 	15d19e63          	bne	gp,t4,18220 <fail>
0x81f8 	818180b7          	lui	ra,0x81818
0x81fc 	18108093          	addi	ra,ra,385 # 81818181 <heap_memory_used+0x817f63a9>
0x8200 	41f0d193          	srai	gp,ra,0x1f
0x8204 	fff00e93          	li	t4,-1
0x8208 	01000e13          	li	t3,16
0x820c 	15d19263          	bne	gp,t4,18220 <fail>
0x8210 	800000b7          	lui	ra,0x80000
0x8214 	4070d093          	srai	ra,ra,0x7
0x8218 	ff000eb7          	lui	t4,0xff000
0x821c 	01100e13          	li	t3,17
0x8220 	13d09863          	bne	ra,t4,18220 <fail>
0x8224 	00000213          	li	tp,0
0x8228 	800000b7          	lui	ra,0x80000
0x822c 	4070d193          	srai	gp,ra,0x7
0x8230 	00018313          	mv	t1,gp
0x8234 	00120213          	addi	tp,tp,1 # 1 <_start+0x1>
0x8238 	00200293          	li	t0,2
0x823c 	fe5216e3          	bne	tp,t0,180f8 <test_18+0x4>
0x8240 	ff000eb7          	lui	t4,0xff000
0x8244 	01200e13          	li	t3,18
0x8248 	11d31463          	bne	t1,t4,18220 <fail>
0x824c 	00000213          	li	tp,0
0x8250 	800000b7          	lui	ra,0x80000
0x8254 	40e0d193          	srai	gp,ra,0xe
0x8258 	00000013          	nop
0x825c 	00018313          	mv	t1,gp
0x8260 	00120213          	addi	tp,tp,1 # 1 <_start+0x1>
0x8264 	00200293          	li	t0,2
0x8268 	fe5214e3          	bne	tp,t0,18120 <test_19+0x4>
0x826c 	fffe0eb7          	lui	t4,0xfffe0
0x8270 	01300e13          	li	t3,19
0x8274 	0dd31e63          	bne	t1,t4,18220 <fail>
0x8278 	00000213          	li	tp,0
0x827c 	800000b7          	lui	ra,0x80000
0x8280 	00108093          	addi	ra,ra,1 # 80000001 <heap_memory_used+0x7ffde229>
0x8284 	41f0d193          	srai	gp,ra,0x1f
0x8288 	00000013          	nop
0x828c 	00000013          	nop
0x8290 	00018313          	mv	t1,gp
0x8294 	00120213          	addi	tp,tp,1 # 1 <_start+0x1>
0x8298 	00200293          	li	t0,2
0x829c 	fe5210e3          	bne	tp,t0,1814c <test_20+0x4>
0x82a0 	fff00e93          	li	t4,-1
0x82a4 	01400e13          	li	t3,20
0x82a8 	0bd31463          	bne	t1,t4,18220 <fail>
0x82ac 	00000213          	li	tp,0
0x82b0 	800000b7          	lui	ra,0x80000
0x82b4 	4070d193          	srai	gp,ra,0x7
0x82b8 	00120213          	addi	tp,tp,1 # 1 <_start+0x1>
0x82bc 	00200293          	li	t0,2
0x82c0 	fe5218e3          	bne	tp,t0,18180 <test_21+0x4>
0x82c4 	ff000eb7          	lui	t4,0xff000
0x82c8 	01500e13          	li	t3,21
0x82cc 	09d19263          	bne	gp,t4,18220 <fail>
0x82d0 	00000213          	li	tp,0
0x82d4 	800000b7          	lui	ra,0x80000
0x82d8 	00000013          	nop
0x82dc 	40e0d193          	srai	gp,ra,0xe
0x82e0 	00120213          	addi	tp,tp,1 # 1 <_start+0x1>
0x82e4 	00200293          	li	t0,2
0x82e8 	fe5216e3          	bne	tp,t0,181a4 <test_22+0x4>
0x82ec 	fffe0eb7          	lui	t4,0xfffe0
0x82f0 	01600e13          	li	t3,22
0x82f4 	05d19e63          	bne	gp,t4,18220 <fail>
0x82f8 	00000213          	li	tp,0
0x82fc 	800000b7          	lui	ra,0x80000
0x8300 	00108093          	addi	ra,ra,1 # 80000001 <heap_memory_used+0x7ffde229>
0x8304 	00000013          	nop
0x8308 	00000013          	nop
0x830c 	41f0d193          	srai	gp,ra,0x1f
0x8310 	00120213          	addi	tp,tp,1 # 1 <_start+0x1>
0x8314 	00200293          	li	t0,2
0x8318 	fe5212e3          	bne	tp,t0,181cc <test_23+0x4>
0x831c 	fff00e93          	li	t4,-1
0x8320 	01700e13          	li	t3,23
0x8324 	03d19663          	bne	gp,t4,18220 <fail>
0x8328 	41f05093          	srai	ra,zero,0x1f
0x832c 	00000e93          	li	t4,0
0x8330 	01800e13          	li	t3,24
0x8334 	01d09e63          	bne	ra,t4,18220 <fail>
0x8338 	02100093          	li	ra,33
0x833c 	4140d013          	srai	zero,ra,0x14
0x8340 	00000e93          	li	t4,0
0x8344 	01900e13          	li	t3,25
0x8348 	01d01463          	bne	zero,t4,18220 <fail>
0x834c 	05c01863          	bne	zero,t3,1826c <pass>
0x8350 	04500513          	li	a0,69
0x8354 	00004137          	lui	sp,0x4
0x8358 	760050ef          	jal	ra,1d988 <printf_c>
0x835c 	05200513          	li	a0,82
0x8360 	00004137          	lui	sp,0x4
0x8364 	754050ef          	jal	ra,1d988 <printf_c>
0x8368 	00004137          	lui	sp,0x4
0x836c 	74c050ef          	jal	ra,1d988 <printf_c>
0x8370 	04f00513          	li	a0,79
0x8374 	00004137          	lui	sp,0x4
0x8378 	740050ef          	jal	ra,1d988 <printf_c>
0x837c 	00004137          	lui	sp,0x4
0x8380 	05200513          	li	a0,82
0x8384 	00004137          	lui	sp,0x4
0x8388 	730050ef          	jal	ra,1d988 <printf_c>
0x838c 	00a00513          	li	a0,10
0x8390 	00004137          	lui	sp,0x4
0x8394 	724050ef          	jal	ra,1d988 <printf_c>
0x8398 	0340006f          	j	1829c <srl>
0x839c 	04f00513          	li	a0,79
0x83a0 	00004137          	lui	sp,0x4
0x83a4 	714050ef          	jal	ra,1d988 <printf_c>
0x83a8 	04b00513          	li	a0,75
0x83ac 	00004137          	lui	sp,0x4
0x83b0 	708050ef          	jal	ra,1d988 <printf_c>
0x83b4 	00a00513          	li	a0,10
0x83b8 	00004137          	lui	sp,0x4
0x83bc 	6fc050ef          	jal	ra,1d988 <printf_c>
0x83c0 	00c0006f          	j	1829c <srl>
0x83c4 	206c7273          	csrrci	tp,0x206,24
0x83c8 	0009                	c.addi	zero,2
0x83cc 	00018537          	lui	a0,0x18
0x83d0 	29450513          	addi	a0,a0,660 # 18294 <.test_name>
0x83d4 	00004137          	lui	sp,0x4
0x83d8 	6f8050ef          	jal	ra,1d9a0 <printf_s>
0x83dc 	ffff80b7          	lui	ra,0xffff8
0x83e0 	00000113          	li	sp,0
0x83e4 	0020d1b3          	srl	gp,ra,sp
0x83e8 	ffff8eb7          	lui	t4,0xffff8
0x83ec 	00200e13          	li	t3,2
0x83f0 	5bd19463          	bne	gp,t4,18868 <fail>
0x83f4 	ffff80b7          	lui	ra,0xffff8
0x83f8 	00100113          	li	sp,1
0x83fc 	0020d1b3          	srl	gp,ra,sp
0x8400 	7fffceb7          	lui	t4,0x7fffc
0x8404 	00300e13          	li	t3,3
0x8408 	59d19863          	bne	gp,t4,18868 <fail>
0x840c 	ffff80b7          	lui	ra,0xffff8
0x8410 	00700113          	li	sp,7
0x8414 	0020d1b3          	srl	gp,ra,sp
0x8418 	02000eb7          	lui	t4,0x2000
0x841c 	f00e8e93          	addi	t4,t4,-256 # 1ffff00 <heap_memory_used+0x1fde128>
0x8420 	00400e13          	li	t3,4
0x8424 	57d19a63          	bne	gp,t4,18868 <fail>
0x8428 	ffff80b7          	lui	ra,0xffff8
0x842c 	00e00113          	li	sp,14
0x8430 	0020d1b3          	srl	gp,ra,sp
0x8434 	00040eb7          	lui	t4,0x40
0x8438 	ffee8e93          	addi	t4,t4,-2 # 3fffe <heap_memory_used+0x1e226>
0x843c 	00500e13          	li	t3,5
0x8440 	55d19c63          	bne	gp,t4,18868 <fail>
0x8444 	ffff80b7          	lui	ra,0xffff8
0x8448 	00108093          	addi	ra,ra,1 # ffff8001 <heap_memory_used+0xfffd6229>
0x844c 	00f00113          	li	sp,15
0x8450 	0020d1b3          	srl	gp,ra,sp
0x8454 	00020eb7          	lui	t4,0x20
0x8458 	fffe8e93          	addi	t4,t4,-1 # 1ffff <Arr_2_Glob+0xe3b>
0x845c 	00600e13          	li	t3,6
0x8460 	53d19c63          	bne	gp,t4,18868 <fail>
0x8464 	fff00093          	li	ra,-1
0x8468 	00000113          	li	sp,0
0x846c 	0020d1b3          	srl	gp,ra,sp
0x8470 	fff00e93          	li	t4,-1
0x8474 	00700e13          	li	t3,7
0x8478 	53d19063          	bne	gp,t4,18868 <fail>
0x847c 	fff00093          	li	ra,-1
0x8480 	00100113          	li	sp,1
0x8484 	0020d1b3          	srl	gp,ra,sp
0x8488 	80000eb7          	lui	t4,0x80000
0x848c 	fffe8e93          	addi	t4,t4,-1 # 7fffffff <heap_memory_used+0x7ffde227>
0x8490 	00800e13          	li	t3,8
0x8494 	51d19263          	bne	gp,t4,18868 <fail>
0x8498 	fff00093          	li	ra,-1
0x849c 	00700113          	li	sp,7
0x84a0 	0020d1b3          	srl	gp,ra,sp
0x84a4 	02000eb7          	lui	t4,0x2000
0x84a8 	fffe8e93          	addi	t4,t4,-1 # 1ffffff <heap_memory_used+0x1fde227>
0x84ac 	00900e13          	li	t3,9
0x84b0 	4fd19463          	bne	gp,t4,18868 <fail>
0x84b4 	fff00093          	li	ra,-1
0x84b8 	00e00113          	li	sp,14
0x84bc 	0020d1b3          	srl	gp,ra,sp
0x84c0 	00040eb7          	lui	t4,0x40
0x84c4 	fffe8e93          	addi	t4,t4,-1 # 3ffff <heap_memory_used+0x1e227>
0x84c8 	00a00e13          	li	t3,10
0x84cc 	4dd19663          	bne	gp,t4,18868 <fail>
0x84d0 	fff00093          	li	ra,-1
0x84d4 	01f00113          	li	sp,31
0x84d8 	0020d1b3          	srl	gp,ra,sp
0x84dc 	00100e93          	li	t4,1
0x84e0 	00b00e13          	li	t3,11
0x84e4 	4bd19a63          	bne	gp,t4,18868 <fail>
0x84e8 	212120b7          	lui	ra,0x21212
0x84ec 	12108093          	addi	ra,ra,289 # 21212121 <heap_memory_used+0x211f0349>
0x84f0 	00000113          	li	sp,0
0x84f4 	0020d1b3          	srl	gp,ra,sp
0x84f8 	21212eb7          	lui	t4,0x21212
0x84fc 	121e8e93          	addi	t4,t4,289 # 21212121 <heap_memory_used+0x211f0349>
0x8500 	00c00e13          	li	t3,12
0x8504 	49d19a63          	bne	gp,t4,18868 <fail>
0x8508 	212120b7          	lui	ra,0x21212
0x850c 	12108093          	addi	ra,ra,289 # 21212121 <heap_memory_used+0x211f0349>
0x8510 	00100113          	li	sp,1
0x8514 	0020d1b3          	srl	gp,ra,sp
0x8518 	10909eb7          	lui	t4,0x10909
0x851c 	090e8e93          	addi	t4,t4,144 # 10909090 <heap_memory_used+0x108e72b8>
0x8520 	00d00e13          	li	t3,13
0x8524 	47d19a63          	bne	gp,t4,18868 <fail>
0x8528 	212120b7          	lui	ra,0x21212
0x852c 	12108093          	addi	ra,ra,289 # 21212121 <heap_memory_used+0x211f0349>
0x8530 	00700113          	li	sp,7
0x8534 	0020d1b3          	srl	gp,ra,sp
0x8538 	00424eb7          	lui	t4,0x424
0x853c 	242e8e93          	addi	t4,t4,578 # 424242 <heap_memory_used+0x40246a>
0x8540 	00e00e13          	li	t3,14
0x8544 	45d19a63          	bne	gp,t4,18868 <fail>
0x8548 	212120b7          	lui	ra,0x21212
0x854c 	12108093          	addi	ra,ra,289 # 21212121 <heap_memory_used+0x211f0349>
0x8550 	00e00113          	li	sp,14
0x8554 	0020d1b3          	srl	gp,ra,sp
0x8558 	00008eb7          	lui	t4,0x8
0x855c 	484e8e93          	addi	t4,t4,1156 # 8484 <coremarkBenchmark+0x83dc>
0x8560 	00f00e13          	li	t3,15
0x8564 	43d19a63          	bne	gp,t4,18868 <fail>
0x8568 	212120b7          	lui	ra,0x21212
0x856c 	12108093          	addi	ra,ra,289 # 21212121 <heap_memory_used+0x211f0349>
0x8570 	01f00113          	li	sp,31
0x8574 	0020d1b3          	srl	gp,ra,sp
0x8578 	00000e93          	li	t4,0
0x857c 	01000e13          	li	t3,16
0x8580 	41d19c63          	bne	gp,t4,18868 <fail>
0x8584 	212120b7          	lui	ra,0x21212
0x8588 	12108093          	addi	ra,ra,289 # 21212121 <heap_memory_used+0x211f0349>
0x858c 	fe000113          	li	sp,-32
0x8590 	0020d1b3          	srl	gp,ra,sp
0x8594 	21212eb7          	lui	t4,0x21212
0x8598 	121e8e93          	addi	t4,t4,289 # 21212121 <heap_memory_used+0x211f0349>
0x859c 	01100e13          	li	t3,17
0x85a0 	3fd19c63          	bne	gp,t4,18868 <fail>
0x85a4 	212120b7          	lui	ra,0x21212
0x85a8 	12108093          	addi	ra,ra,289 # 21212121 <heap_memory_used+0x211f0349>
0x85ac 	fe100113          	li	sp,-31
0x85b0 	0020d1b3          	srl	gp,ra,sp
0x85b4 	10909eb7          	lui	t4,0x10909
0x85b8 	090e8e93          	addi	t4,t4,144 # 10909090 <heap_memory_used+0x108e72b8>
0x85bc 	01200e13          	li	t3,18
0x85c0 	3dd19c63          	bne	gp,t4,18868 <fail>
0x85c4 	212120b7          	lui	ra,0x21212
0x85c8 	12108093          	addi	ra,ra,289 # 21212121 <heap_memory_used+0x211f0349>
0x85cc 	fe700113          	li	sp,-25
0x85d0 	0020d1b3          	srl	gp,ra,sp
0x85d4 	00424eb7          	lui	t4,0x424
0x85d8 	242e8e93          	addi	t4,t4,578 # 424242 <heap_memory_used+0x40246a>
0x85dc 	01300e13          	li	t3,19
0x85e0 	3bd19c63          	bne	gp,t4,18868 <fail>
0x85e4 	212120b7          	lui	ra,0x21212
0x85e8 	12108093          	addi	ra,ra,289 # 21212121 <heap_memory_used+0x211f0349>
0x85ec 	fee00113          	li	sp,-18
0x85f0 	0020d1b3          	srl	gp,ra,sp
0x85f4 	00008eb7          	lui	t4,0x8
0x85f8 	484e8e93          	addi	t4,t4,1156 # 8484 <coremarkBenchmark+0x83dc>
0x85fc 	01400e13          	li	t3,20
0x8600 	39d19c63          	bne	gp,t4,18868 <fail>
0x8604 	212120b7          	lui	ra,0x21212
0x8608 	12108093          	addi	ra,ra,289 # 21212121 <heap_memory_used+0x211f0349>
0x860c 	fff00113          	li	sp,-1
0x8610 	0020d1b3          	srl	gp,ra,sp
0x8614 	00000e93          	li	t4,0
0x8618 	01500e13          	li	t3,21
0x861c 	37d19e63          	bne	gp,t4,18868 <fail>
0x8620 	ffff80b7          	lui	ra,0xffff8
0x8624 	00100113          	li	sp,1
0x8628 	0020d0b3          	srl	ra,ra,sp
0x862c 	7fffceb7          	lui	t4,0x7fffc
0x8630 	01600e13          	li	t3,22
0x8634 	37d09263          	bne	ra,t4,18868 <fail>
0x8638 	ffff80b7          	lui	ra,0xffff8
0x863c 	00e00113          	li	sp,14
0x8640 	0020d133          	srl	sp,ra,sp
0x8644 	00040eb7          	lui	t4,0x40
0x8648 	ffee8e93          	addi	t4,t4,-2 # 3fffe <heap_memory_used+0x1e226>
0x864c 	01700e13          	li	t3,23
0x8650 	35d11463          	bne	sp,t4,18868 <fail>
0x8654 	00700093          	li	ra,7
0x8658 	0010d0b3          	srl	ra,ra,ra
0x865c 	00000e93          	li	t4,0
0x8660 	01800e13          	li	t3,24
0x8664 	33d09a63          	bne	ra,t4,18868 <fail>
0x8668 	00000213          	li	tp,0
0x866c 	ffff80b7          	lui	ra,0xffff8
0x8670 	00100113          	li	sp,1
0x8674 	0020d1b3          	srl	gp,ra,sp
0x8678 	00018313          	mv	t1,gp
0x867c 	00120213          	addi	tp,tp,1 # 1 <_start+0x1>
0x8680 	00200293          	li	t0,2
0x8684 	fe5214e3          	bne	tp,t0,1853c <test_25+0x4>
0x8688 	7fffceb7          	lui	t4,0x7fffc
0x868c 	01900e13          	li	t3,25
0x8690 	31d31463          	bne	t1,t4,18868 <fail>
0x8694 	00000213          	li	tp,0
0x8698 	ffff80b7          	lui	ra,0xffff8
0x869c 	00e00113          	li	sp,14
0x86a0 	0020d1b3          	srl	gp,ra,sp
0x86a4 	00000013          	nop
0x86a8 	00018313          	mv	t1,gp
0x86ac 	00120213          	addi	tp,tp,1 # 1 <_start+0x1>
0x86b0 	00200293          	li	t0,2
0x86b4 	fe5212e3          	bne	tp,t0,18568 <test_26+0x4>
0x86b8 	00040eb7          	lui	t4,0x40
0x86bc 	ffee8e93          	addi	t4,t4,-2 # 3fffe <heap_memory_used+0x1e226>
0x86c0 	01a00e13          	li	t3,26
0x86c4 	2dd31a63          	bne	t1,t4,18868 <fail>
0x86c8 	00000213          	li	tp,0
0x86cc 	ffff80b7          	lui	ra,0xffff8
0x86d0 	00f00113          	li	sp,15
0x86d4 	0020d1b3          	srl	gp,ra,sp
0x86d8 	00000013          	nop
0x86dc 	00000013          	nop
0x86e0 	00018313          	mv	t1,gp
0x86e4 	00120213          	addi	tp,tp,1 # 1 <_start+0x1>
0x86e8 	00200293          	li	t0,2
0x86ec 	fe5210e3          	bne	tp,t0,1859c <test_27+0x4>
0x86f0 	00020eb7          	lui	t4,0x20
0x86f4 	fffe8e93          	addi	t4,t4,-1 # 1ffff <Arr_2_Glob+0xe3b>
0x86f8 	01b00e13          	li	t3,27
0x86fc 	29d31e63          	bne	t1,t4,18868 <fail>
0x8700 	00000213          	li	tp,0
0x8704 	ffff80b7          	lui	ra,0xffff8
0x8708 	00100113          	li	sp,1
0x870c 	0020d1b3          	srl	gp,ra,sp
0x8710 	00120213          	addi	tp,tp,1 # 1 <_start+0x1>
0x8714 	00200293          	li	t0,2
0x8718 	fe5216e3          	bne	tp,t0,185d4 <test_28+0x4>
0x871c 	7fffceb7          	lui	t4,0x7fffc
0x8720 	01c00e13          	li	t3,28
0x8724 	27d19a63          	bne	gp,t4,18868 <fail>
0x8728 	00000213          	li	tp,0
0x872c 	ffff80b7          	lui	ra,0xffff8
0x8730 	00700113          	li	sp,7
0x8734 	00000013          	nop
0x8738 	0020d1b3          	srl	gp,ra,sp
0x873c 	00120213          	addi	tp,tp,1 # 1 <_start+0x1>
0x8740 	00200293          	li	t0,2
0x8744 	fe5214e3          	bne	tp,t0,185fc <test_29+0x4>
0x8748 	02000eb7          	lui	t4,0x2000
0x874c 	f00e8e93          	addi	t4,t4,-256 # 1ffff00 <heap_memory_used+0x1fde128>
0x8750 	01d00e13          	li	t3,29
0x8754 	25d19263          	bne	gp,t4,18868 <fail>
0x8758 	00000213          	li	tp,0
0x875c 	ffff80b7          	lui	ra,0xffff8
0x8760 	00f00113          	li	sp,15
0x8764 	00000013          	nop
0x8768 	00000013          	nop
0x876c 	0020d1b3          	srl	gp,ra,sp
0x8770 	00120213          	addi	tp,tp,1 # 1 <_start+0x1>
0x8774 	00200293          	li	t0,2
0x8778 	fe5212e3          	bne	tp,t0,1862c <test_30+0x4>
0x877c 	00020eb7          	lui	t4,0x20
0x8780 	fffe8e93          	addi	t4,t4,-1 # 1ffff <Arr_2_Glob+0xe3b>
0x8784 	01e00e13          	li	t3,30
0x8788 	21d19863          	bne	gp,t4,18868 <fail>
0x878c 	00000213          	li	tp,0
0x8790 	ffff80b7          	lui	ra,0xffff8
0x8794 	00000013          	nop
0x8798 	00100113          	li	sp,1
0x879c 	0020d1b3          	srl	gp,ra,sp
0x87a0 	00120213          	addi	tp,tp,1 # 1 <_start+0x1>
0x87a4 	00200293          	li	t0,2
0x87a8 	fe5214e3          	bne	tp,t0,18660 <test_31+0x4>
0x87ac 	7fffceb7          	lui	t4,0x7fffc
0x87b0 	01f00e13          	li	t3,31
0x87b4 	1fd19263          	bne	gp,t4,18868 <fail>
0x87b8 	00000213          	li	tp,0
0x87bc 	ffff80b7          	lui	ra,0xffff8
0x87c0 	00000013          	nop
0x87c4 	00700113          	li	sp,7
0x87c8 	00000013          	nop
0x87cc 	0020d1b3          	srl	gp,ra,sp
0x87d0 	00120213          	addi	tp,tp,1 # 1 <_start+0x1>
0x87d4 	00200293          	li	t0,2
0x87d8 	fe5212e3          	bne	tp,t0,1868c <test_32+0x4>
0x87dc 	02000eb7          	lui	t4,0x2000
0x87e0 	f00e8e93          	addi	t4,t4,-256 # 1ffff00 <heap_memory_used+0x1fde128>
0x87e4 	02000e13          	li	t3,32
0x87e8 	1bd19863          	bne	gp,t4,18868 <fail>
0x87ec 	00000213          	li	tp,0
0x87f0 	ffff80b7          	lui	ra,0xffff8
0x87f4 	00000013          	nop
0x87f8 	00000013          	nop
0x87fc 	00f00113          	li	sp,15
0x8800 	0020d1b3          	srl	gp,ra,sp
0x8804 	00120213          	addi	tp,tp,1 # 1 <_start+0x1>
0x8808 	00200293          	li	t0,2
0x880c 	fe5212e3          	bne	tp,t0,186c0 <test_33+0x4>
0x8810 	00020eb7          	lui	t4,0x20
0x8814 	fffe8e93          	addi	t4,t4,-1 # 1ffff <Arr_2_Glob+0xe3b>
0x8818 	02100e13          	li	t3,33
0x881c 	17d19e63          	bne	gp,t4,18868 <fail>
0x8820 	00000213          	li	tp,0
0x8824 	00100113          	li	sp,1
0x8828 	ffff80b7          	lui	ra,0xffff8
0x882c 	0020d1b3          	srl	gp,ra,sp
0x8830 	00120213          	addi	tp,tp,1 # 1 <_start+0x1>
0x8834 	00200293          	li	t0,2
0x8838 	fe5216e3          	bne	tp,t0,186f4 <test_34+0x4>
0x883c 	7fffceb7          	lui	t4,0x7fffc
0x8840 	02200e13          	li	t3,34
0x8844 	15d19a63          	bne	gp,t4,18868 <fail>
0x8848 	00000213          	li	tp,0
0x884c 	00700113          	li	sp,7
0x8850 	ffff80b7          	lui	ra,0xffff8
0x8854 	00000013          	nop
0x8858 	0020d1b3          	srl	gp,ra,sp
0x885c 	00120213          	addi	tp,tp,1 # 1 <_start+0x1>
0x8860 	00200293          	li	t0,2
0x8864 	fe5214e3          	bne	tp,t0,1871c <test_35+0x4>
0x8868 	02000eb7          	lui	t4,0x2000
0x886c 	f00e8e93          	addi	t4,t4,-256 # 1ffff00 <heap_memory_used+0x1fde128>
0x8870 	02300e13          	li	t3,35
0x8874 	13d19263          	bne	gp,t4,18868 <fail>
0x8878 	00000213          	li	tp,0
0x887c 	00f00113          	li	sp,15
0x8880 	ffff80b7          	lui	ra,0xffff8
0x8884 	00000013          	nop
0x8888 	00000013          	nop
0x888c 	0020d1b3          	srl	gp,ra,sp
0x8890 	00120213          	addi	tp,tp,1 # 1 <_start+0x1>
0x8894 	00200293          	li	t0,2
0x8898 	fe5212e3          	bne	tp,t0,1874c <test_36+0x4>
0x889c 	00020eb7          	lui	t4,0x20
0x88a0 	fffe8e93          	addi	t4,t4,-1 # 1ffff <Arr_2_Glob+0xe3b>
0x88a4 	02400e13          	li	t3,36
0x88a8 	0fd19863          	bne	gp,t4,18868 <fail>
0x88ac 	00000213          	li	tp,0
0x88b0 	00100113          	li	sp,1
0x88b4 	00000013          	nop
0x88b8 	ffff80b7          	lui	ra,0xffff8
0x88bc 	0020d1b3          	srl	gp,ra,sp
0x88c0 	00120213          	addi	tp,tp,1 # 1 <_start+0x1>
0x88c4 	00200293          	li	t0,2
0x88c8 	fe5214e3          	bne	tp,t0,18780 <test_37+0x4>
0x88cc 	7fffceb7          	lui	t4,0x7fffc
0x88d0 	02500e13          	li	t3,37
0x88d4 	0dd19263          	bne	gp,t4,18868 <fail>
0x88d8 	00000213          	li	tp,0
0x88dc 	00700113          	li	sp,7
0x88e0 	00000013          	nop
0x88e4 	ffff80b7          	lui	ra,0xffff8
0x88e8 	00000013          	nop
0x88ec 	0020d1b3          	srl	gp,ra,sp
0x88f0 	00120213          	addi	tp,tp,1 # 1 <_start+0x1>
0x88f4 	00200293          	li	t0,2
0x88f8 	fe5212e3          	bne	tp,t0,187ac <test_38+0x4>
0x88fc 	02000eb7          	lui	t4,0x2000
0x8900 	f00e8e93          	addi	t4,t4,-256 # 1ffff00 <heap_memory_used+0x1fde128>
0x8904 	02600e13          	li	t3,38
0x8908 	09d19863          	bne	gp,t4,18868 <fail>
0x890c 	00000213          	li	tp,0
0x8910 	00f00113          	li	sp,15
0x8914 	00000013          	nop
0x8918 	00000013          	nop
0x891c 	ffff80b7          	lui	ra,0xffff8
0x8920 	0020d1b3          	srl	gp,ra,sp
0x8924 	00120213          	addi	tp,tp,1 # 1 <_start+0x1>
0x8928 	00200293          	li	t0,2
0x892c 	fe5212e3          	bne	tp,t0,187e0 <test_39+0x4>
0x8930 	00020eb7          	lui	t4,0x20
0x8934 	fffe8e93          	addi	t4,t4,-1 # 1ffff <Arr_2_Glob+0xe3b>
0x8938 	02700e13          	li	t3,39
0x893c 	05d19e63          	bne	gp,t4,18868 <fail>
0x8940 	00f00093          	li	ra,15
0x8944 	00105133          	srl	sp,zero,ra
0x8948 	00000e93          	li	t4,0
0x894c 	02800e13          	li	t3,40
0x8950 	05d11463          	bne	sp,t4,18868 <fail>
0x8954 	02000093          	li	ra,32
0x8958 	0000d133          	srl	sp,ra,zero
0x895c 	02000e93          	li	t4,32
0x8960 	02900e13          	li	t3,41
0x8964 	03d11a63          	bne	sp,t4,18868 <fail>
0x8968 	000050b3          	srl	ra,zero,zero
0x896c 	00000e93          	li	t4,0
0x8970 	02a00e13          	li	t3,42
0x8974 	03d09263          	bne	ra,t4,18868 <fail>
0x8978 	40000093          	li	ra,1024
0x897c 	00001137          	lui	sp,0x1
0x8980 	80010113          	addi	sp,sp,-2048 # 800 <coremarkBenchmark+0x758>
0x8984 	0020d033          	srl	zero,ra,sp
0x8988 	00000e93          	li	t4,0
0x898c 	02b00e13          	li	t3,43
0x8990 	01d01463          	bne	zero,t4,18868 <fail>
0x8994 	05c01863          	bne	zero,t3,188b4 <pass>
0x8998 	04500513          	li	a0,69
0x899c 	00004137          	lui	sp,0x4
0x89a0 	118050ef          	jal	ra,1d988 <printf_c>
0x89a4 	05200513          	li	a0,82
0x89a8 	00004137          	lui	sp,0x4
0x89ac 	10c050ef          	jal	ra,1d988 <printf_c>
0x89b0 	00004137          	lui	sp,0x4
0x89b4 	104050ef          	jal	ra,1d988 <printf_c>
0x89b8 	04f00513          	li	a0,79
0x89bc 	00004137          	lui	sp,0x4
0x89c0 	0f8050ef          	jal	ra,1d988 <printf_c>
0x89c4 	00004137          	lui	sp,0x4
0x89c8 	05200513          	li	a0,82
0x89cc 	00004137          	lui	sp,0x4
0x89d0 	0e8050ef          	jal	ra,1d988 <printf_c>
0x89d4 	00a00513          	li	a0,10
0x89d8 	00004137          	lui	sp,0x4
0x89dc 	0dc050ef          	jal	ra,1d988 <printf_c>
0x89e0 	0340006f          	j	188e4 <srli>
0x89e4 	04f00513          	li	a0,79
0x89e8 	00004137          	lui	sp,0x4
0x89ec 	0cc050ef          	jal	ra,1d988 <printf_c>
0x89f0 	04b00513          	li	a0,75
0x89f4 	00004137          	lui	sp,0x4
0x89f8 	0c0050ef          	jal	ra,1d988 <printf_c>
0x89fc 	00a00513          	li	a0,10
0x8a00 	00004137          	lui	sp,0x4
0x8a04 	0b4050ef          	jal	ra,1d988 <printf_c>
0x8a08 	00c0006f          	j	188e4 <srli>
0x8a0c 	696c7273          	csrrci	tp,0x696,24
0x8a10 	0920                	addi	s0,sp,152
0x8a14 	00019537          	lui	a0,0x19
0x8a18 	8dc50513          	addi	a0,a0,-1828 # 188dc <.test_name>
0x8a1c 	00004137          	lui	sp,0x4
0x8a20 	0b0050ef          	jal	ra,1d9a0 <printf_s>
0x8a24 	ffff80b7          	lui	ra,0xffff8
0x8a28 	0000d193          	srli	gp,ra,0x0
0x8a2c 	ffff8eb7          	lui	t4,0xffff8
0x8a30 	00200e13          	li	t3,2
0x8a34 	2bd19263          	bne	gp,t4,18ba8 <fail>
0x8a38 	ffff80b7          	lui	ra,0xffff8
0x8a3c 	0010d193          	srli	gp,ra,0x1
0x8a40 	7fffceb7          	lui	t4,0x7fffc
0x8a44 	00300e13          	li	t3,3
0x8a48 	29d19863          	bne	gp,t4,18ba8 <fail>
0x8a4c 	ffff80b7          	lui	ra,0xffff8
0x8a50 	0070d193          	srli	gp,ra,0x7
0x8a54 	02000eb7          	lui	t4,0x2000
0x8a58 	f00e8e93          	addi	t4,t4,-256 # 1ffff00 <heap_memory_used+0x1fde128>
0x8a5c 	00400e13          	li	t3,4
0x8a60 	27d19c63          	bne	gp,t4,18ba8 <fail>
0x8a64 	ffff80b7          	lui	ra,0xffff8
0x8a68 	00e0d193          	srli	gp,ra,0xe
0x8a6c 	00040eb7          	lui	t4,0x40
0x8a70 	ffee8e93          	addi	t4,t4,-2 # 3fffe <heap_memory_used+0x1e226>
0x8a74 	00500e13          	li	t3,5
0x8a78 	27d19063          	bne	gp,t4,18ba8 <fail>
0x8a7c 	ffff80b7          	lui	ra,0xffff8
0x8a80 	00108093          	addi	ra,ra,1 # ffff8001 <heap_memory_used+0xfffd6229>
0x8a84 	00f0d193          	srli	gp,ra,0xf
0x8a88 	00020eb7          	lui	t4,0x20
0x8a8c 	fffe8e93          	addi	t4,t4,-1 # 1ffff <Arr_2_Glob+0xe3b>
0x8a90 	00600e13          	li	t3,6
0x8a94 	25d19263          	bne	gp,t4,18ba8 <fail>
0x8a98 	fff00093          	li	ra,-1
0x8a9c 	0000d193          	srli	gp,ra,0x0
0x8aa0 	fff00e93          	li	t4,-1
0x8aa4 	00700e13          	li	t3,7
0x8aa8 	23d19863          	bne	gp,t4,18ba8 <fail>
0x8aac 	fff00093          	li	ra,-1
0x8ab0 	0010d193          	srli	gp,ra,0x1
0x8ab4 	80000eb7          	lui	t4,0x80000
0x8ab8 	fffe8e93          	addi	t4,t4,-1 # 7fffffff <heap_memory_used+0x7ffde227>
0x8abc 	00800e13          	li	t3,8
0x8ac0 	21d19c63          	bne	gp,t4,18ba8 <fail>
0x8ac4 	fff00093          	li	ra,-1
0x8ac8 	0070d193          	srli	gp,ra,0x7
0x8acc 	02000eb7          	lui	t4,0x2000
0x8ad0 	fffe8e93          	addi	t4,t4,-1 # 1ffffff <heap_memory_used+0x1fde227>
0x8ad4 	00900e13          	li	t3,9
0x8ad8 	21d19063          	bne	gp,t4,18ba8 <fail>
0x8adc 	fff00093          	li	ra,-1
0x8ae0 	00e0d193          	srli	gp,ra,0xe
0x8ae4 	00040eb7          	lui	t4,0x40
0x8ae8 	fffe8e93          	addi	t4,t4,-1 # 3ffff <heap_memory_used+0x1e227>
0x8aec 	00a00e13          	li	t3,10
0x8af0 	1fd19463          	bne	gp,t4,18ba8 <fail>
0x8af4 	fff00093          	li	ra,-1
0x8af8 	01f0d193          	srli	gp,ra,0x1f
0x8afc 	00100e93          	li	t4,1
0x8b00 	00b00e13          	li	t3,11
0x8b04 	1dd19a63          	bne	gp,t4,18ba8 <fail>
0x8b08 	212120b7          	lui	ra,0x21212
0x8b0c 	12108093          	addi	ra,ra,289 # 21212121 <heap_memory_used+0x211f0349>
0x8b10 	0000d193          	srli	gp,ra,0x0
0x8b14 	21212eb7          	lui	t4,0x21212
0x8b18 	121e8e93          	addi	t4,t4,289 # 21212121 <heap_memory_used+0x211f0349>
0x8b1c 	00c00e13          	li	t3,12
0x8b20 	1bd19c63          	bne	gp,t4,18ba8 <fail>
0x8b24 	212120b7          	lui	ra,0x21212
0x8b28 	12108093          	addi	ra,ra,289 # 21212121 <heap_memory_used+0x211f0349>
0x8b2c 	0010d193          	srli	gp,ra,0x1
0x8b30 	10909eb7          	lui	t4,0x10909
0x8b34 	090e8e93          	addi	t4,t4,144 # 10909090 <heap_memory_used+0x108e72b8>
0x8b38 	00d00e13          	li	t3,13
0x8b3c 	19d19e63          	bne	gp,t4,18ba8 <fail>
0x8b40 	212120b7          	lui	ra,0x21212
0x8b44 	12108093          	addi	ra,ra,289 # 21212121 <heap_memory_used+0x211f0349>
0x8b48 	0070d193          	srli	gp,ra,0x7
0x8b4c 	00424eb7          	lui	t4,0x424
0x8b50 	242e8e93          	addi	t4,t4,578 # 424242 <heap_memory_used+0x40246a>
0x8b54 	00e00e13          	li	t3,14
0x8b58 	19d19063          	bne	gp,t4,18ba8 <fail>
0x8b5c 	212120b7          	lui	ra,0x21212
0x8b60 	12108093          	addi	ra,ra,289 # 21212121 <heap_memory_used+0x211f0349>
0x8b64 	00e0d193          	srli	gp,ra,0xe
0x8b68 	00008eb7          	lui	t4,0x8
0x8b6c 	484e8e93          	addi	t4,t4,1156 # 8484 <coremarkBenchmark+0x83dc>
0x8b70 	00f00e13          	li	t3,15
0x8b74 	17d19263          	bne	gp,t4,18ba8 <fail>
0x8b78 	212120b7          	lui	ra,0x21212
0x8b7c 	12108093          	addi	ra,ra,289 # 21212121 <heap_memory_used+0x211f0349>
0x8b80 	01f0d193          	srli	gp,ra,0x1f
0x8b84 	00000e93          	li	t4,0
0x8b88 	01000e13          	li	t3,16
0x8b8c 	15d19663          	bne	gp,t4,18ba8 <fail>
0x8b90 	ffff80b7          	lui	ra,0xffff8
0x8b94 	0010d093          	srli	ra,ra,0x1
0x8b98 	7fffceb7          	lui	t4,0x7fffc
0x8b9c 	01500e13          	li	t3,21
0x8ba0 	13d09c63          	bne	ra,t4,18ba8 <fail>
0x8ba4 	00000213          	li	tp,0
0x8ba8 	ffff80b7          	lui	ra,0xffff8
0x8bac 	0010d193          	srli	gp,ra,0x1
0x8bb0 	00018313          	mv	t1,gp
0x8bb4 	00120213          	addi	tp,tp,1 # 1 <_start+0x1>
0x8bb8 	00200293          	li	t0,2
0x8bbc 	fe5216e3          	bne	tp,t0,18a78 <test_22+0x4>
0x8bc0 	7fffceb7          	lui	t4,0x7fffc
0x8bc4 	01600e13          	li	t3,22
0x8bc8 	11d31863          	bne	t1,t4,18ba8 <fail>
0x8bcc 	00000213          	li	tp,0
0x8bd0 	ffff80b7          	lui	ra,0xffff8
0x8bd4 	00e0d193          	srli	gp,ra,0xe
0x8bd8 	00000013          	nop
0x8bdc 	00018313          	mv	t1,gp
0x8be0 	00120213          	addi	tp,tp,1 # 1 <_start+0x1>
0x8be4 	00200293          	li	t0,2
0x8be8 	fe5214e3          	bne	tp,t0,18aa0 <test_23+0x4>
0x8bec 	00040eb7          	lui	t4,0x40
0x8bf0 	ffee8e93          	addi	t4,t4,-2 # 3fffe <heap_memory_used+0x1e226>
0x8bf4 	01700e13          	li	t3,23
0x8bf8 	0fd31063          	bne	t1,t4,18ba8 <fail>
0x8bfc 	00000213          	li	tp,0
0x8c00 	ffff80b7          	lui	ra,0xffff8
0x8c04 	00f0d193          	srli	gp,ra,0xf
0x8c08 	00000013          	nop
0x8c0c 	00000013          	nop
0x8c10 	00018313          	mv	t1,gp
0x8c14 	00120213          	addi	tp,tp,1 # 1 <_start+0x1>
0x8c18 	00200293          	li	t0,2
0x8c1c 	fe5212e3          	bne	tp,t0,18ad0 <test_24+0x4>
0x8c20 	00020eb7          	lui	t4,0x20
0x8c24 	fffe8e93          	addi	t4,t4,-1 # 1ffff <Arr_2_Glob+0xe3b>
0x8c28 	01800e13          	li	t3,24
0x8c2c 	0bd31663          	bne	t1,t4,18ba8 <fail>
0x8c30 	00000213          	li	tp,0
0x8c34 	ffff80b7          	lui	ra,0xffff8
0x8c38 	0010d193          	srli	gp,ra,0x1
0x8c3c 	00120213          	addi	tp,tp,1 # 1 <_start+0x1>
0x8c40 	00200293          	li	t0,2
0x8c44 	fe5218e3          	bne	tp,t0,18b04 <test_25+0x4>
0x8c48 	7fffceb7          	lui	t4,0x7fffc
0x8c4c 	01900e13          	li	t3,25
0x8c50 	09d19463          	bne	gp,t4,18ba8 <fail>
0x8c54 	00000213          	li	tp,0
0x8c58 	ffff80b7          	lui	ra,0xffff8
0x8c5c 	00000013          	nop
0x8c60 	00e0d193          	srli	gp,ra,0xe
0x8c64 	00120213          	addi	tp,tp,1 # 1 <_start+0x1>
0x8c68 	00200293          	li	t0,2
0x8c6c 	fe5216e3          	bne	tp,t0,18b28 <test_26+0x4>
0x8c70 	00040eb7          	lui	t4,0x40
0x8c74 	ffee8e93          	addi	t4,t4,-2 # 3fffe <heap_memory_used+0x1e226>
0x8c78 	01a00e13          	li	t3,26
0x8c7c 	05d19e63          	bne	gp,t4,18ba8 <fail>
0x8c80 	00000213          	li	tp,0
0x8c84 	ffff80b7          	lui	ra,0xffff8
0x8c88 	00000013          	nop
0x8c8c 	00000013          	nop
0x8c90 	00f0d193          	srli	gp,ra,0xf
0x8c94 	00120213          	addi	tp,tp,1 # 1 <_start+0x1>
0x8c98 	00200293          	li	t0,2
0x8c9c 	fe5214e3          	bne	tp,t0,18b54 <test_27+0x4>
0x8ca0 	00020eb7          	lui	t4,0x20
0x8ca4 	fffe8e93          	addi	t4,t4,-1 # 1ffff <Arr_2_Glob+0xe3b>
0x8ca8 	01b00e13          	li	t3,27
0x8cac 	03d19663          	bne	gp,t4,18ba8 <fail>
0x8cb0 	01f05093          	srli	ra,zero,0x1f
0x8cb4 	00000e93          	li	t4,0
0x8cb8 	01c00e13          	li	t3,28
0x8cbc 	01d09e63          	bne	ra,t4,18ba8 <fail>
0x8cc0 	02100093          	li	ra,33
0x8cc4 	0140d013          	srli	zero,ra,0x14
0x8cc8 	00000e93          	li	t4,0
0x8ccc 	01d00e13          	li	t3,29
0x8cd0 	01d01463          	bne	zero,t4,18ba8 <fail>
0x8cd4 	05c01863          	bne	zero,t3,18bf4 <pass>
0x8cd8 	04500513          	li	a0,69
0x8cdc 	00004137          	lui	sp,0x4
0x8ce0 	5d9040ef          	jal	ra,1d988 <printf_c>
0x8ce4 	05200513          	li	a0,82
0x8ce8 	00004137          	lui	sp,0x4
0x8cec 	5cd040ef          	jal	ra,1d988 <printf_c>
0x8cf0 	00004137          	lui	sp,0x4
0x8cf4 	5c5040ef          	jal	ra,1d988 <printf_c>
0x8cf8 	04f00513          	li	a0,79
0x8cfc 	00004137          	lui	sp,0x4
0x8d00 	5b9040ef          	jal	ra,1d988 <printf_c>
0x8d04 	00004137          	lui	sp,0x4
0x8d08 	05200513          	li	a0,82
0x8d0c 	00004137          	lui	sp,0x4
0x8d10 	5a9040ef          	jal	ra,1d988 <printf_c>
0x8d14 	00a00513          	li	a0,10
0x8d18 	00004137          	lui	sp,0x4
0x8d1c 	59d040ef          	jal	ra,1d988 <printf_c>
0x8d20 	0340006f          	j	18c24 <sub>
0x8d24 	04f00513          	li	a0,79
0x8d28 	00004137          	lui	sp,0x4
0x8d2c 	58d040ef          	jal	ra,1d988 <printf_c>
0x8d30 	04b00513          	li	a0,75
0x8d34 	00004137          	lui	sp,0x4
0x8d38 	581040ef          	jal	ra,1d988 <printf_c>
0x8d3c 	00a00513          	li	a0,10
0x8d40 	00004137          	lui	sp,0x4
0x8d44 	575040ef          	jal	ra,1d988 <printf_c>
0x8d48 	00c0006f          	j	18c24 <sub>
0x8d4c 	20627573          	csrrci	a0,0x206,4
0x8d50 	0009                	c.addi	zero,2
0x8d54 	00019537          	lui	a0,0x19
0x8d58 	c1c50513          	addi	a0,a0,-996 # 18c1c <.test_name>
0x8d5c 	00004137          	lui	sp,0x4
0x8d60 	571040ef          	jal	ra,1d9a0 <printf_s>
0x8d64 	00000093          	li	ra,0
0x8d68 	00000113          	li	sp,0
0x8d6c 	402081b3          	sub	gp,ra,sp
0x8d70 	00000e93          	li	t4,0
0x8d74 	00200e13          	li	t3,2
0x8d78 	4bd19663          	bne	gp,t4,190f4 <fail>
0x8d7c 	00100093          	li	ra,1
0x8d80 	00100113          	li	sp,1
0x8d84 	402081b3          	sub	gp,ra,sp
0x8d88 	00000e93          	li	t4,0
0x8d8c 	00300e13          	li	t3,3
0x8d90 	49d19a63          	bne	gp,t4,190f4 <fail>
0x8d94 	00300093          	li	ra,3
0x8d98 	00700113          	li	sp,7
0x8d9c 	402081b3          	sub	gp,ra,sp
0x8da0 	ffc00e93          	li	t4,-4
0x8da4 	00400e13          	li	t3,4
0x8da8 	47d19e63          	bne	gp,t4,190f4 <fail>
0x8dac 	00000093          	li	ra,0
0x8db0 	ffff8137          	lui	sp,0xffff8
0x8db4 	402081b3          	sub	gp,ra,sp
0x8db8 	00008eb7          	lui	t4,0x8
0x8dbc 	00500e13          	li	t3,5
0x8dc0 	47d19263          	bne	gp,t4,190f4 <fail>
0x8dc4 	800000b7          	lui	ra,0x80000
0x8dc8 	00000113          	li	sp,0
0x8dcc 	402081b3          	sub	gp,ra,sp
0x8dd0 	80000eb7          	lui	t4,0x80000
0x8dd4 	00600e13          	li	t3,6
0x8dd8 	45d19663          	bne	gp,t4,190f4 <fail>
0x8ddc 	800000b7          	lui	ra,0x80000
0x8de0 	ffff8137          	lui	sp,0xffff8
0x8de4 	402081b3          	sub	gp,ra,sp
0x8de8 	80008eb7          	lui	t4,0x80008
0x8dec 	00700e13          	li	t3,7
0x8df0 	43d19a63          	bne	gp,t4,190f4 <fail>
0x8df4 	00000093          	li	ra,0
0x8df8 	00008137          	lui	sp,0x8
0x8dfc 	fff10113          	addi	sp,sp,-1 # 7fff <coremarkBenchmark+0x7f57>
0x8e00 	402081b3          	sub	gp,ra,sp
0x8e04 	ffff8eb7          	lui	t4,0xffff8
0x8e08 	001e8e93          	addi	t4,t4,1 # ffff8001 <heap_memory_used+0xfffd6229>
0x8e0c 	00800e13          	li	t3,8
0x8e10 	41d19a63          	bne	gp,t4,190f4 <fail>
0x8e14 	800000b7          	lui	ra,0x80000
0x8e18 	fff08093          	addi	ra,ra,-1 # 7fffffff <heap_memory_used+0x7ffde227>
0x8e1c 	00000113          	li	sp,0
0x8e20 	402081b3          	sub	gp,ra,sp
0x8e24 	80000eb7          	lui	t4,0x80000
0x8e28 	fffe8e93          	addi	t4,t4,-1 # 7fffffff <heap_memory_used+0x7ffde227>
0x8e2c 	00900e13          	li	t3,9
0x8e30 	3fd19a63          	bne	gp,t4,190f4 <fail>
0x8e34 	800000b7          	lui	ra,0x80000
0x8e38 	fff08093          	addi	ra,ra,-1 # 7fffffff <heap_memory_used+0x7ffde227>
0x8e3c 	00008137          	lui	sp,0x8
0x8e40 	fff10113          	addi	sp,sp,-1 # 7fff <coremarkBenchmark+0x7f57>
0x8e44 	402081b3          	sub	gp,ra,sp
0x8e48 	7fff8eb7          	lui	t4,0x7fff8
0x8e4c 	00a00e13          	li	t3,10
0x8e50 	3dd19a63          	bne	gp,t4,190f4 <fail>
0x8e54 	800000b7          	lui	ra,0x80000
0x8e58 	00008137          	lui	sp,0x8
0x8e5c 	fff10113          	addi	sp,sp,-1 # 7fff <coremarkBenchmark+0x7f57>
0x8e60 	402081b3          	sub	gp,ra,sp
0x8e64 	7fff8eb7          	lui	t4,0x7fff8
0x8e68 	001e8e93          	addi	t4,t4,1 # 7fff8001 <heap_memory_used+0x7ffd6229>
0x8e6c 	00b00e13          	li	t3,11
0x8e70 	3bd19a63          	bne	gp,t4,190f4 <fail>
0x8e74 	800000b7          	lui	ra,0x80000
0x8e78 	fff08093          	addi	ra,ra,-1 # 7fffffff <heap_memory_used+0x7ffde227>
0x8e7c 	ffff8137          	lui	sp,0xffff8
0x8e80 	402081b3          	sub	gp,ra,sp
0x8e84 	80008eb7          	lui	t4,0x80008
0x8e88 	fffe8e93          	addi	t4,t4,-1 # 80007fff <heap_memory_used+0x7ffe6227>
0x8e8c 	00c00e13          	li	t3,12
0x8e90 	39d19a63          	bne	gp,t4,190f4 <fail>
0x8e94 	00000093          	li	ra,0
0x8e98 	fff00113          	li	sp,-1
0x8e9c 	402081b3          	sub	gp,ra,sp
0x8ea0 	00100e93          	li	t4,1
0x8ea4 	00d00e13          	li	t3,13
0x8ea8 	37d19e63          	bne	gp,t4,190f4 <fail>
0x8eac 	fff00093          	li	ra,-1
0x8eb0 	00100113          	li	sp,1
0x8eb4 	402081b3          	sub	gp,ra,sp
0x8eb8 	ffe00e93          	li	t4,-2
0x8ebc 	00e00e13          	li	t3,14
0x8ec0 	37d19263          	bne	gp,t4,190f4 <fail>
0x8ec4 	fff00093          	li	ra,-1
0x8ec8 	fff00113          	li	sp,-1
0x8ecc 	402081b3          	sub	gp,ra,sp
0x8ed0 	00000e93          	li	t4,0
0x8ed4 	00f00e13          	li	t3,15
0x8ed8 	35d19663          	bne	gp,t4,190f4 <fail>
0x8edc 	00d00093          	li	ra,13
0x8ee0 	00b00113          	li	sp,11
0x8ee4 	402080b3          	sub	ra,ra,sp
0x8ee8 	00200e93          	li	t4,2
0x8eec 	01000e13          	li	t3,16
0x8ef0 	33d09a63          	bne	ra,t4,190f4 <fail>
0x8ef4 	00e00093          	li	ra,14
0x8ef8 	00b00113          	li	sp,11
0x8efc 	40208133          	sub	sp,ra,sp
0x8f00 	00300e93          	li	t4,3
0x8f04 	01100e13          	li	t3,17
0x8f08 	31d11e63          	bne	sp,t4,190f4 <fail>
0x8f0c 	00d00093          	li	ra,13
0x8f10 	401080b3          	sub	ra,ra,ra
0x8f14 	00000e93          	li	t4,0
0x8f18 	01200e13          	li	t3,18
0x8f1c 	31d09463          	bne	ra,t4,190f4 <fail>
0x8f20 	00000213          	li	tp,0
0x8f24 	00d00093          	li	ra,13
0x8f28 	00b00113          	li	sp,11
0x8f2c 	402081b3          	sub	gp,ra,sp
0x8f30 	00018313          	mv	t1,gp
0x8f34 	00120213          	addi	tp,tp,1 # 1 <_start+0x1>
0x8f38 	00200293          	li	t0,2
0x8f3c 	fe5214e3          	bne	tp,t0,18df4 <test_19+0x4>
0x8f40 	00200e93          	li	t4,2
0x8f44 	01300e13          	li	t3,19
0x8f48 	2dd31e63          	bne	t1,t4,190f4 <fail>
0x8f4c 	00000213          	li	tp,0
0x8f50 	00e00093          	li	ra,14
0x8f54 	00b00113          	li	sp,11
0x8f58 	402081b3          	sub	gp,ra,sp
0x8f5c 	00000013          	nop
0x8f60 	00018313          	mv	t1,gp
0x8f64 	00120213          	addi	tp,tp,1 # 1 <_start+0x1>
0x8f68 	00200293          	li	t0,2
0x8f6c 	fe5212e3          	bne	tp,t0,18e20 <test_20+0x4>
0x8f70 	00300e93          	li	t4,3
0x8f74 	01400e13          	li	t3,20
0x8f78 	2bd31663          	bne	t1,t4,190f4 <fail>
0x8f7c 	00000213          	li	tp,0
0x8f80 	00f00093          	li	ra,15
0x8f84 	00b00113          	li	sp,11
0x8f88 	402081b3          	sub	gp,ra,sp
0x8f8c 	00000013          	nop
0x8f90 	00000013          	nop
0x8f94 	00018313          	mv	t1,gp
0x8f98 	00120213          	addi	tp,tp,1 # 1 <_start+0x1>
0x8f9c 	00200293          	li	t0,2
0x8fa0 	fe5210e3          	bne	tp,t0,18e50 <test_21+0x4>
0x8fa4 	00400e93          	li	t4,4
0x8fa8 	01500e13          	li	t3,21
0x8fac 	27d31c63          	bne	t1,t4,190f4 <fail>
0x8fb0 	00000213          	li	tp,0
0x8fb4 	00d00093          	li	ra,13
0x8fb8 	00b00113          	li	sp,11
0x8fbc 	402081b3          	sub	gp,ra,sp
0x8fc0 	00120213          	addi	tp,tp,1 # 1 <_start+0x1>
0x8fc4 	00200293          	li	t0,2
0x8fc8 	fe5216e3          	bne	tp,t0,18e84 <test_22+0x4>
0x8fcc 	00200e93          	li	t4,2
0x8fd0 	01600e13          	li	t3,22
0x8fd4 	25d19863          	bne	gp,t4,190f4 <fail>
0x8fd8 	00000213          	li	tp,0
0x8fdc 	00e00093          	li	ra,14
0x8fe0 	00b00113          	li	sp,11
0x8fe4 	00000013          	nop
0x8fe8 	402081b3          	sub	gp,ra,sp
0x8fec 	00120213          	addi	tp,tp,1 # 1 <_start+0x1>
0x8ff0 	00200293          	li	t0,2
0x8ff4 	fe5214e3          	bne	tp,t0,18eac <test_23+0x4>
0x8ff8 	00300e93          	li	t4,3
0x8ffc 	01700e13          	li	t3,23
0x9000 	23d19263          	bne	gp,t4,190f4 <fail>
0x9004 	00000213          	li	tp,0
0x9008 	00f00093          	li	ra,15
0x900c 	00b00113          	li	sp,11
0x9010 	00000013          	nop
0x9014 	00000013          	nop
0x9018 	402081b3          	sub	gp,ra,sp
0x901c 	00120213          	addi	tp,tp,1 # 1 <_start+0x1>
0x9020 	00200293          	li	t0,2
0x9024 	fe5212e3          	bne	tp,t0,18ed8 <test_24+0x4>
0x9028 	00400e93          	li	t4,4
0x902c 	01800e13          	li	t3,24
0x9030 	1fd19a63          	bne	gp,t4,190f4 <fail>
0x9034 	00000213          	li	tp,0
0x9038 	00d00093          	li	ra,13
0x903c 	00000013          	nop
0x9040 	00b00113          	li	sp,11
0x9044 	402081b3          	sub	gp,ra,sp
0x9048 	00120213          	addi	tp,tp,1 # 1 <_start+0x1>
0x904c 	00200293          	li	t0,2
0x9050 	fe5214e3          	bne	tp,t0,18f08 <test_25+0x4>
0x9054 	00200e93          	li	t4,2
0x9058 	01900e13          	li	t3,25
0x905c 	1dd19463          	bne	gp,t4,190f4 <fail>
0x9060 	00000213          	li	tp,0
0x9064 	00e00093          	li	ra,14
0x9068 	00000013          	nop
0x906c 	00b00113          	li	sp,11
0x9070 	00000013          	nop
0x9074 	402081b3          	sub	gp,ra,sp
0x9078 	00120213          	addi	tp,tp,1 # 1 <_start+0x1>
0x907c 	00200293          	li	t0,2
0x9080 	fe5212e3          	bne	tp,t0,18f34 <test_26+0x4>
0x9084 	00300e93          	li	t4,3
0x9088 	01a00e13          	li	t3,26
0x908c 	19d19c63          	bne	gp,t4,190f4 <fail>
0x9090 	00000213          	li	tp,0
0x9094 	00f00093          	li	ra,15
0x9098 	00000013          	nop
0x909c 	00000013          	nop
0x90a0 	00b00113          	li	sp,11
0x90a4 	402081b3          	sub	gp,ra,sp
0x90a8 	00120213          	addi	tp,tp,1 # 1 <_start+0x1>
0x90ac 	00200293          	li	t0,2
0x90b0 	fe5212e3          	bne	tp,t0,18f64 <test_27+0x4>
0x90b4 	00400e93          	li	t4,4
0x90b8 	01b00e13          	li	t3,27
0x90bc 	17d19463          	bne	gp,t4,190f4 <fail>
0x90c0 	00000213          	li	tp,0
0x90c4 	00b00113          	li	sp,11
0x90c8 	00d00093          	li	ra,13
0x90cc 	402081b3          	sub	gp,ra,sp
0x90d0 	00120213          	addi	tp,tp,1 # 1 <_start+0x1>
0x90d4 	00200293          	li	t0,2
0x90d8 	fe5216e3          	bne	tp,t0,18f94 <test_28+0x4>
0x90dc 	00200e93          	li	t4,2
0x90e0 	01c00e13          	li	t3,28
0x90e4 	15d19063          	bne	gp,t4,190f4 <fail>
0x90e8 	00000213          	li	tp,0
0x90ec 	00b00113          	li	sp,11
0x90f0 	00e00093          	li	ra,14
0x90f4 	00000013          	nop
0x90f8 	402081b3          	sub	gp,ra,sp
0x90fc 	00120213          	addi	tp,tp,1 # 1 <_start+0x1>
0x9100 	00200293          	li	t0,2
0x9104 	fe5214e3          	bne	tp,t0,18fbc <test_29+0x4>
0x9108 	00300e93          	li	t4,3
0x910c 	01d00e13          	li	t3,29
0x9110 	11d19a63          	bne	gp,t4,190f4 <fail>
0x9114 	00000213          	li	tp,0
0x9118 	00b00113          	li	sp,11
0x911c 	00f00093          	li	ra,15
0x9120 	00000013          	nop
0x9124 	00000013          	nop
0x9128 	402081b3          	sub	gp,ra,sp
0x912c 	00120213          	addi	tp,tp,1 # 1 <_start+0x1>
0x9130 	00200293          	li	t0,2
0x9134 	fe5212e3          	bne	tp,t0,18fe8 <test_30+0x4>
0x9138 	00400e93          	li	t4,4
0x913c 	01e00e13          	li	t3,30
0x9140 	0fd19263          	bne	gp,t4,190f4 <fail>
0x9144 	00000213          	li	tp,0
0x9148 	00b00113          	li	sp,11
0x914c 	00000013          	nop
0x9150 	00d00093          	li	ra,13
0x9154 	402081b3          	sub	gp,ra,sp
0x9158 	00120213          	addi	tp,tp,1 # 1 <_start+0x1>
0x915c 	00200293          	li	t0,2
0x9160 	fe5214e3          	bne	tp,t0,19018 <test_31+0x4>
0x9164 	00200e93          	li	t4,2
0x9168 	01f00e13          	li	t3,31
0x916c 	0bd19c63          	bne	gp,t4,190f4 <fail>
0x9170 	00000213          	li	tp,0
0x9174 	00b00113          	li	sp,11
0x9178 	00000013          	nop
0x917c 	00e00093          	li	ra,14
0x9180 	00000013          	nop
0x9184 	402081b3          	sub	gp,ra,sp
0x9188 	00120213          	addi	tp,tp,1 # 1 <_start+0x1>
0x918c 	00200293          	li	t0,2
0x9190 	fe5212e3          	bne	tp,t0,19044 <test_32+0x4>
0x9194 	00300e93          	li	t4,3
0x9198 	02000e13          	li	t3,32
0x919c 	09d19463          	bne	gp,t4,190f4 <fail>
0x91a0 	00000213          	li	tp,0
0x91a4 	00b00113          	li	sp,11
0x91a8 	00000013          	nop
0x91ac 	00000013          	nop
0x91b0 	00f00093          	li	ra,15
0x91b4 	402081b3          	sub	gp,ra,sp
0x91b8 	00120213          	addi	tp,tp,1 # 1 <_start+0x1>
0x91bc 	00200293          	li	t0,2
0x91c0 	fe5212e3          	bne	tp,t0,19074 <test_33+0x4>
0x91c4 	00400e93          	li	t4,4
0x91c8 	02100e13          	li	t3,33
0x91cc 	05d19c63          	bne	gp,t4,190f4 <fail>
0x91d0 	ff100093          	li	ra,-15
0x91d4 	40100133          	neg	sp,ra
0x91d8 	00f00e93          	li	t4,15
0x91dc 	02200e13          	li	t3,34
0x91e0 	05d11263          	bne	sp,t4,190f4 <fail>
0x91e4 	02000093          	li	ra,32
0x91e8 	40008133          	sub	sp,ra,zero
0x91ec 	02000e93          	li	t4,32
0x91f0 	02300e13          	li	t3,35
0x91f4 	03d11863          	bne	sp,t4,190f4 <fail>
0x91f8 	400000b3          	neg	ra,zero
0x91fc 	00000e93          	li	t4,0
0x9200 	02400e13          	li	t3,36
0x9204 	03d09063          	bne	ra,t4,190f4 <fail>
0x9208 	01000093          	li	ra,16
0x920c 	01e00113          	li	sp,30
0x9210 	40208033          	sub	zero,ra,sp
0x9214 	00000e93          	li	t4,0
0x9218 	02500e13          	li	t3,37
0x921c 	01d01463          	bne	zero,t4,190f4 <fail>
0x9220 	05c01863          	bne	zero,t3,19140 <pass>
0x9224 	04500513          	li	a0,69
0x9228 	00004137          	lui	sp,0x4
0x922c 	08d040ef          	jal	ra,1d988 <printf_c>
0x9230 	05200513          	li	a0,82
0x9234 	00004137          	lui	sp,0x4
0x9238 	081040ef          	jal	ra,1d988 <printf_c>
0x923c 	00004137          	lui	sp,0x4
0x9240 	079040ef          	jal	ra,1d988 <printf_c>
0x9244 	04f00513          	li	a0,79
0x9248 	00004137          	lui	sp,0x4
0x924c 	06d040ef          	jal	ra,1d988 <printf_c>
0x9250 	00004137          	lui	sp,0x4
0x9254 	05200513          	li	a0,82
0x9258 	00004137          	lui	sp,0x4
0x925c 	05d040ef          	jal	ra,1d988 <printf_c>
0x9260 	00a00513          	li	a0,10
0x9264 	00004137          	lui	sp,0x4
0x9268 	051040ef          	jal	ra,1d988 <printf_c>
0x926c 	0300006f          	j	1916c <sw>
0x9270 	04f00513          	li	a0,79
0x9274 	00004137          	lui	sp,0x4
0x9278 	041040ef          	jal	ra,1d988 <printf_c>
0x927c 	04b00513          	li	a0,75
0x9280 	00004137          	lui	sp,0x4
0x9284 	035040ef          	jal	ra,1d988 <printf_c>
0x9288 	00a00513          	li	a0,10
0x928c 	00004137          	lui	sp,0x4
0x9290 	029040ef          	jal	ra,1d988 <printf_c>
0x9294 	0080006f          	j	1916c <sw>
0x9298 	00097773          	csrrci	a4,0x0,18
0x929c 	00019537          	lui	a0,0x19
0x92a0 	16850513          	addi	a0,a0,360 # 19168 <.test_name>
0x92a4 	00004137          	lui	sp,0x4
0x92a8 	029040ef          	jal	ra,1d9a0 <printf_s>
0x92ac 	00006097          	auipc	ra,0x6
0x92b0 	b9c08093          	addi	ra,ra,-1124 # 1ed18 <tdat>
0x92b4 	00aa0137          	lui	sp,0xaa0
0x92b8 	0aa10113          	addi	sp,sp,170 # aa00aa <heap_memory_used+0xa7e2d2>
0x92bc 	0020a023          	sw	sp,0(ra)
0x92c0 	0000a183          	lw	gp,0(ra)
0x92c4 	00aa0eb7          	lui	t4,0xaa0
0x92c8 	0aae8e93          	addi	t4,t4,170 # aa00aa <heap_memory_used+0xa7e2d2>
0x92cc 	00200e13          	li	t3,2
0x92d0 	47d19063          	bne	gp,t4,19600 <fail>
0x92d4 	00006097          	auipc	ra,0x6
0x92d8 	b7408093          	addi	ra,ra,-1164 # 1ed18 <tdat>
0x92dc 	aa00b137          	lui	sp,0xaa00b
0x92e0 	a0010113          	addi	sp,sp,-1536 # aa00aa00 <heap_memory_used+0xa9fe8c28>
0x92e4 	0020a223          	sw	sp,4(ra)
0x92e8 	0040a183          	lw	gp,4(ra)
0x92ec 	aa00beb7          	lui	t4,0xaa00b
0x92f0 	a00e8e93          	addi	t4,t4,-1536 # aa00aa00 <heap_memory_used+0xa9fe8c28>
0x92f4 	00300e13          	li	t3,3
0x92f8 	43d19c63          	bne	gp,t4,19600 <fail>
0x92fc 	00006097          	auipc	ra,0x6
0x9300 	b4c08093          	addi	ra,ra,-1204 # 1ed18 <tdat>
0x9304 	0aa01137          	lui	sp,0xaa01
0x9308 	aa010113          	addi	sp,sp,-1376 # aa00aa0 <heap_memory_used+0xa9decc8>
0x930c 	0020a423          	sw	sp,8(ra)
0x9310 	0080a183          	lw	gp,8(ra)
0x9314 	0aa01eb7          	lui	t4,0xaa01
0x9318 	aa0e8e93          	addi	t4,t4,-1376 # aa00aa0 <heap_memory_used+0xa9decc8>
0x931c 	00400e13          	li	t3,4
0x9320 	41d19863          	bne	gp,t4,19600 <fail>
0x9324 	00006097          	auipc	ra,0x6
0x9328 	b2408093          	addi	ra,ra,-1244 # 1ed18 <tdat>
0x932c 	a00aa137          	lui	sp,0xa00aa
0x9330 	00a10113          	addi	sp,sp,10 # a00aa00a <heap_memory_used+0xa0088232>
0x9334 	0020a623          	sw	sp,12(ra)
0x9338 	00c0a183          	lw	gp,12(ra)
0x933c 	a00aaeb7          	lui	t4,0xa00aa
0x9340 	00ae8e93          	addi	t4,t4,10 # a00aa00a <heap_memory_used+0xa0088232>
0x9344 	00500e13          	li	t3,5
0x9348 	3fd19463          	bne	gp,t4,19600 <fail>
0x934c 	00006097          	auipc	ra,0x6
0x9350 	b1808093          	addi	ra,ra,-1256 # 1ed34 <tdat8>
0x9354 	00aa0137          	lui	sp,0xaa0
0x9358 	0aa10113          	addi	sp,sp,170 # aa00aa <heap_memory_used+0xa7e2d2>
0x935c 	fe20aa23          	sw	sp,-12(ra)
0x9360 	ff40a183          	lw	gp,-12(ra)
0x9364 	00aa0eb7          	lui	t4,0xaa0
0x9368 	0aae8e93          	addi	t4,t4,170 # aa00aa <heap_memory_used+0xa7e2d2>
0x936c 	00600e13          	li	t3,6
0x9370 	3dd19063          	bne	gp,t4,19600 <fail>
0x9374 	00006097          	auipc	ra,0x6
0x9378 	af008093          	addi	ra,ra,-1296 # 1ed34 <tdat8>
0x937c 	aa00b137          	lui	sp,0xaa00b
0x9380 	a0010113          	addi	sp,sp,-1536 # aa00aa00 <heap_memory_used+0xa9fe8c28>
0x9384 	fe20ac23          	sw	sp,-8(ra)
0x9388 	ff80a183          	lw	gp,-8(ra)
0x938c 	aa00beb7          	lui	t4,0xaa00b
0x9390 	a00e8e93          	addi	t4,t4,-1536 # aa00aa00 <heap_memory_used+0xa9fe8c28>
0x9394 	00700e13          	li	t3,7
0x9398 	39d19c63          	bne	gp,t4,19600 <fail>
0x939c 	00006097          	auipc	ra,0x6
0x93a0 	ac808093          	addi	ra,ra,-1336 # 1ed34 <tdat8>
0x93a4 	0aa01137          	lui	sp,0xaa01
0x93a8 	aa010113          	addi	sp,sp,-1376 # aa00aa0 <heap_memory_used+0xa9decc8>
0x93ac 	fe20ae23          	sw	sp,-4(ra)
0x93b0 	ffc0a183          	lw	gp,-4(ra)
0x93b4 	0aa01eb7          	lui	t4,0xaa01
0x93b8 	aa0e8e93          	addi	t4,t4,-1376 # aa00aa0 <heap_memory_used+0xa9decc8>
0x93bc 	00800e13          	li	t3,8
0x93c0 	37d19863          	bne	gp,t4,19600 <fail>
0x93c4 	00006097          	auipc	ra,0x6
0x93c8 	aa008093          	addi	ra,ra,-1376 # 1ed34 <tdat8>
0x93cc 	a00aa137          	lui	sp,0xa00aa
0x93d0 	00a10113          	addi	sp,sp,10 # a00aa00a <heap_memory_used+0xa0088232>
0x93d4 	0020a023          	sw	sp,0(ra)
0x93d8 	0000a183          	lw	gp,0(ra)
0x93dc 	a00aaeb7          	lui	t4,0xa00aa
0x93e0 	00ae8e93          	addi	t4,t4,10 # a00aa00a <heap_memory_used+0xa0088232>
0x93e4 	00900e13          	li	t3,9
0x93e8 	35d19463          	bne	gp,t4,19600 <fail>
0x93ec 	00006097          	auipc	ra,0x6
0x93f0 	a7c08093          	addi	ra,ra,-1412 # 1ed38 <tdat9>
0x93f4 	12345137          	lui	sp,0x12345
0x93f8 	67810113          	addi	sp,sp,1656 # 12345678 <heap_memory_used+0x123238a0>
0x93fc 	fe008213          	addi	tp,ra,-32
0x9400 	02222023          	sw	sp,32(tp) # 20 <initReg+0x18>
0x9404 	0000a183          	lw	gp,0(ra)
0x9408 	12345eb7          	lui	t4,0x12345
0x940c 	678e8e93          	addi	t4,t4,1656 # 12345678 <heap_memory_used+0x123238a0>
0x9410 	00a00e13          	li	t3,10
0x9414 	31d19e63          	bne	gp,t4,19600 <fail>
0x9418 	00006097          	auipc	ra,0x6
0x941c 	a5008093          	addi	ra,ra,-1456 # 1ed38 <tdat9>
0x9420 	58213137          	lui	sp,0x58213
0x9424 	09810113          	addi	sp,sp,152 # 58213098 <heap_memory_used+0x581f12c0>
0x9428 	ffd08093          	addi	ra,ra,-3
0x942c 	0020a3a3          	sw	sp,7(ra)
0x9430 	00006217          	auipc	tp,0x6
0x9434 	a3c20213          	addi	tp,tp,-1476 # 1ed3c <tdat10>
0x9438 	00022183          	lw	gp,0(tp) # 0 <_start>
0x943c 	58213eb7          	lui	t4,0x58213
0x9440 	098e8e93          	addi	t4,t4,152 # 58213098 <heap_memory_used+0x581f12c0>
0x9444 	00b00e13          	li	t3,11
0x9448 	2fd19463          	bne	gp,t4,19600 <fail>
0x944c 	00c00e13          	li	t3,12
0x9450 	00000213          	li	tp,0
0x9454 	aabbd0b7          	lui	ra,0xaabbd
0x9458 	cdd08093          	addi	ra,ra,-803 # aabbccdd <heap_memory_used+0xaab9af05>
0x945c 	00006117          	auipc	sp,0x6
0x9460 	9ec10113          	addi	sp,sp,-1556 # 1ed18 <tdat>
0x9464 	00112023          	sw	ra,0(sp)
0x9468 	00012183          	lw	gp,0(sp)
0x946c 	aabbdeb7          	lui	t4,0xaabbd
0x9470 	cdde8e93          	addi	t4,t4,-803 # aabbccdd <heap_memory_used+0xaab9af05>
0x9474 	2bd19e63          	bne	gp,t4,19600 <fail>
0x9478 	00120213          	addi	tp,tp,1 # 1 <_start+0x1>
0x947c 	00200293          	li	t0,2
0x9480 	fc521ae3          	bne	tp,t0,19324 <test_12+0x8>
0x9484 	00d00e13          	li	t3,13
0x9488 	00000213          	li	tp,0
0x948c 	daabc0b7          	lui	ra,0xdaabc
0x9490 	ccd08093          	addi	ra,ra,-819 # daabbccd <heap_memory_used+0xdaa99ef5>
0x9494 	00006117          	auipc	sp,0x6
0x9498 	9b410113          	addi	sp,sp,-1612 # 1ed18 <tdat>
0x949c 	00000013          	nop
0x94a0 	00112223          	sw	ra,4(sp)
0x94a4 	00412183          	lw	gp,4(sp)
0x94a8 	daabceb7          	lui	t4,0xdaabc
0x94ac 	ccde8e93          	addi	t4,t4,-819 # daabbccd <heap_memory_used+0xdaa99ef5>
0x94b0 	29d19063          	bne	gp,t4,19600 <fail>
0x94b4 	00120213          	addi	tp,tp,1 # 1 <_start+0x1>
0x94b8 	00200293          	li	t0,2
0x94bc 	fc5218e3          	bne	tp,t0,1935c <test_13+0x8>
0x94c0 	00e00e13          	li	t3,14
0x94c4 	00000213          	li	tp,0
0x94c8 	ddaac0b7          	lui	ra,0xddaac
0x94cc 	bcc08093          	addi	ra,ra,-1076 # ddaabbcc <heap_memory_used+0xdda89df4>
0x94d0 	00006117          	auipc	sp,0x6
0x94d4 	97810113          	addi	sp,sp,-1672 # 1ed18 <tdat>
0x94d8 	00000013          	nop
0x94dc 	00000013          	nop
0x94e0 	00112423          	sw	ra,8(sp)
0x94e4 	00812183          	lw	gp,8(sp)
0x94e8 	ddaaceb7          	lui	t4,0xddaac
0x94ec 	bcce8e93          	addi	t4,t4,-1076 # ddaabbcc <heap_memory_used+0xdda89df4>
0x94f0 	25d19063          	bne	gp,t4,19600 <fail>
0x94f4 	00120213          	addi	tp,tp,1 # 1 <_start+0x1>
0x94f8 	00200293          	li	t0,2
0x94fc 	fc5216e3          	bne	tp,t0,19398 <test_14+0x8>
0x9500 	00f00e13          	li	t3,15
0x9504 	00000213          	li	tp,0
0x9508 	cddab0b7          	lui	ra,0xcddab
0x950c 	bbc08093          	addi	ra,ra,-1092 # cddaabbc <heap_memory_used+0xcdd88de4>
0x9510 	00000013          	nop
0x9514 	00006117          	auipc	sp,0x6
0x9518 	93410113          	addi	sp,sp,-1740 # 1ed18 <tdat>
0x951c 	00112623          	sw	ra,12(sp)
0x9520 	00c12183          	lw	gp,12(sp)
0x9524 	cddabeb7          	lui	t4,0xcddab
0x9528 	bbce8e93          	addi	t4,t4,-1092 # cddaabbc <heap_memory_used+0xcdd88de4>
0x952c 	21d19263          	bne	gp,t4,19600 <fail>
0x9530 	00120213          	addi	tp,tp,1 # 1 <_start+0x1>
0x9534 	00200293          	li	t0,2
0x9538 	fc5218e3          	bne	tp,t0,193d8 <test_15+0x8>
0x953c 	01000e13          	li	t3,16
0x9540 	00000213          	li	tp,0
0x9544 	ccddb0b7          	lui	ra,0xccddb
0x9548 	abb08093          	addi	ra,ra,-1349 # ccddaabb <heap_memory_used+0xccdb8ce3>
0x954c 	00000013          	nop
0x9550 	00006117          	auipc	sp,0x6
0x9554 	8f810113          	addi	sp,sp,-1800 # 1ed18 <tdat>
0x9558 	00000013          	nop
0x955c 	00112823          	sw	ra,16(sp)
0x9560 	01012183          	lw	gp,16(sp)
0x9564 	ccddbeb7          	lui	t4,0xccddb
0x9568 	abbe8e93          	addi	t4,t4,-1349 # ccddaabb <heap_memory_used+0xccdb8ce3>
0x956c 	1dd19263          	bne	gp,t4,19600 <fail>
0x9570 	00120213          	addi	tp,tp,1 # 1 <_start+0x1>
0x9574 	00200293          	li	t0,2
0x9578 	fc5216e3          	bne	tp,t0,19414 <test_16+0x8>
0x957c 	01100e13          	li	t3,17
0x9580 	00000213          	li	tp,0
0x9584 	bccde0b7          	lui	ra,0xbccde
0x9588 	aab08093          	addi	ra,ra,-1365 # bccddaab <heap_memory_used+0xbccbbcd3>
0x958c 	00000013          	nop
0x9590 	00000013          	nop
0x9594 	00006117          	auipc	sp,0x6
0x9598 	8b410113          	addi	sp,sp,-1868 # 1ed18 <tdat>
0x959c 	00112a23          	sw	ra,20(sp)
0x95a0 	01412183          	lw	gp,20(sp)
0x95a4 	bccdeeb7          	lui	t4,0xbccde
0x95a8 	aabe8e93          	addi	t4,t4,-1365 # bccddaab <heap_memory_used+0xbccbbcd3>
0x95ac 	19d19263          	bne	gp,t4,19600 <fail>
0x95b0 	00120213          	addi	tp,tp,1 # 1 <_start+0x1>
0x95b4 	00200293          	li	t0,2
0x95b8 	fc5216e3          	bne	tp,t0,19454 <test_17+0x8>
0x95bc 	01200e13          	li	t3,18
0x95c0 	00000213          	li	tp,0
0x95c4 	00006117          	auipc	sp,0x6
0x95c8 	88410113          	addi	sp,sp,-1916 # 1ed18 <tdat>
0x95cc 	001120b7          	lui	ra,0x112
0x95d0 	23308093          	addi	ra,ra,563 # 112233 <heap_memory_used+0xf045b>
0x95d4 	00112023          	sw	ra,0(sp)
0x95d8 	00012183          	lw	gp,0(sp)
0x95dc 	00112eb7          	lui	t4,0x112
0x95e0 	233e8e93          	addi	t4,t4,563 # 112233 <heap_memory_used+0xf045b>
0x95e4 	15d19663          	bne	gp,t4,19600 <fail>
0x95e8 	00120213          	addi	tp,tp,1 # 1 <_start+0x1>
0x95ec 	00200293          	li	t0,2
0x95f0 	fc521ae3          	bne	tp,t0,19494 <test_18+0x8>
0x95f4 	01300e13          	li	t3,19
0x95f8 	00000213          	li	tp,0
0x95fc 	00006117          	auipc	sp,0x6
0x9600 	84c10113          	addi	sp,sp,-1972 # 1ed18 <tdat>
0x9604 	300110b7          	lui	ra,0x30011
0x9608 	22308093          	addi	ra,ra,547 # 30011223 <heap_memory_used+0x2ffef44b>
0x960c 	00000013          	nop
0x9610 	00112223          	sw	ra,4(sp)
0x9614 	00412183          	lw	gp,4(sp)
0x9618 	30011eb7          	lui	t4,0x30011
0x961c 	223e8e93          	addi	t4,t4,547 # 30011223 <heap_memory_used+0x2ffef44b>
0x9620 	11d19863          	bne	gp,t4,19600 <fail>
0x9624 	00120213          	addi	tp,tp,1 # 1 <_start+0x1>
0x9628 	00200293          	li	t0,2
0x962c 	fc5218e3          	bne	tp,t0,194cc <test_19+0x8>
0x9630 	01400e13          	li	t3,20
0x9634 	00000213          	li	tp,0
0x9638 	00006117          	auipc	sp,0x6
0x963c 	81010113          	addi	sp,sp,-2032 # 1ed18 <tdat>
0x9640 	330010b7          	lui	ra,0x33001
0x9644 	12208093          	addi	ra,ra,290 # 33001122 <heap_memory_used+0x32fdf34a>
0x9648 	00000013          	nop
0x964c 	00000013          	nop
0x9650 	00112423          	sw	ra,8(sp)
0x9654 	00812183          	lw	gp,8(sp)
0x9658 	33001eb7          	lui	t4,0x33001
0x965c 	122e8e93          	addi	t4,t4,290 # 33001122 <heap_memory_used+0x32fdf34a>
0x9660 	0dd19863          	bne	gp,t4,19600 <fail>
0x9664 	00120213          	addi	tp,tp,1 # 1 <_start+0x1>
0x9668 	00200293          	li	t0,2
0x966c 	fc5216e3          	bne	tp,t0,19508 <test_20+0x8>
0x9670 	01500e13          	li	t3,21
0x9674 	00000213          	li	tp,0
0x9678 	00005117          	auipc	sp,0x5
0x967c 	7d010113          	addi	sp,sp,2000 # 1ed18 <tdat>
0x9680 	00000013          	nop
0x9684 	233000b7          	lui	ra,0x23300
0x9688 	11208093          	addi	ra,ra,274 # 23300112 <heap_memory_used+0x232de33a>
0x968c 	00112623          	sw	ra,12(sp)
0x9690 	00c12183          	lw	gp,12(sp)
0x9694 	23300eb7          	lui	t4,0x23300
0x9698 	112e8e93          	addi	t4,t4,274 # 23300112 <heap_memory_used+0x232de33a>
0x969c 	09d19a63          	bne	gp,t4,19600 <fail>
0x96a0 	00120213          	addi	tp,tp,1 # 1 <_start+0x1>
0x96a4 	00200293          	li	t0,2
0x96a8 	fc5218e3          	bne	tp,t0,19548 <test_21+0x8>
0x96ac 	01600e13          	li	t3,22
0x96b0 	00000213          	li	tp,0
0x96b4 	00005117          	auipc	sp,0x5
0x96b8 	79410113          	addi	sp,sp,1940 # 1ed18 <tdat>
0x96bc 	00000013          	nop
0x96c0 	223300b7          	lui	ra,0x22330
0x96c4 	01108093          	addi	ra,ra,17 # 22330011 <heap_memory_used+0x2230e239>
0x96c8 	00000013          	nop
0x96cc 	00112823          	sw	ra,16(sp)
0x96d0 	01012183          	lw	gp,16(sp)
0x96d4 	22330eb7          	lui	t4,0x22330
0x96d8 	011e8e93          	addi	t4,t4,17 # 22330011 <heap_memory_used+0x2230e239>
0x96dc 	05d19a63          	bne	gp,t4,19600 <fail>
0x96e0 	00120213          	addi	tp,tp,1 # 1 <_start+0x1>
0x96e4 	00200293          	li	t0,2
0x96e8 	fc5216e3          	bne	tp,t0,19584 <test_22+0x8>
0x96ec 	01700e13          	li	t3,23
0x96f0 	00000213          	li	tp,0
0x96f4 	00005117          	auipc	sp,0x5
0x96f8 	75410113          	addi	sp,sp,1876 # 1ed18 <tdat>
0x96fc 	00000013          	nop
0x9700 	00000013          	nop
0x9704 	122330b7          	lui	ra,0x12233
0x9708 	00108093          	addi	ra,ra,1 # 12233001 <heap_memory_used+0x12211229>
0x970c 	00112a23          	sw	ra,20(sp)
0x9710 	01412183          	lw	gp,20(sp)
0x9714 	12233eb7          	lui	t4,0x12233
0x9718 	001e8e93          	addi	t4,t4,1 # 12233001 <heap_memory_used+0x12211229>
0x971c 	01d19a63          	bne	gp,t4,19600 <fail>
0x9720 	00120213          	addi	tp,tp,1 # 1 <_start+0x1>
0x9724 	00200293          	li	t0,2
0x9728 	fc5216e3          	bne	tp,t0,195c4 <test_23+0x8>
0x972c 	05c01863          	bne	zero,t3,1964c <pass>
0x9730 	04500513          	li	a0,69
0x9734 	00004137          	lui	sp,0x4
0x9738 	380040ef          	jal	ra,1d988 <printf_c>
0x973c 	05200513          	li	a0,82
0x9740 	00004137          	lui	sp,0x4
0x9744 	374040ef          	jal	ra,1d988 <printf_c>
0x9748 	00004137          	lui	sp,0x4
0x974c 	36c040ef          	jal	ra,1d988 <printf_c>
0x9750 	04f00513          	li	a0,79
0x9754 	00004137          	lui	sp,0x4
0x9758 	360040ef          	jal	ra,1d988 <printf_c>
0x975c 	00004137          	lui	sp,0x4
0x9760 	05200513          	li	a0,82
0x9764 	00004137          	lui	sp,0x4
0x9768 	350040ef          	jal	ra,1d988 <printf_c>
0x976c 	00a00513          	li	a0,10
0x9770 	00004137          	lui	sp,0x4
0x9774 	344040ef          	jal	ra,1d988 <printf_c>
0x9778 	0340006f          	j	1967c <xor>
0x977c 	04f00513          	li	a0,79
0x9780 	00004137          	lui	sp,0x4
0x9784 	334040ef          	jal	ra,1d988 <printf_c>
0x9788 	04b00513          	li	a0,75
0x978c 	00004137          	lui	sp,0x4
0x9790 	328040ef          	jal	ra,1d988 <printf_c>
0x9794 	00a00513          	li	a0,10
0x9798 	00004137          	lui	sp,0x4
0x979c 	31c040ef          	jal	ra,1d988 <printf_c>
0x97a0 	00c0006f          	j	1967c <xor>
0x97a4 	6f78                	flw	fa4,92(a4)
0x97a8 	2072                	fld	ft0,280(sp)
0x97ac 	0009                	c.addi	zero,2
0x97b0 	00019537          	lui	a0,0x19
0x97b4 	67450513          	addi	a0,a0,1652 # 19674 <.test_name>
0x97b8 	00004137          	lui	sp,0x4
0x97bc 	318040ef          	jal	ra,1d9a0 <printf_s>
0x97c0 	ff0100b7          	lui	ra,0xff010
0x97c4 	f0008093          	addi	ra,ra,-256 # ff00ff00 <heap_memory_used+0xfefee128>
0x97c8 	0f0f1137          	lui	sp,0xf0f1
0x97cc 	f0f10113          	addi	sp,sp,-241 # f0f0f0f <heap_memory_used+0xf0cf137>
0x97d0 	0020c1b3          	xor	gp,ra,sp
0x97d4 	f00ffeb7          	lui	t4,0xf00ff
0x97d8 	00fe8e93          	addi	t4,t4,15 # f00ff00f <heap_memory_used+0xf00dd237>
0x97dc 	00200e13          	li	t3,2
0x97e0 	4bd19063          	bne	gp,t4,19b4c <fail>
0x97e4 	0ff010b7          	lui	ra,0xff01
0x97e8 	ff008093          	addi	ra,ra,-16 # ff00ff0 <heap_memory_used+0xfedf218>
0x97ec 	f0f0f137          	lui	sp,0xf0f0f
0x97f0 	0f010113          	addi	sp,sp,240 # f0f0f0f0 <heap_memory_used+0xf0eed318>
0x97f4 	0020c1b3          	xor	gp,ra,sp
0x97f8 	ff010eb7          	lui	t4,0xff010
0x97fc 	f00e8e93          	addi	t4,t4,-256 # ff00ff00 <heap_memory_used+0xfefee128>
0x9800 	00300e13          	li	t3,3
0x9804 	47d19e63          	bne	gp,t4,19b4c <fail>
0x9808 	00ff00b7          	lui	ra,0xff0
0x980c 	0ff08093          	addi	ra,ra,255 # ff00ff <heap_memory_used+0xfce327>
0x9810 	0f0f1137          	lui	sp,0xf0f1
0x9814 	f0f10113          	addi	sp,sp,-241 # f0f0f0f <heap_memory_used+0xf0cf137>
0x9818 	0020c1b3          	xor	gp,ra,sp
0x981c 	0ff01eb7          	lui	t4,0xff01
0x9820 	ff0e8e93          	addi	t4,t4,-16 # ff00ff0 <heap_memory_used+0xfedf218>
0x9824 	00400e13          	li	t3,4
0x9828 	45d19c63          	bne	gp,t4,19b4c <fail>
0x982c 	f00ff0b7          	lui	ra,0xf00ff
0x9830 	00f08093          	addi	ra,ra,15 # f00ff00f <heap_memory_used+0xf00dd237>
0x9834 	f0f0f137          	lui	sp,0xf0f0f
0x9838 	0f010113          	addi	sp,sp,240 # f0f0f0f0 <heap_memory_used+0xf0eed318>
0x983c 	0020c1b3          	xor	gp,ra,sp
0x9840 	00ff0eb7          	lui	t4,0xff0
0x9844 	0ffe8e93          	addi	t4,t4,255 # ff00ff <heap_memory_used+0xfce327>
0x9848 	00500e13          	li	t3,5
0x984c 	43d19a63          	bne	gp,t4,19b4c <fail>
0x9850 	ff0100b7          	lui	ra,0xff010
0x9854 	f0008093          	addi	ra,ra,-256 # ff00ff00 <heap_memory_used+0xfefee128>
0x9858 	0f0f1137          	lui	sp,0xf0f1
0x985c 	f0f10113          	addi	sp,sp,-241 # f0f0f0f <heap_memory_used+0xf0cf137>
0x9860 	0020c0b3          	xor	ra,ra,sp
0x9864 	f00ffeb7          	lui	t4,0xf00ff
0x9868 	00fe8e93          	addi	t4,t4,15 # f00ff00f <heap_memory_used+0xf00dd237>
0x986c 	00600e13          	li	t3,6
0x9870 	41d09863          	bne	ra,t4,19b4c <fail>
0x9874 	ff0100b7          	lui	ra,0xff010
0x9878 	f0008093          	addi	ra,ra,-256 # ff00ff00 <heap_memory_used+0xfefee128>
0x987c 	0f0f1137          	lui	sp,0xf0f1
0x9880 	f0f10113          	addi	sp,sp,-241 # f0f0f0f <heap_memory_used+0xf0cf137>
0x9884 	0020c133          	xor	sp,ra,sp
0x9888 	f00ffeb7          	lui	t4,0xf00ff
0x988c 	00fe8e93          	addi	t4,t4,15 # f00ff00f <heap_memory_used+0xf00dd237>
0x9890 	00700e13          	li	t3,7
0x9894 	3fd11663          	bne	sp,t4,19b4c <fail>
0x9898 	ff0100b7          	lui	ra,0xff010
0x989c 	f0008093          	addi	ra,ra,-256 # ff00ff00 <heap_memory_used+0xfefee128>
0x98a0 	0010c0b3          	xor	ra,ra,ra
0x98a4 	00000e93          	li	t4,0
0x98a8 	00800e13          	li	t3,8
0x98ac 	3dd09a63          	bne	ra,t4,19b4c <fail>
0x98b0 	00000213          	li	tp,0
0x98b4 	ff0100b7          	lui	ra,0xff010
0x98b8 	f0008093          	addi	ra,ra,-256 # ff00ff00 <heap_memory_used+0xfefee128>
0x98bc 	0f0f1137          	lui	sp,0xf0f1
0x98c0 	f0f10113          	addi	sp,sp,-241 # f0f0f0f <heap_memory_used+0xf0cf137>
0x98c4 	0020c1b3          	xor	gp,ra,sp
0x98c8 	00018313          	mv	t1,gp
0x98cc 	00120213          	addi	tp,tp,1 # 1 <_start+0x1>
0x98d0 	00200293          	li	t0,2
0x98d4 	fe5210e3          	bne	tp,t0,19780 <test_9+0x4>
0x98d8 	f00ffeb7          	lui	t4,0xf00ff
0x98dc 	00fe8e93          	addi	t4,t4,15 # f00ff00f <heap_memory_used+0xf00dd237>
0x98e0 	00900e13          	li	t3,9
0x98e4 	39d31e63          	bne	t1,t4,19b4c <fail>
0x98e8 	00000213          	li	tp,0
0x98ec 	0ff010b7          	lui	ra,0xff01
0x98f0 	ff008093          	addi	ra,ra,-16 # ff00ff0 <heap_memory_used+0xfedf218>
0x98f4 	f0f0f137          	lui	sp,0xf0f0f
0x98f8 	0f010113          	addi	sp,sp,240 # f0f0f0f0 <heap_memory_used+0xf0eed318>
0x98fc 	0020c1b3          	xor	gp,ra,sp
0x9900 	00000013          	nop
0x9904 	00018313          	mv	t1,gp
0x9908 	00120213          	addi	tp,tp,1 # 1 <_start+0x1>
0x990c 	00200293          	li	t0,2
0x9910 	fc521ee3          	bne	tp,t0,197b8 <test_10+0x4>
0x9914 	ff010eb7          	lui	t4,0xff010
0x9918 	f00e8e93          	addi	t4,t4,-256 # ff00ff00 <heap_memory_used+0xfefee128>
0x991c 	00a00e13          	li	t3,10
0x9920 	37d31063          	bne	t1,t4,19b4c <fail>
0x9924 	00000213          	li	tp,0
0x9928 	00ff00b7          	lui	ra,0xff0
0x992c 	0ff08093          	addi	ra,ra,255 # ff00ff <heap_memory_used+0xfce327>
0x9930 	0f0f1137          	lui	sp,0xf0f1
0x9934 	f0f10113          	addi	sp,sp,-241 # f0f0f0f <heap_memory_used+0xf0cf137>
0x9938 	0020c1b3          	xor	gp,ra,sp
0x993c 	00000013          	nop
0x9940 	00000013          	nop
0x9944 	00018313          	mv	t1,gp
0x9948 	00120213          	addi	tp,tp,1 # 1 <_start+0x1>
0x994c 	00200293          	li	t0,2
0x9950 	fc521ce3          	bne	tp,t0,197f4 <test_11+0x4>
0x9954 	0ff01eb7          	lui	t4,0xff01
0x9958 	ff0e8e93          	addi	t4,t4,-16 # ff00ff0 <heap_memory_used+0xfedf218>
0x995c 	00b00e13          	li	t3,11
0x9960 	33d31063          	bne	t1,t4,19b4c <fail>
0x9964 	00000213          	li	tp,0
0x9968 	ff0100b7          	lui	ra,0xff010
0x996c 	f0008093          	addi	ra,ra,-256 # ff00ff00 <heap_memory_used+0xfefee128>
0x9970 	0f0f1137          	lui	sp,0xf0f1
0x9974 	f0f10113          	addi	sp,sp,-241 # f0f0f0f <heap_memory_used+0xf0cf137>
0x9978 	0020c1b3          	xor	gp,ra,sp
0x997c 	00120213          	addi	tp,tp,1 # 1 <_start+0x1>
0x9980 	00200293          	li	t0,2
0x9984 	fe5212e3          	bne	tp,t0,19834 <test_12+0x4>
0x9988 	f00ffeb7          	lui	t4,0xf00ff
0x998c 	00fe8e93          	addi	t4,t4,15 # f00ff00f <heap_memory_used+0xf00dd237>
0x9990 	00c00e13          	li	t3,12
0x9994 	2fd19663          	bne	gp,t4,19b4c <fail>
0x9998 	00000213          	li	tp,0
0x999c 	0ff010b7          	lui	ra,0xff01
0x99a0 	ff008093          	addi	ra,ra,-16 # ff00ff0 <heap_memory_used+0xfedf218>
0x99a4 	f0f0f137          	lui	sp,0xf0f0f
0x99a8 	0f010113          	addi	sp,sp,240 # f0f0f0f0 <heap_memory_used+0xf0eed318>
0x99ac 	00000013          	nop
0x99b0 	0020c1b3          	xor	gp,ra,sp
0x99b4 	00120213          	addi	tp,tp,1 # 1 <_start+0x1>
0x99b8 	00200293          	li	t0,2
0x99bc 	fe5210e3          	bne	tp,t0,19868 <test_13+0x4>
0x99c0 	ff010eb7          	lui	t4,0xff010
0x99c4 	f00e8e93          	addi	t4,t4,-256 # ff00ff00 <heap_memory_used+0xfefee128>
0x99c8 	00d00e13          	li	t3,13
0x99cc 	2bd19a63          	bne	gp,t4,19b4c <fail>
0x99d0 	00000213          	li	tp,0
0x99d4 	00ff00b7          	lui	ra,0xff0
0x99d8 	0ff08093          	addi	ra,ra,255 # ff00ff <heap_memory_used+0xfce327>
0x99dc 	0f0f1137          	lui	sp,0xf0f1
0x99e0 	f0f10113          	addi	sp,sp,-241 # f0f0f0f <heap_memory_used+0xf0cf137>
0x99e4 	00000013          	nop
0x99e8 	00000013          	nop
0x99ec 	0020c1b3          	xor	gp,ra,sp
0x99f0 	00120213          	addi	tp,tp,1 # 1 <_start+0x1>
0x99f4 	00200293          	li	t0,2
0x99f8 	fc521ee3          	bne	tp,t0,198a0 <test_14+0x4>
0x99fc 	0ff01eb7          	lui	t4,0xff01
0x9a00 	ff0e8e93          	addi	t4,t4,-16 # ff00ff0 <heap_memory_used+0xfedf218>
0x9a04 	00e00e13          	li	t3,14
0x9a08 	27d19c63          	bne	gp,t4,19b4c <fail>
0x9a0c 	00000213          	li	tp,0
0x9a10 	ff0100b7          	lui	ra,0xff010
0x9a14 	f0008093          	addi	ra,ra,-256 # ff00ff00 <heap_memory_used+0xfefee128>
0x9a18 	00000013          	nop
0x9a1c 	0f0f1137          	lui	sp,0xf0f1
0x9a20 	f0f10113          	addi	sp,sp,-241 # f0f0f0f <heap_memory_used+0xf0cf137>
0x9a24 	0020c1b3          	xor	gp,ra,sp
0x9a28 	00120213          	addi	tp,tp,1 # 1 <_start+0x1>
0x9a2c 	00200293          	li	t0,2
0x9a30 	fe5210e3          	bne	tp,t0,198dc <test_15+0x4>
0x9a34 	f00ffeb7          	lui	t4,0xf00ff
0x9a38 	00fe8e93          	addi	t4,t4,15 # f00ff00f <heap_memory_used+0xf00dd237>
0x9a3c 	00f00e13          	li	t3,15
0x9a40 	25d19063          	bne	gp,t4,19b4c <fail>
0x9a44 	00000213          	li	tp,0
0x9a48 	0ff010b7          	lui	ra,0xff01
0x9a4c 	ff008093          	addi	ra,ra,-16 # ff00ff0 <heap_memory_used+0xfedf218>
0x9a50 	00000013          	nop
0x9a54 	f0f0f137          	lui	sp,0xf0f0f
0x9a58 	0f010113          	addi	sp,sp,240 # f0f0f0f0 <heap_memory_used+0xf0eed318>
0x9a5c 	00000013          	nop
0x9a60 	0020c1b3          	xor	gp,ra,sp
0x9a64 	00120213          	addi	tp,tp,1 # 1 <_start+0x1>
0x9a68 	00200293          	li	t0,2
0x9a6c 	fc521ee3          	bne	tp,t0,19914 <test_16+0x4>
0x9a70 	ff010eb7          	lui	t4,0xff010
0x9a74 	f00e8e93          	addi	t4,t4,-256 # ff00ff00 <heap_memory_used+0xfefee128>
0x9a78 	01000e13          	li	t3,16
0x9a7c 	21d19263          	bne	gp,t4,19b4c <fail>
0x9a80 	00000213          	li	tp,0
0x9a84 	00ff00b7          	lui	ra,0xff0
0x9a88 	0ff08093          	addi	ra,ra,255 # ff00ff <heap_memory_used+0xfce327>
0x9a8c 	00000013          	nop
0x9a90 	00000013          	nop
0x9a94 	0f0f1137          	lui	sp,0xf0f1
0x9a98 	f0f10113          	addi	sp,sp,-241 # f0f0f0f <heap_memory_used+0xf0cf137>
0x9a9c 	0020c1b3          	xor	gp,ra,sp
0x9aa0 	00120213          	addi	tp,tp,1 # 1 <_start+0x1>
0x9aa4 	00200293          	li	t0,2
0x9aa8 	fc521ee3          	bne	tp,t0,19950 <test_17+0x4>
0x9aac 	0ff01eb7          	lui	t4,0xff01
0x9ab0 	ff0e8e93          	addi	t4,t4,-16 # ff00ff0 <heap_memory_used+0xfedf218>
0x9ab4 	01100e13          	li	t3,17
0x9ab8 	1dd19463          	bne	gp,t4,19b4c <fail>
0x9abc 	00000213          	li	tp,0
0x9ac0 	0f0f1137          	lui	sp,0xf0f1
0x9ac4 	f0f10113          	addi	sp,sp,-241 # f0f0f0f <heap_memory_used+0xf0cf137>
0x9ac8 	ff0100b7          	lui	ra,0xff010
0x9acc 	f0008093          	addi	ra,ra,-256 # ff00ff00 <heap_memory_used+0xfefee128>
0x9ad0 	0020c1b3          	xor	gp,ra,sp
0x9ad4 	00120213          	addi	tp,tp,1 # 1 <_start+0x1>
0x9ad8 	00200293          	li	t0,2
0x9adc 	fe5212e3          	bne	tp,t0,1998c <test_18+0x4>
0x9ae0 	f00ffeb7          	lui	t4,0xf00ff
0x9ae4 	00fe8e93          	addi	t4,t4,15 # f00ff00f <heap_memory_used+0xf00dd237>
0x9ae8 	01200e13          	li	t3,18
0x9aec 	19d19a63          	bne	gp,t4,19b4c <fail>
0x9af0 	00000213          	li	tp,0
0x9af4 	f0f0f137          	lui	sp,0xf0f0f
0x9af8 	0f010113          	addi	sp,sp,240 # f0f0f0f0 <heap_memory_used+0xf0eed318>
0x9afc 	0ff010b7          	lui	ra,0xff01
0x9b00 	ff008093          	addi	ra,ra,-16 # ff00ff0 <heap_memory_used+0xfedf218>
0x9b04 	00000013          	nop
0x9b08 	0020c1b3          	xor	gp,ra,sp
0x9b0c 	00120213          	addi	tp,tp,1 # 1 <_start+0x1>
0x9b10 	00200293          	li	t0,2
0x9b14 	fe5210e3          	bne	tp,t0,199c0 <test_19+0x4>
0x9b18 	ff010eb7          	lui	t4,0xff010
0x9b1c 	f00e8e93          	addi	t4,t4,-256 # ff00ff00 <heap_memory_used+0xfefee128>
0x9b20 	01300e13          	li	t3,19
0x9b24 	15d19e63          	bne	gp,t4,19b4c <fail>
0x9b28 	00000213          	li	tp,0
0x9b2c 	0f0f1137          	lui	sp,0xf0f1
0x9b30 	f0f10113          	addi	sp,sp,-241 # f0f0f0f <heap_memory_used+0xf0cf137>
0x9b34 	00ff00b7          	lui	ra,0xff0
0x9b38 	0ff08093          	addi	ra,ra,255 # ff00ff <heap_memory_used+0xfce327>
0x9b3c 	00000013          	nop
0x9b40 	00000013          	nop
0x9b44 	0020c1b3          	xor	gp,ra,sp
0x9b48 	00120213          	addi	tp,tp,1 # 1 <_start+0x1>
0x9b4c 	00200293          	li	t0,2
0x9b50 	fc521ee3          	bne	tp,t0,199f8 <test_20+0x4>
0x9b54 	0ff01eb7          	lui	t4,0xff01
0x9b58 	ff0e8e93          	addi	t4,t4,-16 # ff00ff0 <heap_memory_used+0xfedf218>
0x9b5c 	01400e13          	li	t3,20
0x9b60 	13d19063          	bne	gp,t4,19b4c <fail>
0x9b64 	00000213          	li	tp,0
0x9b68 	0f0f1137          	lui	sp,0xf0f1
0x9b6c 	f0f10113          	addi	sp,sp,-241 # f0f0f0f <heap_memory_used+0xf0cf137>
0x9b70 	00000013          	nop
0x9b74 	ff0100b7          	lui	ra,0xff010
0x9b78 	f0008093          	addi	ra,ra,-256 # ff00ff00 <heap_memory_used+0xfefee128>
0x9b7c 	0020c1b3          	xor	gp,ra,sp
0x9b80 	00120213          	addi	tp,tp,1 # 1 <_start+0x1>
0x9b84 	00200293          	li	t0,2
0x9b88 	fe5210e3          	bne	tp,t0,19a34 <test_21+0x4>
0x9b8c 	f00ffeb7          	lui	t4,0xf00ff
0x9b90 	00fe8e93          	addi	t4,t4,15 # f00ff00f <heap_memory_used+0xf00dd237>
0x9b94 	01500e13          	li	t3,21
0x9b98 	0fd19463          	bne	gp,t4,19b4c <fail>
0x9b9c 	00000213          	li	tp,0
0x9ba0 	f0f0f137          	lui	sp,0xf0f0f
0x9ba4 	0f010113          	addi	sp,sp,240 # f0f0f0f0 <heap_memory_used+0xf0eed318>
0x9ba8 	00000013          	nop
0x9bac 	0ff010b7          	lui	ra,0xff01
0x9bb0 	ff008093          	addi	ra,ra,-16 # ff00ff0 <heap_memory_used+0xfedf218>
0x9bb4 	00000013          	nop
0x9bb8 	0020c1b3          	xor	gp,ra,sp
0x9bbc 	00120213          	addi	tp,tp,1 # 1 <_start+0x1>
0x9bc0 	00200293          	li	t0,2
0x9bc4 	fc521ee3          	bne	tp,t0,19a6c <test_22+0x4>
0x9bc8 	ff010eb7          	lui	t4,0xff010
0x9bcc 	f00e8e93          	addi	t4,t4,-256 # ff00ff00 <heap_memory_used+0xfefee128>
0x9bd0 	01600e13          	li	t3,22
0x9bd4 	0bd19663          	bne	gp,t4,19b4c <fail>
0x9bd8 	00000213          	li	tp,0
0x9bdc 	0f0f1137          	lui	sp,0xf0f1
0x9be0 	f0f10113          	addi	sp,sp,-241 # f0f0f0f <heap_memory_used+0xf0cf137>
0x9be4 	00000013          	nop
0x9be8 	00000013          	nop
0x9bec 	00ff00b7          	lui	ra,0xff0
0x9bf0 	0ff08093          	addi	ra,ra,255 # ff00ff <heap_memory_used+0xfce327>
0x9bf4 	0020c1b3          	xor	gp,ra,sp
0x9bf8 	00120213          	addi	tp,tp,1 # 1 <_start+0x1>
0x9bfc 	00200293          	li	t0,2
0x9c00 	fc521ee3          	bne	tp,t0,19aa8 <test_23+0x4>
0x9c04 	0ff01eb7          	lui	t4,0xff01
0x9c08 	ff0e8e93          	addi	t4,t4,-16 # ff00ff0 <heap_memory_used+0xfedf218>
0x9c0c 	01700e13          	li	t3,23
0x9c10 	07d19863          	bne	gp,t4,19b4c <fail>
0x9c14 	ff0100b7          	lui	ra,0xff010
0x9c18 	f0008093          	addi	ra,ra,-256 # ff00ff00 <heap_memory_used+0xfefee128>
0x9c1c 	00104133          	xor	sp,zero,ra
0x9c20 	ff010eb7          	lui	t4,0xff010
0x9c24 	f00e8e93          	addi	t4,t4,-256 # ff00ff00 <heap_memory_used+0xfefee128>
0x9c28 	01800e13          	li	t3,24
0x9c2c 	05d11a63          	bne	sp,t4,19b4c <fail>
0x9c30 	00ff00b7          	lui	ra,0xff0
0x9c34 	0ff08093          	addi	ra,ra,255 # ff00ff <heap_memory_used+0xfce327>
0x9c38 	0000c133          	xor	sp,ra,zero
0x9c3c 	00ff0eb7          	lui	t4,0xff0
0x9c40 	0ffe8e93          	addi	t4,t4,255 # ff00ff <heap_memory_used+0xfce327>
0x9c44 	01900e13          	li	t3,25
0x9c48 	03d11c63          	bne	sp,t4,19b4c <fail>
0x9c4c 	000040b3          	xor	ra,zero,zero
0x9c50 	00000e93          	li	t4,0
0x9c54 	01a00e13          	li	t3,26
0x9c58 	03d09463          	bne	ra,t4,19b4c <fail>
0x9c5c 	111110b7          	lui	ra,0x11111
0x9c60 	11108093          	addi	ra,ra,273 # 11111111 <heap_memory_used+0x110ef339>
0x9c64 	22222137          	lui	sp,0x22222
0x9c68 	22210113          	addi	sp,sp,546 # 22222222 <heap_memory_used+0x2220044a>
0x9c6c 	0020c033          	xor	zero,ra,sp
0x9c70 	00000e93          	li	t4,0
0x9c74 	01b00e13          	li	t3,27
0x9c78 	01d01463          	bne	zero,t4,19b4c <fail>
0x9c7c 	05c01863          	bne	zero,t3,19b98 <pass>
0x9c80 	04500513          	li	a0,69
0x9c84 	00004137          	lui	sp,0x4
0x9c88 	635030ef          	jal	ra,1d988 <printf_c>
0x9c8c 	05200513          	li	a0,82
0x9c90 	00004137          	lui	sp,0x4
0x9c94 	629030ef          	jal	ra,1d988 <printf_c>
0x9c98 	00004137          	lui	sp,0x4
0x9c9c 	621030ef          	jal	ra,1d988 <printf_c>
0x9ca0 	04f00513          	li	a0,79
0x9ca4 	00004137          	lui	sp,0x4
0x9ca8 	615030ef          	jal	ra,1d988 <printf_c>
0x9cac 	00004137          	lui	sp,0x4
0x9cb0 	05200513          	li	a0,82
0x9cb4 	00004137          	lui	sp,0x4
0x9cb8 	605030ef          	jal	ra,1d988 <printf_c>
0x9cbc 	00a00513          	li	a0,10
0x9cc0 	00004137          	lui	sp,0x4
0x9cc4 	5f9030ef          	jal	ra,1d988 <printf_c>
0x9cc8 	0340006f          	j	19bc8 <xori>
0x9ccc 	04f00513          	li	a0,79
0x9cd0 	00004137          	lui	sp,0x4
0x9cd4 	5e9030ef          	jal	ra,1d988 <printf_c>
0x9cd8 	04b00513          	li	a0,75
0x9cdc 	00004137          	lui	sp,0x4
0x9ce0 	5dd030ef          	jal	ra,1d988 <printf_c>
0x9ce4 	00a00513          	li	a0,10
0x9ce8 	00004137          	lui	sp,0x4
0x9cec 	5d1030ef          	jal	ra,1d988 <printf_c>
0x9cf0 	00c0006f          	j	19bc8 <xori>
0x9cf4 	6f78                	flw	fa4,92(a4)
0x9cf8 	6972                	flw	fs2,28(sp)
0x9cfc 	0009                	c.addi	zero,2
0x9d00 	0001a537          	lui	a0,0x1a
0x9d04 	bc050513          	addi	a0,a0,-1088 # 19bc0 <.test_name>
0x9d08 	00004137          	lui	sp,0x4
0x9d0c 	5cd030ef          	jal	ra,1d9a0 <printf_s>
0x9d10 	00ff10b7          	lui	ra,0xff1
0x9d14 	f0008093          	addi	ra,ra,-256 # ff0f00 <heap_memory_used+0xfcf128>
0x9d18 	f0f0c193          	xori	gp,ra,-241
0x9d1c 	ff00feb7          	lui	t4,0xff00f
0x9d20 	00fe8e93          	addi	t4,t4,15 # ff00f00f <heap_memory_used+0xfefed237>
0x9d24 	00200e13          	li	t3,2
0x9d28 	1dd19663          	bne	gp,t4,19dbc <fail>
0x9d2c 	0ff010b7          	lui	ra,0xff01
0x9d30 	ff008093          	addi	ra,ra,-16 # ff00ff0 <heap_memory_used+0xfedf218>
0x9d34 	0f00c193          	xori	gp,ra,240
0x9d38 	0ff01eb7          	lui	t4,0xff01
0x9d3c 	f00e8e93          	addi	t4,t4,-256 # ff00f00 <heap_memory_used+0xfedf128>
0x9d40 	00300e13          	li	t3,3
0x9d44 	1bd19863          	bne	gp,t4,19dbc <fail>
0x9d48 	00ff10b7          	lui	ra,0xff1
0x9d4c 	8ff08093          	addi	ra,ra,-1793 # ff08ff <heap_memory_used+0xfceb27>
0x9d50 	70f0c193          	xori	gp,ra,1807
0x9d54 	00ff1eb7          	lui	t4,0xff1
0x9d58 	ff0e8e93          	addi	t4,t4,-16 # ff0ff0 <heap_memory_used+0xfcf218>
0x9d5c 	00400e13          	li	t3,4
0x9d60 	19d19a63          	bne	gp,t4,19dbc <fail>
0x9d64 	f00ff0b7          	lui	ra,0xf00ff
0x9d68 	00f08093          	addi	ra,ra,15 # f00ff00f <heap_memory_used+0xf00dd237>
0x9d6c 	0f00c193          	xori	gp,ra,240
0x9d70 	f00ffeb7          	lui	t4,0xf00ff
0x9d74 	0ffe8e93          	addi	t4,t4,255 # f00ff0ff <heap_memory_used+0xf00dd327>
0x9d78 	00500e13          	li	t3,5
0x9d7c 	17d19c63          	bne	gp,t4,19dbc <fail>
0x9d80 	ff00f0b7          	lui	ra,0xff00f
0x9d84 	70008093          	addi	ra,ra,1792 # ff00f700 <heap_memory_used+0xfefed928>
0x9d88 	70f0c093          	xori	ra,ra,1807
0x9d8c 	ff00feb7          	lui	t4,0xff00f
0x9d90 	00fe8e93          	addi	t4,t4,15 # ff00f00f <heap_memory_used+0xfefed237>
0x9d94 	00600e13          	li	t3,6
0x9d98 	15d09e63          	bne	ra,t4,19dbc <fail>
0x9d9c 	00000213          	li	tp,0
0x9da0 	0ff010b7          	lui	ra,0xff01
0x9da4 	ff008093          	addi	ra,ra,-16 # ff00ff0 <heap_memory_used+0xfedf218>
0x9da8 	0f00c193          	xori	gp,ra,240
0x9dac 	00018313          	mv	t1,gp
0x9db0 	00120213          	addi	tp,tp,1 # 1 <_start+0x1>
0x9db4 	00200293          	li	t0,2
0x9db8 	fe5214e3          	bne	tp,t0,19c68 <test_7+0x4>
0x9dbc 	0ff01eb7          	lui	t4,0xff01
0x9dc0 	f00e8e93          	addi	t4,t4,-256 # ff00f00 <heap_memory_used+0xfedf128>
0x9dc4 	00700e13          	li	t3,7
0x9dc8 	13d31663          	bne	t1,t4,19dbc <fail>
0x9dcc 	00000213          	li	tp,0
0x9dd0 	00ff10b7          	lui	ra,0xff1
0x9dd4 	8ff08093          	addi	ra,ra,-1793 # ff08ff <heap_memory_used+0xfceb27>
0x9dd8 	70f0c193          	xori	gp,ra,1807
0x9ddc 	00000013          	nop
0x9de0 	00018313          	mv	t1,gp
0x9de4 	00120213          	addi	tp,tp,1 # 1 <_start+0x1>
0x9de8 	00200293          	li	t0,2
0x9dec 	fe5212e3          	bne	tp,t0,19c98 <test_8+0x4>
0x9df0 	00ff1eb7          	lui	t4,0xff1
0x9df4 	ff0e8e93          	addi	t4,t4,-16 # ff0ff0 <heap_memory_used+0xfcf218>
0x9df8 	00800e13          	li	t3,8
0x9dfc 	0fd31c63          	bne	t1,t4,19dbc <fail>
0x9e00 	00000213          	li	tp,0
0x9e04 	f00ff0b7          	lui	ra,0xf00ff
0x9e08 	00f08093          	addi	ra,ra,15 # f00ff00f <heap_memory_used+0xf00dd237>
0x9e0c 	0f00c193          	xori	gp,ra,240
0x9e10 	00000013          	nop
0x9e14 	00000013          	nop
0x9e18 	00018313          	mv	t1,gp
0x9e1c 	00120213          	addi	tp,tp,1 # 1 <_start+0x1>
0x9e20 	00200293          	li	t0,2
0x9e24 	fe5210e3          	bne	tp,t0,19ccc <test_9+0x4>
0x9e28 	f00ffeb7          	lui	t4,0xf00ff
0x9e2c 	0ffe8e93          	addi	t4,t4,255 # f00ff0ff <heap_memory_used+0xf00dd327>
0x9e30 	00900e13          	li	t3,9
0x9e34 	0dd31063          	bne	t1,t4,19dbc <fail>
0x9e38 	00000213          	li	tp,0
0x9e3c 	0ff010b7          	lui	ra,0xff01
0x9e40 	ff008093          	addi	ra,ra,-16 # ff00ff0 <heap_memory_used+0xfedf218>
0x9e44 	0f00c193          	xori	gp,ra,240
0x9e48 	00120213          	addi	tp,tp,1 # 1 <_start+0x1>
0x9e4c 	00200293          	li	t0,2
0x9e50 	fe5216e3          	bne	tp,t0,19d04 <test_10+0x4>
0x9e54 	0ff01eb7          	lui	t4,0xff01
0x9e58 	f00e8e93          	addi	t4,t4,-256 # ff00f00 <heap_memory_used+0xfedf128>
0x9e5c 	00a00e13          	li	t3,10
0x9e60 	09d19a63          	bne	gp,t4,19dbc <fail>
0x9e64 	00000213          	li	tp,0
0x9e68 	00ff10b7          	lui	ra,0xff1
0x9e6c 	fff08093          	addi	ra,ra,-1 # ff0fff <heap_memory_used+0xfcf227>
0x9e70 	00000013          	nop
0x9e74 	00f0c193          	xori	gp,ra,15
0x9e78 	00120213          	addi	tp,tp,1 # 1 <_start+0x1>
0x9e7c 	00200293          	li	t0,2
0x9e80 	fe5214e3          	bne	tp,t0,19d30 <test_11+0x4>
0x9e84 	00ff1eb7          	lui	t4,0xff1
0x9e88 	ff0e8e93          	addi	t4,t4,-16 # ff0ff0 <heap_memory_used+0xfcf218>
0x9e8c 	00b00e13          	li	t3,11
0x9e90 	07d19263          	bne	gp,t4,19dbc <fail>
0x9e94 	00000213          	li	tp,0
0x9e98 	f00ff0b7          	lui	ra,0xf00ff
0x9e9c 	00f08093          	addi	ra,ra,15 # f00ff00f <heap_memory_used+0xf00dd237>
0x9ea0 	00000013          	nop
0x9ea4 	00000013          	nop
0x9ea8 	0f00c193          	xori	gp,ra,240
0x9eac 	00120213          	addi	tp,tp,1 # 1 <_start+0x1>
0x9eb0 	00200293          	li	t0,2
0x9eb4 	fe5212e3          	bne	tp,t0,19d60 <test_12+0x4>
0x9eb8 	f00ffeb7          	lui	t4,0xf00ff
0x9ebc 	0ffe8e93          	addi	t4,t4,255 # f00ff0ff <heap_memory_used+0xf00dd327>
0x9ec0 	00c00e13          	li	t3,12
0x9ec4 	03d19863          	bne	gp,t4,19dbc <fail>
0x9ec8 	0f004093          	xori	ra,zero,240
0x9ecc 	0f000e93          	li	t4,240
0x9ed0 	00d00e13          	li	t3,13
0x9ed4 	03d09063          	bne	ra,t4,19dbc <fail>
0x9ed8 	00ff00b7          	lui	ra,0xff0
0x9edc 	0ff08093          	addi	ra,ra,255 # ff00ff <heap_memory_used+0xfce327>
0x9ee0 	70f0c013          	xori	zero,ra,1807
0x9ee4 	00000e93          	li	t4,0
0x9ee8 	00e00e13          	li	t3,14
0x9eec 	01d01463          	bne	zero,t4,19dbc <fail>
0x9ef0 	05c01863          	bne	zero,t3,19e08 <pass>
0x9ef4 	04500513          	li	a0,69
0x9ef8 	00004137          	lui	sp,0x4
0x9efc 	3c5030ef          	jal	ra,1d988 <printf_c>
0x9f00 	05200513          	li	a0,82
0x9f04 	00004137          	lui	sp,0x4
0x9f08 	3b9030ef          	jal	ra,1d988 <printf_c>
0x9f0c 	00004137          	lui	sp,0x4
0x9f10 	3b1030ef          	jal	ra,1d988 <printf_c>
0x9f14 	04f00513          	li	a0,79
0x9f18 	00004137          	lui	sp,0x4
0x9f1c 	3a5030ef          	jal	ra,1d988 <printf_c>
0x9f20 	00004137          	lui	sp,0x4
0x9f24 	05200513          	li	a0,82
0x9f28 	00004137          	lui	sp,0x4
0x9f2c 	395030ef          	jal	ra,1d988 <printf_c>
0x9f30 	00a00513          	li	a0,10
0x9f34 	00004137          	lui	sp,0x4
0x9f38 	389030ef          	jal	ra,1d988 <printf_c>
0x9f3c 	880fa06f          	j	13e84 <mul>
0x9f40 	04f00513          	li	a0,79
0x9f44 	00004137          	lui	sp,0x4
0x9f48 	379030ef          	jal	ra,1d988 <printf_c>
0x9f4c 	04b00513          	li	a0,75
0x9f50 	00004137          	lui	sp,0x4
0x9f54 	36d030ef          	jal	ra,1d988 <printf_c>
0x9f58 	00a00513          	li	a0,10
0x9f5c 	00004137          	lui	sp,0x4
0x9f60 	361030ef          	jal	ra,1d988 <printf_c>
0x9f64 	858fa06f          	j	13e84 <mul>
0x9f68 	6d61                	lui	s10,0x18
0x9f6c 	6464616f          	jal	sp,60478 <heap_memory_used+0x3e6a0>
0x9f70 	00092077          	0x92077
0x9f74 	0001a537          	lui	a0,0x1a
0x9f78 	e3050513          	addi	a0,a0,-464 # 19e30 <.test_name>
0x9f7c 	00004137          	lui	sp,0x4
0x9f80 	359030ef          	jal	ra,1d9a0 <printf_s>
0x9f84 	80000537          	lui	a0,0x80000
0x9f88 	80000593          	li	a1,-2048
0x9f8c 	00005697          	auipc	a3,0x5
0x9f90 	31468693          	addi	a3,a3,788 # 1f168 <amo_operand>
0x9f94 	00a6a023          	sw	a0,0(a3)
0x9f98 	00b6a72f          	amoadd.w	a4,a1,(a3)
0x9f9c 	80000eb7          	lui	t4,0x80000
0x9fa0 	00200e13          	li	t3,2
0x9fa4 	05d71263          	bne	a4,t4,19eb0 <fail>
0x9fa8 	0006a783          	lw	a5,0(a3)
0x9fac 	80000eb7          	lui	t4,0x80000
0x9fb0 	800e8e93          	addi	t4,t4,-2048 # 7ffff800 <heap_memory_used+0x7ffdda28>
0x9fb4 	00300e13          	li	t3,3
0x9fb8 	03d79863          	bne	a5,t4,19eb0 <fail>
0x9fbc 	800005b7          	lui	a1,0x80000
0x9fc0 	00b6a72f          	amoadd.w	a4,a1,(a3)
0x9fc4 	80000eb7          	lui	t4,0x80000
0x9fc8 	800e8e93          	addi	t4,t4,-2048 # 7ffff800 <heap_memory_used+0x7ffdda28>
0x9fcc 	00400e13          	li	t3,4
0x9fd0 	01d71c63          	bne	a4,t4,19eb0 <fail>
0x9fd4 	0006a783          	lw	a5,0(a3)
0x9fd8 	80000e93          	li	t4,-2048
0x9fdc 	00500e13          	li	t3,5
0x9fe0 	01d79463          	bne	a5,t4,19eb0 <fail>
0x9fe4 	05c01863          	bne	zero,t3,19efc <pass>
0x9fe8 	04500513          	li	a0,69
0x9fec 	00004137          	lui	sp,0x4
0x9ff0 	2d1030ef          	jal	ra,1d988 <printf_c>
0x9ff4 	05200513          	li	a0,82
0x9ff8 	00004137          	lui	sp,0x4
0x9ffc 	2c5030ef          	jal	ra,1d988 <printf_c>
0xa000 	00004137          	lui	sp,0x4
0xa004 	2bd030ef          	jal	ra,1d988 <printf_c>
0xa008 	04f00513          	li	a0,79
0xa00c 	00004137          	lui	sp,0x4
0xa010 	2b1030ef          	jal	ra,1d988 <printf_c>
0xa014 	00004137          	lui	sp,0x4
0xa018 	05200513          	li	a0,82
0xa01c 	00004137          	lui	sp,0x4
0xa020 	2a1030ef          	jal	ra,1d988 <printf_c>
0xa024 	00a00513          	li	a0,10
0xa028 	00004137          	lui	sp,0x4
0xa02c 	295030ef          	jal	ra,1d988 <printf_c>
0xa030 	0380006f          	j	19f30 <amoand_w>
0xa034 	04f00513          	li	a0,79
0xa038 	00004137          	lui	sp,0x4
0xa03c 	285030ef          	jal	ra,1d988 <printf_c>
0xa040 	04b00513          	li	a0,75
0xa044 	00004137          	lui	sp,0x4
0xa048 	279030ef          	jal	ra,1d988 <printf_c>
0xa04c 	00a00513          	li	a0,10
0xa050 	00004137          	lui	sp,0x4
0xa054 	26d030ef          	jal	ra,1d988 <printf_c>
0xa058 	0100006f          	j	19f30 <amoand_w>
0xa05c 	6d61                	lui	s10,0x18
0xa060 	646e616f          	jal	sp,10056c <heap_memory_used+0xde794>
0xa064 	775f 0920 0000      	0x920775f
0xa068 	0001a537          	lui	a0,0x1a
0xa06c 	f2450513          	addi	a0,a0,-220 # 19f24 <.test_name>
0xa070 	00004137          	lui	sp,0x4
0xa074 	265030ef          	jal	ra,1d9a0 <printf_s>
0xa078 	80000537          	lui	a0,0x80000
0xa07c 	80000593          	li	a1,-2048
0xa080 	00005697          	auipc	a3,0x5
0xa084 	22868693          	addi	a3,a3,552 # 1f170 <amo_operand>
0xa088 	00a6a023          	sw	a0,0(a3)
0xa08c 	60b6a72f          	amoand.w	a4,a1,(a3)
0xa090 	80000eb7          	lui	t4,0x80000
0xa094 	00200e13          	li	t3,2
0xa098 	03d71e63          	bne	a4,t4,19f9c <fail>
0xa09c 	0006a783          	lw	a5,0(a3)
0xa0a0 	80000eb7          	lui	t4,0x80000
0xa0a4 	00300e13          	li	t3,3
0xa0a8 	03d79663          	bne	a5,t4,19f9c <fail>
0xa0ac 	800005b7          	lui	a1,0x80000
0xa0b0 	60b6a72f          	amoand.w	a4,a1,(a3)
0xa0b4 	80000eb7          	lui	t4,0x80000
0xa0b8 	00400e13          	li	t3,4
0xa0bc 	01d71c63          	bne	a4,t4,19f9c <fail>
0xa0c0 	0006a783          	lw	a5,0(a3)
0xa0c4 	80000eb7          	lui	t4,0x80000
0xa0c8 	00500e13          	li	t3,5
0xa0cc 	01d79463          	bne	a5,t4,19f9c <fail>
0xa0d0 	05c01863          	bne	zero,t3,19fe8 <pass>
0xa0d4 	04500513          	li	a0,69
0xa0d8 	00004137          	lui	sp,0x4
0xa0dc 	1e5030ef          	jal	ra,1d988 <printf_c>
0xa0e0 	05200513          	li	a0,82
0xa0e4 	00004137          	lui	sp,0x4
0xa0e8 	1d9030ef          	jal	ra,1d988 <printf_c>
0xa0ec 	00004137          	lui	sp,0x4
0xa0f0 	1d1030ef          	jal	ra,1d988 <printf_c>
0xa0f4 	04f00513          	li	a0,79
0xa0f8 	00004137          	lui	sp,0x4
0xa0fc 	1c5030ef          	jal	ra,1d988 <printf_c>
0xa100 	00004137          	lui	sp,0x4
0xa104 	05200513          	li	a0,82
0xa108 	00004137          	lui	sp,0x4
0xa10c 	1b5030ef          	jal	ra,1d988 <printf_c>
0xa110 	00a00513          	li	a0,10
0xa114 	00004137          	lui	sp,0x4
0xa118 	1a9030ef          	jal	ra,1d988 <printf_c>
0xa11c 	0380006f          	j	1a01c <amomaxu_w>
0xa120 	04f00513          	li	a0,79
0xa124 	00004137          	lui	sp,0x4
0xa128 	199030ef          	jal	ra,1d988 <printf_c>
0xa12c 	04b00513          	li	a0,75
0xa130 	00004137          	lui	sp,0x4
0xa134 	18d030ef          	jal	ra,1d988 <printf_c>
0xa138 	00a00513          	li	a0,10
0xa13c 	00004137          	lui	sp,0x4
0xa140 	181030ef          	jal	ra,1d988 <printf_c>
0xa144 	0100006f          	j	1a01c <amomaxu_w>
0xa148 	6d61                	lui	s10,0x18
0xa14c 	78616d6f          	jal	s10,30798 <heap_memory_used+0xe9c0>
0xa150 	5f75                	li	t5,-3
0xa154 	00092077          	0x92077
0xa158 	0001a537          	lui	a0,0x1a
0xa15c 	01050513          	addi	a0,a0,16 # 1a010 <.test_name>
0xa160 	00004137          	lui	sp,0x4
0xa164 	179030ef          	jal	ra,1d9a0 <printf_s>
0xa168 	80000537          	lui	a0,0x80000
0xa16c 	80000593          	li	a1,-2048
0xa170 	00005697          	auipc	a3,0x5
0xa174 	14468693          	addi	a3,a3,324 # 1f178 <amo_operand>
0xa178 	00a6a023          	sw	a0,0(a3)
0xa17c 	e0b6a72f          	amomaxu.w	a4,a1,(a3)
0xa180 	80000eb7          	lui	t4,0x80000
0xa184 	00200e13          	li	t3,2
0xa188 	05d71063          	bne	a4,t4,1a08c <fail>
0xa18c 	0006a783          	lw	a5,0(a3)
0xa190 	80000e93          	li	t4,-2048
0xa194 	00300e13          	li	t3,3
0xa198 	03d79863          	bne	a5,t4,1a08c <fail>
0xa19c 	fff00593          	li	a1,-1
0xa1a0 	0006a023          	sw	zero,0(a3)
0xa1a4 	e0b6a72f          	amomaxu.w	a4,a1,(a3)
0xa1a8 	00000e93          	li	t4,0
0xa1ac 	00400e13          	li	t3,4
0xa1b0 	01d71c63          	bne	a4,t4,1a08c <fail>
0xa1b4 	0006a783          	lw	a5,0(a3)
0xa1b8 	fff00e93          	li	t4,-1
0xa1bc 	00500e13          	li	t3,5
0xa1c0 	01d79463          	bne	a5,t4,1a08c <fail>
0xa1c4 	05c01863          	bne	zero,t3,1a0d8 <pass>
0xa1c8 	04500513          	li	a0,69
0xa1cc 	00004137          	lui	sp,0x4
0xa1d0 	0f5030ef          	jal	ra,1d988 <printf_c>
0xa1d4 	05200513          	li	a0,82
0xa1d8 	00004137          	lui	sp,0x4
0xa1dc 	0e9030ef          	jal	ra,1d988 <printf_c>
0xa1e0 	00004137          	lui	sp,0x4
0xa1e4 	0e1030ef          	jal	ra,1d988 <printf_c>
0xa1e8 	04f00513          	li	a0,79
0xa1ec 	00004137          	lui	sp,0x4
0xa1f0 	0d5030ef          	jal	ra,1d988 <printf_c>
0xa1f4 	00004137          	lui	sp,0x4
0xa1f8 	05200513          	li	a0,82
0xa1fc 	00004137          	lui	sp,0x4
0xa200 	0c5030ef          	jal	ra,1d988 <printf_c>
0xa204 	00a00513          	li	a0,10
0xa208 	00004137          	lui	sp,0x4
0xa20c 	0b9030ef          	jal	ra,1d988 <printf_c>
0xa210 	0380006f          	j	1a10c <amomax_w>
0xa214 	04f00513          	li	a0,79
0xa218 	00004137          	lui	sp,0x4
0xa21c 	0a9030ef          	jal	ra,1d988 <printf_c>
0xa220 	04b00513          	li	a0,75
0xa224 	00004137          	lui	sp,0x4
0xa228 	09d030ef          	jal	ra,1d988 <printf_c>
0xa22c 	00a00513          	li	a0,10
0xa230 	00004137          	lui	sp,0x4
0xa234 	091030ef          	jal	ra,1d988 <printf_c>
0xa238 	0100006f          	j	1a10c <amomax_w>
0xa23c 	6d61                	lui	s10,0x18
0xa240 	78616d6f          	jal	s10,30888 <heap_memory_used+0xeab0>
0xa244 	775f 0920 0000      	0x920775f
0xa248 	0001a537          	lui	a0,0x1a
0xa24c 	10050513          	addi	a0,a0,256 # 1a100 <.test_name>
0xa250 	00004137          	lui	sp,0x4
0xa254 	089030ef          	jal	ra,1d9a0 <printf_s>
0xa258 	80000537          	lui	a0,0x80000
0xa25c 	80000593          	li	a1,-2048
0xa260 	00005697          	auipc	a3,0x5
0xa264 	05c68693          	addi	a3,a3,92 # 1f180 <amo_operand>
0xa268 	00a6a023          	sw	a0,0(a3)
0xa26c 	a0b6a72f          	amomax.w	a4,a1,(a3)
0xa270 	80000eb7          	lui	t4,0x80000
0xa274 	00200e13          	li	t3,2
0xa278 	05d71063          	bne	a4,t4,1a17c <fail>
0xa27c 	0006a783          	lw	a5,0(a3)
0xa280 	80000e93          	li	t4,-2048
0xa284 	00300e13          	li	t3,3
0xa288 	03d79863          	bne	a5,t4,1a17c <fail>
0xa28c 	00100593          	li	a1,1
0xa290 	0006a023          	sw	zero,0(a3)
0xa294 	a0b6a72f          	amomax.w	a4,a1,(a3)
0xa298 	00000e93          	li	t4,0
0xa29c 	00400e13          	li	t3,4
0xa2a0 	01d71c63          	bne	a4,t4,1a17c <fail>
0xa2a4 	0006a783          	lw	a5,0(a3)
0xa2a8 	00100e93          	li	t4,1
0xa2ac 	00500e13          	li	t3,5
0xa2b0 	01d79463          	bne	a5,t4,1a17c <fail>
0xa2b4 	05c01863          	bne	zero,t3,1a1c8 <pass>
0xa2b8 	04500513          	li	a0,69
0xa2bc 	00004137          	lui	sp,0x4
0xa2c0 	005030ef          	jal	ra,1d988 <printf_c>
0xa2c4 	05200513          	li	a0,82
0xa2c8 	00004137          	lui	sp,0x4
0xa2cc 	7f8030ef          	jal	ra,1d988 <printf_c>
0xa2d0 	00004137          	lui	sp,0x4
0xa2d4 	7f0030ef          	jal	ra,1d988 <printf_c>
0xa2d8 	04f00513          	li	a0,79
0xa2dc 	00004137          	lui	sp,0x4
0xa2e0 	7e4030ef          	jal	ra,1d988 <printf_c>
0xa2e4 	00004137          	lui	sp,0x4
0xa2e8 	05200513          	li	a0,82
0xa2ec 	00004137          	lui	sp,0x4
0xa2f0 	7d4030ef          	jal	ra,1d988 <printf_c>
0xa2f4 	00a00513          	li	a0,10
0xa2f8 	00004137          	lui	sp,0x4
0xa2fc 	7c8030ef          	jal	ra,1d988 <printf_c>
0xa300 	0380006f          	j	1a1fc <amominu_w>
0xa304 	04f00513          	li	a0,79
0xa308 	00004137          	lui	sp,0x4
0xa30c 	7b8030ef          	jal	ra,1d988 <printf_c>
0xa310 	04b00513          	li	a0,75
0xa314 	00004137          	lui	sp,0x4
0xa318 	7ac030ef          	jal	ra,1d988 <printf_c>
0xa31c 	00a00513          	li	a0,10
0xa320 	00004137          	lui	sp,0x4
0xa324 	7a0030ef          	jal	ra,1d988 <printf_c>
0xa328 	0100006f          	j	1a1fc <amominu_w>
0xa32c 	6d61                	lui	s10,0x18
0xa330 	6e696d6f          	jal	s10,b08d8 <heap_memory_used+0x8eb00>
0xa334 	5f75                	li	t5,-3
0xa338 	00092077          	0x92077
0xa33c 	0001a537          	lui	a0,0x1a
0xa340 	1f050513          	addi	a0,a0,496 # 1a1f0 <.test_name>
0xa344 	00004137          	lui	sp,0x4
0xa348 	798030ef          	jal	ra,1d9a0 <printf_s>
0xa34c 	80000537          	lui	a0,0x80000
0xa350 	80000593          	li	a1,-2048
0xa354 	00005697          	auipc	a3,0x5
0xa358 	f7468693          	addi	a3,a3,-140 # 1f188 <amo_operand>
0xa35c 	00a6a023          	sw	a0,0(a3)
0xa360 	c0b6a72f          	amominu.w	a4,a1,(a3)
0xa364 	80000eb7          	lui	t4,0x80000
0xa368 	00200e13          	li	t3,2
0xa36c 	05d71063          	bne	a4,t4,1a26c <fail>
0xa370 	0006a783          	lw	a5,0(a3)
0xa374 	80000eb7          	lui	t4,0x80000
0xa378 	00300e13          	li	t3,3
0xa37c 	03d79863          	bne	a5,t4,1a26c <fail>
0xa380 	fff00593          	li	a1,-1
0xa384 	0006a023          	sw	zero,0(a3)
0xa388 	c0b6a72f          	amominu.w	a4,a1,(a3)
0xa38c 	00000e93          	li	t4,0
0xa390 	00400e13          	li	t3,4
0xa394 	01d71c63          	bne	a4,t4,1a26c <fail>
0xa398 	0006a783          	lw	a5,0(a3)
0xa39c 	00000e93          	li	t4,0
0xa3a0 	00500e13          	li	t3,5
0xa3a4 	01d79463          	bne	a5,t4,1a26c <fail>
0xa3a8 	05c01863          	bne	zero,t3,1a2b8 <pass>
0xa3ac 	04500513          	li	a0,69
0xa3b0 	00004137          	lui	sp,0x4
0xa3b4 	714030ef          	jal	ra,1d988 <printf_c>
0xa3b8 	05200513          	li	a0,82
0xa3bc 	00004137          	lui	sp,0x4
0xa3c0 	708030ef          	jal	ra,1d988 <printf_c>
0xa3c4 	00004137          	lui	sp,0x4
0xa3c8 	700030ef          	jal	ra,1d988 <printf_c>
0xa3cc 	04f00513          	li	a0,79
0xa3d0 	00004137          	lui	sp,0x4
0xa3d4 	6f4030ef          	jal	ra,1d988 <printf_c>
0xa3d8 	00004137          	lui	sp,0x4
0xa3dc 	05200513          	li	a0,82
0xa3e0 	00004137          	lui	sp,0x4
0xa3e4 	6e4030ef          	jal	ra,1d988 <printf_c>
0xa3e8 	00a00513          	li	a0,10
0xa3ec 	00004137          	lui	sp,0x4
0xa3f0 	6d8030ef          	jal	ra,1d988 <printf_c>
0xa3f4 	0380006f          	j	1a2ec <amomin_w>
0xa3f8 	04f00513          	li	a0,79
0xa3fc 	00004137          	lui	sp,0x4
0xa400 	6c8030ef          	jal	ra,1d988 <printf_c>
0xa404 	04b00513          	li	a0,75
0xa408 	00004137          	lui	sp,0x4
0xa40c 	6bc030ef          	jal	ra,1d988 <printf_c>
0xa410 	00a00513          	li	a0,10
0xa414 	00004137          	lui	sp,0x4
0xa418 	6b0030ef          	jal	ra,1d988 <printf_c>
0xa41c 	0100006f          	j	1a2ec <amomin_w>
0xa420 	6d61                	lui	s10,0x18
0xa424 	6e696d6f          	jal	s10,b09c8 <heap_memory_used+0x8ebf0>
0xa428 	775f 0920 0000      	0x920775f
0xa42c 	0001a537          	lui	a0,0x1a
0xa430 	2e050513          	addi	a0,a0,736 # 1a2e0 <.test_name>
0xa434 	00004137          	lui	sp,0x4
0xa438 	6a8030ef          	jal	ra,1d9a0 <printf_s>
0xa43c 	80000537          	lui	a0,0x80000
0xa440 	80000593          	li	a1,-2048
0xa444 	00005697          	auipc	a3,0x5
0xa448 	e8c68693          	addi	a3,a3,-372 # 1f190 <amo_operand>
0xa44c 	00a6a023          	sw	a0,0(a3)
0xa450 	80b6a72f          	amomin.w	a4,a1,(a3)
0xa454 	80000eb7          	lui	t4,0x80000
0xa458 	00200e13          	li	t3,2
0xa45c 	05d71063          	bne	a4,t4,1a35c <fail>
0xa460 	0006a783          	lw	a5,0(a3)
0xa464 	80000eb7          	lui	t4,0x80000
0xa468 	00300e13          	li	t3,3
0xa46c 	03d79863          	bne	a5,t4,1a35c <fail>
0xa470 	fff00593          	li	a1,-1
0xa474 	0006a023          	sw	zero,0(a3)
0xa478 	80b6a72f          	amomin.w	a4,a1,(a3)
0xa47c 	00000e93          	li	t4,0
0xa480 	00400e13          	li	t3,4
0xa484 	01d71c63          	bne	a4,t4,1a35c <fail>
0xa488 	0006a783          	lw	a5,0(a3)
0xa48c 	fff00e93          	li	t4,-1
0xa490 	00500e13          	li	t3,5
0xa494 	01d79463          	bne	a5,t4,1a35c <fail>
0xa498 	05c01863          	bne	zero,t3,1a3a8 <pass>
0xa49c 	04500513          	li	a0,69
0xa4a0 	00004137          	lui	sp,0x4
0xa4a4 	624030ef          	jal	ra,1d988 <printf_c>
0xa4a8 	05200513          	li	a0,82
0xa4ac 	00004137          	lui	sp,0x4
0xa4b0 	618030ef          	jal	ra,1d988 <printf_c>
0xa4b4 	00004137          	lui	sp,0x4
0xa4b8 	610030ef          	jal	ra,1d988 <printf_c>
0xa4bc 	04f00513          	li	a0,79
0xa4c0 	00004137          	lui	sp,0x4
0xa4c4 	604030ef          	jal	ra,1d988 <printf_c>
0xa4c8 	00004137          	lui	sp,0x4
0xa4cc 	05200513          	li	a0,82
0xa4d0 	00004137          	lui	sp,0x4
0xa4d4 	5f4030ef          	jal	ra,1d988 <printf_c>
0xa4d8 	00a00513          	li	a0,10
0xa4dc 	00004137          	lui	sp,0x4
0xa4e0 	5e8030ef          	jal	ra,1d988 <printf_c>
0xa4e4 	0380006f          	j	1a3dc <amoor_w>
0xa4e8 	04f00513          	li	a0,79
0xa4ec 	00004137          	lui	sp,0x4
0xa4f0 	5d8030ef          	jal	ra,1d988 <printf_c>
0xa4f4 	04b00513          	li	a0,75
0xa4f8 	00004137          	lui	sp,0x4
0xa4fc 	5cc030ef          	jal	ra,1d988 <printf_c>
0xa500 	00a00513          	li	a0,10
0xa504 	00004137          	lui	sp,0x4
0xa508 	5c0030ef          	jal	ra,1d988 <printf_c>
0xa50c 	0100006f          	j	1a3dc <amoor_w>
0xa510 	6d61                	lui	s10,0x18
0xa514 	5f726f6f          	jal	t5,411c8 <heap_memory_used+0x1f3f0>
0xa518 	00092077          	0x92077
0xa51c 	0001a537          	lui	a0,0x1a
0xa520 	3d050513          	addi	a0,a0,976 # 1a3d0 <.test_name>
0xa524 	00004137          	lui	sp,0x4
0xa528 	5b8030ef          	jal	ra,1d9a0 <printf_s>
0xa52c 	80000537          	lui	a0,0x80000
0xa530 	80000593          	li	a1,-2048
0xa534 	00005697          	auipc	a3,0x5
0xa538 	da468693          	addi	a3,a3,-604 # 1f198 <amo_operand>
0xa53c 	00a6a023          	sw	a0,0(a3)
0xa540 	40b6a72f          	amoor.w	a4,a1,(a3)
0xa544 	80000eb7          	lui	t4,0x80000
0xa548 	00200e13          	li	t3,2
0xa54c 	03d71e63          	bne	a4,t4,1a448 <fail>
0xa550 	0006a783          	lw	a5,0(a3)
0xa554 	80000e93          	li	t4,-2048
0xa558 	00300e13          	li	t3,3
0xa55c 	03d79663          	bne	a5,t4,1a448 <fail>
0xa560 	00100593          	li	a1,1
0xa564 	40b6a72f          	amoor.w	a4,a1,(a3)
0xa568 	80000e93          	li	t4,-2048
0xa56c 	00400e13          	li	t3,4
0xa570 	01d71c63          	bne	a4,t4,1a448 <fail>
0xa574 	0006a783          	lw	a5,0(a3)
0xa578 	80100e93          	li	t4,-2047
0xa57c 	00500e13          	li	t3,5
0xa580 	01d79463          	bne	a5,t4,1a448 <fail>
0xa584 	05c01863          	bne	zero,t3,1a494 <pass>
0xa588 	04500513          	li	a0,69
0xa58c 	00004137          	lui	sp,0x4
0xa590 	538030ef          	jal	ra,1d988 <printf_c>
0xa594 	05200513          	li	a0,82
0xa598 	00004137          	lui	sp,0x4
0xa59c 	52c030ef          	jal	ra,1d988 <printf_c>
0xa5a0 	00004137          	lui	sp,0x4
0xa5a4 	524030ef          	jal	ra,1d988 <printf_c>
0xa5a8 	04f00513          	li	a0,79
0xa5ac 	00004137          	lui	sp,0x4
0xa5b0 	518030ef          	jal	ra,1d988 <printf_c>
0xa5b4 	00004137          	lui	sp,0x4
0xa5b8 	05200513          	li	a0,82
0xa5bc 	00004137          	lui	sp,0x4
0xa5c0 	508030ef          	jal	ra,1d988 <printf_c>
0xa5c4 	00a00513          	li	a0,10
0xa5c8 	00004137          	lui	sp,0x4
0xa5cc 	4fc030ef          	jal	ra,1d988 <printf_c>
0xa5d0 	0380006f          	j	1a4c8 <amoswap_w>
0xa5d4 	04f00513          	li	a0,79
0xa5d8 	00004137          	lui	sp,0x4
0xa5dc 	4ec030ef          	jal	ra,1d988 <printf_c>
0xa5e0 	04b00513          	li	a0,75
0xa5e4 	00004137          	lui	sp,0x4
0xa5e8 	4e0030ef          	jal	ra,1d988 <printf_c>
0xa5ec 	00a00513          	li	a0,10
0xa5f0 	00004137          	lui	sp,0x4
0xa5f4 	4d4030ef          	jal	ra,1d988 <printf_c>
0xa5f8 	0100006f          	j	1a4c8 <amoswap_w>
0xa5fc 	6d61                	lui	s10,0x18
0xa600 	6177736f          	jal	t1,922d4 <heap_memory_used+0x704fc>
0xa604 	5f70                	lw	a2,124(a4)
0xa608 	00092077          	0x92077
0xa60c 	0001a537          	lui	a0,0x1a
0xa610 	4bc50513          	addi	a0,a0,1212 # 1a4bc <.test_name>
0xa614 	00004137          	lui	sp,0x4
0xa618 	4cc030ef          	jal	ra,1d9a0 <printf_s>
0xa61c 	80000537          	lui	a0,0x80000
0xa620 	80000593          	li	a1,-2048
0xa624 	00005697          	auipc	a3,0x5
0xa628 	cc068693          	addi	a3,a3,-832 # 1f1a0 <amo_operand>
0xa62c 	00a6a023          	sw	a0,0(a3)
0xa630 	08b6a72f          	amoswap.w	a4,a1,(a3)
0xa634 	80000eb7          	lui	t4,0x80000
0xa638 	00200e13          	li	t3,2
0xa63c 	03d71e63          	bne	a4,t4,1a534 <fail>
0xa640 	0006a783          	lw	a5,0(a3)
0xa644 	80000e93          	li	t4,-2048
0xa648 	00300e13          	li	t3,3
0xa64c 	03d79663          	bne	a5,t4,1a534 <fail>
0xa650 	800005b7          	lui	a1,0x80000
0xa654 	08b6a72f          	amoswap.w	a4,a1,(a3)
0xa658 	80000e93          	li	t4,-2048
0xa65c 	00400e13          	li	t3,4
0xa660 	01d71c63          	bne	a4,t4,1a534 <fail>
0xa664 	0006a783          	lw	a5,0(a3)
0xa668 	80000eb7          	lui	t4,0x80000
0xa66c 	00500e13          	li	t3,5
0xa670 	01d79463          	bne	a5,t4,1a534 <fail>
0xa674 	05c01863          	bne	zero,t3,1a580 <pass>
0xa678 	04500513          	li	a0,69
0xa67c 	00004137          	lui	sp,0x4
0xa680 	44c030ef          	jal	ra,1d988 <printf_c>
0xa684 	05200513          	li	a0,82
0xa688 	00004137          	lui	sp,0x4
0xa68c 	440030ef          	jal	ra,1d988 <printf_c>
0xa690 	00004137          	lui	sp,0x4
0xa694 	438030ef          	jal	ra,1d988 <printf_c>
0xa698 	04f00513          	li	a0,79
0xa69c 	00004137          	lui	sp,0x4
0xa6a0 	42c030ef          	jal	ra,1d988 <printf_c>
0xa6a4 	00004137          	lui	sp,0x4
0xa6a8 	05200513          	li	a0,82
0xa6ac 	00004137          	lui	sp,0x4
0xa6b0 	41c030ef          	jal	ra,1d988 <printf_c>
0xa6b4 	00a00513          	li	a0,10
0xa6b8 	00004137          	lui	sp,0x4
0xa6bc 	410030ef          	jal	ra,1d988 <printf_c>
0xa6c0 	0380006f          	j	1a5b4 <amoxor_w>
0xa6c4 	04f00513          	li	a0,79
0xa6c8 	00004137          	lui	sp,0x4
0xa6cc 	400030ef          	jal	ra,1d988 <printf_c>
0xa6d0 	04b00513          	li	a0,75
0xa6d4 	00004137          	lui	sp,0x4
0xa6d8 	3f4030ef          	jal	ra,1d988 <printf_c>
0xa6dc 	00a00513          	li	a0,10
0xa6e0 	00004137          	lui	sp,0x4
0xa6e4 	3e8030ef          	jal	ra,1d988 <printf_c>
0xa6e8 	0100006f          	j	1a5b4 <amoxor_w>
0xa6ec 	6d61                	lui	s10,0x18
0xa6f0 	726f786f          	jal	a6,111cd0 <heap_memory_used+0xefef8>
0xa6f4 	775f 0920 0000      	0x920775f
0xa6f8 	0001a537          	lui	a0,0x1a
0xa6fc 	5a850513          	addi	a0,a0,1448 # 1a5a8 <.test_name>
0xa700 	00004137          	lui	sp,0x4
0xa704 	3e0030ef          	jal	ra,1d9a0 <printf_s>
0xa708 	80000537          	lui	a0,0x80000
0xa70c 	80000593          	li	a1,-2048
0xa710 	00005697          	auipc	a3,0x5
0xa714 	bdc68693          	addi	a3,a3,-1060 # 1f1a8 <amo_operand>
0xa718 	00a6a023          	sw	a0,0(a3)
0xa71c 	20b6a72f          	amoxor.w	a4,a1,(a3)
0xa720 	80000eb7          	lui	t4,0x80000
0xa724 	00200e13          	li	t3,2
0xa728 	05d71663          	bne	a4,t4,1a630 <fail>
0xa72c 	0006a783          	lw	a5,0(a3)
0xa730 	80000eb7          	lui	t4,0x80000
0xa734 	800e8e93          	addi	t4,t4,-2048 # 7ffff800 <heap_memory_used+0x7ffdda28>
0xa738 	00300e13          	li	t3,3
0xa73c 	03d79c63          	bne	a5,t4,1a630 <fail>
0xa740 	c00005b7          	lui	a1,0xc0000
0xa744 	00158593          	addi	a1,a1,1 # c0000001 <heap_memory_used+0xbffde229>
0xa748 	20b6a72f          	amoxor.w	a4,a1,(a3)
0xa74c 	80000eb7          	lui	t4,0x80000
0xa750 	800e8e93          	addi	t4,t4,-2048 # 7ffff800 <heap_memory_used+0x7ffdda28>
0xa754 	00400e13          	li	t3,4
0xa758 	01d71e63          	bne	a4,t4,1a630 <fail>
0xa75c 	0006a783          	lw	a5,0(a3)
0xa760 	c0000eb7          	lui	t4,0xc0000
0xa764 	801e8e93          	addi	t4,t4,-2047 # bffff801 <heap_memory_used+0xbffdda29>
0xa768 	00500e13          	li	t3,5
0xa76c 	01d79463          	bne	a5,t4,1a630 <fail>
0xa770 	05c01863          	bne	zero,t3,1a67c <pass>
0xa774 	04500513          	li	a0,69
0xa778 	00004137          	lui	sp,0x4
0xa77c 	350030ef          	jal	ra,1d988 <printf_c>
0xa780 	05200513          	li	a0,82
0xa784 	00004137          	lui	sp,0x4
0xa788 	344030ef          	jal	ra,1d988 <printf_c>
0xa78c 	00004137          	lui	sp,0x4
0xa790 	33c030ef          	jal	ra,1d988 <printf_c>
0xa794 	04f00513          	li	a0,79
0xa798 	00004137          	lui	sp,0x4
0xa79c 	330030ef          	jal	ra,1d988 <printf_c>
0xa7a0 	00004137          	lui	sp,0x4
0xa7a4 	05200513          	li	a0,82
0xa7a8 	00004137          	lui	sp,0x4
0xa7ac 	320030ef          	jal	ra,1d988 <printf_c>
0xa7b0 	00a00513          	li	a0,10
0xa7b4 	00004137          	lui	sp,0x4
0xa7b8 	314030ef          	jal	ra,1d988 <printf_c>
0xa7bc 	0340006f          	j	1a6ac <lrsc_w>
0xa7c0 	04f00513          	li	a0,79
0xa7c4 	00004137          	lui	sp,0x4
0xa7c8 	304030ef          	jal	ra,1d988 <printf_c>
0xa7cc 	04b00513          	li	a0,75
0xa7d0 	00004137          	lui	sp,0x4
0xa7d4 	2f8030ef          	jal	ra,1d988 <printf_c>
0xa7d8 	00a00513          	li	a0,10
0xa7dc 	00004137          	lui	sp,0x4
0xa7e0 	2ec030ef          	jal	ra,1d988 <printf_c>
0xa7e4 	00c0006f          	j	1a6ac <lrsc_w>
0xa7e8 	726c                	flw	fa1,100(a2)
0xa7ec 	09206373          	csrrsi	t1,0x92,0
0xa7f0 	0001a537          	lui	a0,0x1a
0xa7f4 	6a450513          	addi	a0,a0,1700 # 1a6a4 <.test_name>
0xa7f8 	00004137          	lui	sp,0x4
0xa7fc 	2e8030ef          	jal	ra,1d9a0 <printf_s>
0xa800 	00004517          	auipc	a0,0x4
0xa804 	68450513          	addi	a0,a0,1668 # 1ed40 <coreid>
0xa808 	00100593          	li	a1,1
0xa80c 	00052023          	sw	zero,0(a0)
0xa810 	00b5262f          	amoadd.w	a2,a1,(a0)
0xa814 	00100693          	li	a3,1
0xa818 	fed67ee3          	bleu	a3,a2,1a6d0 <.prname_next+0x1c>
0xa81c 	00052583          	lw	a1,0(a0)
0xa820 	fed5eee3          	bltu	a1,a3,1a6d8 <.prname_next+0x24>
0xa824 	00004517          	auipc	a0,0x4
0xa828 	66850513          	addi	a0,a0,1640 # 1ed48 <foo>
0xa82c 	1805272f          	sc.w	a4,zero,(a0)
0xa830 	00100e93          	li	t4,1
0xa834 	00200e13          	li	t3,2
0xa838 	0bd71c63          	bne	a4,t4,1a7ac <fail>
0xa83c 	00004517          	auipc	a0,0x4
0xa840 	65050513          	addi	a0,a0,1616 # 1ed48 <foo>
0xa844 	00005597          	auipc	a1,0x5
0xa848 	a4c58593          	addi	a1,a1,-1460 # 1f14c <fooTest3>
0xa84c 	1005a5af          	lr.w	a1,(a1)
0xa850 	18b5272f          	sc.w	a4,a1,(a0)
0xa854 	00100e93          	li	t4,1
0xa858 	00300e13          	li	t3,3
0xa85c 	09d71a63          	bne	a4,t4,1a7ac <fail>
0xa860 	00004517          	auipc	a0,0x4
0xa864 	62c50513          	addi	a0,a0,1580 # 1ed48 <foo>
0xa868 	40000593          	li	a1,1024
0xa86c 	00160613          	addi	a2,a2,1
0xa870 	1005272f          	lr.w	a4,(a0)
0xa874 	00c70733          	add	a4,a4,a2
0xa878 	18e5272f          	sc.w	a4,a4,(a0)
0xa87c 	fe071ae3          	bnez	a4,1a72c <test_3+0x34>
0xa880 	fff58593          	addi	a1,a1,-1
0xa884 	fe0596e3          	bnez	a1,1a72c <test_3+0x34>
0xa888 	00004517          	auipc	a0,0x4
0xa88c 	60050513          	addi	a0,a0,1536 # 1ed44 <barrier>
0xa890 	00100593          	li	a1,1
0xa894 	00b5202f          	amoadd.w	zero,a1,(a0)
0xa898 	00052583          	lw	a1,0(a0)
0xa89c 	fed5cee3          	blt	a1,a3,1a754 <test_3+0x5c>
0xa8a0 	0ff0000f          	fence
0xa8a4 	00004517          	auipc	a0,0x4
0xa8a8 	5e852503          	lw	a0,1512(a0) # 1ed48 <foo>
0xa8ac 	00969593          	slli	a1,a3,0x9
0xa8b0 	40b50533          	sub	a0,a0,a1
0xa8b4 	fff68693          	addi	a3,a3,-1
0xa8b8 	fe06dce3          	bgez	a3,1a76c <test_4+0xc>
0xa8bc 	00000e93          	li	t4,0
0xa8c0 	00400e13          	li	t3,4
0xa8c4 	03d51663          	bne	a0,t4,1a7ac <fail>
0xa8c8 	00004517          	auipc	a0,0x4
0xa8cc 	5c450513          	addi	a0,a0,1476 # 1ed48 <foo>
0xa8d0 	100525af          	lr.w	a1,(a0)
0xa8d4 	180525af          	sc.w	a1,zero,(a0)
0xa8d8 	fe059ce3          	bnez	a1,1a78c <test_5+0x8>
0xa8dc 	180525af          	sc.w	a1,zero,(a0)
0xa8e0 	00100e93          	li	t4,1
0xa8e4 	00500e13          	li	t3,5
0xa8e8 	01d59463          	bne	a1,t4,1a7ac <fail>
0xa8ec 	05c01863          	bne	zero,t3,1a7f8 <pass>
0xa8f0 	04500513          	li	a0,69
0xa8f4 	00004137          	lui	sp,0x4
0xa8f8 	1d4030ef          	jal	ra,1d988 <printf_c>
0xa8fc 	05200513          	li	a0,82
0xa900 	00004137          	lui	sp,0x4
0xa904 	1c8030ef          	jal	ra,1d988 <printf_c>
0xa908 	00004137          	lui	sp,0x4
0xa90c 	1c0030ef          	jal	ra,1d988 <printf_c>
0xa910 	04f00513          	li	a0,79
0xa914 	00004137          	lui	sp,0x4
0xa918 	1b4030ef          	jal	ra,1d988 <printf_c>
0xa91c 	00004137          	lui	sp,0x4
0xa920 	05200513          	li	a0,82
0xa924 	00004137          	lui	sp,0x4
0xa928 	1a4030ef          	jal	ra,1d988 <printf_c>
0xa92c 	00a00513          	li	a0,10
0xa930 	00004137          	lui	sp,0x4
0xa934 	198030ef          	jal	ra,1d988 <printf_c>
0xa938 	89de506f          	j	90 <isaTestEnd>
0xa93c 	04f00513          	li	a0,79
0xa940 	00004137          	lui	sp,0x4
0xa944 	188030ef          	jal	ra,1d988 <printf_c>
0xa948 	04b00513          	li	a0,75
0xa94c 	00004137          	lui	sp,0x4
0xa950 	17c030ef          	jal	ra,1d988 <printf_c>
0xa954 	00a00513          	li	a0,10
0xa958 	00004137          	lui	sp,0x4
0xa95c 	170030ef          	jal	ra,1d988 <printf_c>
0xa960 	875e506f          	j	90 <isaTestEnd>
0xa964 	000227b7          	lui	a5,0x22
0xa968 	8e07c703          	lbu	a4,-1824(a5) # 218e0 <Ch_1_Glob>
0xa96c 	04100793          	li	a5,65
0xa970 	00f70463          	beq	a4,a5,1a834 <Proc_2+0x14>
0xa974 	00008067          	ret
0xa978 	00052783          	lw	a5,0(a0)
0xa97c 	00022737          	lui	a4,0x22
0xa980 	8dc72703          	lw	a4,-1828(a4) # 218dc <Int_Glob>
0xa984 	00978793          	addi	a5,a5,9
0xa988 	40e787b3          	sub	a5,a5,a4
0xa98c 	00f52023          	sw	a5,0(a0)
0xa990 	00008067          	ret
0xa994 	000227b7          	lui	a5,0x22
0xa998 	8e47a603          	lw	a2,-1820(a5) # 218e4 <Ptr_Glob>
0xa99c 	00060863          	beqz	a2,1a868 <Proc_3+0x18>
0xa9a0 	00062703          	lw	a4,0(a2)
0xa9a4 	00e52023          	sw	a4,0(a0)
0xa9a8 	8e47a603          	lw	a2,-1820(a5)
0xa9ac 	000227b7          	lui	a5,0x22
0xa9b0 	8dc7a583          	lw	a1,-1828(a5) # 218dc <Int_Glob>
0xa9b4 	00c60613          	addi	a2,a2,12
0xa9b8 	00a00513          	li	a0,10
0xa9bc 	0550006f          	j	1b0cc <Proc_7>
0xa9c0 	ff010113          	addi	sp,sp,-16 # 3ff0 <coremarkBenchmark+0x3f48>
0xa9c4 	00812423          	sw	s0,8(sp)
0xa9c8 	01212023          	sw	s2,0(sp)
0xa9cc 	00052403          	lw	s0,0(a0)
0xa9d0 	00022937          	lui	s2,0x22
0xa9d4 	8e492583          	lw	a1,-1820(s2) # 218e4 <Ptr_Glob>
0xa9d8 	00912223          	sw	s1,4(sp)
0xa9dc 	03000613          	li	a2,48
0xa9e0 	00050493          	mv	s1,a0
0xa9e4 	00040513          	mv	a0,s0
0xa9e8 	00112623          	sw	ra,12(sp)
0xa9ec 	4a0030ef          	jal	ra,1dd48 <memcpy>
0xa9f0 	0004a703          	lw	a4,0(s1)
0xa9f4 	00500793          	li	a5,5
0xa9f8 	00f4a623          	sw	a5,12(s1)
0xa9fc 	00f42623          	sw	a5,12(s0) # 1800c <test_9+0x4>
0xaa00 	00e42023          	sw	a4,0(s0)
0xaa04 	00040513          	mv	a0,s0
0xaa08 	f8dff0ef          	jal	ra,1a850 <Proc_3>
0xaa0c 	00442783          	lw	a5,4(s0)
0xaa10 	02078663          	beqz	a5,1a8f8 <Proc_1+0x7c>
0xaa14 	0004a583          	lw	a1,0(s1)
0xaa18 	00048513          	mv	a0,s1
0xaa1c 	03000613          	li	a2,48
0xaa20 	46c030ef          	jal	ra,1dd48 <memcpy>
0xaa24 	00c12083          	lw	ra,12(sp)
0xaa28 	00812403          	lw	s0,8(sp)
0xaa2c 	00412483          	lw	s1,4(sp)
0xaa30 	00012903          	lw	s2,0(sp)
0xaa34 	01010113          	addi	sp,sp,16
0xaa38 	00008067          	ret
0xaa3c 	0084a503          	lw	a0,8(s1)
0xaa40 	00600793          	li	a5,6
0xaa44 	00840593          	addi	a1,s0,8
0xaa48 	00f42623          	sw	a5,12(s0)
0xaa4c 	774000ef          	jal	ra,1b07c <Proc_6>
0xaa50 	8e492783          	lw	a5,-1820(s2)
0xaa54 	00c42503          	lw	a0,12(s0)
0xaa58 	00c40613          	addi	a2,s0,12
0xaa5c 	0007a783          	lw	a5,0(a5)
0xaa60 	00c12083          	lw	ra,12(sp)
0xaa64 	00412483          	lw	s1,4(sp)
0xaa68 	00f42023          	sw	a5,0(s0)
0xaa6c 	00812403          	lw	s0,8(sp)
0xaa70 	00012903          	lw	s2,0(sp)
0xaa74 	00a00593          	li	a1,10
0xaa78 	01010113          	addi	sp,sp,16
0xaa7c 	7940006f          	j	1b0cc <Proc_7>
0xaa80 	f5010113          	addi	sp,sp,-176
0xaa84 	03000513          	li	a0,48
0xaa88 	0a112623          	sw	ra,172(sp)
0xaa8c 	0a812423          	sw	s0,168(sp)
0xaa90 	09812423          	sw	s8,136(sp)
0xaa94 	00022437          	lui	s0,0x22
0xaa98 	09a12023          	sw	s10,128(sp)
0xaa9c 	0a912223          	sw	s1,164(sp)
0xaaa0 	0b212023          	sw	s2,160(sp)
0xaaa4 	09312e23          	sw	s3,156(sp)
0xaaa8 	09412c23          	sw	s4,152(sp)
0xaaac 	09512a23          	sw	s5,148(sp)
0xaab0 	09612823          	sw	s6,144(sp)
0xaab4 	09712623          	sw	s7,140(sp)
0xaab8 	09912223          	sw	s9,132(sp)
0xaabc 	07b12e23          	sw	s11,124(sp)
0xaac0 	7e1020ef          	jal	ra,1d95c <malloc>
0xaac4 	8ca42c23          	sw	a0,-1832(s0) # 218d8 <Next_Ptr_Glob>
0xaac8 	03000513          	li	a0,48
0xaacc 	7d5020ef          	jal	ra,1d95c <malloc>
0xaad0 	8d842783          	lw	a5,-1832(s0)
0xaad4 	00022c37          	lui	s8,0x22
0xaad8 	8eac2223          	sw	a0,-1820(s8) # 218e4 <Ptr_Glob>
0xaadc 	00f52023          	sw	a5,0(a0)
0xaae0 	00200793          	li	a5,2
0xaae4 	00f52423          	sw	a5,8(a0)
0xaae8 	0001e5b7          	lui	a1,0x1e
0xaaec 	02800793          	li	a5,40
0xaaf0 	00f52623          	sw	a5,12(a0)
0xaaf4 	fb058593          	addi	a1,a1,-80 # 1dfb0 <errpat+0x28>
0xaaf8 	00052223          	sw	zero,4(a0)
0xaafc 	01050513          	addi	a0,a0,16
0xab00 	3b0030ef          	jal	ra,1dd6c <strcpy>
0xab04 	0001e5b7          	lui	a1,0x1e
0xab08 	fd058593          	addi	a1,a1,-48 # 1dfd0 <errpat+0x48>
0xab0c 	03010513          	addi	a0,sp,48
0xab10 	3a0030ef          	jal	ra,1dd6c <strcpy>
0xab14 	0001f437          	lui	s0,0x1f
0xab18 	0001fd37          	lui	s10,0x1f
0xab1c 	00a00793          	li	a5,10
0xab20 	1c4d0713          	addi	a4,s10,452 # 1f1c4 <Arr_2_Glob>
0xab24 	81840513          	addi	a0,s0,-2024 # 1e818 <errpat+0x890>
0xab28 	64f72e23          	sw	a5,1628(a4)
0xab2c 	0a4030ef          	jal	ra,1da8c <printf>
0xab30 	0001e537          	lui	a0,0x1e
0xab34 	ff050513          	addi	a0,a0,-16 # 1dff0 <errpat+0x68>
0xab38 	098030ef          	jal	ra,1da8c <printf>
0xab3c 	81840513          	addi	a0,s0,-2024
0xab40 	090030ef          	jal	ra,1da8c <printf>
0xab44 	000227b7          	lui	a5,0x22
0xab48 	dbc7a783          	lw	a5,-580(a5) # 21dbc <Reg>
0xab4c 	60078863          	beqz	a5,1b018 <DHRYSTONE+0x6dc>
0xab50 	0001e537          	lui	a0,0x1e
0xab54 	02050513          	addi	a0,a0,32 # 1e020 <errpat+0x98>
0xab58 	078030ef          	jal	ra,1da8c <printf>
0xab5c 	81840513          	addi	a0,s0,-2024
0xab60 	070030ef          	jal	ra,1da8c <printf>
0xab64 	0001e537          	lui	a0,0x1e
0xab68 	07c50513          	addi	a0,a0,124 # 1e07c <errpat+0xf4>
0xab6c 	064030ef          	jal	ra,1da8c <printf>
0xab70 	0001f7b7          	lui	a5,0x1f
0xab74 	81878513          	addi	a0,a5,-2024 # 1e818 <errpat+0x890>
0xab78 	058030ef          	jal	ra,1da8c <printf>
0xab7c 	0001e537          	lui	a0,0x1e
0xab80 	06400593          	li	a1,100
0xab84 	0b450513          	addi	a0,a0,180 # 1e0b4 <errpat+0x12c>
0xab88 	048030ef          	jal	ra,1da8c <printf>
0xab8c 	00000513          	li	a0,0
0xab90 	68d020ef          	jal	ra,1d8d8 <time>
0xab94 	0001f7b7          	lui	a5,0x1f
0xab98 	1ca7a023          	sw	a0,448(a5) # 1f1c0 <Begin_Time>
0xab9c 	00000513          	li	a0,0
0xaba0 	685020ef          	jal	ra,1d8e0 <insn>
0xaba4 	000227b7          	lui	a5,0x22
0xaba8 	8ea7a423          	sw	a0,-1816(a5) # 218e8 <Begin_Insn>
0xabac 	00100493          	li	s1,1
0xabb0 	000229b7          	lui	s3,0x22
0xabb4 	00022a37          	lui	s4,0x22
0xabb8 	00022437          	lui	s0,0x22
0xabbc 	00022cb7          	lui	s9,0x22
0xabc0 	00022b37          	lui	s6,0x22
0xabc4 	00100a93          	li	s5,1
0xabc8 	0001ebb7          	lui	s7,0x1e
0xabcc 	0001e7b7          	lui	a5,0x1e
0xabd0 	0e478593          	addi	a1,a5,228 # 1e0e4 <errpat+0x15c>
0xabd4 	04100793          	li	a5,65
0xabd8 	8ef98023          	sb	a5,-1824(s3) # 218e0 <Ch_1_Glob>
0xabdc 	05010513          	addi	a0,sp,80
0xabe0 	04200793          	li	a5,66
0xabe4 	8ef400a3          	sb	a5,-1823(s0) # 218e1 <Ch_2_Glob>
0xabe8 	9b5a2a23          	sw	s5,-1612(s4) # 219b4 <Bool_Glob>
0xabec 	2c4030ef          	jal	ra,1dd6c <strcpy>
0xabf0 	05010593          	addi	a1,sp,80
0xabf4 	03010513          	addi	a0,sp,48
0xabf8 	03512623          	sw	s5,44(sp)
0xabfc 	6b0000ef          	jal	ra,1b168 <Func_2>
0xac00 	00153793          	seqz	a5,a0
0xac04 	02810613          	addi	a2,sp,40
0xac08 	00300593          	li	a1,3
0xac0c 	9afa2a23          	sw	a5,-1612(s4)
0xac10 	00200513          	li	a0,2
0xac14 	00700793          	li	a5,7
0xac18 	02f12423          	sw	a5,40(sp)
0xac1c 	5f4000ef          	jal	ra,1b0cc <Proc_7>
0xac20 	02812683          	lw	a3,40(sp)
0xac24 	00300613          	li	a2,3
0xac28 	1c4d0593          	addi	a1,s10,452
0xac2c 	8ecc8513          	addi	a0,s9,-1812 # 218ec <Arr_1_Glob>
0xac30 	5f0000ef          	jal	ra,1b0dc <Proc_8>
0xac34 	8e4c2503          	lw	a0,-1820(s8)
0xac38 	d89ff0ef          	jal	ra,1a87c <Proc_1>
0xac3c 	8e144703          	lbu	a4,-1823(s0)
0xac40 	04000793          	li	a5,64
0xac44 	50e7f863          	bleu	a4,a5,1b010 <DHRYSTONE+0x6d4>
0xac48 	04100d93          	li	s11,65
0xac4c 	00300913          	li	s2,3
0xac50 	0140006f          	j	1ab20 <DHRYSTONE+0x1e4>
0xac54 	8e144703          	lbu	a4,-1823(s0)
0xac58 	001d8793          	addi	a5,s11,1
0xac5c 	0ff7fd93          	andi	s11,a5,255
0xac60 	05b76463          	bltu	a4,s11,1ab64 <DHRYSTONE+0x228>
0xac64 	04300593          	li	a1,67
0xac68 	000d8513          	mv	a0,s11
0xac6c 	61c000ef          	jal	ra,1b144 <Func_1>
0xac70 	02c12703          	lw	a4,44(sp)
0xac74 	fee510e3          	bne	a0,a4,1ab10 <DHRYSTONE+0x1d4>
0xac78 	02c10593          	addi	a1,sp,44
0xac7c 	00000513          	li	a0,0
0xac80 	540000ef          	jal	ra,1b07c <Proc_6>
0xac84 	104b8593          	addi	a1,s7,260 # 1e104 <errpat+0x17c>
0xac88 	05010513          	addi	a0,sp,80
0xac8c 	224030ef          	jal	ra,1dd6c <strcpy>
0xac90 	8e144703          	lbu	a4,-1823(s0)
0xac94 	001d8793          	addi	a5,s11,1
0xac98 	8c9b2e23          	sw	s1,-1828(s6) # 218dc <Int_Glob>
0xac9c 	0ff7fd93          	andi	s11,a5,255
0xaca0 	00048913          	mv	s2,s1
0xaca4 	fdb770e3          	bleu	s11,a4,1ab20 <DHRYSTONE+0x1e4>
0xaca8 	00191793          	slli	a5,s2,0x1
0xacac 	01278933          	add	s2,a5,s2
0xacb0 	02812603          	lw	a2,40(sp)
0xacb4 	8e09c703          	lbu	a4,-1824(s3)
0xacb8 	04100593          	li	a1,65
0xacbc 	02c946b3          	div	a3,s2,a2
0xacc0 	00068793          	mv	a5,a3
0xacc4 	00b71863          	bne	a4,a1,1ab90 <DHRYSTONE+0x254>
0xacc8 	8dcb2783          	lw	a5,-1828(s6)
0xaccc 	00968713          	addi	a4,a3,9
0xacd0 	40f707b3          	sub	a5,a4,a5
0xacd4 	00148493          	addi	s1,s1,1
0xacd8 	06500713          	li	a4,101
0xacdc 	eee498e3          	bne	s1,a4,1aa88 <DHRYSTONE+0x14c>
0xace0 	00000513          	li	a0,0
0xace4 	00d12c23          	sw	a3,24(sp)
0xace8 	00c12a23          	sw	a2,20(sp)
0xacec 	00f12e23          	sw	a5,28(sp)
0xacf0 	52d020ef          	jal	ra,1d8d8 <time>
0xacf4 	00022737          	lui	a4,0x22
0xacf8 	8ca72a23          	sw	a0,-1836(a4) # 218d4 <End_Time>
0xacfc 	00000513          	li	a0,0
0xad00 	00e12823          	sw	a4,16(sp)
0xad04 	521020ef          	jal	ra,1d8e0 <insn>
0xad08 	00022837          	lui	a6,0x22
0xad0c 	9aa82c23          	sw	a0,-1608(a6) # 219b8 <End_Insn>
0xad10 	0001e537          	lui	a0,0x1e
0xad14 	12450513          	addi	a0,a0,292 # 1e124 <errpat+0x19c>
0xad18 	01012623          	sw	a6,12(sp)
0xad1c 	0001f4b7          	lui	s1,0x1f
0xad20 	6b1020ef          	jal	ra,1da8c <printf>
0xad24 	81848513          	addi	a0,s1,-2024 # 1e818 <errpat+0x890>
0xad28 	6a9020ef          	jal	ra,1da8c <printf>
0xad2c 	0001e537          	lui	a0,0x1e
0xad30 	13450513          	addi	a0,a0,308 # 1e134 <errpat+0x1ac>
0xad34 	69d020ef          	jal	ra,1da8c <printf>
0xad38 	81848513          	addi	a0,s1,-2024
0xad3c 	695020ef          	jal	ra,1da8c <printf>
0xad40 	8dcb2583          	lw	a1,-1828(s6)
0xad44 	0001e537          	lui	a0,0x1e
0xad48 	16c50513          	addi	a0,a0,364 # 1e16c <errpat+0x1e4>
0xad4c 	0001e4b7          	lui	s1,0x1e
0xad50 	681020ef          	jal	ra,1da8c <printf>
0xad54 	18848513          	addi	a0,s1,392 # 1e188 <errpat+0x200>
0xad58 	00500593          	li	a1,5
0xad5c 	675020ef          	jal	ra,1da8c <printf>
0xad60 	9b4a2583          	lw	a1,-1612(s4)
0xad64 	0001e537          	lui	a0,0x1e
0xad68 	1a450513          	addi	a0,a0,420 # 1e1a4 <errpat+0x21c>
0xad6c 	665020ef          	jal	ra,1da8c <printf>
0xad70 	18848513          	addi	a0,s1,392
0xad74 	00100593          	li	a1,1
0xad78 	659020ef          	jal	ra,1da8c <printf>
0xad7c 	8e09c583          	lbu	a1,-1824(s3)
0xad80 	0001e537          	lui	a0,0x1e
0xad84 	1c050513          	addi	a0,a0,448 # 1e1c0 <errpat+0x238>
0xad88 	649020ef          	jal	ra,1da8c <printf>
0xad8c 	0001e9b7          	lui	s3,0x1e
0xad90 	1dc98513          	addi	a0,s3,476 # 1e1dc <errpat+0x254>
0xad94 	04100593          	li	a1,65
0xad98 	639020ef          	jal	ra,1da8c <printf>
0xad9c 	8e144583          	lbu	a1,-1823(s0)
0xada0 	0001e537          	lui	a0,0x1e
0xada4 	1f850513          	addi	a0,a0,504 # 1e1f8 <errpat+0x270>
0xada8 	629020ef          	jal	ra,1da8c <printf>
0xadac 	1dc98513          	addi	a0,s3,476
0xadb0 	04200593          	li	a1,66
0xadb4 	61d020ef          	jal	ra,1da8c <printf>
0xadb8 	8ecc8c93          	addi	s9,s9,-1812
0xadbc 	020ca583          	lw	a1,32(s9)
0xadc0 	0001e537          	lui	a0,0x1e
0xadc4 	21450513          	addi	a0,a0,532 # 1e214 <errpat+0x28c>
0xadc8 	609020ef          	jal	ra,1da8c <printf>
0xadcc 	18848513          	addi	a0,s1,392
0xadd0 	00700593          	li	a1,7
0xadd4 	5fd020ef          	jal	ra,1da8c <printf>
0xadd8 	0001f7b7          	lui	a5,0x1f
0xaddc 	1c478793          	addi	a5,a5,452 # 1f1c4 <Arr_2_Glob>
0xade0 	65c7a583          	lw	a1,1628(a5)
0xade4 	0001e537          	lui	a0,0x1e
0xade8 	23050513          	addi	a0,a0,560 # 1e230 <errpat+0x2a8>
0xadec 	5e5020ef          	jal	ra,1da8c <printf>
0xadf0 	0001e537          	lui	a0,0x1e
0xadf4 	24c50513          	addi	a0,a0,588 # 1e24c <errpat+0x2c4>
0xadf8 	5d9020ef          	jal	ra,1da8c <printf>
0xadfc 	0001e537          	lui	a0,0x1e
0xae00 	27850513          	addi	a0,a0,632 # 1e278 <errpat+0x2f0>
0xae04 	5cd020ef          	jal	ra,1da8c <printf>
0xae08 	8e4c2583          	lw	a1,-1820(s8)
0xae0c 	0001e8b7          	lui	a7,0x1e
0xae10 	28488513          	addi	a0,a7,644 # 1e284 <errpat+0x2fc>
0xae14 	0005a583          	lw	a1,0(a1)
0xae18 	01112423          	sw	a7,8(sp)
0xae1c 	0001ecb7          	lui	s9,0x1e
0xae20 	5b1020ef          	jal	ra,1da8c <printf>
0xae24 	0001e537          	lui	a0,0x1e
0xae28 	2a050513          	addi	a0,a0,672 # 1e2a0 <errpat+0x318>
0xae2c 	5a5020ef          	jal	ra,1da8c <printf>
0xae30 	8e4c2583          	lw	a1,-1820(s8)
0xae34 	2d4c8513          	addi	a0,s9,724 # 1e2d4 <errpat+0x34c>
0xae38 	0001ebb7          	lui	s7,0x1e
0xae3c 	0045a583          	lw	a1,4(a1)
0xae40 	0001eb37          	lui	s6,0x1e
0xae44 	0001eab7          	lui	s5,0x1e
0xae48 	589020ef          	jal	ra,1da8c <printf>
0xae4c 	18848513          	addi	a0,s1,392
0xae50 	00000593          	li	a1,0
0xae54 	57d020ef          	jal	ra,1da8c <printf>
0xae58 	8e4c2583          	lw	a1,-1820(s8)
0xae5c 	2f0b8513          	addi	a0,s7,752 # 1e2f0 <errpat+0x368>
0xae60 	0001ea37          	lui	s4,0x1e
0xae64 	0085a583          	lw	a1,8(a1)
0xae68 	0001f437          	lui	s0,0x1f
0xae6c 	0001f9b7          	lui	s3,0x1f
0xae70 	561020ef          	jal	ra,1da8c <printf>
0xae74 	18848513          	addi	a0,s1,392
0xae78 	00200593          	li	a1,2
0xae7c 	555020ef          	jal	ra,1da8c <printf>
0xae80 	8e4c2583          	lw	a1,-1820(s8)
0xae84 	30cb0513          	addi	a0,s6,780 # 1e30c <errpat+0x384>
0xae88 	3e800d93          	li	s11,1000
0xae8c 	00c5a583          	lw	a1,12(a1)
0xae90 	00a00d13          	li	s10,10
0xae94 	53d020ef          	jal	ra,1da8c <printf>
0xae98 	18848513          	addi	a0,s1,392
0xae9c 	01100593          	li	a1,17
0xaea0 	531020ef          	jal	ra,1da8c <printf>
0xaea4 	8e4c2583          	lw	a1,-1820(s8)
0xaea8 	328a8513          	addi	a0,s5,808 # 1e328 <errpat+0x3a0>
0xaeac 	00022c37          	lui	s8,0x22
0xaeb0 	01058593          	addi	a1,a1,16
0xaeb4 	51d020ef          	jal	ra,1da8c <printf>
0xaeb8 	344a0513          	addi	a0,s4,836 # 1e344 <errpat+0x3bc>
0xaebc 	515020ef          	jal	ra,1da8c <printf>
0xaec0 	0001e537          	lui	a0,0x1e
0xaec4 	37c50513          	addi	a0,a0,892 # 1e37c <errpat+0x3f4>
0xaec8 	509020ef          	jal	ra,1da8c <printf>
0xaecc 	8d8c2583          	lw	a1,-1832(s8) # 218d8 <Next_Ptr_Glob>
0xaed0 	00812883          	lw	a7,8(sp)
0xaed4 	0005a583          	lw	a1,0(a1)
0xaed8 	28488513          	addi	a0,a7,644
0xaedc 	4f5020ef          	jal	ra,1da8c <printf>
0xaee0 	0001e537          	lui	a0,0x1e
0xaee4 	39050513          	addi	a0,a0,912 # 1e390 <errpat+0x408>
0xaee8 	4e9020ef          	jal	ra,1da8c <printf>
0xaeec 	8d8c2583          	lw	a1,-1832(s8)
0xaef0 	2d4c8513          	addi	a0,s9,724
0xaef4 	0045a583          	lw	a1,4(a1)
0xaef8 	4d9020ef          	jal	ra,1da8c <printf>
0xaefc 	18848513          	addi	a0,s1,392
0xaf00 	00000593          	li	a1,0
0xaf04 	4cd020ef          	jal	ra,1da8c <printf>
0xaf08 	8d8c2583          	lw	a1,-1832(s8)
0xaf0c 	2f0b8513          	addi	a0,s7,752
0xaf10 	0085a583          	lw	a1,8(a1)
0xaf14 	4bd020ef          	jal	ra,1da8c <printf>
0xaf18 	18848513          	addi	a0,s1,392
0xaf1c 	00100593          	li	a1,1
0xaf20 	4b1020ef          	jal	ra,1da8c <printf>
0xaf24 	8d8c2583          	lw	a1,-1832(s8)
0xaf28 	30cb0513          	addi	a0,s6,780
0xaf2c 	00c5a583          	lw	a1,12(a1)
0xaf30 	4a1020ef          	jal	ra,1da8c <printf>
0xaf34 	18848513          	addi	a0,s1,392
0xaf38 	01200593          	li	a1,18
0xaf3c 	495020ef          	jal	ra,1da8c <printf>
0xaf40 	8d8c2583          	lw	a1,-1832(s8)
0xaf44 	328a8513          	addi	a0,s5,808
0xaf48 	01058593          	addi	a1,a1,16
0xaf4c 	485020ef          	jal	ra,1da8c <printf>
0xaf50 	344a0513          	addi	a0,s4,836
0xaf54 	47d020ef          	jal	ra,1da8c <printf>
0xaf58 	01c12783          	lw	a5,28(sp)
0xaf5c 	0001e537          	lui	a0,0x1e
0xaf60 	3d050513          	addi	a0,a0,976 # 1e3d0 <errpat+0x448>
0xaf64 	00078593          	mv	a1,a5
0xaf68 	469020ef          	jal	ra,1da8c <printf>
0xaf6c 	18848513          	addi	a0,s1,392
0xaf70 	00500593          	li	a1,5
0xaf74 	45d020ef          	jal	ra,1da8c <printf>
0xaf78 	01412603          	lw	a2,20(sp)
0xaf7c 	01812683          	lw	a3,24(sp)
0xaf80 	0001e537          	lui	a0,0x1e
0xaf84 	40c90933          	sub	s2,s2,a2
0xaf88 	00391793          	slli	a5,s2,0x3
0xaf8c 	41278933          	sub	s2,a5,s2
0xaf90 	40d905b3          	sub	a1,s2,a3
0xaf94 	3ec50513          	addi	a0,a0,1004 # 1e3ec <errpat+0x464>
0xaf98 	439020ef          	jal	ra,1da8c <printf>
0xaf9c 	18848513          	addi	a0,s1,392
0xafa0 	00d00593          	li	a1,13
0xafa4 	42d020ef          	jal	ra,1da8c <printf>
0xafa8 	02812583          	lw	a1,40(sp)
0xafac 	0001e537          	lui	a0,0x1e
0xafb0 	40850513          	addi	a0,a0,1032 # 1e408 <errpat+0x480>
0xafb4 	41d020ef          	jal	ra,1da8c <printf>
0xafb8 	18848513          	addi	a0,s1,392
0xafbc 	00700593          	li	a1,7
0xafc0 	411020ef          	jal	ra,1da8c <printf>
0xafc4 	02c12583          	lw	a1,44(sp)
0xafc8 	0001e537          	lui	a0,0x1e
0xafcc 	42450513          	addi	a0,a0,1060 # 1e424 <errpat+0x49c>
0xafd0 	401020ef          	jal	ra,1da8c <printf>
0xafd4 	18848513          	addi	a0,s1,392
0xafd8 	00100593          	li	a1,1
0xafdc 	3f5020ef          	jal	ra,1da8c <printf>
0xafe0 	0001e537          	lui	a0,0x1e
0xafe4 	03010593          	addi	a1,sp,48
0xafe8 	44050513          	addi	a0,a0,1088 # 1e440 <errpat+0x4b8>
0xafec 	3e5020ef          	jal	ra,1da8c <printf>
0xaff0 	0001e537          	lui	a0,0x1e
0xaff4 	45c50513          	addi	a0,a0,1116 # 1e45c <errpat+0x4d4>
0xaff8 	3d9020ef          	jal	ra,1da8c <printf>
0xaffc 	0001e537          	lui	a0,0x1e
0xb000 	05010593          	addi	a1,sp,80
0xb004 	49450513          	addi	a0,a0,1172 # 1e494 <errpat+0x50c>
0xb008 	3c9020ef          	jal	ra,1da8c <printf>
0xb00c 	0001e537          	lui	a0,0x1e
0xb010 	4b050513          	addi	a0,a0,1200 # 1e4b0 <errpat+0x528>
0xb014 	3bd020ef          	jal	ra,1da8c <printf>
0xb018 	0001f4b7          	lui	s1,0x1f
0xb01c 	81848513          	addi	a0,s1,-2024 # 1e818 <errpat+0x890>
0xb020 	3b1020ef          	jal	ra,1da8c <printf>
0xb024 	00c12803          	lw	a6,12(sp)
0xb028 	01012703          	lw	a4,16(sp)
0xb02c 	0001f7b7          	lui	a5,0x1f
0xb030 	000226b7          	lui	a3,0x22
0xb034 	1c07a603          	lw	a2,448(a5) # 1f1c0 <Begin_Time>
0xb038 	8e86a683          	lw	a3,-1816(a3) # 218e8 <Begin_Insn>
0xb03c 	9b882783          	lw	a5,-1608(a6)
0xb040 	8d472703          	lw	a4,-1836(a4)
0xb044 	0001e537          	lui	a0,0x1e
0xb048 	40d787b3          	sub	a5,a5,a3
0xb04c 	40c70733          	sub	a4,a4,a2
0xb050 	06400593          	li	a1,100
0xb054 	4e850513          	addi	a0,a0,1256 # 1e4e8 <errpat+0x560>
0xb058 	1ae42e23          	sw	a4,444(s0) # 1f1bc <User_Time>
0xb05c 	1af9ac23          	sw	a5,440(s3) # 1f1b8 <User_Insn>
0xb060 	371020ef          	jal	ra,1da8c <printf>
0xb064 	1b89a603          	lw	a2,440(s3)
0xb068 	1bc42583          	lw	a1,444(s0)
0xb06c 	0001e537          	lui	a0,0x1e
0xb070 	4fc50513          	addi	a0,a0,1276 # 1e4fc <errpat+0x574>
0xb074 	35d020ef          	jal	ra,1da8c <printf>
0xb078 	1bc42583          	lw	a1,444(s0)
0xb07c 	1b89a783          	lw	a5,440(s3)
0xb080 	06400613          	li	a2,100
0xb084 	02bd85b3          	mul	a1,s11,a1
0xb088 	0001e537          	lui	a0,0x1e
0xb08c 	52450513          	addi	a0,a0,1316 # 1e524 <errpat+0x59c>
0xb090 	02f5c5b3          	div	a1,a1,a5
0xb094 	03a5c6b3          	div	a3,a1,s10
0xb098 	02c5c633          	div	a2,a1,a2
0xb09c 	03a5e733          	rem	a4,a1,s10
0xb0a0 	03a6e6b3          	rem	a3,a3,s10
0xb0a4 	03a66633          	rem	a2,a2,s10
0xb0a8 	03b5c5b3          	div	a1,a1,s11
0xb0ac 	325020ef          	jal	ra,1da8c <printf>
0xb0b0 	1bc42403          	lw	s0,444(s0)
0xb0b4 	05f5e7b7          	lui	a5,0x5f5e
0xb0b8 	10078793          	addi	a5,a5,256 # 5f5e100 <heap_memory_used+0x5f3c328>
0xb0bc 	0287c433          	div	s0,a5,s0
0xb0c0 	0001e537          	lui	a0,0x1e
0xb0c4 	54850513          	addi	a0,a0,1352 # 1e548 <errpat+0x5c0>
0xb0c8 	00040593          	mv	a1,s0
0xb0cc 	03b40433          	mul	s0,s0,s11
0xb0d0 	301020ef          	jal	ra,1da8c <printf>
0xb0d4 	000046b7          	lui	a3,0x4
0xb0d8 	0002b637          	lui	a2,0x2b
0xb0dc 	6dd00713          	li	a4,1757
0xb0e0 	4a268693          	addi	a3,a3,1186 # 44a2 <coremarkBenchmark+0x43fa>
0xb0e4 	e5460613          	addi	a2,a2,-428 # 2ae54 <heap_memory_used+0x907c>
0xb0e8 	001ad5b7          	lui	a1,0x1ad
0xb0ec 	f4858593          	addi	a1,a1,-184 # 1acf48 <heap_memory_used+0x18b170>
0xb0f0 	0001e537          	lui	a0,0x1e
0xb0f4 	02e44733          	div	a4,s0,a4
0xb0f8 	56c50513          	addi	a0,a0,1388 # 1e56c <errpat+0x5e4>
0xb0fc 	02d446b3          	div	a3,s0,a3
0xb100 	02c44633          	div	a2,s0,a2
0xb104 	03a76733          	rem	a4,a4,s10
0xb108 	03a6e6b3          	rem	a3,a3,s10
0xb10c 	03a66633          	rem	a2,a2,s10
0xb110 	02b445b3          	div	a1,s0,a1
0xb114 	2bd020ef          	jal	ra,1da8c <printf>
0xb118 	0ac12083          	lw	ra,172(sp)
0xb11c 	0a812403          	lw	s0,168(sp)
0xb120 	0a412483          	lw	s1,164(sp)
0xb124 	0a012903          	lw	s2,160(sp)
0xb128 	09c12983          	lw	s3,156(sp)
0xb12c 	09812a03          	lw	s4,152(sp)
0xb130 	09412a83          	lw	s5,148(sp)
0xb134 	09012b03          	lw	s6,144(sp)
0xb138 	08c12b83          	lw	s7,140(sp)
0xb13c 	08812c03          	lw	s8,136(sp)
0xb140 	08412c83          	lw	s9,132(sp)
0xb144 	08012d03          	lw	s10,128(sp)
0xb148 	07c12d83          	lw	s11,124(sp)
0xb14c 	0b010113          	addi	sp,sp,176
0xb150 	00008067          	ret
0xb154 	00900913          	li	s2,9
0xb158 	b59ff06f          	j	1ab6c <DHRYSTONE+0x230>
0xb15c 	0001e537          	lui	a0,0x1e
0xb160 	04c50513          	addi	a0,a0,76 # 1e04c <errpat+0xc4>
0xb164 	26d020ef          	jal	ra,1da8c <printf>
0xb168 	0001f7b7          	lui	a5,0x1f
0xb16c 	81878513          	addi	a0,a5,-2024 # 1e818 <errpat+0x890>
0xb170 	261020ef          	jal	ra,1da8c <printf>
0xb174 	9f1ff06f          	j	1aa20 <DHRYSTONE+0xe4>
0xb178 	000227b7          	lui	a5,0x22
0xb17c 	8e07c783          	lbu	a5,-1824(a5) # 218e0 <Ch_1_Glob>
0xb180 	00022737          	lui	a4,0x22
0xb184 	9b472683          	lw	a3,-1612(a4) # 219b4 <Bool_Glob>
0xb188 	fbf78793          	addi	a5,a5,-65
0xb18c 	0017b793          	seqz	a5,a5
0xb190 	00d7e7b3          	or	a5,a5,a3
0xb194 	9af72a23          	sw	a5,-1612(a4)
0xb198 	000227b7          	lui	a5,0x22
0xb19c 	04200713          	li	a4,66
0xb1a0 	8ee780a3          	sb	a4,-1823(a5) # 218e1 <Ch_2_Glob>
0xb1a4 	00008067          	ret
0xb1a8 	000227b7          	lui	a5,0x22
0xb1ac 	04100713          	li	a4,65
0xb1b0 	8ee78023          	sb	a4,-1824(a5) # 218e0 <Ch_1_Glob>
0xb1b4 	000227b7          	lui	a5,0x22
0xb1b8 	9a07aa23          	sw	zero,-1612(a5) # 219b4 <Bool_Glob>
0xb1bc 	00008067          	ret
0xb1c0 	00200793          	li	a5,2
0xb1c4 	04f50063          	beq	a0,a5,1b0c0 <Proc_6+0x44>
0xb1c8 	00300713          	li	a4,3
0xb1cc 	00e5a023          	sw	a4,0(a1)
0xb1d0 	00100713          	li	a4,1
0xb1d4 	00e50c63          	beq	a0,a4,1b0a8 <Proc_6+0x2c>
0xb1d8 	02050263          	beqz	a0,1b0b8 <Proc_6+0x3c>
0xb1dc 	00400713          	li	a4,4
0xb1e0 	00e51463          	bne	a0,a4,1b0a4 <Proc_6+0x28>
0xb1e4 	00f5a023          	sw	a5,0(a1)
0xb1e8 	00008067          	ret
0xb1ec 	000227b7          	lui	a5,0x22
0xb1f0 	8dc7a703          	lw	a4,-1828(a5) # 218dc <Int_Glob>
0xb1f4 	06400793          	li	a5,100
0xb1f8 	fee7d8e3          	ble	a4,a5,1b0a4 <Proc_6+0x28>
0xb1fc 	0005a023          	sw	zero,0(a1)
0xb200 	00008067          	ret
0xb204 	00100793          	li	a5,1
0xb208 	00f5a023          	sw	a5,0(a1)
0xb20c 	00008067          	ret
0xb210 	00250513          	addi	a0,a0,2
0xb214 	00b505b3          	add	a1,a0,a1
0xb218 	00b62023          	sw	a1,0(a2)
0xb21c 	00008067          	ret
0xb220 	00560713          	addi	a4,a2,5
0xb224 	0c800813          	li	a6,200
0xb228 	03070833          	mul	a6,a4,a6
0xb22c 	00261613          	slli	a2,a2,0x2
0xb230 	00271793          	slli	a5,a4,0x2
0xb234 	00f50533          	add	a0,a0,a5
0xb238 	00d52023          	sw	a3,0(a0)
0xb23c 	06e52c23          	sw	a4,120(a0)
0xb240 	00d52223          	sw	a3,4(a0)
0xb244 	00c807b3          	add	a5,a6,a2
0xb248 	00f587b3          	add	a5,a1,a5
0xb24c 	0107a683          	lw	a3,16(a5)
0xb250 	00e7aa23          	sw	a4,20(a5)
0xb254 	00e7ac23          	sw	a4,24(a5)
0xb258 	00168713          	addi	a4,a3,1
0xb25c 	00e7a823          	sw	a4,16(a5)
0xb260 	00052783          	lw	a5,0(a0)
0xb264 	010585b3          	add	a1,a1,a6
0xb268 	00c585b3          	add	a1,a1,a2
0xb26c 	00001637          	lui	a2,0x1
0xb270 	00b605b3          	add	a1,a2,a1
0xb274 	faf5aa23          	sw	a5,-76(a1)
0xb278 	00500713          	li	a4,5
0xb27c 	000227b7          	lui	a5,0x22
0xb280 	8ce7ae23          	sw	a4,-1828(a5) # 218dc <Int_Glob>
0xb284 	00008067          	ret
0xb288 	0ff57513          	andi	a0,a0,255
0xb28c 	0ff5f593          	andi	a1,a1,255
0xb290 	00b50663          	beq	a0,a1,1b158 <Func_1+0x14>
0xb294 	00000513          	li	a0,0
0xb298 	00008067          	ret
0xb29c 	000227b7          	lui	a5,0x22
0xb2a0 	8ea78023          	sb	a0,-1824(a5) # 218e0 <Ch_1_Glob>
0xb2a4 	00100513          	li	a0,1
0xb2a8 	00008067          	ret
0xb2ac 	ff010113          	addi	sp,sp,-16
0xb2b0 	00112623          	sw	ra,12(sp)
0xb2b4 	00022837          	lui	a6,0x22
0xb2b8 	00254783          	lbu	a5,2(a0)
0xb2bc 	0035c683          	lbu	a3,3(a1)
0xb2c0 	8e084603          	lbu	a2,-1824(a6) # 218e0 <Ch_1_Glob>
0xb2c4 	00000713          	li	a4,0
0xb2c8 	02d78a63          	beq	a5,a3,1b1b8 <Func_2+0x50>
0xb2cc 	02071e63          	bnez	a4,1b1c4 <Func_2+0x5c>
0xb2d0 	491020ef          	jal	ra,1de1c <strcmp>
0xb2d4 	00000793          	li	a5,0
0xb2d8 	00a05a63          	blez	a0,1b1a8 <Func_2+0x40>
0xb2dc 	000227b7          	lui	a5,0x22
0xb2e0 	00a00713          	li	a4,10
0xb2e4 	8ce7ae23          	sw	a4,-1828(a5) # 218dc <Int_Glob>
0xb2e8 	00100793          	li	a5,1
0xb2ec 	00c12083          	lw	ra,12(sp)
0xb2f0 	00078513          	mv	a0,a5
0xb2f4 	01010113          	addi	sp,sp,16
0xb2f8 	00008067          	ret
0xb2fc 	00100713          	li	a4,1
0xb300 	00078613          	mv	a2,a5
0xb304 	fc5ff06f          	j	1b184 <Func_2+0x1c>
0xb308 	8ec80023          	sb	a2,-1824(a6)
0xb30c 	fc5ff06f          	j	1b18c <Func_2+0x24>
0xb310 	ffe50513          	addi	a0,a0,-2
0xb314 	00153513          	seqz	a0,a0
0xb318 	00008067          	ret
0xb31c 	02061e63          	bnez	a2,1b214 <cmp_idx+0x3c>
0xb320 	00051783          	lh	a5,0(a0)
0xb324 	01079713          	slli	a4,a5,0x10
0xb328 	01075713          	srli	a4,a4,0x10
0xb32c 	00875713          	srli	a4,a4,0x8
0xb330 	f007f793          	andi	a5,a5,-256
0xb334 	00e7e7b3          	or	a5,a5,a4
0xb338 	00f51023          	sh	a5,0(a0)
0xb33c 	00059783          	lh	a5,0(a1)
0xb340 	01079713          	slli	a4,a5,0x10
0xb344 	01075713          	srli	a4,a4,0x10
0xb348 	f007f793          	andi	a5,a5,-256
0xb34c 	00875713          	srli	a4,a4,0x8
0xb350 	00e7e7b3          	or	a5,a5,a4
0xb354 	00f59023          	sh	a5,0(a1)
0xb358 	00251503          	lh	a0,2(a0)
0xb35c 	00259783          	lh	a5,2(a1)
0xb360 	40f50533          	sub	a0,a0,a5
0xb364 	00008067          	ret
0xb368 	fe010113          	addi	sp,sp,-32
0xb36c 	00812c23          	sw	s0,24(sp)
0xb370 	00051403          	lh	s0,0(a0)
0xb374 	01212823          	sw	s2,16(sp)
0xb378 	00112e23          	sw	ra,28(sp)
0xb37c 	40745793          	srai	a5,s0,0x7
0xb380 	00912a23          	sw	s1,20(sp)
0xb384 	01312623          	sw	s3,12(sp)
0xb388 	0017f793          	andi	a5,a5,1
0xb38c 	07f47913          	andi	s2,s0,127
0xb390 	08079263          	bnez	a5,1b2d0 <calc_func+0xac>
0xb394 	00058493          	mv	s1,a1
0xb398 	40345593          	srai	a1,s0,0x3
0xb39c 	00f5f593          	andi	a1,a1,15
0xb3a0 	00459793          	slli	a5,a1,0x4
0xb3a4 	00747713          	andi	a4,s0,7
0xb3a8 	00b7e5b3          	or	a1,a5,a1
0xb3ac 	00050993          	mv	s3,a0
0xb3b0 	0384d783          	lhu	a5,56(s1)
0xb3b4 	08070063          	beqz	a4,1b2f0 <calc_func+0xcc>
0xb3b8 	00100693          	li	a3,1
0xb3bc 	02d71663          	bne	a4,a3,1b2a4 <calc_func+0x80>
0xb3c0 	00078613          	mv	a2,a5
0xb3c4 	02848513          	addi	a0,s1,40
0xb3c8 	519010ef          	jal	ra,1cf9c <core_bench_matrix>
0xb3cc 	03c4d783          	lhu	a5,60(s1)
0xb3d0 	01051913          	slli	s2,a0,0x10
0xb3d4 	41095913          	srai	s2,s2,0x10
0xb3d8 	00079463          	bnez	a5,1b29c <calc_func+0x78>
0xb3dc 	02a49e23          	sh	a0,60(s1)
0xb3e0 	0384d783          	lhu	a5,56(s1)
0xb3e4 	0080006f          	j	1b2a8 <calc_func+0x84>
0xb3e8 	00040913          	mv	s2,s0
0xb3ec 	01091513          	slli	a0,s2,0x10
0xb3f0 	00078593          	mv	a1,a5
0xb3f4 	01055513          	srli	a0,a0,0x10
0xb3f8 	f0047413          	andi	s0,s0,-256
0xb3fc 	530020ef          	jal	ra,1d7e8 <crcu16>
0xb400 	07f97913          	andi	s2,s2,127
0xb404 	08046413          	ori	s0,s0,128
0xb408 	02a49c23          	sh	a0,56(s1)
0xb40c 	00896433          	or	s0,s2,s0
0xb410 	00899023          	sh	s0,0(s3)
0xb414 	01c12083          	lw	ra,28(sp)
0xb418 	01812403          	lw	s0,24(sp)
0xb41c 	00090513          	mv	a0,s2
0xb420 	01412483          	lw	s1,20(sp)
0xb424 	01012903          	lw	s2,16(sp)
0xb428 	00c12983          	lw	s3,12(sp)
0xb42c 	02010113          	addi	sp,sp,32
0xb430 	00008067          	ret
0xb434 	02200693          	li	a3,34
0xb438 	00058713          	mv	a4,a1
0xb43c 	00d5d463          	ble	a3,a1,1b300 <calc_func+0xdc>
0xb440 	02200713          	li	a4,34
0xb444 	00249683          	lh	a3,2(s1)
0xb448 	00049603          	lh	a2,0(s1)
0xb44c 	0144a583          	lw	a1,20(s1)
0xb450 	0184a503          	lw	a0,24(s1)
0xb454 	0ff77713          	andi	a4,a4,255
0xb458 	1fc020ef          	jal	ra,1d510 <core_bench_state>
0xb45c 	03e4d783          	lhu	a5,62(s1)
0xb460 	01051913          	slli	s2,a0,0x10
0xb464 	41095913          	srai	s2,s2,0x10
0xb468 	f6079ce3          	bnez	a5,1b29c <calc_func+0x78>
0xb46c 	02a49f23          	sh	a0,62(s1)
0xb470 	0384d783          	lhu	a5,56(s1)
0xb474 	f79ff06f          	j	1b2a8 <calc_func+0x84>
0xb478 	ff010113          	addi	sp,sp,-16
0xb47c 	01212023          	sw	s2,0(sp)
0xb480 	00058913          	mv	s2,a1
0xb484 	00060593          	mv	a1,a2
0xb488 	00112623          	sw	ra,12(sp)
0xb48c 	00812423          	sw	s0,8(sp)
0xb490 	00912223          	sw	s1,4(sp)
0xb494 	00060413          	mv	s0,a2
0xb498 	ed1ff0ef          	jal	ra,1b224 <calc_func>
0xb49c 	00050493          	mv	s1,a0
0xb4a0 	00040593          	mv	a1,s0
0xb4a4 	00090513          	mv	a0,s2
0xb4a8 	ec1ff0ef          	jal	ra,1b224 <calc_func>
0xb4ac 	00c12083          	lw	ra,12(sp)
0xb4b0 	00812403          	lw	s0,8(sp)
0xb4b4 	40a48533          	sub	a0,s1,a0
0xb4b8 	00012903          	lw	s2,0(sp)
0xb4bc 	00412483          	lw	s1,4(sp)
0xb4c0 	01010113          	addi	sp,sp,16
0xb4c4 	00008067          	ret
0xb4c8 	00059703          	lh	a4,0(a1)
0xb4cc 	00259783          	lh	a5,2(a1)
0xb4d0 	00e51023          	sh	a4,0(a0)
0xb4d4 	00f51123          	sh	a5,2(a0)
0xb4d8 	00008067          	ret
0xb4dc 	00062803          	lw	a6,0(a2) # 1000 <coremarkBenchmark+0xf58>
0xb4e0 	00880893          	addi	a7,a6,8
0xb4e4 	04e8f663          	bleu	a4,a7,1b3ec <core_list_insert_new+0x54>
0xb4e8 	0006a703          	lw	a4,0(a3)
0xb4ec 	00470313          	addi	t1,a4,4
0xb4f0 	04f37063          	bleu	a5,t1,1b3ec <core_list_insert_new+0x54>
0xb4f4 	01162023          	sw	a7,0(a2)
0xb4f8 	00052783          	lw	a5,0(a0)
0xb4fc 	00059883          	lh	a7,0(a1)
0xb500 	00259603          	lh	a2,2(a1)
0xb504 	00f82023          	sw	a5,0(a6)
0xb508 	01052023          	sw	a6,0(a0)
0xb50c 	00e82223          	sw	a4,4(a6)
0xb510 	0006a783          	lw	a5,0(a3)
0xb514 	00080513          	mv	a0,a6
0xb518 	00478793          	addi	a5,a5,4
0xb51c 	00f6a023          	sw	a5,0(a3)
0xb520 	00482783          	lw	a5,4(a6)
0xb524 	01179023          	sh	a7,0(a5)
0xb528 	00c79123          	sh	a2,2(a5)
0xb52c 	00008067          	ret
0xb530 	00000813          	li	a6,0
0xb534 	00080513          	mv	a0,a6
0xb538 	00008067          	ret
0xb53c 	00052783          	lw	a5,0(a0)
0xb540 	00452603          	lw	a2,4(a0)
0xb544 	00050713          	mv	a4,a0
0xb548 	0047a583          	lw	a1,4(a5)
0xb54c 	0007a683          	lw	a3,0(a5)
0xb550 	00078513          	mv	a0,a5
0xb554 	00b72223          	sw	a1,4(a4)
0xb558 	00c7a223          	sw	a2,4(a5)
0xb55c 	00d72023          	sw	a3,0(a4)
0xb560 	0007a023          	sw	zero,0(a5)
0xb564 	00008067          	ret
0xb568 	0045a603          	lw	a2,4(a1)
0xb56c 	00452683          	lw	a3,4(a0)
0xb570 	0005a703          	lw	a4,0(a1)
0xb574 	00c52223          	sw	a2,4(a0)
0xb578 	00d5a223          	sw	a3,4(a1)
0xb57c 	00e52023          	sw	a4,0(a0)
0xb580 	00a5a023          	sw	a0,0(a1)
0xb584 	00008067          	ret
0xb588 	00259703          	lh	a4,2(a1)
0xb58c 	02074863          	bltz	a4,1b478 <core_list_find+0x34>
0xb590 	02050463          	beqz	a0,1b474 <core_list_find+0x30>
0xb594 	00452783          	lw	a5,4(a0)
0xb598 	00279783          	lh	a5,2(a5)
0xb59c 	00e79a63          	bne	a5,a4,1b46c <core_list_find+0x28>
0xb5a0 	0500006f          	j	1b4ac <core_list_find+0x68>
0xb5a4 	00452783          	lw	a5,4(a0)
0xb5a8 	00279783          	lh	a5,2(a5)
0xb5ac 	00e78663          	beq	a5,a4,1b474 <core_list_find+0x30>
0xb5b0 	00052503          	lw	a0,0(a0)
0xb5b4 	fe0518e3          	bnez	a0,1b460 <core_list_find+0x1c>
0xb5b8 	00008067          	ret
0xb5bc 	fe050ee3          	beqz	a0,1b474 <core_list_find+0x30>
0xb5c0 	00452783          	lw	a5,4(a0)
0xb5c4 	00059703          	lh	a4,0(a1)
0xb5c8 	0007c783          	lbu	a5,0(a5)
0xb5cc 	00e79a63          	bne	a5,a4,1b49c <core_list_find+0x58>
0xb5d0 	0240006f          	j	1b4b0 <core_list_find+0x6c>
0xb5d4 	00452783          	lw	a5,4(a0)
0xb5d8 	0007c783          	lbu	a5,0(a5)
0xb5dc 	00e78863          	beq	a5,a4,1b4a8 <core_list_find+0x64>
0xb5e0 	00052503          	lw	a0,0(a0)
0xb5e4 	fe0518e3          	bnez	a0,1b490 <core_list_find+0x4c>
0xb5e8 	fd1ff06f          	j	1b474 <core_list_find+0x30>
0xb5ec 	00008067          	ret
0xb5f0 	00008067          	ret
0xb5f4 	00008067          	ret
0xb5f8 	02050063          	beqz	a0,1b4d4 <core_list_reverse+0x20>
0xb5fc 	00000713          	li	a4,0
0xb600 	0080006f          	j	1b4c4 <core_list_reverse+0x10>
0xb604 	00078513          	mv	a0,a5
0xb608 	00052783          	lw	a5,0(a0)
0xb60c 	00e52023          	sw	a4,0(a0)
0xb610 	00050713          	mv	a4,a0
0xb614 	fe0798e3          	bnez	a5,1b4c0 <core_list_reverse+0xc>
0xb618 	00008067          	ret
0xb61c 	fd010113          	addi	sp,sp,-48
0xb620 	01412c23          	sw	s4,24(sp)
0xb624 	01512a23          	sw	s5,20(sp)
0xb628 	01712623          	sw	s7,12(sp)
0xb62c 	01812423          	sw	s8,8(sp)
0xb630 	01a12023          	sw	s10,0(sp)
0xb634 	02112623          	sw	ra,44(sp)
0xb638 	02812423          	sw	s0,40(sp)
0xb63c 	02912223          	sw	s1,36(sp)
0xb640 	03212023          	sw	s2,32(sp)
0xb644 	01312e23          	sw	s3,28(sp)
0xb648 	01612823          	sw	s6,16(sp)
0xb64c 	01912223          	sw	s9,4(sp)
0xb650 	00050a13          	mv	s4,a0
0xb654 	00058c13          	mv	s8,a1
0xb658 	00060b93          	mv	s7,a2
0xb65c 	00100a93          	li	s5,1
0xb660 	00100d13          	li	s10,1
0xb664 	0a0a0e63          	beqz	s4,1b5dc <core_list_mergesort+0x104>
0xb668 	00000c93          	li	s9,0
0xb66c 	00000913          	li	s2,0
0xb670 	00000b13          	li	s6,0
0xb674 	001c8c93          	addi	s9,s9,1
0xb678 	000a0413          	mv	s0,s4
0xb67c 	00000493          	li	s1,0
0xb680 	00042403          	lw	s0,0(s0)
0xb684 	00148493          	addi	s1,s1,1
0xb688 	00040463          	beqz	s0,1b54c <core_list_mergesort+0x74>
0xb68c 	fe9a9ae3          	bne	s5,s1,1b53c <core_list_mergesort+0x64>
0xb690 	000a8993          	mv	s3,s5
0xb694 	02048e63          	beqz	s1,1b58c <core_list_mergesort+0xb4>
0xb698 	04098e63          	beqz	s3,1b5b0 <core_list_mergesort+0xd8>
0xb69c 	04040c63          	beqz	s0,1b5b0 <core_list_mergesort+0xd8>
0xb6a0 	00442583          	lw	a1,4(s0)
0xb6a4 	004a2503          	lw	a0,4(s4)
0xb6a8 	000b8613          	mv	a2,s7
0xb6ac 	000c00e7          	jalr	s8
0xb6b0 	04a05263          	blez	a0,1b5b0 <core_list_mergesort+0xd8>
0xb6b4 	00040793          	mv	a5,s0
0xb6b8 	00042403          	lw	s0,0(s0)
0xb6bc 	fff98993          	addi	s3,s3,-1
0xb6c0 	02090463          	beqz	s2,1b5a4 <core_list_mergesort+0xcc>
0xb6c4 	00f92023          	sw	a5,0(s2)
0xb6c8 	00078913          	mv	s2,a5
0xb6cc 	fc0496e3          	bnez	s1,1b554 <core_list_mergesort+0x7c>
0xb6d0 	02098a63          	beqz	s3,1b5c0 <core_list_mergesort+0xe8>
0xb6d4 	02040c63          	beqz	s0,1b5c8 <core_list_mergesort+0xf0>
0xb6d8 	00040793          	mv	a5,s0
0xb6dc 	fff98993          	addi	s3,s3,-1
0xb6e0 	00042403          	lw	s0,0(s0)
0xb6e4 	fe0910e3          	bnez	s2,1b580 <core_list_mergesort+0xa8>
0xb6e8 	00078b13          	mv	s6,a5
0xb6ec 	00078913          	mv	s2,a5
0xb6f0 	fddff06f          	j	1b588 <core_list_mergesort+0xb0>
0xb6f4 	000a0793          	mv	a5,s4
0xb6f8 	fff48493          	addi	s1,s1,-1
0xb6fc 	000a2a03          	lw	s4,0(s4)
0xb700 	fc1ff06f          	j	1b57c <core_list_mergesort+0xa4>
0xb704 	00040a13          	mv	s4,s0
0xb708 	f60416e3          	bnez	s0,1b530 <core_list_mergesort+0x58>
0xb70c 	00092023          	sw	zero,0(s2)
0xb710 	01ac8c63          	beq	s9,s10,1b5e4 <core_list_mergesort+0x10c>
0xb714 	001a9a93          	slli	s5,s5,0x1
0xb718 	000b0a13          	mv	s4,s6
0xb71c 	f49ff06f          	j	1b520 <core_list_mergesort+0x48>
0xb720 	00002023          	sw	zero,0(zero) # 80000000 <heap_memory_used+0x7ffde228>
0xb724 	00100073          	ebreak
0xb728 	02c12083          	lw	ra,44(sp)
0xb72c 	02812403          	lw	s0,40(sp)
0xb730 	000b0513          	mv	a0,s6
0xb734 	02412483          	lw	s1,36(sp)
0xb738 	02012903          	lw	s2,32(sp)
0xb73c 	01c12983          	lw	s3,28(sp)
0xb740 	01812a03          	lw	s4,24(sp)
0xb744 	01412a83          	lw	s5,20(sp)
0xb748 	01012b03          	lw	s6,16(sp)
0xb74c 	00c12b83          	lw	s7,12(sp)
0xb750 	00812c03          	lw	s8,8(sp)
0xb754 	00412c83          	lw	s9,4(sp)
0xb758 	00012d03          	lw	s10,0(sp)
0xb75c 	03010113          	addi	sp,sp,48
0xb760 	00008067          	ret
0xb764 	fc010113          	addi	sp,sp,-64
0xb768 	01812c23          	sw	s8,24(sp)
0xb76c 	00451c03          	lh	s8,4(a0)
0xb770 	02812c23          	sw	s0,56(sp)
0xb774 	03612023          	sw	s6,32(sp)
0xb778 	01712e23          	sw	s7,28(sp)
0xb77c 	02112e23          	sw	ra,60(sp)
0xb780 	02912a23          	sw	s1,52(sp)
0xb784 	03212823          	sw	s2,48(sp)
0xb788 	03312623          	sw	s3,44(sp)
0xb78c 	03412423          	sw	s4,40(sp)
0xb790 	03512223          	sw	s5,36(sp)
0xb794 	01912a23          	sw	s9,20(sp)
0xb798 	01a12823          	sw	s10,16(sp)
0xb79c 	00b11723          	sh	a1,14(sp)
0xb7a0 	00050b93          	mv	s7,a0
0xb7a4 	00058b13          	mv	s6,a1
0xb7a8 	02452403          	lw	s0,36(a0)
0xb7ac 	25805a63          	blez	s8,1b8bc <core_bench_list+0x29c>
0xb7b0 	00058d13          	mv	s10,a1
0xb7b4 	00000913          	li	s2,0
0xb7b8 	00000a13          	li	s4,0
0xb7bc 	00000993          	li	s3,0
0xb7c0 	00000493          	li	s1,0
0xb7c4 	00c10a93          	addi	s5,sp,12
0xb7c8 	0001ecb7          	lui	s9,0x1e
0xb7cc 	0ff97793          	andi	a5,s2,255
0xb7d0 	000a8593          	mv	a1,s5
0xb7d4 	00040513          	mv	a0,s0
0xb7d8 	00f11623          	sh	a5,12(sp)
0xb7dc 	dadff0ef          	jal	ra,1b444 <core_list_find>
0xb7e0 	02040063          	beqz	s0,1b6bc <core_bench_list+0x9c>
0xb7e4 	00000713          	li	a4,0
0xb7e8 	0080006f          	j	1b6ac <core_bench_list+0x8c>
0xb7ec 	00078413          	mv	s0,a5
0xb7f0 	00042783          	lw	a5,0(s0)
0xb7f4 	00e42023          	sw	a4,0(s0)
0xb7f8 	00040713          	mv	a4,s0
0xb7fc 	fe0798e3          	bnez	a5,1b6a8 <core_bench_list+0x88>
0xb800 	08050663          	beqz	a0,1b748 <core_bench_list+0x128>
0xb804 	00452783          	lw	a5,4(a0)
0xb808 	00198993          	addi	s3,s3,1
0xb80c 	01099993          	slli	s3,s3,0x10
0xb810 	00079783          	lh	a5,0(a5)
0xb814 	0109d993          	srli	s3,s3,0x10
0xb818 	0017f713          	andi	a4,a5,1
0xb81c 	00070c63          	beqz	a4,1b6f0 <core_bench_list+0xd0>
0xb820 	4097d793          	srai	a5,a5,0x9
0xb824 	0017f793          	andi	a5,a5,1
0xb828 	00f484b3          	add	s1,s1,a5
0xb82c 	01049493          	slli	s1,s1,0x10
0xb830 	0104d493          	srli	s1,s1,0x10
0xb834 	00052783          	lw	a5,0(a0)
0xb838 	00078c63          	beqz	a5,1b70c <core_bench_list+0xec>
0xb83c 	0007a703          	lw	a4,0(a5)
0xb840 	00e52023          	sw	a4,0(a0)
0xb844 	00042703          	lw	a4,0(s0)
0xb848 	00e7a023          	sw	a4,0(a5)
0xb84c 	00f42023          	sw	a5,0(s0)
0xb850 	000d4663          	bltz	s10,1b718 <core_bench_list+0xf8>
0xb854 	001d0d13          	addi	s10,s10,1
0xb858 	01a11723          	sh	s10,14(sp)
0xb85c 	00090593          	mv	a1,s2
0xb860 	00098713          	mv	a4,s3
0xb864 	000a0693          	mv	a3,s4
0xb868 	00048613          	mv	a2,s1
0xb86c 	588c8513          	addi	a0,s9,1416 # 1e588 <errpat+0x600>
0xb870 	00190913          	addi	s2,s2,1
0xb874 	35c020ef          	jal	ra,1da8c <printf>
0xb878 	01091793          	slli	a5,s2,0x10
0xb87c 	4107d793          	srai	a5,a5,0x10
0xb880 	0387dc63          	ble	s8,a5,1b774 <core_bench_list+0x154>
0xb884 	00e11d03          	lh	s10,14(sp)
0xb888 	f45ff06f          	j	1b688 <core_bench_list+0x68>
0xb88c 	00042783          	lw	a5,0(s0)
0xb890 	001a0a13          	addi	s4,s4,1
0xb894 	010a1a13          	slli	s4,s4,0x10
0xb898 	0047a783          	lw	a5,4(a5)
0xb89c 	010a5a13          	srli	s4,s4,0x10
0xb8a0 	00178783          	lb	a5,1(a5)
0xb8a4 	0017f793          	andi	a5,a5,1
0xb8a8 	00f484b3          	add	s1,s1,a5
0xb8ac 	01049493          	slli	s1,s1,0x10
0xb8b0 	0104d493          	srli	s1,s1,0x10
0xb8b4 	f9dff06f          	j	1b70c <core_bench_list+0xec>
0xb8b8 	00299993          	slli	s3,s3,0x2
0xb8bc 	41498a33          	sub	s4,s3,s4
0xb8c0 	014484b3          	add	s1,s1,s4
0xb8c4 	01049493          	slli	s1,s1,0x10
0xb8c8 	0104d493          	srli	s1,s1,0x10
0xb8cc 	01605e63          	blez	s6,1b7a4 <core_bench_list+0x184>
0xb8d0 	0001b5b7          	lui	a1,0x1b
0xb8d4 	00040513          	mv	a0,s0
0xb8d8 	000b8613          	mv	a2,s7
0xb8dc 	33458593          	addi	a1,a1,820 # 1b334 <cmp_complex>
0xb8e0 	d3dff0ef          	jal	ra,1b4d8 <core_list_mergesort>
0xb8e4 	00050413          	mv	s0,a0
0xb8e8 	00042783          	lw	a5,0(s0)
0xb8ec 	000a8593          	mv	a1,s5
0xb8f0 	00040513          	mv	a0,s0
0xb8f4 	0007a983          	lw	s3,0(a5)
0xb8f8 	0047a683          	lw	a3,4(a5)
0xb8fc 	0049a603          	lw	a2,4(s3)
0xb900 	0009a703          	lw	a4,0(s3)
0xb904 	00c7a223          	sw	a2,4(a5)
0xb908 	00d9a223          	sw	a3,4(s3)
0xb90c 	00e7a023          	sw	a4,0(a5)
0xb910 	0009a023          	sw	zero,0(s3)
0xb914 	c75ff0ef          	jal	ra,1b444 <core_list_find>
0xb918 	00050913          	mv	s2,a0
0xb91c 	0c050c63          	beqz	a0,1b8b0 <core_bench_list+0x290>
0xb920 	00442783          	lw	a5,4(s0)
0xb924 	00048593          	mv	a1,s1
0xb928 	00079503          	lh	a0,0(a5)
0xb92c 	0b4020ef          	jal	ra,1d89c <crc16>
0xb930 	00092903          	lw	s2,0(s2)
0xb934 	00050493          	mv	s1,a0
0xb938 	fe0914e3          	bnez	s2,1b7dc <core_bench_list+0x1bc>
0xb93c 	0001e537          	lui	a0,0x1e
0xb940 	00048593          	mv	a1,s1
0xb944 	5a450513          	addi	a0,a0,1444 # 1e5a4 <errpat+0x61c>
0xb948 	288020ef          	jal	ra,1da8c <printf>
0xb94c 	00042783          	lw	a5,0(s0)
0xb950 	0049a683          	lw	a3,4(s3)
0xb954 	00040513          	mv	a0,s0
0xb958 	0047a583          	lw	a1,4(a5)
0xb95c 	0007a703          	lw	a4,0(a5)
0xb960 	00000613          	li	a2,0
0xb964 	00b9a223          	sw	a1,4(s3)
0xb968 	00d7a223          	sw	a3,4(a5)
0xb96c 	00e9a023          	sw	a4,0(s3)
0xb970 	0001b5b7          	lui	a1,0x1b
0xb974 	0137a023          	sw	s3,0(a5)
0xb978 	1d858593          	addi	a1,a1,472 # 1b1d8 <cmp_idx>
0xb97c 	ca1ff0ef          	jal	ra,1b4d8 <core_list_mergesort>
0xb980 	00052403          	lw	s0,0(a0)
0xb984 	00050913          	mv	s2,a0
0xb988 	02040063          	beqz	s0,1b864 <core_bench_list+0x244>
0xb98c 	00492783          	lw	a5,4(s2)
0xb990 	00048593          	mv	a1,s1
0xb994 	00079503          	lh	a0,0(a5)
0xb998 	048020ef          	jal	ra,1d89c <crc16>
0xb99c 	00042403          	lw	s0,0(s0)
0xb9a0 	00050493          	mv	s1,a0
0xb9a4 	fe0414e3          	bnez	s0,1b848 <core_bench_list+0x228>
0xb9a8 	0001e537          	lui	a0,0x1e
0xb9ac 	00048593          	mv	a1,s1
0xb9b0 	5b850513          	addi	a0,a0,1464 # 1e5b8 <errpat+0x630>
0xb9b4 	21c020ef          	jal	ra,1da8c <printf>
0xb9b8 	03c12083          	lw	ra,60(sp)
0xb9bc 	03812403          	lw	s0,56(sp)
0xb9c0 	00048513          	mv	a0,s1
0xb9c4 	03012903          	lw	s2,48(sp)
0xb9c8 	03412483          	lw	s1,52(sp)
0xb9cc 	02c12983          	lw	s3,44(sp)
0xb9d0 	02812a03          	lw	s4,40(sp)
0xb9d4 	02412a83          	lw	s5,36(sp)
0xb9d8 	02012b03          	lw	s6,32(sp)
0xb9dc 	01c12b83          	lw	s7,28(sp)
0xb9e0 	01812c03          	lw	s8,24(sp)
0xb9e4 	01412c83          	lw	s9,20(sp)
0xb9e8 	01012d03          	lw	s10,16(sp)
0xb9ec 	04010113          	addi	sp,sp,64
0xb9f0 	00008067          	ret
0xb9f4 	00042903          	lw	s2,0(s0)
0xb9f8 	f40902e3          	beqz	s2,1b7f8 <core_bench_list+0x1d8>
0xb9fc 	f25ff06f          	j	1b7dc <core_bench_list+0x1bc>
0xba00 	00000493          	li	s1,0
0xba04 	00c10a93          	addi	s5,sp,12
0xba08 	ec5ff06f          	j	1b788 <core_bench_list+0x168>
0xba0c 	01400713          	li	a4,20
0xba10 	02e55733          	divu	a4,a0,a4
0xba14 	ff010113          	addi	sp,sp,-16
0xba18 	00112623          	sw	ra,12(sp)
0xba1c 	00812423          	sw	s0,8(sp)
0xba20 	00912223          	sw	s1,4(sp)
0xba24 	01212023          	sw	s2,0(sp)
0xba28 	00058513          	mv	a0,a1
0xba2c 	0005a023          	sw	zero,0(a1)
0xba30 	ffff87b7          	lui	a5,0xffff8
0xba34 	08078793          	addi	a5,a5,128 # ffff8080 <heap_memory_used+0xfffd62a8>
0xba38 	01058693          	addi	a3,a1,16
0xba3c 	00858393          	addi	t2,a1,8
0xba40 	00000593          	li	a1,0
0xba44 	ffe70713          	addi	a4,a4,-2
0xba48 	00371813          	slli	a6,a4,0x3
0xba4c 	01050833          	add	a6,a0,a6
0xba50 	01052223          	sw	a6,4(a0)
0xba54 	00271f13          	slli	t5,a4,0x2
0xba58 	00f81023          	sh	a5,0(a6)
0xba5c 	00081123          	sh	zero,2(a6)
0xba60 	01e80f33          	add	t5,a6,t5
0xba64 	00480313          	addi	t1,a6,4
0xba68 	0106f663          	bleu	a6,a3,1b930 <core_list_init+0x68>
0xba6c 	00880793          	addi	a5,a6,8
0xba70 	15e7e263          	bltu	a5,t5,1ba70 <core_list_init+0x1a8>
0xba74 	06070a63          	beqz	a4,1b9a4 <core_list_init+0xdc>
0xba78 	01061293          	slli	t0,a2,0x10
0xba7c 	ffff8fb7          	lui	t6,0xffff8
0xba80 	0102d293          	srli	t0,t0,0x10
0xba84 	00000693          	li	a3,0
0xba88 	ffffcf93          	not	t6,t6
0xba8c 	00838e13          	addi	t3,t2,8
0xba90 	00430e93          	addi	t4,t1,4
0xba94 	050e7663          	bleu	a6,t3,1b99c <core_list_init+0xd4>
0xba98 	01069893          	slli	a7,a3,0x10
0xba9c 	0108d893          	srli	a7,a7,0x10
0xbaa0 	0058c7b3          	xor	a5,a7,t0
0xbaa4 	00379793          	slli	a5,a5,0x3
0xbaa8 	0078f893          	andi	a7,a7,7
0xbaac 	0787f793          	andi	a5,a5,120
0xbab0 	0117e7b3          	or	a5,a5,a7
0xbab4 	00879893          	slli	a7,a5,0x8
0xbab8 	00f8e7b3          	or	a5,a7,a5
0xbabc 	03eef263          	bleu	t5,t4,1b99c <core_list_init+0xd4>
0xbac0 	00b3a023          	sw	a1,0(t2)
0xbac4 	00752023          	sw	t2,0(a0)
0xbac8 	0063a223          	sw	t1,4(t2)
0xbacc 	00f31023          	sh	a5,0(t1)
0xbad0 	01f31123          	sh	t6,2(t1)
0xbad4 	00038593          	mv	a1,t2
0xbad8 	000e8313          	mv	t1,t4
0xbadc 	000e0393          	mv	t2,t3
0xbae0 	00168693          	addi	a3,a3,1
0xbae4 	fad714e3          	bne	a4,a3,1b948 <core_list_init+0x80>
0xbae8 	00500893          	li	a7,5
0xbaec 	00004e37          	lui	t3,0x4
0xbaf0 	031758b3          	divu	a7,a4,a7
0xbaf4 	00100693          	li	a3,1
0xbaf8 	20000713          	li	a4,512
0xbafc 	fffe0e13          	addi	t3,t3,-1 # 3fff <coremarkBenchmark+0x3f57>
0xbb00 	01c0006f          	j	1b9d8 <core_list_init+0x110>
0xbb04 	00d59123          	sh	a3,2(a1)
0xbb08 	10070713          	addi	a4,a4,256
0xbb0c 	01071713          	slli	a4,a4,0x10
0xbb10 	00168693          	addi	a3,a3,1
0xbb14 	01075713          	srli	a4,a4,0x10
0xbb18 	00080593          	mv	a1,a6
0xbb1c 	0005a803          	lw	a6,0(a1)
0xbb20 	70077793          	andi	a5,a4,1792
0xbb24 	00c6c333          	xor	t1,a3,a2
0xbb28 	0067e7b3          	or	a5,a5,t1
0xbb2c 	01c7f7b3          	and	a5,a5,t3
0xbb30 	00080a63          	beqz	a6,1ba00 <core_list_init+0x138>
0xbb34 	0045a583          	lw	a1,4(a1)
0xbb38 	fd16e6e3          	bltu	a3,a7,1b9c0 <core_list_init+0xf8>
0xbb3c 	00f59123          	sh	a5,2(a1)
0xbb40 	fc9ff06f          	j	1b9c4 <core_list_init+0xfc>
0xbb44 	0001b5b7          	lui	a1,0x1b
0xbb48 	00000613          	li	a2,0
0xbb4c 	1d858593          	addi	a1,a1,472 # 1b1d8 <cmp_idx>
0xbb50 	acdff0ef          	jal	ra,1b4d8 <core_list_mergesort>
0xbb54 	00050913          	mv	s2,a0
0xbb58 	0001e537          	lui	a0,0x1e
0xbb5c 	5cc50513          	addi	a0,a0,1484 # 1e5cc <errpat+0x644>
0xbb60 	070020ef          	jal	ra,1da8c <printf>
0xbb64 	02090463          	beqz	s2,1ba48 <core_list_init+0x180>
0xbb68 	00090413          	mv	s0,s2
0xbb6c 	0001e4b7          	lui	s1,0x1e
0xbb70 	00442783          	lw	a5,4(s0)
0xbb74 	5e048513          	addi	a0,s1,1504 # 1e5e0 <errpat+0x658>
0xbb78 	0007d603          	lhu	a2,0(a5)
0xbb7c 	00279583          	lh	a1,2(a5)
0xbb80 	050020ef          	jal	ra,1da8c <printf>
0xbb84 	00042403          	lw	s0,0(s0)
0xbb88 	fe0414e3          	bnez	s0,1ba2c <core_list_init+0x164>
0xbb8c 	0001f537          	lui	a0,0x1f
0xbb90 	81850513          	addi	a0,a0,-2024 # 1e818 <errpat+0x890>
0xbb94 	03c020ef          	jal	ra,1da8c <printf>
0xbb98 	00c12083          	lw	ra,12(sp)
0xbb9c 	00812403          	lw	s0,8(sp)
0xbba0 	00090513          	mv	a0,s2
0xbba4 	00412483          	lw	s1,4(sp)
0xbba8 	00012903          	lw	s2,0(sp)
0xbbac 	01010113          	addi	sp,sp,16
0xbbb0 	00008067          	ret
0xbbb4 	00752023          	sw	t2,0(a0)
0xbbb8 	00652623          	sw	t1,12(a0)
0xbbbc 	00052423          	sw	zero,8(a0)
0xbbc0 	fff00893          	li	a7,-1
0xbbc4 	01181223          	sh	a7,4(a6)
0xbbc8 	000088b7          	lui	a7,0x8
0xbbcc 	fff88893          	addi	a7,a7,-1 # 7fff <coremarkBenchmark+0x7f57>
0xbbd0 	00038593          	mv	a1,t2
0xbbd4 	01181323          	sh	a7,6(a6)
0xbbd8 	00078313          	mv	t1,a5
0xbbdc 	00068393          	mv	t2,a3
0xbbe0 	e95ff06f          	j	1b930 <core_list_init+0x68>
0xbbe4 	ff010113          	addi	sp,sp,-16
0xbbe8 	01212023          	sw	s2,0(sp)
0xbbec 	01c52903          	lw	s2,28(a0)
0xbbf0 	00112623          	sw	ra,12(sp)
0xbbf4 	00812423          	sw	s0,8(sp)
0xbbf8 	00912223          	sw	s1,4(sp)
0xbbfc 	02052c23          	sw	zero,56(a0)
0xbc00 	02052e23          	sw	zero,60(a0)
0xbc04 	04090463          	beqz	s2,1bb08 <iterate+0x68>
0xbc08 	00050413          	mv	s0,a0
0xbc0c 	00000493          	li	s1,0
0xbc10 	00100593          	li	a1,1
0xbc14 	00040513          	mv	a0,s0
0xbc18 	b4dff0ef          	jal	ra,1b620 <core_bench_list>
0xbc1c 	03845583          	lhu	a1,56(s0)
0xbc20 	50d010ef          	jal	ra,1d7e8 <crcu16>
0xbc24 	02a41c23          	sh	a0,56(s0)
0xbc28 	fff00593          	li	a1,-1
0xbc2c 	00040513          	mv	a0,s0
0xbc30 	b35ff0ef          	jal	ra,1b620 <core_bench_list>
0xbc34 	03845583          	lhu	a1,56(s0)
0xbc38 	4f5010ef          	jal	ra,1d7e8 <crcu16>
0xbc3c 	02a41c23          	sh	a0,56(s0)
0xbc40 	02048463          	beqz	s1,1bb24 <iterate+0x84>
0xbc44 	00148493          	addi	s1,s1,1
0xbc48 	fc9914e3          	bne	s2,s1,1bacc <iterate+0x2c>
0xbc4c 	00c12083          	lw	ra,12(sp)
0xbc50 	00812403          	lw	s0,8(sp)
0xbc54 	00412483          	lw	s1,4(sp)
0xbc58 	00012903          	lw	s2,0(sp)
0xbc5c 	00000513          	li	a0,0
0xbc60 	01010113          	addi	sp,sp,16
0xbc64 	00008067          	ret
0xbc68 	02a41d23          	sh	a0,58(s0)
0xbc6c 	fd9ff06f          	j	1bb00 <iterate+0x60>
0xbc70 	81010113          	addi	sp,sp,-2032
0xbc74 	00001737          	lui	a4,0x1
0xbc78 	7e112623          	sw	ra,2028(sp)
0xbc7c 	7e812423          	sw	s0,2024(sp)
0xbc80 	7e912223          	sw	s1,2020(sp)
0xbc84 	7f212023          	sw	s2,2016(sp)
0xbc88 	7d312e23          	sw	s3,2012(sp)
0xbc8c 	7d412c23          	sw	s4,2008(sp)
0xbc90 	7d512a23          	sw	s5,2004(sp)
0xbc94 	7d612823          	sw	s6,2000(sp)
0xbc98 	7d712623          	sw	s7,1996(sp)
0xbc9c 	7d812423          	sw	s8,1992(sp)
0xbca0 	7d912223          	sw	s9,1988(sp)
0xbca4 	7da12023          	sw	s10,1984(sp)
0xbca8 	7bb12e23          	sw	s11,1980(sp)
0xbcac 	fffff7b7          	lui	a5,0xfffff
0xbcb0 	f8010113          	addi	sp,sp,-128
0xbcb4 	83070713          	addi	a4,a4,-2000 # 830 <coremarkBenchmark+0x788>
0xbcb8 	7dc78793          	addi	a5,a5,2012 # fffff7dc <heap_memory_used+0xfffdda04>
0xbcbc 	00270733          	add	a4,a4,sp
0xbcc0 	00058613          	mv	a2,a1
0xbcc4 	00a12623          	sw	a0,12(sp)
0xbcc8 	00f705b3          	add	a1,a4,a5
0xbccc 	05e10513          	addi	a0,sp,94
0xbcd0 	4b4010ef          	jal	ra,1d040 <portable_init>
0xbcd4 	00100513          	li	a0,1
0xbcd8 	3b1010ef          	jal	ra,1d744 <get_seed_32>
0xbcdc 	00a11e23          	sh	a0,28(sp)
0xbce0 	00200513          	li	a0,2
0xbce4 	3a5010ef          	jal	ra,1d744 <get_seed_32>
0xbce8 	00a11f23          	sh	a0,30(sp)
0xbcec 	00300513          	li	a0,3
0xbcf0 	399010ef          	jal	ra,1d744 <get_seed_32>
0xbcf4 	02a11023          	sh	a0,32(sp)
0xbcf8 	00400513          	li	a0,4
0xbcfc 	38d010ef          	jal	ra,1d744 <get_seed_32>
0xbd00 	00100793          	li	a5,1
0xbd04 	00500513          	li	a0,5
0xbd08 	02f12c23          	sw	a5,56(sp)
0xbd0c 	37d010ef          	jal	ra,1d744 <get_seed_32>
0xbd10 	2e050a63          	beqz	a0,1bec0 <COREMARK+0x394>
0xbd14 	00157693          	andi	a3,a0,1
0xbd18 	02a12e23          	sw	a0,60(sp)
0xbd1c 	00050793          	mv	a5,a0
0xbd20 	00257713          	andi	a4,a0,2
0xbd24 	00457813          	andi	a6,a0,4
0xbd28 	00001537          	lui	a0,0x1
0xbd2c 	83050513          	addi	a0,a0,-2000 # 830 <coremarkBenchmark+0x788>
0xbd30 	fffff637          	lui	a2,0xfffff
0xbd34 	00250533          	add	a0,a0,sp
0xbd38 	00c50633          	add	a2,a0,a2
0xbd3c 	00c12423          	sw	a2,8(sp)
0xbd40 	7ec62603          	lw	a2,2028(a2) # fffff7ec <heap_memory_used+0xfffdda14>
0xbd44 	01069593          	slli	a1,a3,0x10
0xbd48 	0105d593          	srli	a1,a1,0x10
0xbd4c 	2e061863          	bnez	a2,1bef8 <COREMARK+0x3cc>
0xbd50 	00812603          	lw	a2,8(sp)
0xbd54 	7f061603          	lh	a2,2032(a2)
0xbd58 	48060663          	beqz	a2,1c0a0 <COREMARK+0x574>
0xbd5c 	00001537          	lui	a0,0x1
0xbd60 	83050513          	addi	a0,a0,-2000 # 830 <coremarkBenchmark+0x788>
0xbd64 	00250533          	add	a0,a0,sp
0xbd68 	fffff637          	lui	a2,0xfffff
0xbd6c 	00c50633          	add	a2,a0,a2
0xbd70 	00c12423          	sw	a2,8(sp)
0xbd74 	00812503          	lw	a0,8(sp)
0xbd78 	06010613          	addi	a2,sp,96
0xbd7c 	04011e23          	sh	zero,92(sp)
0xbd80 	7ec52a23          	sw	a2,2036(a0)
0xbd84 	00070863          	beqz	a4,1bc50 <COREMARK+0x124>
0xbd88 	00158513          	addi	a0,a1,1
0xbd8c 	01051593          	slli	a1,a0,0x10
0xbd90 	0105d593          	srli	a1,a1,0x10
0xbd94 	00080863          	beqz	a6,1bc60 <COREMARK+0x134>
0xbd98 	00158513          	addi	a0,a1,1
0xbd9c 	01051593          	slli	a1,a0,0x10
0xbda0 	0105d593          	srli	a1,a1,0x10
0xbda4 	7d000513          	li	a0,2000
0xbda8 	02b55533          	divu	a0,a0,a1
0xbdac 	00001f37          	lui	t5,0x1
0xbdb0 	fffff5b7          	lui	a1,0xfffff
0xbdb4 	830f0893          	addi	a7,t5,-2000 # 830 <coremarkBenchmark+0x788>
0xbdb8 	002888b3          	add	a7,a7,sp
0xbdbc 	7ec58813          	addi	a6,a1,2028 # fffff7ec <heap_memory_used+0xfffdda14>
0xbdc0 	01088e33          	add	t3,a7,a6
0xbdc4 	00000613          	li	a2,0
0xbdc8 	00b88833          	add	a6,a7,a1
0xbdcc 	00000e93          	li	t4,0
0xbdd0 	00100313          	li	t1,1
0xbdd4 	00300893          	li	a7,3
0xbdd8 	02a12a23          	sw	a0,52(sp)
0xbddc 	00c315b3          	sll	a1,t1,a2
0xbde0 	00f5f5b3          	and	a1,a1,a5
0xbde4 	1e059c63          	bnez	a1,1be98 <COREMARK+0x36c>
0xbde8 	00160613          	addi	a2,a2,1 # fffff001 <heap_memory_used+0xfffdd229>
0xbdec 	ff1618e3          	bne	a2,a7,1bc98 <COREMARK+0x16c>
0xbdf0 	16069a63          	bnez	a3,1be20 <COREMARK+0x2f4>
0xbdf4 	1a071263          	bnez	a4,1be54 <COREMARK+0x328>
0xbdf8 	0047f793          	andi	a5,a5,4
0xbdfc 	02078663          	beqz	a5,1bce4 <COREMARK+0x1b8>
0xbe00 	00001737          	lui	a4,0x1
0xbe04 	83070713          	addi	a4,a4,-2000 # 830 <coremarkBenchmark+0x788>
0xbe08 	fffff7b7          	lui	a5,0xfffff
0xbe0c 	00270733          	add	a4,a4,sp
0xbe10 	00f707b3          	add	a5,a4,a5
0xbe14 	03012603          	lw	a2,48(sp)
0xbe18 	7ec79583          	lh	a1,2028(a5) # fffff7ec <heap_memory_used+0xfffdda14>
0xbe1c 	03412503          	lw	a0,52(sp)
0xbe20 	00f12423          	sw	a5,8(sp)
0xbe24 	374010ef          	jal	ra,1d054 <core_init_state>
0xbe28 	03812783          	lw	a5,56(sp)
0xbe2c 	06079663          	bnez	a5,1bd54 <COREMARK+0x228>
0xbe30 	000017b7          	lui	a5,0x1
0xbe34 	fffff437          	lui	s0,0xfffff
0xbe38 	83078793          	addi	a5,a5,-2000 # 830 <coremarkBenchmark+0x788>
0xbe3c 	7ec40413          	addi	s0,s0,2028 # fffff7ec <heap_memory_used+0xfffdda14>
0xbe40 	002787b3          	add	a5,a5,sp
0xbe44 	00100713          	li	a4,1
0xbe48 	00878433          	add	s0,a5,s0
0xbe4c 	0080006f          	j	1bd10 <COREMARK+0x1e4>
0xbe50 	03812703          	lw	a4,56(sp)
0xbe54 	00271793          	slli	a5,a4,0x2
0xbe58 	00e787b3          	add	a5,a5,a4
0xbe5c 	00179793          	slli	a5,a5,0x1
0xbe60 	02f12c23          	sw	a5,56(sp)
0xbe64 	2b8010ef          	jal	ra,1cfd8 <start_time>
0xbe68 	00040513          	mv	a0,s0
0xbe6c 	d79ff0ef          	jal	ra,1baa0 <iterate>
0xbe70 	2cc010ef          	jal	ra,1cff8 <stop_time>
0xbe74 	2e8010ef          	jal	ra,1d018 <get_time>
0xbe78 	2fc010ef          	jal	ra,1d030 <time_in_secs>
0xbe7c 	fc050ae3          	beqz	a0,1bd0c <COREMARK+0x1e0>
0xbe80 	00a00793          	li	a5,10
0xbe84 	02a7d7b3          	divu	a5,a5,a0
0xbe88 	03812703          	lw	a4,56(sp)
0xbe8c 	00178793          	addi	a5,a5,1
0xbe90 	02e787b3          	mul	a5,a5,a4
0xbe94 	02f12c23          	sw	a5,56(sp)
0xbe98 	284010ef          	jal	ra,1cfd8 <start_time>
0xbe9c 	000014b7          	lui	s1,0x1
0xbea0 	fffff437          	lui	s0,0xfffff
0xbea4 	83048793          	addi	a5,s1,-2000 # 830 <coremarkBenchmark+0x788>
0xbea8 	002787b3          	add	a5,a5,sp
0xbeac 	7ec40513          	addi	a0,s0,2028 # fffff7ec <heap_memory_used+0xfffdda14>
0xbeb0 	00a78533          	add	a0,a5,a0
0xbeb4 	d31ff0ef          	jal	ra,1baa0 <iterate>
0xbeb8 	284010ef          	jal	ra,1cff8 <stop_time>
0xbebc 	2a0010ef          	jal	ra,1d018 <get_time>
0xbec0 	83048793          	addi	a5,s1,-2000
0xbec4 	002787b3          	add	a5,a5,sp
0xbec8 	008787b3          	add	a5,a5,s0
0xbecc 	00050a13          	mv	s4,a0
0xbed0 	7ec79503          	lh	a0,2028(a5)
0xbed4 	00000593          	li	a1,0
0xbed8 	00f12423          	sw	a5,8(sp)
0xbedc 	305010ef          	jal	ra,1d89c <crc16>
0xbee0 	00812783          	lw	a5,8(sp)
0xbee4 	00050593          	mv	a1,a0
0xbee8 	7ee79503          	lh	a0,2030(a5)
0xbeec 	2f5010ef          	jal	ra,1d89c <crc16>
0xbef0 	00812783          	lw	a5,8(sp)
0xbef4 	00050593          	mv	a1,a0
0xbef8 	7f079503          	lh	a0,2032(a5)
0xbefc 	2e5010ef          	jal	ra,1d89c <crc16>
0xbf00 	00050593          	mv	a1,a0
0xbf04 	03411503          	lh	a0,52(sp)
0xbf08 	2d9010ef          	jal	ra,1d89c <crc16>
0xbf0c 	000087b7          	lui	a5,0x8
0xbf10 	b0578793          	addi	a5,a5,-1275 # 7b05 <coremarkBenchmark+0x7a5d>
0xbf14 	00050913          	mv	s2,a0
0xbf18 	72f50e63          	beq	a0,a5,1c510 <COREMARK+0x9e4>
0xbf1c 	14a7e863          	bltu	a5,a0,1bf28 <COREMARK+0x3fc>
0xbf20 	000027b7          	lui	a5,0x2
0xbf24 	8f278793          	addi	a5,a5,-1806 # 18f2 <coremarkBenchmark+0x184a>
0xbf28 	70f50c63          	beq	a0,a5,1c4fc <COREMARK+0x9d0>
0xbf2c 	000057b7          	lui	a5,0x5
0xbf30 	eaf78793          	addi	a5,a5,-337 # 4eaf <coremarkBenchmark+0x4e07>
0xbf34 	2cf51063          	bne	a0,a5,1c0b0 <COREMARK+0x584>
0xbf38 	0001e537          	lui	a0,0x1e
0xbf3c 	64850513          	addi	a0,a0,1608 # 1e648 <errpat+0x6c0>
0xbf40 	491010ef          	jal	ra,1da8c <printf>
0xbf44 	0001f4b7          	lui	s1,0x1f
0xbf48 	15c4a783          	lw	a5,348(s1) # 1f15c <default_num_contexts>
0xbf4c 	00200c13          	li	s8,2
0xbf50 	00000d13          	li	s10,0
0xbf54 	00000b93          	li	s7,0
0xbf58 	14079863          	bnez	a5,1bf64 <COREMARK+0x438>
0xbf5c 	00000413          	li	s0,0
0xbf60 	2a40006f          	j	1c0c0 <COREMARK+0x594>
0xbf64 	00001737          	lui	a4,0x1
0xbf68 	83070713          	addi	a4,a4,-2000 # 830 <coremarkBenchmark+0x788>
0xbf6c 	00270733          	add	a4,a4,sp
0xbf70 	fffff7b7          	lui	a5,0xfffff
0xbf74 	00f707b3          	add	a5,a4,a5
0xbf78 	7ec79603          	lh	a2,2028(a5) # fffff7ec <heap_memory_used+0xfffdda14>
0xbf7c 	7f87a583          	lw	a1,2040(a5)
0xbf80 	00f12423          	sw	a5,8(sp)
0xbf84 	a89ff0ef          	jal	ra,1b8c8 <core_list_init>
0xbf88 	03c12783          	lw	a5,60(sp)
0xbf8c 	04a12023          	sw	a0,64(sp)
0xbf90 	0027f713          	andi	a4,a5,2
0xbf94 	e60702e3          	beqz	a4,1bcb4 <COREMARK+0x188>
0xbf98 	00001737          	lui	a4,0x1
0xbf9c 	83070713          	addi	a4,a4,-2000 # 830 <coremarkBenchmark+0x788>
0xbfa0 	00270733          	add	a4,a4,sp
0xbfa4 	fffff7b7          	lui	a5,0xfffff
0xbfa8 	00f707b3          	add	a5,a4,a5
0xbfac 	00f12423          	sw	a5,8(sp)
0xbfb0 	00812703          	lw	a4,8(sp)
0xbfb4 	7ee79783          	lh	a5,2030(a5) # fffff7ee <heap_memory_used+0xfffdda16>
0xbfb8 	03412503          	lw	a0,52(sp)
0xbfbc 	7ec71603          	lh	a2,2028(a4)
0xbfc0 	7fc72583          	lw	a1,2044(a4)
0xbfc4 	01079793          	slli	a5,a5,0x10
0xbfc8 	00c7e633          	or	a2,a5,a2
0xbfcc 	04410693          	addi	a3,sp,68
0xbfd0 	041000ef          	jal	ra,1c6cc <core_init_matrix>
0xbfd4 	03c12783          	lw	a5,60(sp)
0xbfd8 	e21ff06f          	j	1bcb4 <COREMARK+0x188>
0xbfdc 	02ae8fb3          	mul	t6,t4,a0
0xbfe0 	7f482f03          	lw	t5,2036(a6)
0xbfe4 	00261593          	slli	a1,a2,0x2
0xbfe8 	001e8e93          	addi	t4,t4,1
0xbfec 	00be05b3          	add	a1,t3,a1
0xbff0 	010e9e93          	slli	t4,t4,0x10
0xbff4 	010ede93          	srli	t4,t4,0x10
0xbff8 	01ff0f33          	add	t5,t5,t6
0xbffc 	01e5a623          	sw	t5,12(a1)
0xc000 	de9ff06f          	j	1bca4 <COREMARK+0x178>
0xc004 	00001537          	lui	a0,0x1
0xc008 	83050513          	addi	a0,a0,-2000 # 830 <coremarkBenchmark+0x788>
0xc00c 	00700793          	li	a5,7
0xc010 	fffff637          	lui	a2,0xfffff
0xc014 	00250533          	add	a0,a0,sp
0xc018 	00c50633          	add	a2,a0,a2
0xc01c 	02f12e23          	sw	a5,60(sp)
0xc020 	00c12423          	sw	a2,8(sp)
0xc024 	7ec62603          	lw	a2,2028(a2) # fffff7ec <heap_memory_used+0xfffdda14>
0xc028 	00400813          	li	a6,4
0xc02c 	00200713          	li	a4,2
0xc030 	00100693          	li	a3,1
0xc034 	00100593          	li	a1,1
0xc038 	d0060ce3          	beqz	a2,1bc0c <COREMARK+0xe0>
0xc03c 	00100513          	li	a0,1
0xc040 	d0a61ee3          	bne	a2,a0,1bc18 <COREMARK+0xec>
0xc044 	00812603          	lw	a2,8(sp)
0xc048 	7f061603          	lh	a2,2032(a2)
0xc04c 	d00618e3          	bnez	a2,1bc18 <COREMARK+0xec>
0xc050 	00812503          	lw	a0,8(sp)
0xc054 	34153637          	lui	a2,0x34153
0xc058 	41560613          	addi	a2,a2,1045 # 34153415 <heap_memory_used+0x3413163d>
0xc05c 	7ec52623          	sw	a2,2028(a0)
0xc060 	06600613          	li	a2,102
0xc064 	7ec51823          	sh	a2,2032(a0)
0xc068 	cf5ff06f          	j	1bc18 <COREMARK+0xec>
0xc06c 	000097b7          	lui	a5,0x9
0xc070 	a0278793          	addi	a5,a5,-1534 # 8a02 <coremarkBenchmark+0x895a>
0xc074 	5af50c63          	beq	a0,a5,1c4e8 <COREMARK+0x9bc>
0xc078 	0000f7b7          	lui	a5,0xf
0xc07c 	9f578793          	addi	a5,a5,-1547 # e9f5 <coremarkBenchmark+0xe94d>
0xc080 	16f51a63          	bne	a0,a5,1c0b0 <COREMARK+0x584>
0xc084 	0001e537          	lui	a0,0x1e
0xc088 	67c50513          	addi	a0,a0,1660 # 1e67c <errpat+0x6f4>
0xc08c 	345010ef          	jal	ra,1da8c <printf>
0xc090 	00300c13          	li	s8,3
0xc094 	0001f4b7          	lui	s1,0x1f
0xc098 	15c4a783          	lw	a5,348(s1) # 1f15c <default_num_contexts>
0xc09c 	00000d13          	li	s10,0
0xc0a0 	00000b93          	li	s7,0
0xc0a4 	ea078ce3          	beqz	a5,1be18 <COREMARK+0x2ec>
0xc0a8 	000016b7          	lui	a3,0x1
0xc0ac 	83068693          	addi	a3,a3,-2000 # 830 <coremarkBenchmark+0x788>
0xc0b0 	0001e7b7          	lui	a5,0x1e
0xc0b4 	fffff737          	lui	a4,0xfffff
0xc0b8 	002686b3          	add	a3,a3,sp
0xc0bc 	001c1c93          	slli	s9,s8,0x1
0xc0c0 	00e68733          	add	a4,a3,a4
0xc0c4 	f2078793          	addi	a5,a5,-224 # 1df20 <list_known_crc>
0xc0c8 	00e12423          	sw	a4,8(sp)
0xc0cc 	01978cb3          	add	s9,a5,s9
0xc0d0 	0001eb37          	lui	s6,0x1e
0xc0d4 	0001eab7          	lui	s5,0x1e
0xc0d8 	0001e9b7          	lui	s3,0x1e
0xc0dc 	0380006f          	j	1bfd0 <COREMARK+0x4a4>
0xc0e0 	00001737          	lui	a4,0x1
0xc0e4 	00f707b3          	add	a5,a4,a5
0xc0e8 	82c79403          	lh	s0,-2004(a5)
0xc0ec 	01a40433          	add	s0,s0,s10
0xc0f0 	001b8b93          	addi	s7,s7,1
0xc0f4 	01041413          	slli	s0,s0,0x10
0xc0f8 	15c4a783          	lw	a5,348(s1)
0xc0fc 	01045413          	srli	s0,s0,0x10
0xc100 	010b9b93          	slli	s7,s7,0x10
0xc104 	01041d13          	slli	s10,s0,0x10
0xc108 	010bdb93          	srli	s7,s7,0x10
0xc10c 	410d5d13          	srai	s10,s10,0x10
0xc110 	0efbfa63          	bleu	a5,s7,1c0c0 <COREMARK+0x594>
0xc114 	00812783          	lw	a5,8(sp)
0xc118 	004b9d93          	slli	s11,s7,0x4
0xc11c 	017d8733          	add	a4,s11,s7
0xc120 	00271713          	slli	a4,a4,0x2
0xc124 	00e78733          	add	a4,a5,a4
0xc128 	00001437          	lui	s0,0x1
0xc12c 	00e40433          	add	s0,s0,a4
0xc130 	80c42783          	lw	a5,-2036(s0) # 80c <coremarkBenchmark+0x764>
0xc134 	82041623          	sh	zero,-2004(s0)
0xc138 	0017f793          	andi	a5,a5,1
0xc13c 	02078463          	beqz	a5,1c020 <COREMARK+0x4f4>
0xc140 	82645603          	lhu	a2,-2010(s0)
0xc144 	000cd683          	lhu	a3,0(s9)
0xc148 	00d60e63          	beq	a2,a3,1c020 <COREMARK+0x4f4>
0xc14c 	000b8593          	mv	a1,s7
0xc150 	6d8b0513          	addi	a0,s6,1752 # 1e6d8 <errpat+0x750>
0xc154 	27d010ef          	jal	ra,1da8c <printf>
0xc158 	82c45783          	lhu	a5,-2004(s0)
0xc15c 	00178793          	addi	a5,a5,1
0xc160 	82f41623          	sh	a5,-2004(s0)
0xc164 	00812783          	lw	a5,8(sp)
0xc168 	017d8733          	add	a4,s11,s7
0xc16c 	00271713          	slli	a4,a4,0x2
0xc170 	00e78733          	add	a4,a5,a4
0xc174 	00001437          	lui	s0,0x1
0xc178 	00e40433          	add	s0,s0,a4
0xc17c 	80c42583          	lw	a1,-2036(s0) # 80c <coremarkBenchmark+0x764>
0xc180 	0025f793          	andi	a5,a1,2
0xc184 	02078663          	beqz	a5,1c06c <COREMARK+0x540>
0xc188 	82845603          	lhu	a2,-2008(s0)
0xc18c 	00ccd683          	lhu	a3,12(s9)
0xc190 	02d60063          	beq	a2,a3,1c06c <COREMARK+0x540>
0xc194 	000b8593          	mv	a1,s7
0xc198 	708a8513          	addi	a0,s5,1800 # 1e708 <errpat+0x780>
0xc19c 	235010ef          	jal	ra,1da8c <printf>
0xc1a0 	82c45783          	lhu	a5,-2004(s0)
0xc1a4 	80c42583          	lw	a1,-2036(s0)
0xc1a8 	00178793          	addi	a5,a5,1
0xc1ac 	82f41623          	sh	a5,-2004(s0)
0xc1b0 	00812703          	lw	a4,8(sp)
0xc1b4 	017d87b3          	add	a5,s11,s7
0xc1b8 	00279793          	slli	a5,a5,0x2
0xc1bc 	0045f593          	andi	a1,a1,4
0xc1c0 	00f707b3          	add	a5,a4,a5
0xc1c4 	f0058ee3          	beqz	a1,1bf9c <COREMARK+0x470>
0xc1c8 	00001db7          	lui	s11,0x1
0xc1cc 	00fd8db3          	add	s11,s11,a5
0xc1d0 	82add603          	lhu	a2,-2006(s11) # 82a <coremarkBenchmark+0x782>
0xc1d4 	018cd683          	lhu	a3,24(s9)
0xc1d8 	32d61c63          	bne	a2,a3,1c3cc <COREMARK+0x8a0>
0xc1dc 	82cd9403          	lh	s0,-2004(s11)
0xc1e0 	f0dff06f          	j	1bfa8 <COREMARK+0x47c>
0xc1e4 	00812503          	lw	a0,8(sp)
0xc1e8 	06600613          	li	a2,102
0xc1ec 	7ec51823          	sh	a2,2032(a0)
0xc1f0 	b6dff06f          	j	1bc18 <COREMARK+0xec>
0xc1f4 	00010437          	lui	s0,0x10
0xc1f8 	fff40413          	addi	s0,s0,-1 # ffff <coremarkBenchmark+0xff57>
0xc1fc 	fff00c13          	li	s8,-1
0xc200 	0001f4b7          	lui	s1,0x1f
0xc204 	7e8010ef          	jal	ra,1d8a8 <check_data_types>
0xc208 	03412583          	lw	a1,52(sp)
0xc20c 	00a40433          	add	s0,s0,a0
0xc210 	0001e537          	lui	a0,0x1e
0xc214 	76c50513          	addi	a0,a0,1900 # 1e76c <errpat+0x7e4>
0xc218 	1b9010ef          	jal	ra,1da8c <printf>
0xc21c 	0001e537          	lui	a0,0x1e
0xc220 	000a0593          	mv	a1,s4
0xc224 	78450513          	addi	a0,a0,1924 # 1e784 <errpat+0x7fc>
0xc228 	1a9010ef          	jal	ra,1da8c <printf>
0xc22c 	000a0513          	mv	a0,s4
0xc230 	745000ef          	jal	ra,1d030 <time_in_secs>
0xc234 	3e800a93          	li	s5,1000
0xc238 	035505b3          	mul	a1,a0,s5
0xc23c 	00a00993          	li	s3,10
0xc240 	06400b93          	li	s7,100
0xc244 	0001e537          	lui	a0,0x1e
0xc248 	79c50513          	addi	a0,a0,1948 # 1e79c <errpat+0x814>
0xc24c 	01041413          	slli	s0,s0,0x10
0xc250 	01045413          	srli	s0,s0,0x10
0xc254 	0335c6b3          	div	a3,a1,s3
0xc258 	0375c633          	div	a2,a1,s7
0xc25c 	0335e733          	rem	a4,a1,s3
0xc260 	0336e6b3          	rem	a3,a3,s3
0xc264 	03366633          	rem	a2,a2,s3
0xc268 	0355c5b3          	div	a1,a1,s5
0xc26c 	165010ef          	jal	ra,1da8c <printf>
0xc270 	000a0513          	mv	a0,s4
0xc274 	701000ef          	jal	ra,1d030 <time_in_secs>
0xc278 	2c051c63          	bnez	a0,1c40c <COREMARK+0x8e0>
0xc27c 	000a0513          	mv	a0,s4
0xc280 	6f5000ef          	jal	ra,1d030 <time_in_secs>
0xc284 	00900793          	li	a5,9
0xc288 	2aa7fa63          	bleu	a0,a5,1c3f8 <COREMARK+0x8cc>
0xc28c 	15c4a783          	lw	a5,348(s1) # 1f15c <default_num_contexts>
0xc290 	03812583          	lw	a1,56(sp)
0xc294 	0001f537          	lui	a0,0x1f
0xc298 	81c50513          	addi	a0,a0,-2020 # 1e81c <errpat+0x894>
0xc29c 	02f585b3          	mul	a1,a1,a5
0xc2a0 	0001fb37          	lui	s6,0x1f
0xc2a4 	0001fbb7          	lui	s7,0x1f
0xc2a8 	0001fab7          	lui	s5,0x1f
0xc2ac 	01041413          	slli	s0,s0,0x10
0xc2b0 	41045413          	srai	s0,s0,0x10
0xc2b4 	11d010ef          	jal	ra,1da8c <printf>
0xc2b8 	0001f537          	lui	a0,0x1f
0xc2bc 	834b0593          	addi	a1,s6,-1996 # 1e834 <errpat+0x8ac>
0xc2c0 	85c50513          	addi	a0,a0,-1956 # 1e85c <errpat+0x8d4>
0xc2c4 	10d010ef          	jal	ra,1da8c <printf>
0xc2c8 	0001f537          	lui	a0,0x1f
0xc2cc 	874b8593          	addi	a1,s7,-1932 # 1e874 <errpat+0x8ec>
0xc2d0 	87850513          	addi	a0,a0,-1928 # 1e878 <errpat+0x8f0>
0xc2d4 	0fd010ef          	jal	ra,1da8c <printf>
0xc2d8 	0001f537          	lui	a0,0x1f
0xc2dc 	89850513          	addi	a0,a0,-1896 # 1e898 <errpat+0x910>
0xc2e0 	890a8593          	addi	a1,s5,-1904 # 1e890 <errpat+0x908>
0xc2e4 	0ed010ef          	jal	ra,1da8c <printf>
0xc2e8 	0001f537          	lui	a0,0x1f
0xc2ec 	00090593          	mv	a1,s2
0xc2f0 	8b050513          	addi	a0,a0,-1872 # 1e8b0 <errpat+0x928>
0xc2f4 	0dd010ef          	jal	ra,1da8c <printf>
0xc2f8 	03c12703          	lw	a4,60(sp)
0xc2fc 	00177793          	andi	a5,a4,1
0xc300 	22078a63          	beqz	a5,1c3f0 <COREMARK+0x8c4>
0xc304 	15c4a783          	lw	a5,348(s1)
0xc308 	1a078463          	beqz	a5,1c36c <COREMARK+0x840>
0xc30c 	00001737          	lui	a4,0x1
0xc310 	83070713          	addi	a4,a4,-2000 # 830 <coremarkBenchmark+0x788>
0xc314 	fffff7b7          	lui	a5,0xfffff
0xc318 	00270733          	add	a4,a4,sp
0xc31c 	00f707b3          	add	a5,a4,a5
0xc320 	00000c93          	li	s9,0
0xc324 	0001f9b7          	lui	s3,0x1f
0xc328 	00f12423          	sw	a5,8(sp)
0xc32c 	00001937          	lui	s2,0x1
0xc330 	004c9793          	slli	a5,s9,0x4
0xc334 	00812703          	lw	a4,8(sp)
0xc338 	019787b3          	add	a5,a5,s9
0xc33c 	00279793          	slli	a5,a5,0x2
0xc340 	00f707b3          	add	a5,a4,a5
0xc344 	00f907b3          	add	a5,s2,a5
0xc348 	8267d603          	lhu	a2,-2010(a5) # ffffe826 <heap_memory_used+0xfffdca4e>
0xc34c 	000c8593          	mv	a1,s9
0xc350 	8cc98513          	addi	a0,s3,-1844 # 1e8cc <errpat+0x944>
0xc354 	07d010ef          	jal	ra,1da8c <printf>
0xc358 	001c8c93          	addi	s9,s9,1
0xc35c 	15c4a783          	lw	a5,348(s1)
0xc360 	010c9c93          	slli	s9,s9,0x10
0xc364 	010cdc93          	srli	s9,s9,0x10
0xc368 	fcfce4e3          	bltu	s9,a5,1c1ec <COREMARK+0x6c0>
0xc36c 	03c12703          	lw	a4,60(sp)
0xc370 	00277693          	andi	a3,a4,2
0xc374 	06068663          	beqz	a3,1c29c <COREMARK+0x770>
0xc378 	12078c63          	beqz	a5,1c36c <COREMARK+0x840>
0xc37c 	00001737          	lui	a4,0x1
0xc380 	83070713          	addi	a4,a4,-2000 # 830 <coremarkBenchmark+0x788>
0xc384 	fffff7b7          	lui	a5,0xfffff
0xc388 	00270733          	add	a4,a4,sp
0xc38c 	00f707b3          	add	a5,a4,a5
0xc390 	00000c93          	li	s9,0
0xc394 	0001f9b7          	lui	s3,0x1f
0xc398 	00f12423          	sw	a5,8(sp)
0xc39c 	00001937          	lui	s2,0x1
0xc3a0 	004c9793          	slli	a5,s9,0x4
0xc3a4 	00812703          	lw	a4,8(sp)
0xc3a8 	019787b3          	add	a5,a5,s9
0xc3ac 	00279793          	slli	a5,a5,0x2
0xc3b0 	00f707b3          	add	a5,a4,a5
0xc3b4 	00f907b3          	add	a5,s2,a5
0xc3b8 	8287d603          	lhu	a2,-2008(a5) # ffffe828 <heap_memory_used+0xfffdca50>
0xc3bc 	000c8593          	mv	a1,s9
0xc3c0 	8e898513          	addi	a0,s3,-1816 # 1e8e8 <errpat+0x960>
0xc3c4 	00d010ef          	jal	ra,1da8c <printf>
0xc3c8 	001c8c93          	addi	s9,s9,1
0xc3cc 	15c4a783          	lw	a5,348(s1)
0xc3d0 	010c9c93          	slli	s9,s9,0x10
0xc3d4 	010cdc93          	srli	s9,s9,0x10
0xc3d8 	fcfce4e3          	bltu	s9,a5,1c25c <COREMARK+0x730>
0xc3dc 	03c12703          	lw	a4,60(sp)
0xc3e0 	00477713          	andi	a4,a4,4
0xc3e4 	06070463          	beqz	a4,1c308 <COREMARK+0x7dc>
0xc3e8 	0c078463          	beqz	a5,1c36c <COREMARK+0x840>
0xc3ec 	00001737          	lui	a4,0x1
0xc3f0 	83070713          	addi	a4,a4,-2000 # 830 <coremarkBenchmark+0x788>
0xc3f4 	fffff7b7          	lui	a5,0xfffff
0xc3f8 	00270733          	add	a4,a4,sp
0xc3fc 	00f707b3          	add	a5,a4,a5
0xc400 	00000c93          	li	s9,0
0xc404 	0001f9b7          	lui	s3,0x1f
0xc408 	00f12423          	sw	a5,8(sp)
0xc40c 	00001937          	lui	s2,0x1
0xc410 	004c9793          	slli	a5,s9,0x4
0xc414 	00812703          	lw	a4,8(sp)
0xc418 	019787b3          	add	a5,a5,s9
0xc41c 	00279793          	slli	a5,a5,0x2
0xc420 	00f707b3          	add	a5,a4,a5
0xc424 	00f907b3          	add	a5,s2,a5
0xc428 	82a7d603          	lhu	a2,-2006(a5) # ffffe82a <heap_memory_used+0xfffdca52>
0xc42c 	000c8593          	mv	a1,s9
0xc430 	90498513          	addi	a0,s3,-1788 # 1e904 <errpat+0x97c>
0xc434 	79c010ef          	jal	ra,1da8c <printf>
0xc438 	001c8c93          	addi	s9,s9,1
0xc43c 	15c4a783          	lw	a5,348(s1)
0xc440 	010c9c93          	slli	s9,s9,0x10
0xc444 	010cdc93          	srli	s9,s9,0x10
0xc448 	fcfce4e3          	bltu	s9,a5,1c2cc <COREMARK+0x7a0>
0xc44c 	06078263          	beqz	a5,1c36c <COREMARK+0x840>
0xc450 	00001737          	lui	a4,0x1
0xc454 	83070713          	addi	a4,a4,-2000 # 830 <coremarkBenchmark+0x788>
0xc458 	fffff7b7          	lui	a5,0xfffff
0xc45c 	00270733          	add	a4,a4,sp
0xc460 	00f707b3          	add	a5,a4,a5
0xc464 	00000c93          	li	s9,0
0xc468 	0001f9b7          	lui	s3,0x1f
0xc46c 	00f12423          	sw	a5,8(sp)
0xc470 	00001937          	lui	s2,0x1
0xc474 	004c9793          	slli	a5,s9,0x4
0xc478 	00812703          	lw	a4,8(sp)
0xc47c 	019787b3          	add	a5,a5,s9
0xc480 	00279793          	slli	a5,a5,0x2
0xc484 	00f707b3          	add	a5,a4,a5
0xc488 	00f907b3          	add	a5,s2,a5
0xc48c 	8247d603          	lhu	a2,-2012(a5) # ffffe824 <heap_memory_used+0xfffdca4c>
0xc490 	000c8593          	mv	a1,s9
0xc494 	92098513          	addi	a0,s3,-1760 # 1e920 <errpat+0x998>
0xc498 	738010ef          	jal	ra,1da8c <printf>
0xc49c 	001c8c93          	addi	s9,s9,1
0xc4a0 	15c4a783          	lw	a5,348(s1)
0xc4a4 	010c9c93          	slli	s9,s9,0x10
0xc4a8 	010cdc93          	srli	s9,s9,0x10
0xc4ac 	fcfce4e3          	bltu	s9,a5,1c330 <COREMARK+0x804>
0xc4b0 	0e040263          	beqz	s0,1c450 <COREMARK+0x924>
0xc4b4 	16805463          	blez	s0,1c4d8 <COREMARK+0x9ac>
0xc4b8 	0001f537          	lui	a0,0x1f
0xc4bc 	9b450513          	addi	a0,a0,-1612 # 1e9b4 <errpat+0xa2c>
0xc4c0 	710010ef          	jal	ra,1da8c <printf>
0xc4c4 	05e10513          	addi	a0,sp,94
0xc4c8 	4c9000ef          	jal	ra,1d04c <portable_fini>
0xc4cc 	08010113          	addi	sp,sp,128
0xc4d0 	7ec12083          	lw	ra,2028(sp)
0xc4d4 	00000513          	li	a0,0
0xc4d8 	7e812403          	lw	s0,2024(sp)
0xc4dc 	7e412483          	lw	s1,2020(sp)
0xc4e0 	7e012903          	lw	s2,2016(sp)
0xc4e4 	7dc12983          	lw	s3,2012(sp)
0xc4e8 	7d812a03          	lw	s4,2008(sp)
0xc4ec 	7d412a83          	lw	s5,2004(sp)
0xc4f0 	7d012b03          	lw	s6,2000(sp)
0xc4f4 	7cc12b83          	lw	s7,1996(sp)
0xc4f8 	7c812c03          	lw	s8,1992(sp)
0xc4fc 	7c412c83          	lw	s9,1988(sp)
0xc500 	7c012d03          	lw	s10,1984(sp)
0xc504 	7bc12d83          	lw	s11,1980(sp)
0xc508 	7f010113          	addi	sp,sp,2032
0xc50c 	00008067          	ret
0xc510 	000b8593          	mv	a1,s7
0xc514 	73c98513          	addi	a0,s3,1852
0xc518 	6b8010ef          	jal	ra,1da8c <printf>
0xc51c 	82cdd783          	lhu	a5,-2004(s11)
0xc520 	00178793          	addi	a5,a5,1
0xc524 	01079413          	slli	s0,a5,0x10
0xc528 	41045413          	srai	s0,s0,0x10
0xc52c 	828d9623          	sh	s0,-2004(s11)
0xc530 	bbdff06f          	j	1bfa8 <COREMARK+0x47c>
0xc534 	15c4a783          	lw	a5,348(s1)
0xc538 	e39ff06f          	j	1c22c <COREMARK+0x700>
0xc53c 	0001e537          	lui	a0,0x1e
0xc540 	7dc50513          	addi	a0,a0,2012 # 1e7dc <errpat+0x854>
0xc544 	68c010ef          	jal	ra,1da8c <printf>
0xc548 	00140413          	addi	s0,s0,1
0xc54c 	d41ff06f          	j	1c148 <COREMARK+0x61c>
0xc550 	15c4ab03          	lw	s6,348(s1)
0xc554 	03812583          	lw	a1,56(sp)
0xc558 	000a0513          	mv	a0,s4
0xc55c 	036585b3          	mul	a1,a1,s6
0xc560 	03558b33          	mul	s6,a1,s5
0xc564 	411000ef          	jal	ra,1d030 <time_in_secs>
0xc568 	02ab55b3          	divu	a1,s6,a0
0xc56c 	0001e537          	lui	a0,0x1e
0xc570 	7bc50513          	addi	a0,a0,1980 # 1e7bc <errpat+0x834>
0xc574 	0335c6b3          	div	a3,a1,s3
0xc578 	0375c633          	div	a2,a1,s7
0xc57c 	0335e733          	rem	a4,a1,s3
0xc580 	0336e6b3          	rem	a3,a3,s3
0xc584 	03366633          	rem	a2,a2,s3
0xc588 	0355c5b3          	div	a1,a1,s5
0xc58c 	644010ef          	jal	ra,1da8c <printf>
0xc590 	cedff06f          	j	1c138 <COREMARK+0x60c>
0xc594 	0001f537          	lui	a0,0x1f
0xc598 	93c50513          	addi	a0,a0,-1732 # 1e93c <errpat+0x9b4>
0xc59c 	634010ef          	jal	ra,1da8c <printf>
0xc5a0 	00300793          	li	a5,3
0xc5a4 	f2fc10e3          	bne	s8,a5,1c380 <COREMARK+0x854>
0xc5a8 	15c4a783          	lw	a5,348(s1)
0xc5ac 	03812403          	lw	s0,56(sp)
0xc5b0 	3e800493          	li	s1,1000
0xc5b4 	000a0513          	mv	a0,s4
0xc5b8 	02f40433          	mul	s0,s0,a5
0xc5bc 	3b9000ef          	jal	ra,1d030 <time_in_secs>
0xc5c0 	00a00613          	li	a2,10
0xc5c4 	06400893          	li	a7,100
0xc5c8 	874b8813          	addi	a6,s7,-1932
0xc5cc 	834b0793          	addi	a5,s6,-1996
0xc5d0 	02940433          	mul	s0,s0,s1
0xc5d4 	02a455b3          	divu	a1,s0,a0
0xc5d8 	0001f537          	lui	a0,0x1f
0xc5dc 	98850513          	addi	a0,a0,-1656 # 1e988 <errpat+0xa00>
0xc5e0 	0315c8b3          	div	a7,a1,a7
0xc5e4 	02c5c6b3          	div	a3,a1,a2
0xc5e8 	02c5e733          	rem	a4,a1,a2
0xc5ec 	02c6e6b3          	rem	a3,a3,a2
0xc5f0 	0295c5b3          	div	a1,a1,s1
0xc5f4 	02c8e633          	rem	a2,a7,a2
0xc5f8 	5d8010ef          	jal	ra,1da8c <printf>
0xc5fc 	0001f537          	lui	a0,0x1f
0xc600 	9ac50513          	addi	a0,a0,-1620 # 1e9ac <errpat+0xa24>
0xc604 	890a8593          	addi	a1,s5,-1904
0xc608 	5c8010ef          	jal	ra,1da8c <printf>
0xc60c 	0001f537          	lui	a0,0x1f
0xc610 	81850513          	addi	a0,a0,-2024 # 1e818 <errpat+0x890>
0xc614 	5bc010ef          	jal	ra,1da8c <printf>
0xc618 	eadff06f          	j	1c380 <COREMARK+0x854>
0xc61c 	0001f537          	lui	a0,0x1f
0xc620 	9c850513          	addi	a0,a0,-1592 # 1e9c8 <errpat+0xa40>
0xc624 	5ac010ef          	jal	ra,1da8c <printf>
0xc628 	e9dff06f          	j	1c380 <COREMARK+0x854>
0xc62c 	0001e537          	lui	a0,0x1e
0xc630 	5ec50513          	addi	a0,a0,1516 # 1e5ec <errpat+0x664>
0xc634 	59c010ef          	jal	ra,1da8c <printf>
0xc638 	00000c13          	li	s8,0
0xc63c 	a59ff06f          	j	1bf50 <COREMARK+0x424>
0xc640 	0001e537          	lui	a0,0x1e
0xc644 	6ac50513          	addi	a0,a0,1708 # 1e6ac <errpat+0x724>
0xc648 	588010ef          	jal	ra,1da8c <printf>
0xc64c 	00400c13          	li	s8,4
0xc650 	a45ff06f          	j	1bf50 <COREMARK+0x424>
0xc654 	0001e537          	lui	a0,0x1e
0xc658 	61c50513          	addi	a0,a0,1564 # 1e61c <errpat+0x694>
0xc65c 	574010ef          	jal	ra,1da8c <printf>
0xc660 	00100c13          	li	s8,1
0xc664 	a31ff06f          	j	1bf50 <COREMARK+0x424>
0xc668 	fd010113          	addi	sp,sp,-48
0xc66c 	03212023          	sw	s2,32(sp)
0xc670 	01512a23          	sw	s5,20(sp)
0xc674 	00058913          	mv	s2,a1
0xc678 	00050a93          	mv	s5,a0
0xc67c 	0001f537          	lui	a0,0x1f
0xc680 	00060593          	mv	a1,a2
0xc684 	00090693          	mv	a3,s2
0xc688 	00090613          	mv	a2,s2
0xc68c 	a4450513          	addi	a0,a0,-1468 # 1ea44 <errpat+0xabc>
0xc690 	02112623          	sw	ra,44(sp)
0xc694 	02812423          	sw	s0,40(sp)
0xc698 	02912223          	sw	s1,36(sp)
0xc69c 	01312e23          	sw	s3,28(sp)
0xc6a0 	01412c23          	sw	s4,24(sp)
0xc6a4 	01612823          	sw	s6,16(sp)
0xc6a8 	01712623          	sw	s7,12(sp)
0xc6ac 	01812423          	sw	s8,8(sp)
0xc6b0 	520010ef          	jal	ra,1da8c <printf>
0xc6b4 	04090c63          	beqz	s2,1c5c8 <printmat+0xa4>
0xc6b8 	00191c13          	slli	s8,s2,0x1
0xc6bc 	00000b13          	li	s6,0
0xc6c0 	0001fa37          	lui	s4,0x1f
0xc6c4 	0001fbb7          	lui	s7,0x1f
0xc6c8 	0001f9b7          	lui	s3,0x1f
0xc6cc 	000a8493          	mv	s1,s5
0xc6d0 	00000413          	li	s0,0
0xc6d4 	00c0006f          	j	1c59c <printmat+0x78>
0xc6d8 	4f8010ef          	jal	ra,1da8c <printf>
0xc6dc 	00248493          	addi	s1,s1,2
0xc6e0 	00049583          	lh	a1,0(s1)
0xc6e4 	a5ca0513          	addi	a0,s4,-1444 # 1ea5c <errpat+0xad4>
0xc6e8 	00140413          	addi	s0,s0,1
0xc6ec 	4e4010ef          	jal	ra,1da8c <printf>
0xc6f0 	a5898513          	addi	a0,s3,-1448 # 1ea58 <errpat+0xad0>
0xc6f4 	fe8912e3          	bne	s2,s0,1c594 <printmat+0x70>
0xc6f8 	818b8513          	addi	a0,s7,-2024 # 1e818 <errpat+0x890>
0xc6fc 	001b0b13          	addi	s6,s6,1
0xc700 	4d0010ef          	jal	ra,1da8c <printf>
0xc704 	018a8ab3          	add	s5,s5,s8
0xc708 	fd2b12e3          	bne	s6,s2,1c588 <printmat+0x64>
0xc70c 	02c12083          	lw	ra,44(sp)
0xc710 	02812403          	lw	s0,40(sp)
0xc714 	02412483          	lw	s1,36(sp)
0xc718 	02012903          	lw	s2,32(sp)
0xc71c 	01c12983          	lw	s3,28(sp)
0xc720 	01812a03          	lw	s4,24(sp)
0xc724 	01412a83          	lw	s5,20(sp)
0xc728 	01012b03          	lw	s6,16(sp)
0xc72c 	00c12b83          	lw	s7,12(sp)
0xc730 	00812c03          	lw	s8,8(sp)
0xc734 	03010113          	addi	sp,sp,48
0xc738 	00008067          	ret
0xc73c 	fd010113          	addi	sp,sp,-48
0xc740 	03212023          	sw	s2,32(sp)
0xc744 	01512a23          	sw	s5,20(sp)
0xc748 	00058913          	mv	s2,a1
0xc74c 	00050a93          	mv	s5,a0
0xc750 	0001f537          	lui	a0,0x1f
0xc754 	00060593          	mv	a1,a2
0xc758 	00090693          	mv	a3,s2
0xc75c 	00090613          	mv	a2,s2
0xc760 	a4450513          	addi	a0,a0,-1468 # 1ea44 <errpat+0xabc>
0xc764 	02112623          	sw	ra,44(sp)
0xc768 	02812423          	sw	s0,40(sp)
0xc76c 	02912223          	sw	s1,36(sp)
0xc770 	01312e23          	sw	s3,28(sp)
0xc774 	01412c23          	sw	s4,24(sp)
0xc778 	01612823          	sw	s6,16(sp)
0xc77c 	01712623          	sw	s7,12(sp)
0xc780 	01812423          	sw	s8,8(sp)
0xc784 	44c010ef          	jal	ra,1da8c <printf>
0xc788 	04090c63          	beqz	s2,1c69c <printmatC+0xa4>
0xc78c 	00291c13          	slli	s8,s2,0x2
0xc790 	00000b13          	li	s6,0
0xc794 	0001fa37          	lui	s4,0x1f
0xc798 	0001fbb7          	lui	s7,0x1f
0xc79c 	0001f9b7          	lui	s3,0x1f
0xc7a0 	000a8493          	mv	s1,s5
0xc7a4 	00000413          	li	s0,0
0xc7a8 	00c0006f          	j	1c670 <printmatC+0x78>
0xc7ac 	424010ef          	jal	ra,1da8c <printf>
0xc7b0 	00448493          	addi	s1,s1,4
0xc7b4 	0004a583          	lw	a1,0(s1)
0xc7b8 	a5ca0513          	addi	a0,s4,-1444 # 1ea5c <errpat+0xad4>
0xc7bc 	00140413          	addi	s0,s0,1
0xc7c0 	410010ef          	jal	ra,1da8c <printf>
0xc7c4 	a5898513          	addi	a0,s3,-1448 # 1ea58 <errpat+0xad0>
0xc7c8 	fe8912e3          	bne	s2,s0,1c668 <printmatC+0x70>
0xc7cc 	818b8513          	addi	a0,s7,-2024 # 1e818 <errpat+0x890>
0xc7d0 	001b0b13          	addi	s6,s6,1
0xc7d4 	3fc010ef          	jal	ra,1da8c <printf>
0xc7d8 	018a8ab3          	add	s5,s5,s8
0xc7dc 	fd2b12e3          	bne	s6,s2,1c65c <printmatC+0x64>
0xc7e0 	02c12083          	lw	ra,44(sp)
0xc7e4 	02812403          	lw	s0,40(sp)
0xc7e8 	02412483          	lw	s1,36(sp)
0xc7ec 	02012903          	lw	s2,32(sp)
0xc7f0 	01c12983          	lw	s3,28(sp)
0xc7f4 	01812a03          	lw	s4,24(sp)
0xc7f8 	01412a83          	lw	s5,20(sp)
0xc7fc 	01012b03          	lw	s6,16(sp)
0xc800 	00c12b83          	lw	s7,12(sp)
0xc804 	00812c03          	lw	s8,8(sp)
0xc808 	03010113          	addi	sp,sp,48
0xc80c 	00008067          	ret
0xc810 	ff010113          	addi	sp,sp,-16
0xc814 	00112623          	sw	ra,12(sp)
0xc818 	00812423          	sw	s0,8(sp)
0xc81c 	00912223          	sw	s1,4(sp)
0xc820 	00061463          	bnez	a2,1c6e4 <core_init_matrix+0x18>
0xc824 	00100613          	li	a2,1
0xc828 	fff58493          	addi	s1,a1,-1
0xc82c 	ffc4f493          	andi	s1,s1,-4
0xc830 	00448f13          	addi	t5,s1,4
0xc834 	10050c63          	beqz	a0,1c808 <core_init_matrix+0x13c>
0xc838 	00000413          	li	s0,0
0xc83c 	0080006f          	j	1c700 <core_init_matrix+0x34>
0xc840 	00070413          	mv	s0,a4
0xc844 	00140713          	addi	a4,s0,1
0xc848 	02e707b3          	mul	a5,a4,a4
0xc84c 	00379793          	slli	a5,a5,0x3
0xc850 	fea7e8e3          	bltu	a5,a0,1c6fc <core_init_matrix+0x30>
0xc854 	028403b3          	mul	t2,s0,s0
0xc858 	00040f93          	mv	t6,s0
0xc85c 	00139393          	slli	t2,t2,0x1
0xc860 	007f04b3          	add	s1,t5,t2
0xc864 	08040463          	beqz	s0,1c7a8 <core_init_matrix+0xdc>
0xc868 	00010e37          	lui	t3,0x10
0xc86c 	00000293          	li	t0,0
0xc870 	00100313          	li	t1,1
0xc874 	409f0eb3          	sub	t4,t5,s1
0xc878 	00141093          	slli	ra,s0,0x1
0xc87c 	fffe0e13          	addi	t3,t3,-1 # ffff <coremarkBenchmark+0xff57>
0xc880 	02508533          	mul	a0,ra,t0
0xc884 	00030713          	mv	a4,t1
0xc888 	00a48533          	add	a0,s1,a0
0xc88c 	02e60633          	mul	a2,a2,a4
0xc890 	01071793          	slli	a5,a4,0x10
0xc894 	0107d793          	srli	a5,a5,0x10
0xc898 	00ae88b3          	add	a7,t4,a0
0xc89c 	00250513          	addi	a0,a0,2
0xc8a0 	00170713          	addi	a4,a4,1
0xc8a4 	40670833          	sub	a6,a4,t1
0xc8a8 	41f65593          	srai	a1,a2,0x1f
0xc8ac 	0105d593          	srli	a1,a1,0x10
0xc8b0 	00b60633          	add	a2,a2,a1
0xc8b4 	01c67633          	and	a2,a2,t3
0xc8b8 	40b60633          	sub	a2,a2,a1
0xc8bc 	00c785b3          	add	a1,a5,a2
0xc8c0 	01059593          	slli	a1,a1,0x10
0xc8c4 	0105d593          	srli	a1,a1,0x10
0xc8c8 	00b787b3          	add	a5,a5,a1
0xc8cc 	feb51f23          	sh	a1,-2(a0)
0xc8d0 	0ff7f793          	andi	a5,a5,255
0xc8d4 	00f89023          	sh	a5,0(a7)
0xc8d8 	fa886ae3          	bltu	a6,s0,1c748 <core_init_matrix+0x7c>
0xc8dc 	00128293          	addi	t0,t0,1
0xc8e0 	0082f663          	bleu	s0,t0,1c7a8 <core_init_matrix+0xdc>
0xc8e4 	00070313          	mv	t1,a4
0xc8e8 	f99ff06f          	j	1c73c <core_init_matrix+0x70>
0xc8ec 	007487b3          	add	a5,s1,t2
0xc8f0 	fff78793          	addi	a5,a5,-1
0xc8f4 	ffc7f793          	andi	a5,a5,-4
0xc8f8 	00478793          	addi	a5,a5,4
0xc8fc 	0001f637          	lui	a2,0x1f
0xc900 	00040593          	mv	a1,s0
0xc904 	000f0513          	mv	a0,t5
0xc908 	0096a423          	sw	s1,8(a3)
0xc90c 	a6060613          	addi	a2,a2,-1440 # 1ea60 <errpat+0xad8>
0xc910 	01e6a223          	sw	t5,4(a3)
0xc914 	00f6a623          	sw	a5,12(a3)
0xc918 	01f6a023          	sw	t6,0(a3)
0xc91c 	d4dff0ef          	jal	ra,1c524 <printmat>
0xc920 	0001f637          	lui	a2,0x1f
0xc924 	00048513          	mv	a0,s1
0xc928 	00040593          	mv	a1,s0
0xc92c 	a6460613          	addi	a2,a2,-1436 # 1ea64 <errpat+0xadc>
0xc930 	d39ff0ef          	jal	ra,1c524 <printmat>
0xc934 	00040513          	mv	a0,s0
0xc938 	00c12083          	lw	ra,12(sp)
0xc93c 	00812403          	lw	s0,8(sp)
0xc940 	00412483          	lw	s1,4(sp)
0xc944 	01010113          	addi	sp,sp,16
0xc948 	00008067          	ret
0xc94c 	00648493          	addi	s1,s1,6
0xc950 	fff00f93          	li	t6,-1
0xc954 	fff00413          	li	s0,-1
0xc958 	00200393          	li	t2,2
0xc95c 	f0dff06f          	j	1c724 <core_init_matrix+0x58>
0xc960 	08050a63          	beqz	a0,1c8b0 <matrix_sum+0x94>
0xc964 	40a00f33          	neg	t5,a0
0xc968 	00251793          	slli	a5,a0,0x2
0xc96c 	00f585b3          	add	a1,a1,a5
0xc970 	002f1f93          	slli	t6,t5,0x2
0xc974 	00000e13          	li	t3,0
0xc978 	00000793          	li	a5,0
0xc97c 	00000693          	li	a3,0
0xc980 	00000893          	li	a7,0
0xc984 	003f1f13          	slli	t5,t5,0x3
0xc988 	00bf8eb3          	add	t4,t6,a1
0xc98c 	000e8713          	mv	a4,t4
0xc990 	01c0006f          	j	1c868 <matrix_sum+0x4c>
0xc994 	01031793          	slli	a5,t1,0x10
0xc998 	00470713          	addi	a4,a4,4
0xc99c 	4107d793          	srai	a5,a5,0x10
0xc9a0 	00000893          	li	a7,0
0xc9a4 	00080693          	mv	a3,a6
0xc9a8 	02e58c63          	beq	a1,a4,1c89c <matrix_sum+0x80>
0xc9ac 	00072803          	lw	a6,0(a4)
0xc9b0 	01079793          	slli	a5,a5,0x10
0xc9b4 	0107d793          	srli	a5,a5,0x10
0xc9b8 	0106a6b3          	slt	a3,a3,a6
0xc9bc 	010888b3          	add	a7,a7,a6
0xc9c0 	00a78313          	addi	t1,a5,10
0xc9c4 	00d787b3          	add	a5,a5,a3
0xc9c8 	fd1646e3          	blt	a2,a7,1c850 <matrix_sum+0x34>
0xc9cc 	01079793          	slli	a5,a5,0x10
0xc9d0 	00470713          	addi	a4,a4,4
0xc9d4 	4107d793          	srai	a5,a5,0x10
0xc9d8 	00080693          	mv	a3,a6
0xc9dc 	fce598e3          	bne	a1,a4,1c868 <matrix_sum+0x4c>
0xc9e0 	001e0e13          	addi	t3,t3,1
0xc9e4 	41ee85b3          	sub	a1,t4,t5
0xc9e8 	fbc510e3          	bne	a0,t3,1c844 <matrix_sum+0x28>
0xc9ec 	00078513          	mv	a0,a5
0xc9f0 	00008067          	ret
0xc9f4 	00000793          	li	a5,0
0xc9f8 	00078513          	mv	a0,a5
0xc9fc 	00008067          	ret
0xca00 	02050e63          	beqz	a0,1c8f8 <matrix_mul_const+0x3c>
0xca04 	00151e13          	slli	t3,a0,0x1
0xca08 	00251313          	slli	t1,a0,0x2
0xca0c 	00000893          	li	a7,0
0xca10 	00ce0833          	add	a6,t3,a2
0xca14 	00058713          	mv	a4,a1
0xca18 	00061783          	lh	a5,0(a2)
0xca1c 	00470713          	addi	a4,a4,4
0xca20 	00260613          	addi	a2,a2,2
0xca24 	02d787b3          	mul	a5,a5,a3
0xca28 	fef72e23          	sw	a5,-4(a4)
0xca2c 	ff0616e3          	bne	a2,a6,1c8d4 <matrix_mul_const+0x18>
0xca30 	00188893          	addi	a7,a7,1
0xca34 	006585b3          	add	a1,a1,t1
0xca38 	fd151ce3          	bne	a0,a7,1c8cc <matrix_mul_const+0x10>
0xca3c 	00008067          	ret
0xca40 	02050a63          	beqz	a0,1c930 <matrix_add_const+0x34>
0xca44 	01061613          	slli	a2,a2,0x10
0xca48 	01065613          	srli	a2,a2,0x10
0xca4c 	00151813          	slli	a6,a0,0x1
0xca50 	00000693          	li	a3,0
0xca54 	00b80733          	add	a4,a6,a1
0xca58 	0005d783          	lhu	a5,0(a1)
0xca5c 	00258593          	addi	a1,a1,2
0xca60 	00f607b3          	add	a5,a2,a5
0xca64 	fef59f23          	sh	a5,-2(a1)
0xca68 	feb718e3          	bne	a4,a1,1c914 <matrix_add_const+0x18>
0xca6c 	00168693          	addi	a3,a3,1
0xca70 	fed512e3          	bne	a0,a3,1c910 <matrix_add_const+0x14>
0xca74 	00008067          	ret
0xca78 	04050663          	beqz	a0,1c980 <matrix_mul_vect+0x4c>
0xca7c 	00151e93          	slli	t4,a0,0x1
0xca80 	00251513          	slli	a0,a0,0x2
0xca84 	00a58e33          	add	t3,a1,a0
0xca88 	01d68333          	add	t1,a3,t4
0xca8c 	00068793          	mv	a5,a3
0xca90 	00060513          	mv	a0,a2
0xca94 	00000813          	li	a6,0
0xca98 	00051703          	lh	a4,0(a0)
0xca9c 	00079883          	lh	a7,0(a5)
0xcaa0 	00278793          	addi	a5,a5,2
0xcaa4 	00250513          	addi	a0,a0,2
0xcaa8 	03170733          	mul	a4,a4,a7
0xcaac 	00e80833          	add	a6,a6,a4
0xcab0 	fef314e3          	bne	t1,a5,1c954 <matrix_mul_vect+0x20>
0xcab4 	0105a023          	sw	a6,0(a1)
0xcab8 	00458593          	addi	a1,a1,4
0xcabc 	01d60633          	add	a2,a2,t4
0xcac0 	fcbe16e3          	bne	t3,a1,1c948 <matrix_mul_vect+0x14>
0xcac4 	00008067          	ret
0xcac8 	08050063          	beqz	a0,1ca04 <matrix_mul_matrix+0x80>
0xcacc 	00151e13          	slli	t3,a0,0x1
0xcad0 	ff010113          	addi	sp,sp,-16
0xcad4 	00812623          	sw	s0,12(sp)
0xcad8 	01c60eb3          	add	t4,a2,t3
0xcadc 	00251413          	slli	s0,a0,0x2
0xcae0 	01c682b3          	add	t0,a3,t3
0xcae4 	00000393          	li	t2,0
0xcae8 	00068f13          	mv	t5,a3
0xcaec 	00058f93          	mv	t6,a1
0xcaf0 	000f0813          	mv	a6,t5
0xcaf4 	00060793          	mv	a5,a2
0xcaf8 	00000893          	li	a7,0
0xcafc 	00079703          	lh	a4,0(a5)
0xcb00 	00081303          	lh	t1,0(a6)
0xcb04 	00278793          	addi	a5,a5,2
0xcb08 	01c80833          	add	a6,a6,t3
0xcb0c 	02670733          	mul	a4,a4,t1
0xcb10 	00e888b3          	add	a7,a7,a4
0xcb14 	fefe94e3          	bne	t4,a5,1c9b8 <matrix_mul_matrix+0x34>
0xcb18 	011fa023          	sw	a7,0(t6) # ffff8000 <heap_memory_used+0xfffd6228>
0xcb1c 	002f0f13          	addi	t5,t5,2
0xcb20 	004f8f93          	addi	t6,t6,4
0xcb24 	fde296e3          	bne	t0,t5,1c9ac <matrix_mul_matrix+0x28>
0xcb28 	00138393          	addi	t2,t2,1
0xcb2c 	01c60633          	add	a2,a2,t3
0xcb30 	01ce8eb3          	add	t4,t4,t3
0xcb34 	008585b3          	add	a1,a1,s0
0xcb38 	fa7518e3          	bne	a0,t2,1c9a4 <matrix_mul_matrix+0x20>
0xcb3c 	00c12403          	lw	s0,12(sp)
0xcb40 	01010113          	addi	sp,sp,16
0xcb44 	00008067          	ret
0xcb48 	00008067          	ret
0xcb4c 	08050a63          	beqz	a0,1ca9c <matrix_mul_matrix_bitextract+0x94>
0xcb50 	00151e13          	slli	t3,a0,0x1
0xcb54 	ff010113          	addi	sp,sp,-16
0xcb58 	00812623          	sw	s0,12(sp)
0xcb5c 	01c60eb3          	add	t4,a2,t3
0xcb60 	00251413          	slli	s0,a0,0x2
0xcb64 	01c682b3          	add	t0,a3,t3
0xcb68 	00000393          	li	t2,0
0xcb6c 	00068f13          	mv	t5,a3
0xcb70 	00058f93          	mv	t6,a1
0xcb74 	000f0893          	mv	a7,t5
0xcb78 	00060813          	mv	a6,a2
0xcb7c 	00000313          	li	t1,0
0xcb80 	00089703          	lh	a4,0(a7)
0xcb84 	00081783          	lh	a5,0(a6)
0xcb88 	00280813          	addi	a6,a6,2
0xcb8c 	01c888b3          	add	a7,a7,t3
0xcb90 	02e787b3          	mul	a5,a5,a4
0xcb94 	4027d713          	srai	a4,a5,0x2
0xcb98 	4057d793          	srai	a5,a5,0x5
0xcb9c 	00f77713          	andi	a4,a4,15
0xcba0 	07f7f793          	andi	a5,a5,127
0xcba4 	02f707b3          	mul	a5,a4,a5
0xcba8 	00f30333          	add	t1,t1,a5
0xcbac 	fd0e9ae3          	bne	t4,a6,1ca3c <matrix_mul_matrix_bitextract+0x34>
0xcbb0 	006fa023          	sw	t1,0(t6)
0xcbb4 	002f0f13          	addi	t5,t5,2
0xcbb8 	004f8f93          	addi	t6,t6,4
0xcbbc 	fbe29ce3          	bne	t0,t5,1ca30 <matrix_mul_matrix_bitextract+0x28>
0xcbc0 	00138393          	addi	t2,t2,1
0xcbc4 	01c60633          	add	a2,a2,t3
0xcbc8 	01ce8eb3          	add	t4,t4,t3
0xcbcc 	008585b3          	add	a1,a1,s0
0xcbd0 	f8751ee3          	bne	a0,t2,1ca28 <matrix_mul_matrix_bitextract+0x20>
0xcbd4 	00c12403          	lw	s0,12(sp)
0xcbd8 	01010113          	addi	sp,sp,16
0xcbdc 	00008067          	ret
0xcbe0 	00008067          	ret
0xcbe4 	fb010113          	addi	sp,sp,-80
0xcbe8 	04812423          	sw	s0,72(sp)
0xcbec 	04912223          	sw	s1,68(sp)
0xcbf0 	05212023          	sw	s2,64(sp)
0xcbf4 	03412c23          	sw	s4,56(sp)
0xcbf8 	04112623          	sw	ra,76(sp)
0xcbfc 	fffffa37          	lui	s4,0xfffff
0xcc00 	03312e23          	sw	s3,60(sp)
0xcc04 	03512a23          	sw	s5,52(sp)
0xcc08 	03612823          	sw	s6,48(sp)
0xcc0c 	03712623          	sw	s7,44(sp)
0xcc10 	03812423          	sw	s8,40(sp)
0xcc14 	03912223          	sw	s9,36(sp)
0xcc18 	03a12023          	sw	s10,32(sp)
0xcc1c 	01b12e23          	sw	s11,28(sp)
0xcc20 	00058413          	mv	s0,a1
0xcc24 	00060493          	mv	s1,a2
0xcc28 	00068913          	mv	s2,a3
0xcc2c 	01476a33          	or	s4,a4,s4
0xcc30 	3c050663          	beqz	a0,1ceb8 <matrix_test+0x418>
0xcc34 	01071a93          	slli	s5,a4,0x10
0xcc38 	00070d13          	mv	s10,a4
0xcc3c 	010ada93          	srli	s5,s5,0x10
0xcc40 	00151c13          	slli	s8,a0,0x1
0xcc44 	00060b93          	mv	s7,a2
0xcc48 	00060793          	mv	a5,a2
0xcc4c 	00000993          	li	s3,0
0xcc50 	00fc0633          	add	a2,s8,a5
0xcc54 	0007d683          	lhu	a3,0(a5)
0xcc58 	00278793          	addi	a5,a5,2
0xcc5c 	00da86b3          	add	a3,s5,a3
0xcc60 	fed79f23          	sh	a3,-2(a5)
0xcc64 	fef618e3          	bne	a2,a5,1cb10 <matrix_test+0x70>
0xcc68 	00198993          	addi	s3,s3,1
0xcc6c 	00060793          	mv	a5,a2
0xcc70 	ff3510e3          	bne	a0,s3,1cb0c <matrix_test+0x6c>
0xcc74 	0001f637          	lui	a2,0x1f
0xcc78 	00048513          	mv	a0,s1
0xcc7c 	a6860613          	addi	a2,a2,-1432 # 1ea68 <errpat+0xae0>
0xcc80 	00098593          	mv	a1,s3
0xcc84 	9e5ff0ef          	jal	ra,1c524 <printmat>
0xcc88 	00299b13          	slli	s6,s3,0x2
0xcc8c 	00040c93          	mv	s9,s0
0xcc90 	00040513          	mv	a0,s0
0xcc94 	00048793          	mv	a5,s1
0xcc98 	00000713          	li	a4,0
0xcc9c 	018785b3          	add	a1,a5,s8
0xcca0 	00050613          	mv	a2,a0
0xcca4 	00079683          	lh	a3,0(a5)
0xcca8 	00460613          	addi	a2,a2,4
0xccac 	00278793          	addi	a5,a5,2
0xccb0 	03a686b3          	mul	a3,a3,s10
0xccb4 	fed62e23          	sw	a3,-4(a2)
0xccb8 	feb796e3          	bne	a5,a1,1cb60 <matrix_test+0xc0>
0xccbc 	00170713          	addi	a4,a4,1
0xccc0 	01650533          	add	a0,a0,s6
0xccc4 	fd371ce3          	bne	a4,s3,1cb58 <matrix_test+0xb8>
0xccc8 	41300db3          	neg	s11,s3
0xcccc 	01640d33          	add	s10,s0,s6
0xccd0 	002d9713          	slli	a4,s11,0x2
0xccd4 	000d0893          	mv	a7,s10
0xccd8 	00000513          	li	a0,0
0xccdc 	00000793          	li	a5,0
0xcce0 	00000593          	li	a1,0
0xcce4 	00000313          	li	t1,0
0xcce8 	003d9d93          	slli	s11,s11,0x3
0xccec 	01170e33          	add	t3,a4,a7
0xccf0 	000e0613          	mv	a2,t3
0xccf4 	01c0006f          	j	1cbcc <matrix_test+0x12c>
0xccf8 	01081513          	slli	a0,a6,0x10
0xccfc 	00460613          	addi	a2,a2,4
0xcd00 	41055513          	srai	a0,a0,0x10
0xcd04 	00000593          	li	a1,0
0xcd08 	00068793          	mv	a5,a3
0xcd0c 	02c88c63          	beq	a7,a2,1cc00 <matrix_test+0x160>
0xcd10 	00062683          	lw	a3,0(a2)
0xcd14 	01051513          	slli	a0,a0,0x10
0xcd18 	01055513          	srli	a0,a0,0x10
0xcd1c 	00d7a7b3          	slt	a5,a5,a3
0xcd20 	00d585b3          	add	a1,a1,a3
0xcd24 	00a50813          	addi	a6,a0,10
0xcd28 	00f50533          	add	a0,a0,a5
0xcd2c 	fcba46e3          	blt	s4,a1,1cbb4 <matrix_test+0x114>
0xcd30 	01051513          	slli	a0,a0,0x10
0xcd34 	00460613          	addi	a2,a2,4
0xcd38 	41055513          	srai	a0,a0,0x10
0xcd3c 	00068793          	mv	a5,a3
0xcd40 	fcc898e3          	bne	a7,a2,1cbcc <matrix_test+0x12c>
0xcd44 	00130313          	addi	t1,t1,1
0xcd48 	41be08b3          	sub	a7,t3,s11
0xcd4c 	fb3310e3          	bne	t1,s3,1cba8 <matrix_test+0x108>
0xcd50 	00000593          	li	a1,0
0xcd54 	00e12623          	sw	a4,12(sp)
0xcd58 	489000ef          	jal	ra,1d89c <crc16>
0xcd5c 	0001f637          	lui	a2,0x1f
0xcd60 	00a12423          	sw	a0,8(sp)
0xcd64 	a7c60613          	addi	a2,a2,-1412 # 1ea7c <errpat+0xaf4>
0xcd68 	00098593          	mv	a1,s3
0xcd6c 	00040513          	mv	a0,s0
0xcd70 	9cdff0ef          	jal	ra,1c5f8 <printmatC>
0xcd74 	00040593          	mv	a1,s0
0xcd78 	00098513          	mv	a0,s3
0xcd7c 	00090693          	mv	a3,s2
0xcd80 	00048613          	mv	a2,s1
0xcd84 	cf5ff0ef          	jal	ra,1c934 <matrix_mul_vect>
0xcd88 	00812883          	lw	a7,8(sp)
0xcd8c 	00c12703          	lw	a4,12(sp)
0xcd90 	00000513          	li	a0,0
0xcd94 	00000793          	li	a5,0
0xcd98 	00000593          	li	a1,0
0xcd9c 	00000313          	li	t1,0
0xcda0 	01a70e33          	add	t3,a4,s10
0xcda4 	000e0613          	mv	a2,t3
0xcda8 	01c0006f          	j	1cc80 <matrix_test+0x1e0>
0xcdac 	01081513          	slli	a0,a6,0x10
0xcdb0 	00460613          	addi	a2,a2,4
0xcdb4 	41055513          	srai	a0,a0,0x10
0xcdb8 	00000593          	li	a1,0
0xcdbc 	00068793          	mv	a5,a3
0xcdc0 	02cd0c63          	beq	s10,a2,1ccb4 <matrix_test+0x214>
0xcdc4 	00062683          	lw	a3,0(a2)
0xcdc8 	01051513          	slli	a0,a0,0x10
0xcdcc 	01055513          	srli	a0,a0,0x10
0xcdd0 	00d7a7b3          	slt	a5,a5,a3
0xcdd4 	00d585b3          	add	a1,a1,a3
0xcdd8 	00a50813          	addi	a6,a0,10
0xcddc 	00f50533          	add	a0,a0,a5
0xcde0 	fcba46e3          	blt	s4,a1,1cc68 <matrix_test+0x1c8>
0xcde4 	01051513          	slli	a0,a0,0x10
0xcde8 	00460613          	addi	a2,a2,4
0xcdec 	41055513          	srai	a0,a0,0x10
0xcdf0 	00068793          	mv	a5,a3
0xcdf4 	fccd18e3          	bne	s10,a2,1cc80 <matrix_test+0x1e0>
0xcdf8 	00130313          	addi	t1,t1,1
0xcdfc 	41be0d33          	sub	s10,t3,s11
0xce00 	fb3310e3          	bne	t1,s3,1cc5c <matrix_test+0x1bc>
0xce04 	00088593          	mv	a1,a7
0xce08 	3d9000ef          	jal	ra,1d89c <crc16>
0xce0c 	0001f637          	lui	a2,0x1f
0xce10 	a9060613          	addi	a2,a2,-1392 # 1ea90 <errpat+0xb08>
0xce14 	00098593          	mv	a1,s3
0xce18 	00050d13          	mv	s10,a0
0xce1c 	00040513          	mv	a0,s0
0xce20 	91dff0ef          	jal	ra,1c5f8 <printmatC>
0xce24 	00090693          	mv	a3,s2
0xce28 	00098513          	mv	a0,s3
0xce2c 	00048613          	mv	a2,s1
0xce30 	00040593          	mv	a1,s0
0xce34 	c95ff0ef          	jal	ra,1c984 <matrix_mul_matrix>
0xce38 	00040313          	mv	t1,s0
0xce3c 	00000513          	li	a0,0
0xce40 	00000793          	li	a5,0
0xce44 	00000693          	li	a3,0
0xce48 	00000893          	li	a7,0
0xce4c 	00030593          	mv	a1,t1
0xce50 	00000613          	li	a2,0
0xce54 	0200006f          	j	1cd30 <matrix_test+0x290>
0xce58 	01081513          	slli	a0,a6,0x10
0xce5c 	00160613          	addi	a2,a2,1
0xce60 	41055513          	srai	a0,a0,0x10
0xce64 	00000693          	li	a3,0
0xce68 	00458593          	addi	a1,a1,4
0xce6c 	00070793          	mv	a5,a4
0xce70 	03367e63          	bleu	s3,a2,1cd68 <matrix_test+0x2c8>
0xce74 	0005a703          	lw	a4,0(a1)
0xce78 	01051513          	slli	a0,a0,0x10
0xce7c 	01055513          	srli	a0,a0,0x10
0xce80 	00e7a7b3          	slt	a5,a5,a4
0xce84 	00e686b3          	add	a3,a3,a4
0xce88 	00a50813          	addi	a6,a0,10
0xce8c 	00f50533          	add	a0,a0,a5
0xce90 	fcda44e3          	blt	s4,a3,1cd14 <matrix_test+0x274>
0xce94 	01051513          	slli	a0,a0,0x10
0xce98 	00160613          	addi	a2,a2,1
0xce9c 	41055513          	srai	a0,a0,0x10
0xcea0 	00458593          	addi	a1,a1,4
0xcea4 	00070793          	mv	a5,a4
0xcea8 	fd3666e3          	bltu	a2,s3,1cd30 <matrix_test+0x290>
0xceac 	00188893          	addi	a7,a7,1
0xceb0 	01630333          	add	t1,t1,s6
0xceb4 	f938ece3          	bltu	a7,s3,1cd08 <matrix_test+0x268>
0xceb8 	000d0593          	mv	a1,s10
0xcebc 	325000ef          	jal	ra,1d89c <crc16>
0xcec0 	0001f637          	lui	a2,0x1f
0xcec4 	aa060613          	addi	a2,a2,-1376 # 1eaa0 <errpat+0xb18>
0xcec8 	00098593          	mv	a1,s3
0xcecc 	00050d13          	mv	s10,a0
0xced0 	00040513          	mv	a0,s0
0xced4 	869ff0ef          	jal	ra,1c5f8 <printmatC>
0xced8 	00090693          	mv	a3,s2
0xcedc 	00098513          	mv	a0,s3
0xcee0 	00048613          	mv	a2,s1
0xcee4 	00040593          	mv	a1,s0
0xcee8 	c65ff0ef          	jal	ra,1ca08 <matrix_mul_matrix_bitextract>
0xceec 	00000513          	li	a0,0
0xcef0 	00000793          	li	a5,0
0xcef4 	00000693          	li	a3,0
0xcef8 	00000893          	li	a7,0
0xcefc 	000c8593          	mv	a1,s9
0xcf00 	00000613          	li	a2,0
0xcf04 	0200006f          	j	1cde0 <matrix_test+0x340>
0xcf08 	01081513          	slli	a0,a6,0x10
0xcf0c 	00160613          	addi	a2,a2,1
0xcf10 	41055513          	srai	a0,a0,0x10
0xcf14 	00000693          	li	a3,0
0xcf18 	00458593          	addi	a1,a1,4
0xcf1c 	00070793          	mv	a5,a4
0xcf20 	03367e63          	bleu	s3,a2,1ce18 <matrix_test+0x378>
0xcf24 	0005a703          	lw	a4,0(a1)
0xcf28 	01051513          	slli	a0,a0,0x10
0xcf2c 	01055513          	srli	a0,a0,0x10
0xcf30 	00e7a7b3          	slt	a5,a5,a4
0xcf34 	00e686b3          	add	a3,a3,a4
0xcf38 	00a50813          	addi	a6,a0,10
0xcf3c 	00f50533          	add	a0,a0,a5
0xcf40 	fcda44e3          	blt	s4,a3,1cdc4 <matrix_test+0x324>
0xcf44 	01051513          	slli	a0,a0,0x10
0xcf48 	00160613          	addi	a2,a2,1
0xcf4c 	41055513          	srai	a0,a0,0x10
0xcf50 	00458593          	addi	a1,a1,4
0xcf54 	00070793          	mv	a5,a4
0xcf58 	fd3666e3          	bltu	a2,s3,1cde0 <matrix_test+0x340>
0xcf5c 	00188893          	addi	a7,a7,1
0xcf60 	016c8cb3          	add	s9,s9,s6
0xcf64 	f938ece3          	bltu	a7,s3,1cdb8 <matrix_test+0x318>
0xcf68 	000d0593          	mv	a1,s10
0xcf6c 	275000ef          	jal	ra,1d89c <crc16>
0xcf70 	0001f637          	lui	a2,0x1f
0xcf74 	ab460613          	addi	a2,a2,-1356 # 1eab4 <errpat+0xb2c>
0xcf78 	00050493          	mv	s1,a0
0xcf7c 	00098593          	mv	a1,s3
0xcf80 	00040513          	mv	a0,s0
0xcf84 	fb8ff0ef          	jal	ra,1c5f8 <printmatC>
0xcf88 	00000613          	li	a2,0
0xcf8c 	000b8793          	mv	a5,s7
0xcf90 	00000693          	li	a3,0
0xcf94 	0007d703          	lhu	a4,0(a5)
0xcf98 	00278793          	addi	a5,a5,2
0xcf9c 	00168693          	addi	a3,a3,1
0xcfa0 	41570733          	sub	a4,a4,s5
0xcfa4 	fee79f23          	sh	a4,-2(a5)
0xcfa8 	ff36e6e3          	bltu	a3,s3,1ce50 <matrix_test+0x3b0>
0xcfac 	00160613          	addi	a2,a2,1
0xcfb0 	018b8bb3          	add	s7,s7,s8
0xcfb4 	fd366ce3          	bltu	a2,s3,1ce48 <matrix_test+0x3a8>
0xcfb8 	04c12083          	lw	ra,76(sp)
0xcfbc 	04812403          	lw	s0,72(sp)
0xcfc0 	01049513          	slli	a0,s1,0x10
0xcfc4 	04012903          	lw	s2,64(sp)
0xcfc8 	04412483          	lw	s1,68(sp)
0xcfcc 	03c12983          	lw	s3,60(sp)
0xcfd0 	03812a03          	lw	s4,56(sp)
0xcfd4 	03412a83          	lw	s5,52(sp)
0xcfd8 	03012b03          	lw	s6,48(sp)
0xcfdc 	02c12b83          	lw	s7,44(sp)
0xcfe0 	02812c03          	lw	s8,40(sp)
0xcfe4 	02412c83          	lw	s9,36(sp)
0xcfe8 	02012d03          	lw	s10,32(sp)
0xcfec 	01c12d83          	lw	s11,28(sp)
0xcff0 	41055513          	srai	a0,a0,0x10
0xcff4 	05010113          	addi	sp,sp,80
0xcff8 	00008067          	ret
0xcffc 	0001f637          	lui	a2,0x1f
0xd000 	a6860613          	addi	a2,a2,-1432 # 1ea68 <errpat+0xae0>
0xd004 	00048513          	mv	a0,s1
0xd008 	00000593          	li	a1,0
0xd00c 	e5cff0ef          	jal	ra,1c524 <printmat>
0xd010 	00000593          	li	a1,0
0xd014 	00000513          	li	a0,0
0xd018 	1c9000ef          	jal	ra,1d89c <crc16>
0xd01c 	0001f637          	lui	a2,0x1f
0xd020 	00050993          	mv	s3,a0
0xd024 	a7c60613          	addi	a2,a2,-1412 # 1ea7c <errpat+0xaf4>
0xd028 	00040513          	mv	a0,s0
0xd02c 	00000593          	li	a1,0
0xd030 	f0cff0ef          	jal	ra,1c5f8 <printmatC>
0xd034 	00090693          	mv	a3,s2
0xd038 	00048613          	mv	a2,s1
0xd03c 	00040593          	mv	a1,s0
0xd040 	00000513          	li	a0,0
0xd044 	a35ff0ef          	jal	ra,1c934 <matrix_mul_vect>
0xd048 	00098593          	mv	a1,s3
0xd04c 	00000513          	li	a0,0
0xd050 	191000ef          	jal	ra,1d89c <crc16>
0xd054 	0001f637          	lui	a2,0x1f
0xd058 	00050993          	mv	s3,a0
0xd05c 	a9060613          	addi	a2,a2,-1392 # 1ea90 <errpat+0xb08>
0xd060 	00040513          	mv	a0,s0
0xd064 	00000593          	li	a1,0
0xd068 	ed4ff0ef          	jal	ra,1c5f8 <printmatC>
0xd06c 	00090693          	mv	a3,s2
0xd070 	00048613          	mv	a2,s1
0xd074 	00040593          	mv	a1,s0
0xd078 	00000513          	li	a0,0
0xd07c 	a4dff0ef          	jal	ra,1c984 <matrix_mul_matrix>
0xd080 	00098593          	mv	a1,s3
0xd084 	00000513          	li	a0,0
0xd088 	159000ef          	jal	ra,1d89c <crc16>
0xd08c 	0001f637          	lui	a2,0x1f
0xd090 	00050993          	mv	s3,a0
0xd094 	aa060613          	addi	a2,a2,-1376 # 1eaa0 <errpat+0xb18>
0xd098 	00040513          	mv	a0,s0
0xd09c 	00000593          	li	a1,0
0xd0a0 	e9cff0ef          	jal	ra,1c5f8 <printmatC>
0xd0a4 	00048613          	mv	a2,s1
0xd0a8 	00090693          	mv	a3,s2
0xd0ac 	00040593          	mv	a1,s0
0xd0b0 	00000513          	li	a0,0
0xd0b4 	a99ff0ef          	jal	ra,1ca08 <matrix_mul_matrix_bitextract>
0xd0b8 	00098593          	mv	a1,s3
0xd0bc 	00000513          	li	a0,0
0xd0c0 	121000ef          	jal	ra,1d89c <crc16>
0xd0c4 	0001f637          	lui	a2,0x1f
0xd0c8 	00050493          	mv	s1,a0
0xd0cc 	ab460613          	addi	a2,a2,-1356 # 1eab4 <errpat+0xb2c>
0xd0d0 	00000593          	li	a1,0
0xd0d4 	00040513          	mv	a0,s0
0xd0d8 	e64ff0ef          	jal	ra,1c5f8 <printmatC>
0xd0dc 	eddff06f          	j	1ce74 <matrix_test+0x3d4>
0xd0e0 	ff010113          	addi	sp,sp,-16
0xd0e4 	00812423          	sw	s0,8(sp)
0xd0e8 	00058713          	mv	a4,a1
0xd0ec 	00060413          	mv	s0,a2
0xd0f0 	00c52583          	lw	a1,12(a0)
0xd0f4 	00852683          	lw	a3,8(a0)
0xd0f8 	00452603          	lw	a2,4(a0)
0xd0fc 	00052503          	lw	a0,0(a0)
0xd100 	00112623          	sw	ra,12(sp)
0xd104 	ae1ff0ef          	jal	ra,1caa0 <matrix_test>
0xd108 	00040593          	mv	a1,s0
0xd10c 	00812403          	lw	s0,8(sp)
0xd110 	00c12083          	lw	ra,12(sp)
0xd114 	01010113          	addi	sp,sp,16
0xd118 	0c90006f          	j	1d89c <crc16>
0xd11c 	ff010113          	addi	sp,sp,-16
0xd120 	00112623          	sw	ra,12(sp)
0xd124 	0f9000ef          	jal	ra,1d8d8 <time>
0xd128 	00c12083          	lw	ra,12(sp)
0xd12c 	000227b7          	lui	a5,0x22
0xd130 	dca7a223          	sw	a0,-572(a5) # 21dc4 <start_time_val>
0xd134 	01010113          	addi	sp,sp,16
0xd138 	00008067          	ret
0xd13c 	ff010113          	addi	sp,sp,-16
0xd140 	00112623          	sw	ra,12(sp)
0xd144 	0d9000ef          	jal	ra,1d8d8 <time>
0xd148 	00c12083          	lw	ra,12(sp)
0xd14c 	000227b7          	lui	a5,0x22
0xd150 	dca7a023          	sw	a0,-576(a5) # 21dc0 <stop_time_val>
0xd154 	01010113          	addi	sp,sp,16
0xd158 	00008067          	ret
0xd15c 	000227b7          	lui	a5,0x22
0xd160 	dc07a503          	lw	a0,-576(a5) # 21dc0 <stop_time_val>
0xd164 	000227b7          	lui	a5,0x22
0xd168 	dc47a783          	lw	a5,-572(a5) # 21dc4 <start_time_val>
0xd16c 	40f50533          	sub	a0,a0,a5
0xd170 	00008067          	ret
0xd174 	000317b7          	lui	a5,0x31
0xd178 	d4078793          	addi	a5,a5,-704 # 30d40 <heap_memory_used+0xef68>
0xd17c 	02f55533          	divu	a0,a0,a5
0xd180 	00008067          	ret
0xd184 	00100793          	li	a5,1
0xd188 	00f50023          	sb	a5,0(a0)
0xd18c 	00008067          	ret
0xd190 	00050023          	sb	zero,0(a0)
0xd194 	00008067          	ret
0xd198 	ff010113          	addi	sp,sp,-16
0xd19c 	00812423          	sw	s0,8(sp)
0xd1a0 	01212023          	sw	s2,0(sp)
0xd1a4 	00050413          	mv	s0,a0
0xd1a8 	00058913          	mv	s2,a1
0xd1ac 	00050593          	mv	a1,a0
0xd1b0 	0001f537          	lui	a0,0x1f
0xd1b4 	00912223          	sw	s1,4(sp)
0xd1b8 	ad450513          	addi	a0,a0,-1324 # 1ead4 <errpat+0xb4c>
0xd1bc 	00060493          	mv	s1,a2
0xd1c0 	00090613          	mv	a2,s2
0xd1c4 	00112623          	sw	ra,12(sp)
0xd1c8 	209000ef          	jal	ra,1da8c <printf>
0xd1cc 	00000e13          	li	t3,0
0xd1d0 	00000313          	li	t1,0
0xd1d4 	00190693          	addi	a3,s2,1 # 1001 <coremarkBenchmark+0xf59>
0xd1d8 	01c30eb3          	add	t4,t1,t3
0xd1dc 	01069693          	slli	a3,a3,0x10
0xd1e0 	0001e637          	lui	a2,0x1e
0xd1e4 	0001e5b7          	lui	a1,0x1e
0xd1e8 	fff40513          	addi	a0,s0,-1
0xd1ec 	001e8f13          	addi	t5,t4,1
0xd1f0 	0106d693          	srli	a3,a3,0x10
0xd1f4 	00000793          	li	a5,0
0xd1f8 	02c00893          	li	a7,44
0xd1fc 	00400813          	li	a6,4
0xd200 	f5860613          	addi	a2,a2,-168 # 1df58 <intpat>
0xd204 	f4458593          	addi	a1,a1,-188 # 1df44 <state_known_crc+0xc>
0xd208 	04af7e63          	bleu	a0,t5,1d120 <core_init_state+0xcc>
0xd20c 	0a0e1063          	bnez	t3,1d168 <core_init_state+0x114>
0xd210 	0076f793          	andi	a5,a3,7
0xd214 	ffd78793          	addi	a5,a5,-3
0xd218 	01079793          	slli	a5,a5,0x10
0xd21c 	0036d713          	srli	a4,a3,0x3
0xd220 	0107d793          	srli	a5,a5,0x10
0xd224 	00377713          	andi	a4,a4,3
0xd228 	0cf86463          	bltu	a6,a5,1d1ac <core_init_state+0x158>
0xd22c 	00279793          	slli	a5,a5,0x2
0xd230 	00b787b3          	add	a5,a5,a1
0xd234 	0007a783          	lw	a5,0(a5)
0xd238 	00271713          	slli	a4,a4,0x2
0xd23c 	00e60733          	add	a4,a2,a4
0xd240 	00078067          	jr	a5
0xd244 	01072783          	lw	a5,16(a4)
0xd248 	00800e13          	li	t3,8
0xd24c 	00168693          	addi	a3,a3,1
0xd250 	01c30eb3          	add	t4,t1,t3
0xd254 	01069693          	slli	a3,a3,0x10
0xd258 	001e8f13          	addi	t5,t4,1
0xd25c 	0106d693          	srli	a3,a3,0x10
0xd260 	faaf66e3          	bltu	t5,a0,1d0c8 <core_init_state+0x74>
0xd264 	00837c63          	bleu	s0,t1,1d138 <core_init_state+0xe4>
0xd268 	006487b3          	add	a5,s1,t1
0xd26c 	00848433          	add	s0,s1,s0
0xd270 	00078023          	sb	zero,0(a5)
0xd274 	00178793          	addi	a5,a5,1
0xd278 	fef41ce3          	bne	s0,a5,1d12c <core_init_state+0xd8>
0xd27c 	00812403          	lw	s0,8(sp)
0xd280 	00c12083          	lw	ra,12(sp)
0xd284 	00012903          	lw	s2,0(sp)
0xd288 	00048593          	mv	a1,s1
0xd28c 	00412483          	lw	s1,4(sp)
0xd290 	0001f537          	lui	a0,0x1f
0xd294 	ae450513          	addi	a0,a0,-1308 # 1eae4 <errpat+0xb5c>
0xd298 	01010113          	addi	sp,sp,16
0xd29c 	1350006f          	j	1da8c <printf>
0xd2a0 	02072783          	lw	a5,32(a4)
0xd2a4 	00800e13          	li	t3,8
0xd2a8 	fa5ff06f          	j	1d108 <core_init_state+0xb4>
0xd2ac 	00648733          	add	a4,s1,t1
0xd2b0 	01c78e33          	add	t3,a5,t3
0xd2b4 	0007c303          	lbu	t1,0(a5)
0xd2b8 	00170713          	addi	a4,a4,1
0xd2bc 	00178793          	addi	a5,a5,1
0xd2c0 	fe670fa3          	sb	t1,-1(a4)
0xd2c4 	fefe18e3          	bne	t3,a5,1d170 <core_init_state+0x11c>
0xd2c8 	0076f793          	andi	a5,a3,7
0xd2cc 	ffd78793          	addi	a5,a5,-3
0xd2d0 	01d48eb3          	add	t4,s1,t4
0xd2d4 	01079793          	slli	a5,a5,0x10
0xd2d8 	0036d713          	srli	a4,a3,0x3
0xd2dc 	011e8023          	sb	a7,0(t4)
0xd2e0 	0107d793          	srli	a5,a5,0x10
0xd2e4 	000f0313          	mv	t1,t5
0xd2e8 	00377713          	andi	a4,a4,3
0xd2ec 	f4f870e3          	bleu	a5,a6,1d0e8 <core_init_state+0x94>
0xd2f0 	00271713          	slli	a4,a4,0x2
0xd2f4 	00e60733          	add	a4,a2,a4
0xd2f8 	00072783          	lw	a5,0(a4)
0xd2fc 	00400e13          	li	t3,4
0xd300 	f4dff06f          	j	1d108 <core_init_state+0xb4>
0xd304 	03072783          	lw	a5,48(a4)
0xd308 	00800e13          	li	t3,8
0xd30c 	f41ff06f          	j	1d108 <core_init_state+0xb4>
0xd310 	00052783          	lw	a5,0(a0)
0xd314 	0007c703          	lbu	a4,0(a5)
0xd318 	06070463          	beqz	a4,1d23c <core_state_transition+0x70>
0xd31c 	02c00693          	li	a3,44
0xd320 	00178613          	addi	a2,a5,1
0xd324 	2ad70463          	beq	a4,a3,1d488 <core_state_transition+0x2bc>
0xd328 	0005a803          	lw	a6,0(a1)
0xd32c 	fd070893          	addi	a7,a4,-48
0xd330 	0ff8f893          	andi	a7,a7,255
0xd334 	00900313          	li	t1,9
0xd338 	00180813          	addi	a6,a6,1
0xd33c 	05136863          	bltu	t1,a7,1d248 <core_state_transition+0x7c>
0xd340 	0105a023          	sw	a6,0(a1)
0xd344 	0017c703          	lbu	a4,1(a5)
0xd348 	2c070463          	beqz	a4,1d4cc <core_state_transition+0x300>
0xd34c 	00278793          	addi	a5,a5,2
0xd350 	0cd70e63          	beq	a4,a3,1d2e8 <core_state_transition+0x11c>
0xd354 	02e00813          	li	a6,46
0xd358 	00900893          	li	a7,9
0xd35c 	02c00313          	li	t1,44
0xd360 	fd070693          	addi	a3,a4,-48
0xd364 	0ff6f693          	andi	a3,a3,255
0xd368 	0d070663          	beq	a4,a6,1d2f0 <core_state_transition+0x124>
0xd36c 	20d8f463          	bleu	a3,a7,1d430 <core_state_transition+0x264>
0xd370 	0105a683          	lw	a3,16(a1)
0xd374 	00100713          	li	a4,1
0xd378 	00168693          	addi	a3,a3,1
0xd37c 	00d5a823          	sw	a3,16(a1)
0xd380 	00f52023          	sw	a5,0(a0)
0xd384 	00070513          	mv	a0,a4
0xd388 	00008067          	ret
0xd38c 	02b00893          	li	a7,43
0xd390 	03170c63          	beq	a4,a7,1d284 <core_state_transition+0xb8>
0xd394 	02d00893          	li	a7,45
0xd398 	03170863          	beq	a4,a7,1d284 <core_state_transition+0xb8>
0xd39c 	02e00893          	li	a7,46
0xd3a0 	23170c63          	beq	a4,a7,1d494 <core_state_transition+0x2c8>
0xd3a4 	0045a703          	lw	a4,4(a1)
0xd3a8 	0105a023          	sw	a6,0(a1)
0xd3ac 	00060793          	mv	a5,a2
0xd3b0 	00170713          	addi	a4,a4,1
0xd3b4 	00e5a223          	sw	a4,4(a1)
0xd3b8 	00100713          	li	a4,1
0xd3bc 	00f52023          	sw	a5,0(a0)
0xd3c0 	00070513          	mv	a0,a4
0xd3c4 	00008067          	ret
0xd3c8 	0105a023          	sw	a6,0(a1)
0xd3cc 	0017c803          	lbu	a6,1(a5)
0xd3d0 	22080463          	beqz	a6,1d4b4 <core_state_transition+0x2e8>
0xd3d4 	00278613          	addi	a2,a5,2
0xd3d8 	22d80063          	beq	a6,a3,1d4b4 <core_state_transition+0x2e8>
0xd3dc 	0085a683          	lw	a3,8(a1)
0xd3e0 	fd080713          	addi	a4,a6,-48
0xd3e4 	0ff77713          	andi	a4,a4,255
0xd3e8 	00900893          	li	a7,9
0xd3ec 	00168693          	addi	a3,a3,1
0xd3f0 	02e8f263          	bleu	a4,a7,1d2d0 <core_state_transition+0x104>
0xd3f4 	02e00713          	li	a4,46
0xd3f8 	1ae80a63          	beq	a6,a4,1d468 <core_state_transition+0x29c>
0xd3fc 	00d5a423          	sw	a3,8(a1)
0xd400 	00060793          	mv	a5,a2
0xd404 	00100713          	li	a4,1
0xd408 	00f52023          	sw	a5,0(a0)
0xd40c 	00070513          	mv	a0,a4
0xd410 	00008067          	ret
0xd414 	00d5a423          	sw	a3,8(a1)
0xd418 	0027c703          	lbu	a4,2(a5)
0xd41c 	1e070a63          	beqz	a4,1d4cc <core_state_transition+0x300>
0xd420 	02c00693          	li	a3,44
0xd424 	00160793          	addi	a5,a2,1
0xd428 	f2d716e3          	bne	a4,a3,1d210 <core_state_transition+0x44>
0xd42c 	00400713          	li	a4,4
0xd430 	f51ff06f          	j	1d23c <core_state_transition+0x70>
0xd434 	0105a703          	lw	a4,16(a1)
0xd438 	00170713          	addi	a4,a4,1
0xd43c 	00e5a823          	sw	a4,16(a1)
0xd440 	00164703          	lbu	a4,1(a2)
0xd444 	1c070e63          	beqz	a4,1d4dc <core_state_transition+0x310>
0xd448 	02c00693          	li	a3,44
0xd44c 	00178813          	addi	a6,a5,1
0xd450 	18d70e63          	beq	a4,a3,1d4a8 <core_state_transition+0x2dc>
0xd454 	fd070693          	addi	a3,a4,-48
0xd458 	04500613          	li	a2,69
0xd45c 	0df77713          	andi	a4,a4,223
0xd460 	00900893          	li	a7,9
0xd464 	02c00313          	li	t1,44
0xd468 	0ff6f693          	andi	a3,a3,255
0xd46c 	02c70863          	beq	a4,a2,1d358 <core_state_transition+0x18c>
0xd470 	12d8e263          	bltu	a7,a3,1d450 <core_state_transition+0x284>
0xd474 	0017c703          	lbu	a4,1(a5)
0xd478 	00180693          	addi	a3,a6,1
0xd47c 	00080793          	mv	a5,a6
0xd480 	16070663          	beqz	a4,1d4a8 <core_state_transition+0x2dc>
0xd484 	1c670263          	beq	a4,t1,1d504 <core_state_transition+0x338>
0xd488 	00068813          	mv	a6,a3
0xd48c 	fd070693          	addi	a3,a4,-48
0xd490 	0df77713          	andi	a4,a4,223
0xd494 	0ff6f693          	andi	a3,a3,255
0xd498 	fcc71ce3          	bne	a4,a2,1d32c <core_state_transition+0x160>
0xd49c 	0145a703          	lw	a4,20(a1)
0xd4a0 	00170713          	addi	a4,a4,1
0xd4a4 	00e5aa23          	sw	a4,20(a1)
0xd4a8 	0017c703          	lbu	a4,1(a5)
0xd4ac 	14070c63          	beqz	a4,1d4c0 <core_state_transition+0x2f4>
0xd4b0 	02c00613          	li	a2,44
0xd4b4 	00180793          	addi	a5,a6,1
0xd4b8 	14c70863          	beq	a4,a2,1d4c4 <core_state_transition+0x2f8>
0xd4bc 	00c5a683          	lw	a3,12(a1)
0xd4c0 	fd570713          	addi	a4,a4,-43
0xd4c4 	0fd77713          	andi	a4,a4,253
0xd4c8 	00168693          	addi	a3,a3,1
0xd4cc 	00d5a623          	sw	a3,12(a1)
0xd4d0 	00070a63          	beqz	a4,1d3a0 <core_state_transition+0x1d4>
0xd4d4 	00100713          	li	a4,1
0xd4d8 	00f52023          	sw	a5,0(a0)
0xd4dc 	00070513          	mv	a0,a4
0xd4e0 	00008067          	ret
0xd4e4 	00184703          	lbu	a4,1(a6)
0xd4e8 	14070063          	beqz	a4,1d4e4 <core_state_transition+0x318>
0xd4ec 	00280693          	addi	a3,a6,2
0xd4f0 	14c70063          	beq	a4,a2,1d4ec <core_state_transition+0x320>
0xd4f4 	0185a783          	lw	a5,24(a1)
0xd4f8 	fd070713          	addi	a4,a4,-48
0xd4fc 	0ff77713          	andi	a4,a4,255
0xd500 	00178793          	addi	a5,a5,1
0xd504 	00900893          	li	a7,9
0xd508 	00f5ac23          	sw	a5,24(a1)
0xd50c 	00e8f863          	bleu	a4,a7,1d3d8 <core_state_transition+0x20c>
0xd510 	00068793          	mv	a5,a3
0xd514 	00100713          	li	a4,1
0xd518 	fc1ff06f          	j	1d394 <core_state_transition+0x1c8>
0xd51c 	00284703          	lbu	a4,2(a6)
0xd520 	10070e63          	beqz	a4,1d4f8 <core_state_transition+0x32c>
0xd524 	00380793          	addi	a5,a6,3
0xd528 	04c70263          	beq	a4,a2,1d428 <core_state_transition+0x25c>
0xd52c 	00900613          	li	a2,9
0xd530 	02c00893          	li	a7,44
0xd534 	fd070713          	addi	a4,a4,-48
0xd538 	0ff77713          	andi	a4,a4,255
0xd53c 	00e67c63          	bleu	a4,a2,1d410 <core_state_transition+0x244>
0xd540 	0045a683          	lw	a3,4(a1)
0xd544 	00100713          	li	a4,1
0xd548 	00168693          	addi	a3,a3,1
0xd54c 	00d5a223          	sw	a3,4(a1)
0xd550 	e31ff06f          	j	1d23c <core_state_transition+0x70>
0xd554 	0016c703          	lbu	a4,1(a3)
0xd558 	00178813          	addi	a6,a5,1
0xd55c 	00078693          	mv	a3,a5
0xd560 	00070663          	beqz	a4,1d428 <core_state_transition+0x25c>
0xd564 	00080793          	mv	a5,a6
0xd568 	fd1716e3          	bne	a4,a7,1d3f0 <core_state_transition+0x224>
0xd56c 	00700713          	li	a4,7
0xd570 	e11ff06f          	j	1d23c <core_state_transition+0x70>
0xd574 	00164703          	lbu	a4,1(a2)
0xd578 	00178693          	addi	a3,a5,1
0xd57c 	00078613          	mv	a2,a5
0xd580 	ea0706e3          	beqz	a4,1d2e8 <core_state_transition+0x11c>
0xd584 	00068793          	mv	a5,a3
0xd588 	dc671ce3          	bne	a4,t1,1d21c <core_state_transition+0x50>
0xd58c 	00400713          	li	a4,4
0xd590 	df1ff06f          	j	1d23c <core_state_transition+0x70>
0xd594 	0145a683          	lw	a3,20(a1)
0xd598 	00080793          	mv	a5,a6
0xd59c 	00100713          	li	a4,1
0xd5a0 	00168693          	addi	a3,a3,1
0xd5a4 	00d5aa23          	sw	a3,20(a1)
0xd5a8 	dd9ff06f          	j	1d23c <core_state_transition+0x70>
0xd5ac 	00d5a423          	sw	a3,8(a1)
0xd5b0 	0027c703          	lbu	a4,2(a5)
0xd5b4 	06070463          	beqz	a4,1d4d8 <core_state_transition+0x30c>
0xd5b8 	02c00793          	li	a5,44
0xd5bc 	00160813          	addi	a6,a2,1
0xd5c0 	02f70663          	beq	a4,a5,1d4a8 <core_state_transition+0x2dc>
0xd5c4 	00060793          	mv	a5,a2
0xd5c8 	e8dff06f          	j	1d310 <core_state_transition+0x144>
0xd5cc 	00060793          	mv	a5,a2
0xd5d0 	00000713          	li	a4,0
0xd5d4 	dadff06f          	j	1d23c <core_state_transition+0x70>
0xd5d8 	0105a023          	sw	a6,0(a1)
0xd5dc 	0017c703          	lbu	a4,1(a5)
0xd5e0 	02070e63          	beqz	a4,1d4d8 <core_state_transition+0x30c>
0xd5e4 	00278813          	addi	a6,a5,2
0xd5e8 	fcd71ee3          	bne	a4,a3,1d480 <core_state_transition+0x2b4>
0xd5ec 	00080793          	mv	a5,a6
0xd5f0 	00500713          	li	a4,5
0xd5f4 	d8dff06f          	j	1d23c <core_state_transition+0x70>
0xd5f8 	00060793          	mv	a5,a2
0xd5fc 	00200713          	li	a4,2
0xd600 	d81ff06f          	j	1d23c <core_state_transition+0x70>
0xd604 	00080793          	mv	a5,a6
0xd608 	00300713          	li	a4,3
0xd60c 	d75ff06f          	j	1d23c <core_state_transition+0x70>
0xd610 	00060793          	mv	a5,a2
0xd614 	00400713          	li	a4,4
0xd618 	d69ff06f          	j	1d23c <core_state_transition+0x70>
0xd61c 	00060793          	mv	a5,a2
0xd620 	00500713          	li	a4,5
0xd624 	d5dff06f          	j	1d23c <core_state_transition+0x70>
0xd628 	00600713          	li	a4,6
0xd62c 	d55ff06f          	j	1d23c <core_state_transition+0x70>
0xd630 	00068793          	mv	a5,a3
0xd634 	00600713          	li	a4,6
0xd638 	d49ff06f          	j	1d23c <core_state_transition+0x70>
0xd63c 	00068793          	mv	a5,a3
0xd640 	00700713          	li	a4,7
0xd644 	d3dff06f          	j	1d23c <core_state_transition+0x70>
0xd648 	00068793          	mv	a5,a3
0xd64c 	00500713          	li	a4,5
0xd650 	d31ff06f          	j	1d23c <core_state_transition+0x70>
0xd654 	f8010113          	addi	sp,sp,-128
0xd658 	07412423          	sw	s4,104(sp)
0xd65c 	07612023          	sw	s6,96(sp)
0xd660 	05812c23          	sw	s8,88(sp)
0xd664 	05a12823          	sw	s10,80(sp)
0xd668 	00060c13          	mv	s8,a2
0xd66c 	00068b13          	mv	s6,a3
0xd670 	00070a13          	mv	s4,a4
0xd674 	00050d13          	mv	s10,a0
0xd678 	0001f537          	lui	a0,0x1f
0xd67c 	00078713          	mv	a4,a5
0xd680 	06812c23          	sw	s0,120(sp)
0xd684 	000a0693          	mv	a3,s4
0xd688 	00058413          	mv	s0,a1
0xd68c 	000b0613          	mv	a2,s6
0xd690 	000c0593          	mv	a1,s8
0xd694 	af850513          	addi	a0,a0,-1288 # 1eaf8 <errpat+0xb70>
0xd698 	06912a23          	sw	s1,116(sp)
0xd69c 	07212823          	sw	s2,112(sp)
0xd6a0 	07312623          	sw	s3,108(sp)
0xd6a4 	06112e23          	sw	ra,124(sp)
0xd6a8 	00078993          	mv	s3,a5
0xd6ac 	07512223          	sw	s5,100(sp)
0xd6b0 	05712e23          	sw	s7,92(sp)
0xd6b4 	05912a23          	sw	s9,84(sp)
0xd6b8 	01010493          	addi	s1,sp,16
0xd6bc 	00812623          	sw	s0,12(sp)
0xd6c0 	510000ef          	jal	ra,1da8c <printf>
0xd6c4 	03010913          	addi	s2,sp,48
0xd6c8 	05010693          	addi	a3,sp,80
0xd6cc 	00048713          	mv	a4,s1
0xd6d0 	03010793          	addi	a5,sp,48
0xd6d4 	0007a023          	sw	zero,0(a5)
0xd6d8 	00072023          	sw	zero,0(a4)
0xd6dc 	00478793          	addi	a5,a5,4
0xd6e0 	00470713          	addi	a4,a4,4
0xd6e4 	fed798e3          	bne	a5,a3,1d590 <core_bench_state+0x80>
0xd6e8 	00c12783          	lw	a5,12(sp)
0xd6ec 	0007c783          	lbu	a5,0(a5)
0xd6f0 	04078463          	beqz	a5,1d5f4 <core_bench_state+0xe4>
0xd6f4 	00c10c93          	addi	s9,sp,12
0xd6f8 	0001fab7          	lui	s5,0x1f
0xd6fc 	03010593          	addi	a1,sp,48
0xd700 	000c8513          	mv	a0,s9
0xd704 	c0dff0ef          	jal	ra,1d1cc <core_state_transition>
0xd708 	00251793          	slli	a5,a0,0x2
0xd70c 	05010713          	addi	a4,sp,80
0xd710 	00f707b3          	add	a5,a4,a5
0xd714 	fc07a703          	lw	a4,-64(a5)
0xd718 	00050593          	mv	a1,a0
0xd71c 	b14a8513          	addi	a0,s5,-1260 # 1eb14 <errpat+0xb8c>
0xd720 	00170713          	addi	a4,a4,1
0xd724 	fce7a023          	sw	a4,-64(a5)
0xd728 	4a8000ef          	jal	ra,1da8c <printf>
0xd72c 	00c12783          	lw	a5,12(sp)
0xd730 	0007c783          	lbu	a5,0(a5)
0xd734 	fc0794e3          	bnez	a5,1d5b8 <core_bench_state+0xa8>
0xd738 	0001fbb7          	lui	s7,0x1f
0xd73c 	818b8513          	addi	a0,s7,-2024 # 1e818 <errpat+0x890>
0xd740 	490000ef          	jal	ra,1da8c <printf>
0xd744 	01a40d33          	add	s10,s0,s10
0xd748 	00812623          	sw	s0,12(sp)
0xd74c 	11a47a63          	bleu	s10,s0,1d71c <core_bench_state+0x20c>
0xd750 	00040793          	mv	a5,s0
0xd754 	02c00613          	li	a2,44
0xd758 	0007c703          	lbu	a4,0(a5)
0xd75c 	018746b3          	xor	a3,a4,s8
0xd760 	00c70463          	beq	a4,a2,1d624 <core_bench_state+0x114>
0xd764 	00d78023          	sb	a3,0(a5)
0xd768 	00c12783          	lw	a5,12(sp)
0xd76c 	014787b3          	add	a5,a5,s4
0xd770 	00f12623          	sw	a5,12(sp)
0xd774 	ffa7e2e3          	bltu	a5,s10,1d614 <core_bench_state+0x104>
0xd778 	00044783          	lbu	a5,0(s0)
0xd77c 	00812623          	sw	s0,12(sp)
0xd780 	0e078c63          	beqz	a5,1d734 <core_bench_state+0x224>
0xd784 	00c10c93          	addi	s9,sp,12
0xd788 	0001fab7          	lui	s5,0x1f
0xd78c 	03010593          	addi	a1,sp,48
0xd790 	000c8513          	mv	a0,s9
0xd794 	b7dff0ef          	jal	ra,1d1cc <core_state_transition>
0xd798 	00251793          	slli	a5,a0,0x2
0xd79c 	05010713          	addi	a4,sp,80
0xd7a0 	00f707b3          	add	a5,a4,a5
0xd7a4 	fc07a703          	lw	a4,-64(a5)
0xd7a8 	00050593          	mv	a1,a0
0xd7ac 	b14a8513          	addi	a0,s5,-1260 # 1eb14 <errpat+0xb8c>
0xd7b0 	00170713          	addi	a4,a4,1
0xd7b4 	fce7a023          	sw	a4,-64(a5)
0xd7b8 	418000ef          	jal	ra,1da8c <printf>
0xd7bc 	00c12783          	lw	a5,12(sp)
0xd7c0 	0007c783          	lbu	a5,0(a5)
0xd7c4 	fc0794e3          	bnez	a5,1d648 <core_bench_state+0x138>
0xd7c8 	818b8513          	addi	a0,s7,-2024
0xd7cc 	404000ef          	jal	ra,1da8c <printf>
0xd7d0 	00812623          	sw	s0,12(sp)
0xd7d4 	03a47463          	bleu	s10,s0,1d6b8 <core_bench_state+0x1a8>
0xd7d8 	02c00693          	li	a3,44
0xd7dc 	00044783          	lbu	a5,0(s0)
0xd7e0 	0167c733          	xor	a4,a5,s6
0xd7e4 	00d78463          	beq	a5,a3,1d6a8 <core_bench_state+0x198>
0xd7e8 	00e40023          	sb	a4,0(s0)
0xd7ec 	00c12403          	lw	s0,12(sp)
0xd7f0 	01440433          	add	s0,s0,s4
0xd7f4 	00812623          	sw	s0,12(sp)
0xd7f8 	ffa462e3          	bltu	s0,s10,1d698 <core_bench_state+0x188>
0xd7fc 	02048413          	addi	s0,s1,32
0xd800 	0004a503          	lw	a0,0(s1)
0xd804 	00098593          	mv	a1,s3
0xd808 	00448493          	addi	s1,s1,4
0xd80c 	1a0000ef          	jal	ra,1d868 <crcu32>
0xd810 	00050593          	mv	a1,a0
0xd814 	00092503          	lw	a0,0(s2)
0xd818 	00490913          	addi	s2,s2,4
0xd81c 	190000ef          	jal	ra,1d868 <crcu32>
0xd820 	00050993          	mv	s3,a0
0xd824 	fc849ee3          	bne	s1,s0,1d6bc <core_bench_state+0x1ac>
0xd828 	07c12083          	lw	ra,124(sp)
0xd82c 	07812403          	lw	s0,120(sp)
0xd830 	07412483          	lw	s1,116(sp)
0xd834 	07012903          	lw	s2,112(sp)
0xd838 	06c12983          	lw	s3,108(sp)
0xd83c 	06812a03          	lw	s4,104(sp)
0xd840 	06412a83          	lw	s5,100(sp)
0xd844 	06012b03          	lw	s6,96(sp)
0xd848 	05c12b83          	lw	s7,92(sp)
0xd84c 	05812c03          	lw	s8,88(sp)
0xd850 	05412c83          	lw	s9,84(sp)
0xd854 	05012d03          	lw	s10,80(sp)
0xd858 	08010113          	addi	sp,sp,128
0xd85c 	00008067          	ret
0xd860 	00044783          	lbu	a5,0(s0)
0xd864 	f20790e3          	bnez	a5,1d640 <core_bench_state+0x130>
0xd868 	818b8513          	addi	a0,s7,-2024
0xd86c 	364000ef          	jal	ra,1da8c <printf>
0xd870 	00812623          	sw	s0,12(sp)
0xd874 	f89ff06f          	j	1d6b8 <core_bench_state+0x1a8>
0xd878 	818b8513          	addi	a0,s7,-2024
0xd87c 	354000ef          	jal	ra,1da8c <printf>
0xd880 	00812623          	sw	s0,12(sp)
0xd884 	f55ff06f          	j	1d694 <core_bench_state+0x184>
0xd888 	00500793          	li	a5,5
0xd88c 	04a7ec63          	bltu	a5,a0,1d7a0 <get_seed_32+0x5c>
0xd890 	0001e7b7          	lui	a5,0x1e
0xd894 	f9878793          	addi	a5,a5,-104 # 1df98 <errpat+0x10>
0xd898 	00251513          	slli	a0,a0,0x2
0xd89c 	00f50533          	add	a0,a0,a5
0xd8a0 	00052783          	lw	a5,0(a0)
0xd8a4 	00078067          	jr	a5
0xd8a8 	000227b7          	lui	a5,0x22
0xd8ac 	dc87a503          	lw	a0,-568(a5) # 21dc8 <seed5_volatile>
0xd8b0 	00008067          	ret
0xd8b4 	000227b7          	lui	a5,0x22
0xd8b8 	dd47a503          	lw	a0,-556(a5) # 21dd4 <seed1_volatile>
0xd8bc 	00008067          	ret
0xd8c0 	000227b7          	lui	a5,0x22
0xd8c4 	dd07a503          	lw	a0,-560(a5) # 21dd0 <seed2_volatile>
0xd8c8 	00008067          	ret
0xd8cc 	0001f7b7          	lui	a5,0x1f
0xd8d0 	1607a503          	lw	a0,352(a5) # 1f160 <seed3_volatile>
0xd8d4 	00008067          	ret
0xd8d8 	000227b7          	lui	a5,0x22
0xd8dc 	dcc7a503          	lw	a0,-564(a5) # 21dcc <seed4_volatile>
0xd8e0 	00008067          	ret
0xd8e4 	00000513          	li	a0,0
0xd8e8 	00008067          	ret
0xd8ec 	ffffa637          	lui	a2,0xffffa
0xd8f0 	00800793          	li	a5,8
0xd8f4 	00160613          	addi	a2,a2,1 # ffffa001 <heap_memory_used+0xfffd8229>
0xd8f8 	00a5c733          	xor	a4,a1,a0
0xd8fc 	fff78793          	addi	a5,a5,-1
0xd900 	0015d593          	srli	a1,a1,0x1
0xd904 	00177713          	andi	a4,a4,1
0xd908 	0ff7f793          	andi	a5,a5,255
0xd90c 	00c5c6b3          	xor	a3,a1,a2
0xd910 	00155513          	srli	a0,a0,0x1
0xd914 	00070663          	beqz	a4,1d7dc <crcu8+0x34>
0xd918 	01069593          	slli	a1,a3,0x10
0xd91c 	0105d593          	srli	a1,a1,0x10
0xd920 	fc079ce3          	bnez	a5,1d7b4 <crcu8+0xc>
0xd924 	00058513          	mv	a0,a1
0xd928 	00008067          	ret
0xd92c 	ffffa837          	lui	a6,0xffffa
0xd930 	0ff57693          	andi	a3,a0,255
0xd934 	00800793          	li	a5,8
0xd938 	00180813          	addi	a6,a6,1 # ffffa001 <heap_memory_used+0xfffd8229>
0xd93c 	00d5c733          	xor	a4,a1,a3
0xd940 	fff78793          	addi	a5,a5,-1
0xd944 	0015d593          	srli	a1,a1,0x1
0xd948 	00177713          	andi	a4,a4,1
0xd94c 	0ff7f793          	andi	a5,a5,255
0xd950 	0105c633          	xor	a2,a1,a6
0xd954 	0016d693          	srli	a3,a3,0x1
0xd958 	00070663          	beqz	a4,1d820 <crcu16+0x38>
0xd95c 	01061593          	slli	a1,a2,0x10
0xd960 	0105d593          	srli	a1,a1,0x10
0xd964 	fc079ce3          	bnez	a5,1d7f8 <crcu16+0x10>
0xd968 	ffffa637          	lui	a2,0xffffa
0xd96c 	00855513          	srli	a0,a0,0x8
0xd970 	00800793          	li	a5,8
0xd974 	00160613          	addi	a2,a2,1 # ffffa001 <heap_memory_used+0xfffd8229>
0xd978 	00a5c733          	xor	a4,a1,a0
0xd97c 	fff78793          	addi	a5,a5,-1
0xd980 	0015d593          	srli	a1,a1,0x1
0xd984 	00177713          	andi	a4,a4,1
0xd988 	0ff7f793          	andi	a5,a5,255
0xd98c 	00c5c6b3          	xor	a3,a1,a2
0xd990 	00155513          	srli	a0,a0,0x1
0xd994 	00070663          	beqz	a4,1d85c <crcu16+0x74>
0xd998 	01069593          	slli	a1,a3,0x10
0xd99c 	0105d593          	srli	a1,a1,0x10
0xd9a0 	fc079ce3          	bnez	a5,1d834 <crcu16+0x4c>
0xd9a4 	00058513          	mv	a0,a1
0xd9a8 	00008067          	ret
0xd9ac 	ff010113          	addi	sp,sp,-16
0xd9b0 	00812423          	sw	s0,8(sp)
0xd9b4 	00050413          	mv	s0,a0
0xd9b8 	01051513          	slli	a0,a0,0x10
0xd9bc 	01055513          	srli	a0,a0,0x10
0xd9c0 	00112623          	sw	ra,12(sp)
0xd9c4 	f69ff0ef          	jal	ra,1d7e8 <crcu16>
0xd9c8 	00050593          	mv	a1,a0
0xd9cc 	01045513          	srli	a0,s0,0x10
0xd9d0 	00812403          	lw	s0,8(sp)
0xd9d4 	00c12083          	lw	ra,12(sp)
0xd9d8 	01010113          	addi	sp,sp,16
0xd9dc 	f51ff06f          	j	1d7e8 <crcu16>
0xd9e0 	01051513          	slli	a0,a0,0x10
0xd9e4 	01055513          	srli	a0,a0,0x10
0xd9e8 	f45ff06f          	j	1d7e8 <crcu16>
0xd9ec 	00000513          	li	a0,0
0xd9f0 	00008067          	ret
0xd9f4 	0001f537          	lui	a0,0x1f
0xd9f8 	bc850513          	addi	a0,a0,-1080 # 1ebc8 <errpat+0xc40>
0xd9fc 	1d40006f          	j	1da8c <printf>
0xda00 	0001f537          	lui	a0,0x1f
0xda04 	c1850513          	addi	a0,a0,-1000 # 1ec18 <errpat+0xc90>
0xda08 	1c80006f          	j	1da8c <printf>
0xda0c 	0001f537          	lui	a0,0x1f
0xda10 	c6850513          	addi	a0,a0,-920 # 1ec68 <errpat+0xce0>
0xda14 	1bc0006f          	j	1da8c <printf>
0xda18 	fb0e206f          	j	84 <isaTest>
0xda1c 	c0002573          	rdcycle	a0
0xda20 	00008067          	ret
0xda24 	c0202573          	rdinstret	a0
0xda28 	00008067          	ret
0xda2c 	300467f3          	csrrsi	a5,mstatus,8
0xda30 	00008067          	ret
0xda34 	000017b7          	lui	a5,0x1
0xda38 	80078793          	addi	a5,a5,-2048 # 800 <coremarkBenchmark+0x758>
0xda3c 	3047a7f3          	csrrs	a5,mie,a5
0xda40 	300467f3          	csrrsi	a5,mstatus,8
0xda44 	00008067          	ret
0xda48 	08000793          	li	a5,128
0xda4c 	3047a7f3          	csrrs	a5,mie,a5
0xda50 	300467f3          	csrrsi	a5,mstatus,8
0xda54 	00008067          	ret
0xda58 	300477f3          	csrrci	a5,mstatus,8
0xda5c 	00008067          	ret
0xda60 	000017b7          	lui	a5,0x1
0xda64 	80078793          	addi	a5,a5,-2048 # 800 <coremarkBenchmark+0x758>
0xda68 	3047b7f3          	csrrc	a5,mie,a5
0xda6c 	00008067          	ret
0xda70 	08000793          	li	a5,128
0xda74 	3047b7f3          	csrrc	a5,mie,a5
0xda78 	00008067          	ret
0xda7c 	100007b7          	lui	a5,0x10000
0xda80 	0047a503          	lw	a0,4(a5) # 10000004 <heap_memory_used+0xffde22c>
0xda84 	00008067          	ret
0xda88 	100007b7          	lui	a5,0x10000
0xda8c 	00c7a503          	lw	a0,12(a5) # 1000000c <heap_memory_used+0xffde234>
0xda90 	00008067          	ret
0xda94 	100007b7          	lui	a5,0x10000
0xda98 	00a7a623          	sw	a0,12(a5) # 1000000c <heap_memory_used+0xffde234>
0xda9c 	00008067          	ret
0xdaa0 	000226b7          	lui	a3,0x22
0xdaa4 	dd86a783          	lw	a5,-552(a3) # 21dd8 <heap_memory_used>
0xdaa8 	00a78733          	add	a4,a5,a0
0xdaac 	00022537          	lui	a0,0x22
0xdab0 	dce6ac23          	sw	a4,-552(a3)
0xdab4 	9bc50513          	addi	a0,a0,-1604 # 219bc <heap_memory>
0xdab8 	40000693          	li	a3,1024
0xdabc 	00a78533          	add	a0,a5,a0
0xdac0 	00e6d463          	ble	a4,a3,1d984 <malloc+0x28>
0xdac4 	00100073          	ebreak
0xdac8 	00008067          	ret
0xdacc 	e0001737          	lui	a4,0xe0001
0xdad0 	02c72783          	lw	a5,44(a4) # e000102c <heap_memory_used+0xdffdf254>
0xdad4 	0107f793          	andi	a5,a5,16
0xdad8 	fe079ce3          	bnez	a5,1d98c <printf_c+0x4>
0xdadc 	02a72823          	sw	a0,48(a4)
0xdae0 	00008067          	ret
0xdae4 	00054683          	lbu	a3,0(a0)
0xdae8 	02068263          	beqz	a3,1d9c8 <printf_s+0x28>
0xdaec 	e0001737          	lui	a4,0xe0001
0xdaf0 	00150513          	addi	a0,a0,1
0xdaf4 	02c72783          	lw	a5,44(a4) # e000102c <heap_memory_used+0xdffdf254>
0xdaf8 	0107f793          	andi	a5,a5,16
0xdafc 	fe079ce3          	bnez	a5,1d9b0 <printf_s+0x10>
0xdb00 	02d72823          	sw	a3,48(a4)
0xdb04 	00054683          	lbu	a3,0(a0)
0xdb08 	fe0694e3          	bnez	a3,1d9ac <printf_s+0xc>
0xdb0c 	00008067          	ret
0xdb10 	fe010113          	addi	sp,sp,-32
0xdb14 	04054c63          	bltz	a0,1da28 <printf_d+0x5c>
0xdb18 	00010613          	mv	a2,sp
0xdb1c 	00060713          	mv	a4,a2
0xdb20 	00a00693          	li	a3,10
0xdb24 	00051463          	bnez	a0,1d9e8 <printf_d+0x1c>
0xdb28 	00c71e63          	bne	a4,a2,1da00 <printf_d+0x34>
0xdb2c 	02d567b3          	rem	a5,a0,a3
0xdb30 	00170713          	addi	a4,a4,1
0xdb34 	03078793          	addi	a5,a5,48
0xdb38 	02d54533          	div	a0,a0,a3
0xdb3c 	fef70fa3          	sb	a5,-1(a4)
0xdb40 	fe5ff06f          	j	1d9e0 <printf_d+0x14>
0xdb44 	e00016b7          	lui	a3,0xe0001
0xdb48 	fff70713          	addi	a4,a4,-1
0xdb4c 	00074583          	lbu	a1,0(a4)
0xdb50 	02c6a783          	lw	a5,44(a3) # e000102c <heap_memory_used+0xdffdf254>
0xdb54 	0107f793          	andi	a5,a5,16
0xdb58 	fe079ce3          	bnez	a5,1da0c <printf_d+0x40>
0xdb5c 	02b6a823          	sw	a1,48(a3)
0xdb60 	fec714e3          	bne	a4,a2,1da04 <printf_d+0x38>
0xdb64 	02010113          	addi	sp,sp,32
0xdb68 	00008067          	ret
0xdb6c 	e0001737          	lui	a4,0xe0001
0xdb70 	02c72783          	lw	a5,44(a4) # e000102c <heap_memory_used+0xdffdf254>
0xdb74 	0107f793          	andi	a5,a5,16
0xdb78 	fe079ce3          	bnez	a5,1da2c <printf_d+0x60>
0xdb7c 	02d00793          	li	a5,45
0xdb80 	02f72823          	sw	a5,48(a4)
0xdb84 	40a00533          	neg	a0,a0
0xdb88 	f91ff06f          	j	1d9d4 <printf_d+0x8>
0xdb8c 	fff58593          	addi	a1,a1,-1
0xdb90 	00259593          	slli	a1,a1,0x2
0xdb94 	0205cc63          	bltz	a1,1da88 <printf_h+0x40>
0xdb98 	0001f637          	lui	a2,0x1f
0xdb9c 	cb860613          	addi	a2,a2,-840 # 1ecb8 <errpat+0xd30>
0xdba0 	e0001737          	lui	a4,0xe0001
0xdba4 	00b557b3          	srl	a5,a0,a1
0xdba8 	00f7f793          	andi	a5,a5,15
0xdbac 	00f607b3          	add	a5,a2,a5
0xdbb0 	0007c683          	lbu	a3,0(a5)
0xdbb4 	02c72783          	lw	a5,44(a4) # e000102c <heap_memory_used+0xdffdf254>
0xdbb8 	0107f793          	andi	a5,a5,16
0xdbbc 	fe079ce3          	bnez	a5,1da70 <printf_h+0x28>
0xdbc0 	02d72823          	sw	a3,48(a4)
0xdbc4 	ffc58593          	addi	a1,a1,-4
0xdbc8 	fc05dee3          	bgez	a1,1da60 <printf_h+0x18>
0xdbcc 	00008067          	ret
0xdbd0 	fb010113          	addi	sp,sp,-80
0xdbd4 	02112623          	sw	ra,44(sp)
0xdbd8 	02812423          	sw	s0,40(sp)
0xdbdc 	02912223          	sw	s1,36(sp)
0xdbe0 	03212023          	sw	s2,32(sp)
0xdbe4 	01312e23          	sw	s3,28(sp)
0xdbe8 	01412c23          	sw	s4,24(sp)
0xdbec 	01512a23          	sw	s5,20(sp)
0xdbf0 	00054303          	lbu	t1,0(a0)
0xdbf4 	04f12223          	sw	a5,68(sp)
0xdbf8 	03410793          	addi	a5,sp,52
0xdbfc 	02b12a23          	sw	a1,52(sp)
0xdc00 	02c12c23          	sw	a2,56(sp)
0xdc04 	02d12e23          	sw	a3,60(sp)
0xdc08 	04e12023          	sw	a4,64(sp)
0xdc0c 	05012423          	sw	a6,72(sp)
0xdc10 	05112623          	sw	a7,76(sp)
0xdc14 	00f12623          	sw	a5,12(sp)
0xdc18 	04030663          	beqz	t1,1db20 <printf+0x94>
0xdc1c 	0001fab7          	lui	s5,0x1f
0xdc20 	00050a13          	mv	s4,a0
0xdc24 	00000413          	li	s0,0
0xdc28 	06300493          	li	s1,99
0xdc2c 	07300913          	li	s2,115
0xdc30 	06400993          	li	s3,100
0xdc34 	cb8a8a93          	addi	s5,s5,-840 # 1ecb8 <errpat+0xd30>
0xdc38 	02500793          	li	a5,37
0xdc3c 	e0001737          	lui	a4,0xe0001
0xdc40 	04f30463          	beq	t1,a5,1db44 <printf+0xb8>
0xdc44 	02c72783          	lw	a5,44(a4) # e000102c <heap_memory_used+0xdffdf254>
0xdc48 	0107f793          	andi	a5,a5,16
0xdc4c 	fe079ce3          	bnez	a5,1db00 <printf+0x74>
0xdc50 	02672823          	sw	t1,48(a4)
0xdc54 	00140413          	addi	s0,s0,1
0xdc58 	008a07b3          	add	a5,s4,s0
0xdc5c 	0007c303          	lbu	t1,0(a5)
0xdc60 	fc031ce3          	bnez	t1,1daf4 <printf+0x68>
0xdc64 	02c12083          	lw	ra,44(sp)
0xdc68 	02812403          	lw	s0,40(sp)
0xdc6c 	02412483          	lw	s1,36(sp)
0xdc70 	02012903          	lw	s2,32(sp)
0xdc74 	01c12983          	lw	s3,28(sp)
0xdc78 	01812a03          	lw	s4,24(sp)
0xdc7c 	01412a83          	lw	s5,20(sp)
0xdc80 	05010113          	addi	sp,sp,80
0xdc84 	00008067          	ret
0xdc88 	00140713          	addi	a4,s0,1
0xdc8c 	00ea06b3          	add	a3,s4,a4
0xdc90 	00040813          	mv	a6,s0
0xdc94 	07500613          	li	a2,117
0xdc98 	06c00593          	li	a1,108
0xdc9c 	03000893          	li	a7,48
0xdca0 	0200006f          	j	1db7c <printf+0xf0>
0xdca4 	07278863          	beq	a5,s2,1dbd0 <printf+0x144>
0xdca8 	05378a63          	beq	a5,s3,1dbb8 <printf+0x12c>
0xdcac 	04c78863          	beq	a5,a2,1dbb8 <printf+0x12c>
0xdcb0 	0ab78063          	beq	a5,a1,1dc0c <printf+0x180>
0xdcb4 	0d178063          	beq	a5,a7,1dc30 <printf+0x1a4>
0xdcb8 	00070813          	mv	a6,a4
0xdcbc 	00170713          	addi	a4,a4,1
0xdcc0 	0006c783          	lbu	a5,0(a3)
0xdcc4 	00070413          	mv	s0,a4
0xdcc8 	00168693          	addi	a3,a3,1
0xdccc 	f80784e3          	beqz	a5,1db10 <printf+0x84>
0xdcd0 	fc979ae3          	bne	a5,s1,1db60 <printf+0xd4>
0xdcd4 	00c12783          	lw	a5,12(sp)
0xdcd8 	e0001737          	lui	a4,0xe0001
0xdcdc 	0007a683          	lw	a3,0(a5)
0xdce0 	00478793          	addi	a5,a5,4
0xdce4 	00f12623          	sw	a5,12(sp)
0xdce8 	02c72783          	lw	a5,44(a4) # e000102c <heap_memory_used+0xdffdf254>
0xdcec 	0107f793          	andi	a5,a5,16
0xdcf0 	fe079ce3          	bnez	a5,1dba4 <printf+0x118>
0xdcf4 	02d72823          	sw	a3,48(a4)
0xdcf8 	f5dff06f          	j	1db10 <printf+0x84>
0xdcfc 	00c12783          	lw	a5,12(sp)
0xdd00 	0007a503          	lw	a0,0(a5)
0xdd04 	00478793          	addi	a5,a5,4
0xdd08 	00f12623          	sw	a5,12(sp)
0xdd0c 	e05ff0ef          	jal	ra,1d9cc <printf_d>
0xdd10 	f45ff06f          	j	1db10 <printf+0x84>
0xdd14 	00c12783          	lw	a5,12(sp)
0xdd18 	0007a683          	lw	a3,0(a5)
0xdd1c 	00478793          	addi	a5,a5,4
0xdd20 	00f12623          	sw	a5,12(sp)
0xdd24 	0006c603          	lbu	a2,0(a3)
0xdd28 	f20606e3          	beqz	a2,1db10 <printf+0x84>
0xdd2c 	e0001737          	lui	a4,0xe0001
0xdd30 	00168693          	addi	a3,a3,1
0xdd34 	02c72783          	lw	a5,44(a4) # e000102c <heap_memory_used+0xdffdf254>
0xdd38 	0107f793          	andi	a5,a5,16
0xdd3c 	fe079ce3          	bnez	a5,1dbf0 <printf+0x164>
0xdd40 	02c72823          	sw	a2,48(a4)
0xdd44 	0006c603          	lbu	a2,0(a3)
0xdd48 	fe0614e3          	bnez	a2,1dbec <printf+0x160>
0xdd4c 	f09ff06f          	j	1db10 <printf+0x84>
0xdd50 	008a07b3          	add	a5,s4,s0
0xdd54 	00c12703          	lw	a4,12(sp)
0xdd58 	0017c683          	lbu	a3,1(a5)
0xdd5c 	00072503          	lw	a0,0(a4)
0xdd60 	00470793          	addi	a5,a4,4
0xdd64 	06c68463          	beq	a3,a2,1dc88 <printf+0x1fc>
0xdd68 	00f12623          	sw	a5,12(sp)
0xdd6c 	da5ff0ef          	jal	ra,1d9cc <printf_d>
0xdd70 	ee5ff06f          	j	1db10 <printf+0x84>
0xdd74 	00ea0733          	add	a4,s4,a4
0xdd78 	00c12783          	lw	a5,12(sp)
0xdd7c 	00174683          	lbu	a3,1(a4)
0xdd80 	00478713          	addi	a4,a5,4
0xdd84 	fcf68693          	addi	a3,a3,-49
0xdd88 	00e12623          	sw	a4,12(sp)
0xdd8c 	00269693          	slli	a3,a3,0x2
0xdd90 	0007a583          	lw	a1,0(a5)
0xdd94 	0206c863          	bltz	a3,1dc80 <printf+0x1f4>
0xdd98 	e0001737          	lui	a4,0xe0001
0xdd9c 	00d5d7b3          	srl	a5,a1,a3
0xdda0 	00f7f793          	andi	a5,a5,15
0xdda4 	00fa87b3          	add	a5,s5,a5
0xdda8 	0007c603          	lbu	a2,0(a5)
0xddac 	02c72783          	lw	a5,44(a4) # e000102c <heap_memory_used+0xdffdf254>
0xddb0 	0107f793          	andi	a5,a5,16
0xddb4 	fe079ce3          	bnez	a5,1dc68 <printf+0x1dc>
0xddb8 	02c72823          	sw	a2,48(a4)
0xddbc 	ffc68693          	addi	a3,a3,-4
0xddc0 	fc06dee3          	bgez	a3,1dc58 <printf+0x1cc>
0xddc4 	00380413          	addi	s0,a6,3
0xddc8 	e8dff06f          	j	1db10 <printf+0x84>
0xddcc 	00280413          	addi	s0,a6,2
0xddd0 	00f12623          	sw	a5,12(sp)
0xddd4 	d3dff0ef          	jal	ra,1d9cc <printf_d>
0xddd8 	e7dff06f          	j	1db10 <printf+0x84>
0xdddc 	ff010113          	addi	sp,sp,-16
0xdde0 	e0001737          	lui	a4,0xe0001
0xdde4 	02c72783          	lw	a5,44(a4) # e000102c <heap_memory_used+0xdffdf254>
0xdde8 	0027f793          	andi	a5,a5,2
0xddec 	fe079ce3          	bnez	a5,1dca0 <scanf_c+0x8>
0xddf0 	03074783          	lbu	a5,48(a4)
0xddf4 	e0001737          	lui	a4,0xe0001
0xddf8 	00f107a3          	sb	a5,15(sp)
0xddfc 	00f14683          	lbu	a3,15(sp)
0xde00 	0ff6f693          	andi	a3,a3,255
0xde04 	02c72783          	lw	a5,44(a4) # e000102c <heap_memory_used+0xdffdf254>
0xde08 	0107f793          	andi	a5,a5,16
0xde0c 	fe079ce3          	bnez	a5,1dcc0 <scanf_c+0x28>
0xde10 	02d72823          	sw	a3,48(a4)
0xde14 	00f14503          	lbu	a0,15(sp)
0xde18 	01010113          	addi	sp,sp,16
0xde1c 	00008067          	ret
0xde20 	ff010113          	addi	sp,sp,-16
0xde24 	e0001737          	lui	a4,0xe0001
0xde28 	02c72783          	lw	a5,44(a4) # e000102c <heap_memory_used+0xdffdf254>
0xde2c 	0027f793          	andi	a5,a5,2
0xde30 	fe079ce3          	bnez	a5,1dce4 <scanf+0x8>
0xde34 	03074783          	lbu	a5,48(a4)
0xde38 	e0001737          	lui	a4,0xe0001
0xde3c 	00f107a3          	sb	a5,15(sp)
0xde40 	00f14683          	lbu	a3,15(sp)
0xde44 	0ff6f693          	andi	a3,a3,255
0xde48 	02c72783          	lw	a5,44(a4) # e000102c <heap_memory_used+0xdffdf254>
0xde4c 	0107f793          	andi	a5,a5,16
0xde50 	fe079ce3          	bnez	a5,1dd04 <scanf+0x28>
0xde54 	02d72823          	sw	a3,48(a4)
0xde58 	00f14783          	lbu	a5,15(sp)
0xde5c 	06e00713          	li	a4,110
0xde60 	0ff7f793          	andi	a5,a5,255
0xde64 	00f10723          	sb	a5,14(sp)
0xde68 	00e14783          	lbu	a5,14(sp)
0xde6c 	00f70863          	beq	a4,a5,1dd38 <scanf+0x5c>
0xde70 	00e14783          	lbu	a5,14(sp)
0xde74 	00e14783          	lbu	a5,14(sp)
0xde78 	fef71ce3          	bne	a4,a5,1dd2c <scanf+0x50>
0xde7c 	0001e537          	lui	a0,0x1e
0xde80 	2d050513          	addi	a0,a0,720 # 1e2d0 <errpat+0x348>
0xde84 	01010113          	addi	sp,sp,16
0xde88 	00008067          	ret
0xde8c 	02060063          	beqz	a2,1dd68 <memcpy+0x20>
0xde90 	00c50633          	add	a2,a0,a2
0xde94 	00050793          	mv	a5,a0
0xde98 	00158593          	addi	a1,a1,1
0xde9c 	fff5c703          	lbu	a4,-1(a1)
0xdea0 	00178793          	addi	a5,a5,1
0xdea4 	fee78fa3          	sb	a4,-1(a5)
0xdea8 	fef618e3          	bne	a2,a5,1dd54 <memcpy+0xc>
0xdeac 	00008067          	ret
0xdeb0 	00050793          	mv	a5,a0
0xdeb4 	0180006f          	j	1dd88 <strcpy+0x1c>
0xdeb8 	00158593          	addi	a1,a1,1
0xdebc 	fff5c703          	lbu	a4,-1(a1)
0xdec0 	00178793          	addi	a5,a5,1
0xdec4 	fee78fa3          	sb	a4,-1(a5)
0xdec8 	08070a63          	beqz	a4,1de18 <strcpy+0xac>
0xdecc 	00b7e733          	or	a4,a5,a1
0xded0 	00377713          	andi	a4,a4,3
0xded4 	fe0712e3          	bnez	a4,1dd74 <strcpy+0x8>
0xded8 	0005a683          	lw	a3,0(a1)
0xdedc 	feff08b7          	lui	a7,0xfeff0
0xdee0 	eff88893          	addi	a7,a7,-257 # fefefeff <heap_memory_used+0xfefce127>
0xdee4 	01168733          	add	a4,a3,a7
0xdee8 	fff6c613          	not	a2,a3
0xdeec 	80808837          	lui	a6,0x80808
0xdef0 	08080813          	addi	a6,a6,128 # 80808080 <heap_memory_used+0x807e62a8>
0xdef4 	00c77733          	and	a4,a4,a2
0xdef8 	01077733          	and	a4,a4,a6
0xdefc 	02071463          	bnez	a4,1dde0 <strcpy+0x74>
0xdf00 	00d7a023          	sw	a3,0(a5)
0xdf04 	00458593          	addi	a1,a1,4
0xdf08 	0005a683          	lw	a3,0(a1)
0xdf0c 	00478793          	addi	a5,a5,4
0xdf10 	01168733          	add	a4,a3,a7
0xdf14 	fff6c613          	not	a2,a3
0xdf18 	00c77733          	and	a4,a4,a2
0xdf1c 	01077733          	and	a4,a4,a6
0xdf20 	fe0700e3          	beqz	a4,1ddbc <strcpy+0x50>
0xdf24 	00d78023          	sb	a3,0(a5)
0xdf28 	0ff6f713          	andi	a4,a3,255
0xdf2c 	02070863          	beqz	a4,1de18 <strcpy+0xac>
0xdf30 	0086d713          	srli	a4,a3,0x8
0xdf34 	00e780a3          	sb	a4,1(a5)
0xdf38 	0ff77713          	andi	a4,a4,255
0xdf3c 	02070063          	beqz	a4,1de18 <strcpy+0xac>
0xdf40 	0106d713          	srli	a4,a3,0x10
0xdf44 	00e78123          	sb	a4,2(a5)
0xdf48 	0ff77713          	andi	a4,a4,255
0xdf4c 	00070863          	beqz	a4,1de18 <strcpy+0xac>
0xdf50 	0186d693          	srli	a3,a3,0x18
0xdf54 	00d781a3          	sb	a3,3(a5)
0xdf58 	00008067          	ret
0xdf5c 	00008067          	ret
0xdf60 	01c0006f          	j	1de38 <strcmp+0x1c>
0xdf64 	00150513          	addi	a0,a0,1
0xdf68 	00158593          	addi	a1,a1,1
0xdf6c 	fff54783          	lbu	a5,-1(a0)
0xdf70 	fff5c703          	lbu	a4,-1(a1)
0xdf74 	08e79863          	bne	a5,a4,1dec0 <strcmp+0xa4>
0xdf78 	08078263          	beqz	a5,1deb8 <strcmp+0x9c>
0xdf7c 	00b567b3          	or	a5,a0,a1
0xdf80 	0037f793          	andi	a5,a5,3
0xdf84 	fe0790e3          	bnez	a5,1de20 <strcmp+0x4>
0xdf88 	00052703          	lw	a4,0(a0)
0xdf8c 	0005a683          	lw	a3,0(a1)
0xdf90 	04d71a63          	bne	a4,a3,1dea0 <strcmp+0x84>
0xdf94 	feff0837          	lui	a6,0xfeff0
0xdf98 	eff80813          	addi	a6,a6,-257 # fefefeff <heap_memory_used+0xfefce127>
0xdf9c 	fff74793          	not	a5,a4
0xdfa0 	80808637          	lui	a2,0x80808
0xdfa4 	01070733          	add	a4,a4,a6
0xdfa8 	00e7f7b3          	and	a5,a5,a4
0xdfac 	08060613          	addi	a2,a2,128 # 80808080 <heap_memory_used+0x807e62a8>
0xdfb0 	00c7f7b3          	and	a5,a5,a2
0xdfb4 	00078663          	beqz	a5,1de7c <strcmp+0x60>
0xdfb8 	0440006f          	j	1deb8 <strcmp+0x9c>
0xdfbc 	04079063          	bnez	a5,1deb8 <strcmp+0x9c>
0xdfc0 	00450513          	addi	a0,a0,4
0xdfc4 	00052703          	lw	a4,0(a0)
0xdfc8 	00458593          	addi	a1,a1,4
0xdfcc 	0005a683          	lw	a3,0(a1)
0xdfd0 	010707b3          	add	a5,a4,a6
0xdfd4 	fff74893          	not	a7,a4
0xdfd8 	0117f7b3          	and	a5,a5,a7
0xdfdc 	00c7f7b3          	and	a5,a5,a2
0xdfe0 	fcd70ee3          	beq	a4,a3,1de78 <strcmp+0x5c>
0xdfe4 	0ff77793          	andi	a5,a4,255
0xdfe8 	0ff6f613          	andi	a2,a3,255
0xdfec 	02c78263          	beq	a5,a2,1decc <strcmp+0xb0>
0xdff0 	00100513          	li	a0,1
0xdff4 	06c7e463          	bltu	a5,a2,1df18 <strcmp+0xfc>
0xdff8 	00008067          	ret
0xdffc 	00000513          	li	a0,0
0xe000 	00008067          	ret
0xe004 	04e7ec63          	bltu	a5,a4,1df18 <strcmp+0xfc>
0xe008 	00100513          	li	a0,1
0xe00c 	00008067          	ret
0xe010 	00000513          	li	a0,0
0xe014 	fe0782e3          	beqz	a5,1deb4 <strcmp+0x98>
0xe018 	00875793          	srli	a5,a4,0x8
0xe01c 	0086d613          	srli	a2,a3,0x8
0xe020 	0ff7f793          	andi	a5,a5,255
0xe024 	0ff67613          	andi	a2,a2,255
0xe028 	fcc794e3          	bne	a5,a2,1deac <strcmp+0x90>
0xe02c 	fc0786e3          	beqz	a5,1deb4 <strcmp+0x98>
0xe030 	01075793          	srli	a5,a4,0x10
0xe034 	0106d613          	srli	a2,a3,0x10
0xe038 	0ff7f793          	andi	a5,a5,255
0xe03c 	0ff67613          	andi	a2,a2,255
0xe040 	fac798e3          	bne	a5,a2,1deac <strcmp+0x90>
0xe044 	fa078ae3          	beqz	a5,1deb4 <strcmp+0x98>
0xe048 	01875713          	srli	a4,a4,0x18
0xe04c 	0186d693          	srli	a3,a3,0x18
0xe050 	fad704e3          	beq	a4,a3,1deb4 <strcmp+0x98>
0xe054 	00100513          	li	a0,1
0xe058 	fad770e3          	bleu	a3,a4,1deb4 <strcmp+0x98>
0xe05c 	fff00513          	li	a0,-1
0xe060 	00008067          	ret
